
water_bottle_1.elf:     file format elf32-littlearm

Sections:
Idx Name          Size      VMA       LMA       File off  Algn
  0 .isr_vector   000000c0  08000000  08000000  00001000  2**0
                  CONTENTS, ALLOC, LOAD, READONLY, DATA
  1 .text         0000773c  080000c0  080000c0  000010c0  2**2
                  CONTENTS, ALLOC, LOAD, READONLY, CODE
  2 .rodata       00000338  080077fc  080077fc  000087fc  2**2
                  CONTENTS, ALLOC, LOAD, READONLY, DATA
  3 .ARM.extab    00000000  08007b34  08007b34  00009010  2**0
                  CONTENTS, READONLY
  4 .ARM          00000000  08007b34  08007b34  00009010  2**0
                  CONTENTS, READONLY
  5 .preinit_array 00000000  08007b34  08007b34  00009010  2**0
                  CONTENTS, ALLOC, LOAD, DATA
  6 .init_array   00000004  08007b34  08007b34  00008b34  2**2
                  CONTENTS, ALLOC, LOAD, READONLY, DATA
  7 .fini_array   00000004  08007b38  08007b38  00008b38  2**2
                  CONTENTS, ALLOC, LOAD, READONLY, DATA
  8 .data         00000010  20000000  08007b3c  00009000  2**2
                  CONTENTS, ALLOC, LOAD, DATA
  9 .bss          00000810  20000010  08007b4c  00009010  2**3
                  ALLOC
 10 ._user_heap_stack 00000600  20000820  08007b4c  00009820  2**0
                  ALLOC
 11 .ARM.attributes 00000028  00000000  00000000  00009010  2**0
                  CONTENTS, READONLY
 12 .debug_info   000250cc  00000000  00000000  00009038  2**0
                  CONTENTS, READONLY, DEBUGGING, OCTETS
 13 .debug_abbrev 00005537  00000000  00000000  0002e104  2**0
                  CONTENTS, READONLY, DEBUGGING, OCTETS
 14 .debug_loclists 0000f6f5  00000000  00000000  0003363b  2**0
                  CONTENTS, READONLY, DEBUGGING, OCTETS
 15 .debug_aranges 000014e8  00000000  00000000  00042d30  2**3
                  CONTENTS, READONLY, DEBUGGING, OCTETS
 16 .debug_rnglists 00001763  00000000  00000000  00044218  2**0
                  CONTENTS, READONLY, DEBUGGING, OCTETS
 17 .debug_macro  000134ee  00000000  00000000  0004597b  2**0
                  CONTENTS, READONLY, DEBUGGING, OCTETS
 18 .debug_line   0002663b  00000000  00000000  00058e69  2**0
                  CONTENTS, READONLY, DEBUGGING, OCTETS
 19 .debug_str    0006a623  00000000  00000000  0007f4a4  2**0
                  CONTENTS, READONLY, DEBUGGING, OCTETS
 20 .comment      00000043  00000000  00000000  000e9ac7  2**0
                  CONTENTS, READONLY
 21 .debug_frame  00003c68  00000000  00000000  000e9b0c  2**2
                  CONTENTS, READONLY, DEBUGGING, OCTETS
 22 .debug_line_str 0000004a  00000000  00000000  000ed774  2**0
                  CONTENTS, READONLY, DEBUGGING, OCTETS

Disassembly of section .text:

080000c0 <__do_global_dtors_aux>:
 80000c0:	b510      	push	{r4, lr}
 80000c2:	4c06      	ldr	r4, [pc, #24]	@ (80000dc <__do_global_dtors_aux+0x1c>)
 80000c4:	7823      	ldrb	r3, [r4, #0]
 80000c6:	2b00      	cmp	r3, #0
 80000c8:	d107      	bne.n	80000da <__do_global_dtors_aux+0x1a>
 80000ca:	4b05      	ldr	r3, [pc, #20]	@ (80000e0 <__do_global_dtors_aux+0x20>)
 80000cc:	2b00      	cmp	r3, #0
 80000ce:	d002      	beq.n	80000d6 <__do_global_dtors_aux+0x16>
 80000d0:	4804      	ldr	r0, [pc, #16]	@ (80000e4 <__do_global_dtors_aux+0x24>)
 80000d2:	e000      	b.n	80000d6 <__do_global_dtors_aux+0x16>
 80000d4:	bf00      	nop
 80000d6:	2301      	movs	r3, #1
 80000d8:	7023      	strb	r3, [r4, #0]
 80000da:	bd10      	pop	{r4, pc}
 80000dc:	20000010 	.word	0x20000010
 80000e0:	00000000 	.word	0x00000000
 80000e4:	080077e4 	.word	0x080077e4

080000e8 <frame_dummy>:
 80000e8:	4b04      	ldr	r3, [pc, #16]	@ (80000fc <frame_dummy+0x14>)
 80000ea:	b510      	push	{r4, lr}
 80000ec:	2b00      	cmp	r3, #0
 80000ee:	d003      	beq.n	80000f8 <frame_dummy+0x10>
 80000f0:	4903      	ldr	r1, [pc, #12]	@ (8000100 <frame_dummy+0x18>)
 80000f2:	4804      	ldr	r0, [pc, #16]	@ (8000104 <frame_dummy+0x1c>)
 80000f4:	e000      	b.n	80000f8 <frame_dummy+0x10>
 80000f6:	bf00      	nop
 80000f8:	bd10      	pop	{r4, pc}
 80000fa:	46c0      	nop			@ (mov r8, r8)
 80000fc:	00000000 	.word	0x00000000
 8000100:	20000014 	.word	0x20000014
 8000104:	080077e4 	.word	0x080077e4

08000108 <strlen>:
 8000108:	2300      	movs	r3, #0
 800010a:	5cc2      	ldrb	r2, [r0, r3]
 800010c:	3301      	adds	r3, #1
 800010e:	2a00      	cmp	r2, #0
 8000110:	d1fb      	bne.n	800010a <strlen+0x2>
 8000112:	1e58      	subs	r0, r3, #1
 8000114:	4770      	bx	lr
	...

08000118 <__gnu_thumb1_case_uqi>:
 8000118:	b402      	push	{r1}
 800011a:	4671      	mov	r1, lr
 800011c:	0849      	lsrs	r1, r1, #1
 800011e:	0049      	lsls	r1, r1, #1
 8000120:	5c09      	ldrb	r1, [r1, r0]
 8000122:	0049      	lsls	r1, r1, #1
 8000124:	448e      	add	lr, r1
 8000126:	bc02      	pop	{r1}
 8000128:	4770      	bx	lr
 800012a:	46c0      	nop			@ (mov r8, r8)

0800012c <__gnu_thumb1_case_uhi>:
 800012c:	b403      	push	{r0, r1}
 800012e:	4671      	mov	r1, lr
 8000130:	0849      	lsrs	r1, r1, #1
 8000132:	0040      	lsls	r0, r0, #1
 8000134:	0049      	lsls	r1, r1, #1
 8000136:	5a09      	ldrh	r1, [r1, r0]
 8000138:	0049      	lsls	r1, r1, #1
 800013a:	448e      	add	lr, r1
 800013c:	bc03      	pop	{r0, r1}
 800013e:	4770      	bx	lr

08000140 <__udivsi3>:
 8000140:	2200      	movs	r2, #0
 8000142:	0843      	lsrs	r3, r0, #1
 8000144:	428b      	cmp	r3, r1
 8000146:	d374      	bcc.n	8000232 <__udivsi3+0xf2>
 8000148:	0903      	lsrs	r3, r0, #4
 800014a:	428b      	cmp	r3, r1
 800014c:	d35f      	bcc.n	800020e <__udivsi3+0xce>
 800014e:	0a03      	lsrs	r3, r0, #8
 8000150:	428b      	cmp	r3, r1
 8000152:	d344      	bcc.n	80001de <__udivsi3+0x9e>
 8000154:	0b03      	lsrs	r3, r0, #12
 8000156:	428b      	cmp	r3, r1
 8000158:	d328      	bcc.n	80001ac <__udivsi3+0x6c>
 800015a:	0c03      	lsrs	r3, r0, #16
 800015c:	428b      	cmp	r3, r1
 800015e:	d30d      	bcc.n	800017c <__udivsi3+0x3c>
 8000160:	22ff      	movs	r2, #255	@ 0xff
 8000162:	0209      	lsls	r1, r1, #8
 8000164:	ba12      	rev	r2, r2
 8000166:	0c03      	lsrs	r3, r0, #16
 8000168:	428b      	cmp	r3, r1
 800016a:	d302      	bcc.n	8000172 <__udivsi3+0x32>
 800016c:	1212      	asrs	r2, r2, #8
 800016e:	0209      	lsls	r1, r1, #8
 8000170:	d065      	beq.n	800023e <__udivsi3+0xfe>
 8000172:	0b03      	lsrs	r3, r0, #12
 8000174:	428b      	cmp	r3, r1
 8000176:	d319      	bcc.n	80001ac <__udivsi3+0x6c>
 8000178:	e000      	b.n	800017c <__udivsi3+0x3c>
 800017a:	0a09      	lsrs	r1, r1, #8
 800017c:	0bc3      	lsrs	r3, r0, #15
 800017e:	428b      	cmp	r3, r1
 8000180:	d301      	bcc.n	8000186 <__udivsi3+0x46>
 8000182:	03cb      	lsls	r3, r1, #15
 8000184:	1ac0      	subs	r0, r0, r3
 8000186:	4152      	adcs	r2, r2
 8000188:	0b83      	lsrs	r3, r0, #14
 800018a:	428b      	cmp	r3, r1
 800018c:	d301      	bcc.n	8000192 <__udivsi3+0x52>
 800018e:	038b      	lsls	r3, r1, #14
 8000190:	1ac0      	subs	r0, r0, r3
 8000192:	4152      	adcs	r2, r2
 8000194:	0b43      	lsrs	r3, r0, #13
 8000196:	428b      	cmp	r3, r1
 8000198:	d301      	bcc.n	800019e <__udivsi3+0x5e>
 800019a:	034b      	lsls	r3, r1, #13
 800019c:	1ac0      	subs	r0, r0, r3
 800019e:	4152      	adcs	r2, r2
 80001a0:	0b03      	lsrs	r3, r0, #12
 80001a2:	428b      	cmp	r3, r1
 80001a4:	d301      	bcc.n	80001aa <__udivsi3+0x6a>
 80001a6:	030b      	lsls	r3, r1, #12
 80001a8:	1ac0      	subs	r0, r0, r3
 80001aa:	4152      	adcs	r2, r2
 80001ac:	0ac3      	lsrs	r3, r0, #11
 80001ae:	428b      	cmp	r3, r1
 80001b0:	d301      	bcc.n	80001b6 <__udivsi3+0x76>
 80001b2:	02cb      	lsls	r3, r1, #11
 80001b4:	1ac0      	subs	r0, r0, r3
 80001b6:	4152      	adcs	r2, r2
 80001b8:	0a83      	lsrs	r3, r0, #10
 80001ba:	428b      	cmp	r3, r1
 80001bc:	d301      	bcc.n	80001c2 <__udivsi3+0x82>
 80001be:	028b      	lsls	r3, r1, #10
 80001c0:	1ac0      	subs	r0, r0, r3
 80001c2:	4152      	adcs	r2, r2
 80001c4:	0a43      	lsrs	r3, r0, #9
 80001c6:	428b      	cmp	r3, r1
 80001c8:	d301      	bcc.n	80001ce <__udivsi3+0x8e>
 80001ca:	024b      	lsls	r3, r1, #9
 80001cc:	1ac0      	subs	r0, r0, r3
 80001ce:	4152      	adcs	r2, r2
 80001d0:	0a03      	lsrs	r3, r0, #8
 80001d2:	428b      	cmp	r3, r1
 80001d4:	d301      	bcc.n	80001da <__udivsi3+0x9a>
 80001d6:	020b      	lsls	r3, r1, #8
 80001d8:	1ac0      	subs	r0, r0, r3
 80001da:	4152      	adcs	r2, r2
 80001dc:	d2cd      	bcs.n	800017a <__udivsi3+0x3a>
 80001de:	09c3      	lsrs	r3, r0, #7
 80001e0:	428b      	cmp	r3, r1
 80001e2:	d301      	bcc.n	80001e8 <__udivsi3+0xa8>
 80001e4:	01cb      	lsls	r3, r1, #7
 80001e6:	1ac0      	subs	r0, r0, r3
 80001e8:	4152      	adcs	r2, r2
 80001ea:	0983      	lsrs	r3, r0, #6
 80001ec:	428b      	cmp	r3, r1
 80001ee:	d301      	bcc.n	80001f4 <__udivsi3+0xb4>
 80001f0:	018b      	lsls	r3, r1, #6
 80001f2:	1ac0      	subs	r0, r0, r3
 80001f4:	4152      	adcs	r2, r2
 80001f6:	0943      	lsrs	r3, r0, #5
 80001f8:	428b      	cmp	r3, r1
 80001fa:	d301      	bcc.n	8000200 <__udivsi3+0xc0>
 80001fc:	014b      	lsls	r3, r1, #5
 80001fe:	1ac0      	subs	r0, r0, r3
 8000200:	4152      	adcs	r2, r2
 8000202:	0903      	lsrs	r3, r0, #4
 8000204:	428b      	cmp	r3, r1
 8000206:	d301      	bcc.n	800020c <__udivsi3+0xcc>
 8000208:	010b      	lsls	r3, r1, #4
 800020a:	1ac0      	subs	r0, r0, r3
 800020c:	4152      	adcs	r2, r2
 800020e:	08c3      	lsrs	r3, r0, #3
 8000210:	428b      	cmp	r3, r1
 8000212:	d301      	bcc.n	8000218 <__udivsi3+0xd8>
 8000214:	00cb      	lsls	r3, r1, #3
 8000216:	1ac0      	subs	r0, r0, r3
 8000218:	4152      	adcs	r2, r2
 800021a:	0883      	lsrs	r3, r0, #2
 800021c:	428b      	cmp	r3, r1
 800021e:	d301      	bcc.n	8000224 <__udivsi3+0xe4>
 8000220:	008b      	lsls	r3, r1, #2
 8000222:	1ac0      	subs	r0, r0, r3
 8000224:	4152      	adcs	r2, r2
 8000226:	0843      	lsrs	r3, r0, #1
 8000228:	428b      	cmp	r3, r1
 800022a:	d301      	bcc.n	8000230 <__udivsi3+0xf0>
 800022c:	004b      	lsls	r3, r1, #1
 800022e:	1ac0      	subs	r0, r0, r3
 8000230:	4152      	adcs	r2, r2
 8000232:	1a41      	subs	r1, r0, r1
 8000234:	d200      	bcs.n	8000238 <__udivsi3+0xf8>
 8000236:	4601      	mov	r1, r0
 8000238:	4152      	adcs	r2, r2
 800023a:	4610      	mov	r0, r2
 800023c:	4770      	bx	lr
 800023e:	e7ff      	b.n	8000240 <__udivsi3+0x100>
 8000240:	b501      	push	{r0, lr}
 8000242:	2000      	movs	r0, #0
 8000244:	f000 f8f0 	bl	8000428 <__aeabi_idiv0>
 8000248:	bd02      	pop	{r1, pc}
 800024a:	46c0      	nop			@ (mov r8, r8)

0800024c <__aeabi_uidivmod>:
 800024c:	2900      	cmp	r1, #0
 800024e:	d0f7      	beq.n	8000240 <__udivsi3+0x100>
 8000250:	e776      	b.n	8000140 <__udivsi3>
 8000252:	4770      	bx	lr

08000254 <__divsi3>:
 8000254:	4603      	mov	r3, r0
 8000256:	430b      	orrs	r3, r1
 8000258:	d47f      	bmi.n	800035a <__divsi3+0x106>
 800025a:	2200      	movs	r2, #0
 800025c:	0843      	lsrs	r3, r0, #1
 800025e:	428b      	cmp	r3, r1
 8000260:	d374      	bcc.n	800034c <__divsi3+0xf8>
 8000262:	0903      	lsrs	r3, r0, #4
 8000264:	428b      	cmp	r3, r1
 8000266:	d35f      	bcc.n	8000328 <__divsi3+0xd4>
 8000268:	0a03      	lsrs	r3, r0, #8
 800026a:	428b      	cmp	r3, r1
 800026c:	d344      	bcc.n	80002f8 <__divsi3+0xa4>
 800026e:	0b03      	lsrs	r3, r0, #12
 8000270:	428b      	cmp	r3, r1
 8000272:	d328      	bcc.n	80002c6 <__divsi3+0x72>
 8000274:	0c03      	lsrs	r3, r0, #16
 8000276:	428b      	cmp	r3, r1
 8000278:	d30d      	bcc.n	8000296 <__divsi3+0x42>
 800027a:	22ff      	movs	r2, #255	@ 0xff
 800027c:	0209      	lsls	r1, r1, #8
 800027e:	ba12      	rev	r2, r2
 8000280:	0c03      	lsrs	r3, r0, #16
 8000282:	428b      	cmp	r3, r1
 8000284:	d302      	bcc.n	800028c <__divsi3+0x38>
 8000286:	1212      	asrs	r2, r2, #8
 8000288:	0209      	lsls	r1, r1, #8
 800028a:	d065      	beq.n	8000358 <__divsi3+0x104>
 800028c:	0b03      	lsrs	r3, r0, #12
 800028e:	428b      	cmp	r3, r1
 8000290:	d319      	bcc.n	80002c6 <__divsi3+0x72>
 8000292:	e000      	b.n	8000296 <__divsi3+0x42>
 8000294:	0a09      	lsrs	r1, r1, #8
 8000296:	0bc3      	lsrs	r3, r0, #15
 8000298:	428b      	cmp	r3, r1
 800029a:	d301      	bcc.n	80002a0 <__divsi3+0x4c>
 800029c:	03cb      	lsls	r3, r1, #15
 800029e:	1ac0      	subs	r0, r0, r3
 80002a0:	4152      	adcs	r2, r2
 80002a2:	0b83      	lsrs	r3, r0, #14
 80002a4:	428b      	cmp	r3, r1
 80002a6:	d301      	bcc.n	80002ac <__divsi3+0x58>
 80002a8:	038b      	lsls	r3, r1, #14
 80002aa:	1ac0      	subs	r0, r0, r3
 80002ac:	4152      	adcs	r2, r2
 80002ae:	0b43      	lsrs	r3, r0, #13
 80002b0:	428b      	cmp	r3, r1
 80002b2:	d301      	bcc.n	80002b8 <__divsi3+0x64>
 80002b4:	034b      	lsls	r3, r1, #13
 80002b6:	1ac0      	subs	r0, r0, r3
 80002b8:	4152      	adcs	r2, r2
 80002ba:	0b03      	lsrs	r3, r0, #12
 80002bc:	428b      	cmp	r3, r1
 80002be:	d301      	bcc.n	80002c4 <__divsi3+0x70>
 80002c0:	030b      	lsls	r3, r1, #12
 80002c2:	1ac0      	subs	r0, r0, r3
 80002c4:	4152      	adcs	r2, r2
 80002c6:	0ac3      	lsrs	r3, r0, #11
 80002c8:	428b      	cmp	r3, r1
 80002ca:	d301      	bcc.n	80002d0 <__divsi3+0x7c>
 80002cc:	02cb      	lsls	r3, r1, #11
 80002ce:	1ac0      	subs	r0, r0, r3
 80002d0:	4152      	adcs	r2, r2
 80002d2:	0a83      	lsrs	r3, r0, #10
 80002d4:	428b      	cmp	r3, r1
 80002d6:	d301      	bcc.n	80002dc <__divsi3+0x88>
 80002d8:	028b      	lsls	r3, r1, #10
 80002da:	1ac0      	subs	r0, r0, r3
 80002dc:	4152      	adcs	r2, r2
 80002de:	0a43      	lsrs	r3, r0, #9
 80002e0:	428b      	cmp	r3, r1
 80002e2:	d301      	bcc.n	80002e8 <__divsi3+0x94>
 80002e4:	024b      	lsls	r3, r1, #9
 80002e6:	1ac0      	subs	r0, r0, r3
 80002e8:	4152      	adcs	r2, r2
 80002ea:	0a03      	lsrs	r3, r0, #8
 80002ec:	428b      	cmp	r3, r1
 80002ee:	d301      	bcc.n	80002f4 <__divsi3+0xa0>
 80002f0:	020b      	lsls	r3, r1, #8
 80002f2:	1ac0      	subs	r0, r0, r3
 80002f4:	4152      	adcs	r2, r2
 80002f6:	d2cd      	bcs.n	8000294 <__divsi3+0x40>
 80002f8:	09c3      	lsrs	r3, r0, #7
 80002fa:	428b      	cmp	r3, r1
 80002fc:	d301      	bcc.n	8000302 <__divsi3+0xae>
 80002fe:	01cb      	lsls	r3, r1, #7
 8000300:	1ac0      	subs	r0, r0, r3
 8000302:	4152      	adcs	r2, r2
 8000304:	0983      	lsrs	r3, r0, #6
 8000306:	428b      	cmp	r3, r1
 8000308:	d301      	bcc.n	800030e <__divsi3+0xba>
 800030a:	018b      	lsls	r3, r1, #6
 800030c:	1ac0      	subs	r0, r0, r3
 800030e:	4152      	adcs	r2, r2
 8000310:	0943      	lsrs	r3, r0, #5
 8000312:	428b      	cmp	r3, r1
 8000314:	d301      	bcc.n	800031a <__divsi3+0xc6>
 8000316:	014b      	lsls	r3, r1, #5
 8000318:	1ac0      	subs	r0, r0, r3
 800031a:	4152      	adcs	r2, r2
 800031c:	0903      	lsrs	r3, r0, #4
 800031e:	428b      	cmp	r3, r1
 8000320:	d301      	bcc.n	8000326 <__divsi3+0xd2>
 8000322:	010b      	lsls	r3, r1, #4
 8000324:	1ac0      	subs	r0, r0, r3
 8000326:	4152      	adcs	r2, r2
 8000328:	08c3      	lsrs	r3, r0, #3
 800032a:	428b      	cmp	r3, r1
 800032c:	d301      	bcc.n	8000332 <__divsi3+0xde>
 800032e:	00cb      	lsls	r3, r1, #3
 8000330:	1ac0      	subs	r0, r0, r3
 8000332:	4152      	adcs	r2, r2
 8000334:	0883      	lsrs	r3, r0, #2
 8000336:	428b      	cmp	r3, r1
 8000338:	d301      	bcc.n	800033e <__divsi3+0xea>
 800033a:	008b      	lsls	r3, r1, #2
 800033c:	1ac0      	subs	r0, r0, r3
 800033e:	4152      	adcs	r2, r2
 8000340:	0843      	lsrs	r3, r0, #1
 8000342:	428b      	cmp	r3, r1
 8000344:	d301      	bcc.n	800034a <__divsi3+0xf6>
 8000346:	004b      	lsls	r3, r1, #1
 8000348:	1ac0      	subs	r0, r0, r3
 800034a:	4152      	adcs	r2, r2
 800034c:	1a41      	subs	r1, r0, r1
 800034e:	d200      	bcs.n	8000352 <__divsi3+0xfe>
 8000350:	4601      	mov	r1, r0
 8000352:	4152      	adcs	r2, r2
 8000354:	4610      	mov	r0, r2
 8000356:	4770      	bx	lr
 8000358:	e05d      	b.n	8000416 <__divsi3+0x1c2>
 800035a:	0fca      	lsrs	r2, r1, #31
 800035c:	d000      	beq.n	8000360 <__divsi3+0x10c>
 800035e:	4249      	negs	r1, r1
 8000360:	1003      	asrs	r3, r0, #32
 8000362:	d300      	bcc.n	8000366 <__divsi3+0x112>
 8000364:	4240      	negs	r0, r0
 8000366:	4053      	eors	r3, r2
 8000368:	2200      	movs	r2, #0
 800036a:	469c      	mov	ip, r3
 800036c:	0903      	lsrs	r3, r0, #4
 800036e:	428b      	cmp	r3, r1
 8000370:	d32d      	bcc.n	80003ce <__divsi3+0x17a>
 8000372:	0a03      	lsrs	r3, r0, #8
 8000374:	428b      	cmp	r3, r1
 8000376:	d312      	bcc.n	800039e <__divsi3+0x14a>
 8000378:	22fc      	movs	r2, #252	@ 0xfc
 800037a:	0189      	lsls	r1, r1, #6
 800037c:	ba12      	rev	r2, r2
 800037e:	0a03      	lsrs	r3, r0, #8
 8000380:	428b      	cmp	r3, r1
 8000382:	d30c      	bcc.n	800039e <__divsi3+0x14a>
 8000384:	0189      	lsls	r1, r1, #6
 8000386:	1192      	asrs	r2, r2, #6
 8000388:	428b      	cmp	r3, r1
 800038a:	d308      	bcc.n	800039e <__divsi3+0x14a>
 800038c:	0189      	lsls	r1, r1, #6
 800038e:	1192      	asrs	r2, r2, #6
 8000390:	428b      	cmp	r3, r1
 8000392:	d304      	bcc.n	800039e <__divsi3+0x14a>
 8000394:	0189      	lsls	r1, r1, #6
 8000396:	d03a      	beq.n	800040e <__divsi3+0x1ba>
 8000398:	1192      	asrs	r2, r2, #6
 800039a:	e000      	b.n	800039e <__divsi3+0x14a>
 800039c:	0989      	lsrs	r1, r1, #6
 800039e:	09c3      	lsrs	r3, r0, #7
 80003a0:	428b      	cmp	r3, r1
 80003a2:	d301      	bcc.n	80003a8 <__divsi3+0x154>
 80003a4:	01cb      	lsls	r3, r1, #7
 80003a6:	1ac0      	subs	r0, r0, r3
 80003a8:	4152      	adcs	r2, r2
 80003aa:	0983      	lsrs	r3, r0, #6
 80003ac:	428b      	cmp	r3, r1
 80003ae:	d301      	bcc.n	80003b4 <__divsi3+0x160>
 80003b0:	018b      	lsls	r3, r1, #6
 80003b2:	1ac0      	subs	r0, r0, r3
 80003b4:	4152      	adcs	r2, r2
 80003b6:	0943      	lsrs	r3, r0, #5
 80003b8:	428b      	cmp	r3, r1
 80003ba:	d301      	bcc.n	80003c0 <__divsi3+0x16c>
 80003bc:	014b      	lsls	r3, r1, #5
 80003be:	1ac0      	subs	r0, r0, r3
 80003c0:	4152      	adcs	r2, r2
 80003c2:	0903      	lsrs	r3, r0, #4
 80003c4:	428b      	cmp	r3, r1
 80003c6:	d301      	bcc.n	80003cc <__divsi3+0x178>
 80003c8:	010b      	lsls	r3, r1, #4
 80003ca:	1ac0      	subs	r0, r0, r3
 80003cc:	4152      	adcs	r2, r2
 80003ce:	08c3      	lsrs	r3, r0, #3
 80003d0:	428b      	cmp	r3, r1
 80003d2:	d301      	bcc.n	80003d8 <__divsi3+0x184>
 80003d4:	00cb      	lsls	r3, r1, #3
 80003d6:	1ac0      	subs	r0, r0, r3
 80003d8:	4152      	adcs	r2, r2
 80003da:	0883      	lsrs	r3, r0, #2
 80003dc:	428b      	cmp	r3, r1
 80003de:	d301      	bcc.n	80003e4 <__divsi3+0x190>
 80003e0:	008b      	lsls	r3, r1, #2
 80003e2:	1ac0      	subs	r0, r0, r3
 80003e4:	4152      	adcs	r2, r2
 80003e6:	d2d9      	bcs.n	800039c <__divsi3+0x148>
 80003e8:	0843      	lsrs	r3, r0, #1
 80003ea:	428b      	cmp	r3, r1
 80003ec:	d301      	bcc.n	80003f2 <__divsi3+0x19e>
 80003ee:	004b      	lsls	r3, r1, #1
 80003f0:	1ac0      	subs	r0, r0, r3
 80003f2:	4152      	adcs	r2, r2
 80003f4:	1a41      	subs	r1, r0, r1
 80003f6:	d200      	bcs.n	80003fa <__divsi3+0x1a6>
 80003f8:	4601      	mov	r1, r0
 80003fa:	4663      	mov	r3, ip
 80003fc:	4152      	adcs	r2, r2
 80003fe:	105b      	asrs	r3, r3, #1
 8000400:	4610      	mov	r0, r2
 8000402:	d301      	bcc.n	8000408 <__divsi3+0x1b4>
 8000404:	4240      	negs	r0, r0
 8000406:	2b00      	cmp	r3, #0
 8000408:	d500      	bpl.n	800040c <__divsi3+0x1b8>
 800040a:	4249      	negs	r1, r1
 800040c:	4770      	bx	lr
 800040e:	4663      	mov	r3, ip
 8000410:	105b      	asrs	r3, r3, #1
 8000412:	d300      	bcc.n	8000416 <__divsi3+0x1c2>
 8000414:	4240      	negs	r0, r0
 8000416:	b501      	push	{r0, lr}
 8000418:	2000      	movs	r0, #0
 800041a:	f000 f805 	bl	8000428 <__aeabi_idiv0>
 800041e:	bd02      	pop	{r1, pc}

08000420 <__aeabi_idivmod>:
 8000420:	2900      	cmp	r1, #0
 8000422:	d0f8      	beq.n	8000416 <__divsi3+0x1c2>
 8000424:	e716      	b.n	8000254 <__divsi3>
 8000426:	4770      	bx	lr

08000428 <__aeabi_idiv0>:
 8000428:	4770      	bx	lr
 800042a:	46c0      	nop			@ (mov r8, r8)

0800042c <__aeabi_llsr>:
 800042c:	40d0      	lsrs	r0, r2
 800042e:	000b      	movs	r3, r1
 8000430:	40d1      	lsrs	r1, r2
 8000432:	469c      	mov	ip, r3
 8000434:	3a20      	subs	r2, #32
 8000436:	40d3      	lsrs	r3, r2
 8000438:	4318      	orrs	r0, r3
 800043a:	4252      	negs	r2, r2
 800043c:	4663      	mov	r3, ip
 800043e:	4093      	lsls	r3, r2
 8000440:	4318      	orrs	r0, r3
 8000442:	4770      	bx	lr

08000444 <__aeabi_cfrcmple>:
 8000444:	4684      	mov	ip, r0
 8000446:	0008      	movs	r0, r1
 8000448:	4661      	mov	r1, ip
 800044a:	e7ff      	b.n	800044c <__aeabi_cfcmpeq>

0800044c <__aeabi_cfcmpeq>:
 800044c:	b51f      	push	{r0, r1, r2, r3, r4, lr}
 800044e:	f000 fbc3 	bl	8000bd8 <__lesf2>
 8000452:	2800      	cmp	r0, #0
 8000454:	d401      	bmi.n	800045a <__aeabi_cfcmpeq+0xe>
 8000456:	2100      	movs	r1, #0
 8000458:	42c8      	cmn	r0, r1
 800045a:	bd1f      	pop	{r0, r1, r2, r3, r4, pc}

0800045c <__aeabi_fcmpeq>:
 800045c:	b510      	push	{r4, lr}
 800045e:	f000 fb4b 	bl	8000af8 <__eqsf2>
 8000462:	4240      	negs	r0, r0
 8000464:	3001      	adds	r0, #1
 8000466:	bd10      	pop	{r4, pc}

08000468 <__aeabi_fcmplt>:
 8000468:	b510      	push	{r4, lr}
 800046a:	f000 fbb5 	bl	8000bd8 <__lesf2>
 800046e:	2800      	cmp	r0, #0
 8000470:	db01      	blt.n	8000476 <__aeabi_fcmplt+0xe>
 8000472:	2000      	movs	r0, #0
 8000474:	bd10      	pop	{r4, pc}
 8000476:	2001      	movs	r0, #1
 8000478:	bd10      	pop	{r4, pc}
 800047a:	46c0      	nop			@ (mov r8, r8)

0800047c <__aeabi_fcmple>:
 800047c:	b510      	push	{r4, lr}
 800047e:	f000 fbab 	bl	8000bd8 <__lesf2>
 8000482:	2800      	cmp	r0, #0
 8000484:	dd01      	ble.n	800048a <__aeabi_fcmple+0xe>
 8000486:	2000      	movs	r0, #0
 8000488:	bd10      	pop	{r4, pc}
 800048a:	2001      	movs	r0, #1
 800048c:	bd10      	pop	{r4, pc}
 800048e:	46c0      	nop			@ (mov r8, r8)

08000490 <__aeabi_fcmpgt>:
 8000490:	b510      	push	{r4, lr}
 8000492:	f000 fb59 	bl	8000b48 <__gesf2>
 8000496:	2800      	cmp	r0, #0
 8000498:	dc01      	bgt.n	800049e <__aeabi_fcmpgt+0xe>
 800049a:	2000      	movs	r0, #0
 800049c:	bd10      	pop	{r4, pc}
 800049e:	2001      	movs	r0, #1
 80004a0:	bd10      	pop	{r4, pc}
 80004a2:	46c0      	nop			@ (mov r8, r8)

080004a4 <__aeabi_fcmpge>:
 80004a4:	b510      	push	{r4, lr}
 80004a6:	f000 fb4f 	bl	8000b48 <__gesf2>
 80004aa:	2800      	cmp	r0, #0
 80004ac:	da01      	bge.n	80004b2 <__aeabi_fcmpge+0xe>
 80004ae:	2000      	movs	r0, #0
 80004b0:	bd10      	pop	{r4, pc}
 80004b2:	2001      	movs	r0, #1
 80004b4:	bd10      	pop	{r4, pc}
 80004b6:	46c0      	nop			@ (mov r8, r8)

080004b8 <__aeabi_f2uiz>:
 80004b8:	219e      	movs	r1, #158	@ 0x9e
 80004ba:	b510      	push	{r4, lr}
 80004bc:	05c9      	lsls	r1, r1, #23
 80004be:	1c04      	adds	r4, r0, #0
 80004c0:	f7ff fff0 	bl	80004a4 <__aeabi_fcmpge>
 80004c4:	2800      	cmp	r0, #0
 80004c6:	d103      	bne.n	80004d0 <__aeabi_f2uiz+0x18>
 80004c8:	1c20      	adds	r0, r4, #0
 80004ca:	f000 ff8b 	bl	80013e4 <__aeabi_f2iz>
 80004ce:	bd10      	pop	{r4, pc}
 80004d0:	219e      	movs	r1, #158	@ 0x9e
 80004d2:	1c20      	adds	r0, r4, #0
 80004d4:	05c9      	lsls	r1, r1, #23
 80004d6:	f000 fd21 	bl	8000f1c <__aeabi_fsub>
 80004da:	f000 ff83 	bl	80013e4 <__aeabi_f2iz>
 80004de:	2380      	movs	r3, #128	@ 0x80
 80004e0:	061b      	lsls	r3, r3, #24
 80004e2:	469c      	mov	ip, r3
 80004e4:	4460      	add	r0, ip
 80004e6:	e7f2      	b.n	80004ce <__aeabi_f2uiz+0x16>

080004e8 <__aeabi_fadd>:
 80004e8:	b5f8      	push	{r3, r4, r5, r6, r7, lr}
 80004ea:	024b      	lsls	r3, r1, #9
 80004ec:	0a5a      	lsrs	r2, r3, #9
 80004ee:	4694      	mov	ip, r2
 80004f0:	004a      	lsls	r2, r1, #1
 80004f2:	0fc9      	lsrs	r1, r1, #31
 80004f4:	46ce      	mov	lr, r9
 80004f6:	4647      	mov	r7, r8
 80004f8:	4689      	mov	r9, r1
 80004fa:	0045      	lsls	r5, r0, #1
 80004fc:	0246      	lsls	r6, r0, #9
 80004fe:	0e2d      	lsrs	r5, r5, #24
 8000500:	0e12      	lsrs	r2, r2, #24
 8000502:	b580      	push	{r7, lr}
 8000504:	0999      	lsrs	r1, r3, #6
 8000506:	0a77      	lsrs	r7, r6, #9
 8000508:	0fc4      	lsrs	r4, r0, #31
 800050a:	09b6      	lsrs	r6, r6, #6
 800050c:	1aab      	subs	r3, r5, r2
 800050e:	454c      	cmp	r4, r9
 8000510:	d020      	beq.n	8000554 <__aeabi_fadd+0x6c>
 8000512:	2b00      	cmp	r3, #0
 8000514:	dd0c      	ble.n	8000530 <__aeabi_fadd+0x48>
 8000516:	2a00      	cmp	r2, #0
 8000518:	d134      	bne.n	8000584 <__aeabi_fadd+0x9c>
 800051a:	2900      	cmp	r1, #0
 800051c:	d02a      	beq.n	8000574 <__aeabi_fadd+0x8c>
 800051e:	1e5a      	subs	r2, r3, #1
 8000520:	2b01      	cmp	r3, #1
 8000522:	d100      	bne.n	8000526 <__aeabi_fadd+0x3e>
 8000524:	e08f      	b.n	8000646 <__aeabi_fadd+0x15e>
 8000526:	2bff      	cmp	r3, #255	@ 0xff
 8000528:	d100      	bne.n	800052c <__aeabi_fadd+0x44>
 800052a:	e0cd      	b.n	80006c8 <__aeabi_fadd+0x1e0>
 800052c:	0013      	movs	r3, r2
 800052e:	e02f      	b.n	8000590 <__aeabi_fadd+0xa8>
 8000530:	2b00      	cmp	r3, #0
 8000532:	d060      	beq.n	80005f6 <__aeabi_fadd+0x10e>
 8000534:	1b53      	subs	r3, r2, r5
 8000536:	2d00      	cmp	r5, #0
 8000538:	d000      	beq.n	800053c <__aeabi_fadd+0x54>
 800053a:	e0ee      	b.n	800071a <__aeabi_fadd+0x232>
 800053c:	2e00      	cmp	r6, #0
 800053e:	d100      	bne.n	8000542 <__aeabi_fadd+0x5a>
 8000540:	e13e      	b.n	80007c0 <__aeabi_fadd+0x2d8>
 8000542:	1e5c      	subs	r4, r3, #1
 8000544:	2b01      	cmp	r3, #1
 8000546:	d100      	bne.n	800054a <__aeabi_fadd+0x62>
 8000548:	e16b      	b.n	8000822 <__aeabi_fadd+0x33a>
 800054a:	2bff      	cmp	r3, #255	@ 0xff
 800054c:	d100      	bne.n	8000550 <__aeabi_fadd+0x68>
 800054e:	e0b9      	b.n	80006c4 <__aeabi_fadd+0x1dc>
 8000550:	0023      	movs	r3, r4
 8000552:	e0e7      	b.n	8000724 <__aeabi_fadd+0x23c>
 8000554:	2b00      	cmp	r3, #0
 8000556:	dc00      	bgt.n	800055a <__aeabi_fadd+0x72>
 8000558:	e0a4      	b.n	80006a4 <__aeabi_fadd+0x1bc>
 800055a:	2a00      	cmp	r2, #0
 800055c:	d069      	beq.n	8000632 <__aeabi_fadd+0x14a>
 800055e:	2dff      	cmp	r5, #255	@ 0xff
 8000560:	d100      	bne.n	8000564 <__aeabi_fadd+0x7c>
 8000562:	e0b1      	b.n	80006c8 <__aeabi_fadd+0x1e0>
 8000564:	2280      	movs	r2, #128	@ 0x80
 8000566:	04d2      	lsls	r2, r2, #19
 8000568:	4311      	orrs	r1, r2
 800056a:	2b1b      	cmp	r3, #27
 800056c:	dc00      	bgt.n	8000570 <__aeabi_fadd+0x88>
 800056e:	e0e9      	b.n	8000744 <__aeabi_fadd+0x25c>
 8000570:	002b      	movs	r3, r5
 8000572:	3605      	adds	r6, #5
 8000574:	08f7      	lsrs	r7, r6, #3
 8000576:	2bff      	cmp	r3, #255	@ 0xff
 8000578:	d100      	bne.n	800057c <__aeabi_fadd+0x94>
 800057a:	e0a5      	b.n	80006c8 <__aeabi_fadd+0x1e0>
 800057c:	027a      	lsls	r2, r7, #9
 800057e:	0a52      	lsrs	r2, r2, #9
 8000580:	b2d8      	uxtb	r0, r3
 8000582:	e030      	b.n	80005e6 <__aeabi_fadd+0xfe>
 8000584:	2dff      	cmp	r5, #255	@ 0xff
 8000586:	d100      	bne.n	800058a <__aeabi_fadd+0xa2>
 8000588:	e09e      	b.n	80006c8 <__aeabi_fadd+0x1e0>
 800058a:	2280      	movs	r2, #128	@ 0x80
 800058c:	04d2      	lsls	r2, r2, #19
 800058e:	4311      	orrs	r1, r2
 8000590:	2001      	movs	r0, #1
 8000592:	2b1b      	cmp	r3, #27
 8000594:	dc08      	bgt.n	80005a8 <__aeabi_fadd+0xc0>
 8000596:	0008      	movs	r0, r1
 8000598:	2220      	movs	r2, #32
 800059a:	40d8      	lsrs	r0, r3
 800059c:	1ad3      	subs	r3, r2, r3
 800059e:	4099      	lsls	r1, r3
 80005a0:	000b      	movs	r3, r1
 80005a2:	1e5a      	subs	r2, r3, #1
 80005a4:	4193      	sbcs	r3, r2
 80005a6:	4318      	orrs	r0, r3
 80005a8:	1a36      	subs	r6, r6, r0
 80005aa:	0173      	lsls	r3, r6, #5
 80005ac:	d400      	bmi.n	80005b0 <__aeabi_fadd+0xc8>
 80005ae:	e071      	b.n	8000694 <__aeabi_fadd+0x1ac>
 80005b0:	01b6      	lsls	r6, r6, #6
 80005b2:	09b7      	lsrs	r7, r6, #6
 80005b4:	0038      	movs	r0, r7
 80005b6:	f000 ffcb 	bl	8001550 <__clzsi2>
 80005ba:	003b      	movs	r3, r7
 80005bc:	3805      	subs	r0, #5
 80005be:	4083      	lsls	r3, r0
 80005c0:	4285      	cmp	r5, r0
 80005c2:	dd4d      	ble.n	8000660 <__aeabi_fadd+0x178>
 80005c4:	4eb4      	ldr	r6, [pc, #720]	@ (8000898 <__aeabi_fadd+0x3b0>)
 80005c6:	1a2d      	subs	r5, r5, r0
 80005c8:	401e      	ands	r6, r3
 80005ca:	075a      	lsls	r2, r3, #29
 80005cc:	d068      	beq.n	80006a0 <__aeabi_fadd+0x1b8>
 80005ce:	220f      	movs	r2, #15
 80005d0:	4013      	ands	r3, r2
 80005d2:	2b04      	cmp	r3, #4
 80005d4:	d064      	beq.n	80006a0 <__aeabi_fadd+0x1b8>
 80005d6:	3604      	adds	r6, #4
 80005d8:	0173      	lsls	r3, r6, #5
 80005da:	d561      	bpl.n	80006a0 <__aeabi_fadd+0x1b8>
 80005dc:	1c68      	adds	r0, r5, #1
 80005de:	2dfe      	cmp	r5, #254	@ 0xfe
 80005e0:	d154      	bne.n	800068c <__aeabi_fadd+0x1a4>
 80005e2:	20ff      	movs	r0, #255	@ 0xff
 80005e4:	2200      	movs	r2, #0
 80005e6:	05c0      	lsls	r0, r0, #23
 80005e8:	4310      	orrs	r0, r2
 80005ea:	07e4      	lsls	r4, r4, #31
 80005ec:	4320      	orrs	r0, r4
 80005ee:	bcc0      	pop	{r6, r7}
 80005f0:	46b9      	mov	r9, r7
 80005f2:	46b0      	mov	r8, r6
 80005f4:	bdf8      	pop	{r3, r4, r5, r6, r7, pc}
 80005f6:	22fe      	movs	r2, #254	@ 0xfe
 80005f8:	4690      	mov	r8, r2
 80005fa:	1c68      	adds	r0, r5, #1
 80005fc:	0002      	movs	r2, r0
 80005fe:	4640      	mov	r0, r8
 8000600:	4210      	tst	r0, r2
 8000602:	d16b      	bne.n	80006dc <__aeabi_fadd+0x1f4>
 8000604:	2d00      	cmp	r5, #0
 8000606:	d000      	beq.n	800060a <__aeabi_fadd+0x122>
 8000608:	e0dd      	b.n	80007c6 <__aeabi_fadd+0x2de>
 800060a:	2e00      	cmp	r6, #0
 800060c:	d100      	bne.n	8000610 <__aeabi_fadd+0x128>
 800060e:	e102      	b.n	8000816 <__aeabi_fadd+0x32e>
 8000610:	2900      	cmp	r1, #0
 8000612:	d0b3      	beq.n	800057c <__aeabi_fadd+0x94>
 8000614:	2280      	movs	r2, #128	@ 0x80
 8000616:	1a77      	subs	r7, r6, r1
 8000618:	04d2      	lsls	r2, r2, #19
 800061a:	4217      	tst	r7, r2
 800061c:	d100      	bne.n	8000620 <__aeabi_fadd+0x138>
 800061e:	e136      	b.n	800088e <__aeabi_fadd+0x3a6>
 8000620:	464c      	mov	r4, r9
 8000622:	1b8e      	subs	r6, r1, r6
 8000624:	d061      	beq.n	80006ea <__aeabi_fadd+0x202>
 8000626:	2001      	movs	r0, #1
 8000628:	4216      	tst	r6, r2
 800062a:	d130      	bne.n	800068e <__aeabi_fadd+0x1a6>
 800062c:	2300      	movs	r3, #0
 800062e:	08f7      	lsrs	r7, r6, #3
 8000630:	e7a4      	b.n	800057c <__aeabi_fadd+0x94>
 8000632:	2900      	cmp	r1, #0
 8000634:	d09e      	beq.n	8000574 <__aeabi_fadd+0x8c>
 8000636:	1e5a      	subs	r2, r3, #1
 8000638:	2b01      	cmp	r3, #1
 800063a:	d100      	bne.n	800063e <__aeabi_fadd+0x156>
 800063c:	e0ca      	b.n	80007d4 <__aeabi_fadd+0x2ec>
 800063e:	2bff      	cmp	r3, #255	@ 0xff
 8000640:	d042      	beq.n	80006c8 <__aeabi_fadd+0x1e0>
 8000642:	0013      	movs	r3, r2
 8000644:	e791      	b.n	800056a <__aeabi_fadd+0x82>
 8000646:	1a71      	subs	r1, r6, r1
 8000648:	014b      	lsls	r3, r1, #5
 800064a:	d400      	bmi.n	800064e <__aeabi_fadd+0x166>
 800064c:	e0d1      	b.n	80007f2 <__aeabi_fadd+0x30a>
 800064e:	018f      	lsls	r7, r1, #6
 8000650:	09bf      	lsrs	r7, r7, #6
 8000652:	0038      	movs	r0, r7
 8000654:	f000 ff7c 	bl	8001550 <__clzsi2>
 8000658:	003b      	movs	r3, r7
 800065a:	3805      	subs	r0, #5
 800065c:	4083      	lsls	r3, r0
 800065e:	2501      	movs	r5, #1
 8000660:	2220      	movs	r2, #32
 8000662:	1b40      	subs	r0, r0, r5
 8000664:	3001      	adds	r0, #1
 8000666:	1a12      	subs	r2, r2, r0
 8000668:	001e      	movs	r6, r3
 800066a:	4093      	lsls	r3, r2
 800066c:	40c6      	lsrs	r6, r0
 800066e:	1e5a      	subs	r2, r3, #1
 8000670:	4193      	sbcs	r3, r2
 8000672:	431e      	orrs	r6, r3
 8000674:	d039      	beq.n	80006ea <__aeabi_fadd+0x202>
 8000676:	0773      	lsls	r3, r6, #29
 8000678:	d100      	bne.n	800067c <__aeabi_fadd+0x194>
 800067a:	e11b      	b.n	80008b4 <__aeabi_fadd+0x3cc>
 800067c:	230f      	movs	r3, #15
 800067e:	2500      	movs	r5, #0
 8000680:	4033      	ands	r3, r6
 8000682:	2b04      	cmp	r3, #4
 8000684:	d1a7      	bne.n	80005d6 <__aeabi_fadd+0xee>
 8000686:	2001      	movs	r0, #1
 8000688:	0172      	lsls	r2, r6, #5
 800068a:	d57c      	bpl.n	8000786 <__aeabi_fadd+0x29e>
 800068c:	b2c0      	uxtb	r0, r0
 800068e:	01b2      	lsls	r2, r6, #6
 8000690:	0a52      	lsrs	r2, r2, #9
 8000692:	e7a8      	b.n	80005e6 <__aeabi_fadd+0xfe>
 8000694:	0773      	lsls	r3, r6, #29
 8000696:	d003      	beq.n	80006a0 <__aeabi_fadd+0x1b8>
 8000698:	230f      	movs	r3, #15
 800069a:	4033      	ands	r3, r6
 800069c:	2b04      	cmp	r3, #4
 800069e:	d19a      	bne.n	80005d6 <__aeabi_fadd+0xee>
 80006a0:	002b      	movs	r3, r5
 80006a2:	e767      	b.n	8000574 <__aeabi_fadd+0x8c>
 80006a4:	2b00      	cmp	r3, #0
 80006a6:	d023      	beq.n	80006f0 <__aeabi_fadd+0x208>
 80006a8:	1b53      	subs	r3, r2, r5
 80006aa:	2d00      	cmp	r5, #0
 80006ac:	d17b      	bne.n	80007a6 <__aeabi_fadd+0x2be>
 80006ae:	2e00      	cmp	r6, #0
 80006b0:	d100      	bne.n	80006b4 <__aeabi_fadd+0x1cc>
 80006b2:	e086      	b.n	80007c2 <__aeabi_fadd+0x2da>
 80006b4:	1e5d      	subs	r5, r3, #1
 80006b6:	2b01      	cmp	r3, #1
 80006b8:	d100      	bne.n	80006bc <__aeabi_fadd+0x1d4>
 80006ba:	e08b      	b.n	80007d4 <__aeabi_fadd+0x2ec>
 80006bc:	2bff      	cmp	r3, #255	@ 0xff
 80006be:	d002      	beq.n	80006c6 <__aeabi_fadd+0x1de>
 80006c0:	002b      	movs	r3, r5
 80006c2:	e075      	b.n	80007b0 <__aeabi_fadd+0x2c8>
 80006c4:	464c      	mov	r4, r9
 80006c6:	4667      	mov	r7, ip
 80006c8:	2f00      	cmp	r7, #0
 80006ca:	d100      	bne.n	80006ce <__aeabi_fadd+0x1e6>
 80006cc:	e789      	b.n	80005e2 <__aeabi_fadd+0xfa>
 80006ce:	2280      	movs	r2, #128	@ 0x80
 80006d0:	03d2      	lsls	r2, r2, #15
 80006d2:	433a      	orrs	r2, r7
 80006d4:	0252      	lsls	r2, r2, #9
 80006d6:	20ff      	movs	r0, #255	@ 0xff
 80006d8:	0a52      	lsrs	r2, r2, #9
 80006da:	e784      	b.n	80005e6 <__aeabi_fadd+0xfe>
 80006dc:	1a77      	subs	r7, r6, r1
 80006de:	017b      	lsls	r3, r7, #5
 80006e0:	d46b      	bmi.n	80007ba <__aeabi_fadd+0x2d2>
 80006e2:	2f00      	cmp	r7, #0
 80006e4:	d000      	beq.n	80006e8 <__aeabi_fadd+0x200>
 80006e6:	e765      	b.n	80005b4 <__aeabi_fadd+0xcc>
 80006e8:	2400      	movs	r4, #0
 80006ea:	2000      	movs	r0, #0
 80006ec:	2200      	movs	r2, #0
 80006ee:	e77a      	b.n	80005e6 <__aeabi_fadd+0xfe>
 80006f0:	22fe      	movs	r2, #254	@ 0xfe
 80006f2:	1c6b      	adds	r3, r5, #1
 80006f4:	421a      	tst	r2, r3
 80006f6:	d149      	bne.n	800078c <__aeabi_fadd+0x2a4>
 80006f8:	2d00      	cmp	r5, #0
 80006fa:	d000      	beq.n	80006fe <__aeabi_fadd+0x216>
 80006fc:	e09f      	b.n	800083e <__aeabi_fadd+0x356>
 80006fe:	2e00      	cmp	r6, #0
 8000700:	d100      	bne.n	8000704 <__aeabi_fadd+0x21c>
 8000702:	e0ba      	b.n	800087a <__aeabi_fadd+0x392>
 8000704:	2900      	cmp	r1, #0
 8000706:	d100      	bne.n	800070a <__aeabi_fadd+0x222>
 8000708:	e0cf      	b.n	80008aa <__aeabi_fadd+0x3c2>
 800070a:	1872      	adds	r2, r6, r1
 800070c:	0153      	lsls	r3, r2, #5
 800070e:	d400      	bmi.n	8000712 <__aeabi_fadd+0x22a>
 8000710:	e0cd      	b.n	80008ae <__aeabi_fadd+0x3c6>
 8000712:	0192      	lsls	r2, r2, #6
 8000714:	2001      	movs	r0, #1
 8000716:	0a52      	lsrs	r2, r2, #9
 8000718:	e765      	b.n	80005e6 <__aeabi_fadd+0xfe>
 800071a:	2aff      	cmp	r2, #255	@ 0xff
 800071c:	d0d2      	beq.n	80006c4 <__aeabi_fadd+0x1dc>
 800071e:	2080      	movs	r0, #128	@ 0x80
 8000720:	04c0      	lsls	r0, r0, #19
 8000722:	4306      	orrs	r6, r0
 8000724:	2001      	movs	r0, #1
 8000726:	2b1b      	cmp	r3, #27
 8000728:	dc08      	bgt.n	800073c <__aeabi_fadd+0x254>
 800072a:	0030      	movs	r0, r6
 800072c:	2420      	movs	r4, #32
 800072e:	40d8      	lsrs	r0, r3
 8000730:	1ae3      	subs	r3, r4, r3
 8000732:	409e      	lsls	r6, r3
 8000734:	0033      	movs	r3, r6
 8000736:	1e5c      	subs	r4, r3, #1
 8000738:	41a3      	sbcs	r3, r4
 800073a:	4318      	orrs	r0, r3
 800073c:	464c      	mov	r4, r9
 800073e:	0015      	movs	r5, r2
 8000740:	1a0e      	subs	r6, r1, r0
 8000742:	e732      	b.n	80005aa <__aeabi_fadd+0xc2>
 8000744:	0008      	movs	r0, r1
 8000746:	2220      	movs	r2, #32
 8000748:	40d8      	lsrs	r0, r3
 800074a:	1ad3      	subs	r3, r2, r3
 800074c:	4099      	lsls	r1, r3
 800074e:	000b      	movs	r3, r1
 8000750:	1e5a      	subs	r2, r3, #1
 8000752:	4193      	sbcs	r3, r2
 8000754:	4303      	orrs	r3, r0
 8000756:	18f6      	adds	r6, r6, r3
 8000758:	0173      	lsls	r3, r6, #5
 800075a:	d59b      	bpl.n	8000694 <__aeabi_fadd+0x1ac>
 800075c:	3501      	adds	r5, #1
 800075e:	2dff      	cmp	r5, #255	@ 0xff
 8000760:	d100      	bne.n	8000764 <__aeabi_fadd+0x27c>
 8000762:	e73e      	b.n	80005e2 <__aeabi_fadd+0xfa>
 8000764:	2301      	movs	r3, #1
 8000766:	494d      	ldr	r1, [pc, #308]	@ (800089c <__aeabi_fadd+0x3b4>)
 8000768:	0872      	lsrs	r2, r6, #1
 800076a:	4033      	ands	r3, r6
 800076c:	400a      	ands	r2, r1
 800076e:	431a      	orrs	r2, r3
 8000770:	0016      	movs	r6, r2
 8000772:	0753      	lsls	r3, r2, #29
 8000774:	d004      	beq.n	8000780 <__aeabi_fadd+0x298>
 8000776:	230f      	movs	r3, #15
 8000778:	4013      	ands	r3, r2
 800077a:	2b04      	cmp	r3, #4
 800077c:	d000      	beq.n	8000780 <__aeabi_fadd+0x298>
 800077e:	e72a      	b.n	80005d6 <__aeabi_fadd+0xee>
 8000780:	0173      	lsls	r3, r6, #5
 8000782:	d500      	bpl.n	8000786 <__aeabi_fadd+0x29e>
 8000784:	e72a      	b.n	80005dc <__aeabi_fadd+0xf4>
 8000786:	002b      	movs	r3, r5
 8000788:	08f7      	lsrs	r7, r6, #3
 800078a:	e6f7      	b.n	800057c <__aeabi_fadd+0x94>
 800078c:	2bff      	cmp	r3, #255	@ 0xff
 800078e:	d100      	bne.n	8000792 <__aeabi_fadd+0x2aa>
 8000790:	e727      	b.n	80005e2 <__aeabi_fadd+0xfa>
 8000792:	1871      	adds	r1, r6, r1
 8000794:	0849      	lsrs	r1, r1, #1
 8000796:	074a      	lsls	r2, r1, #29
 8000798:	d02f      	beq.n	80007fa <__aeabi_fadd+0x312>
 800079a:	220f      	movs	r2, #15
 800079c:	400a      	ands	r2, r1
 800079e:	2a04      	cmp	r2, #4
 80007a0:	d02b      	beq.n	80007fa <__aeabi_fadd+0x312>
 80007a2:	1d0e      	adds	r6, r1, #4
 80007a4:	e6e6      	b.n	8000574 <__aeabi_fadd+0x8c>
 80007a6:	2aff      	cmp	r2, #255	@ 0xff
 80007a8:	d08d      	beq.n	80006c6 <__aeabi_fadd+0x1de>
 80007aa:	2080      	movs	r0, #128	@ 0x80
 80007ac:	04c0      	lsls	r0, r0, #19
 80007ae:	4306      	orrs	r6, r0
 80007b0:	2b1b      	cmp	r3, #27
 80007b2:	dd24      	ble.n	80007fe <__aeabi_fadd+0x316>
 80007b4:	0013      	movs	r3, r2
 80007b6:	1d4e      	adds	r6, r1, #5
 80007b8:	e6dc      	b.n	8000574 <__aeabi_fadd+0x8c>
 80007ba:	464c      	mov	r4, r9
 80007bc:	1b8f      	subs	r7, r1, r6
 80007be:	e6f9      	b.n	80005b4 <__aeabi_fadd+0xcc>
 80007c0:	464c      	mov	r4, r9
 80007c2:	000e      	movs	r6, r1
 80007c4:	e6d6      	b.n	8000574 <__aeabi_fadd+0x8c>
 80007c6:	2e00      	cmp	r6, #0
 80007c8:	d149      	bne.n	800085e <__aeabi_fadd+0x376>
 80007ca:	2900      	cmp	r1, #0
 80007cc:	d068      	beq.n	80008a0 <__aeabi_fadd+0x3b8>
 80007ce:	4667      	mov	r7, ip
 80007d0:	464c      	mov	r4, r9
 80007d2:	e77c      	b.n	80006ce <__aeabi_fadd+0x1e6>
 80007d4:	1870      	adds	r0, r6, r1
 80007d6:	0143      	lsls	r3, r0, #5
 80007d8:	d574      	bpl.n	80008c4 <__aeabi_fadd+0x3dc>
 80007da:	4930      	ldr	r1, [pc, #192]	@ (800089c <__aeabi_fadd+0x3b4>)
 80007dc:	0840      	lsrs	r0, r0, #1
 80007de:	4001      	ands	r1, r0
 80007e0:	0743      	lsls	r3, r0, #29
 80007e2:	d009      	beq.n	80007f8 <__aeabi_fadd+0x310>
 80007e4:	230f      	movs	r3, #15
 80007e6:	4003      	ands	r3, r0
 80007e8:	2b04      	cmp	r3, #4
 80007ea:	d005      	beq.n	80007f8 <__aeabi_fadd+0x310>
 80007ec:	2302      	movs	r3, #2
 80007ee:	1d0e      	adds	r6, r1, #4
 80007f0:	e6c0      	b.n	8000574 <__aeabi_fadd+0x8c>
 80007f2:	2301      	movs	r3, #1
 80007f4:	08cf      	lsrs	r7, r1, #3
 80007f6:	e6c1      	b.n	800057c <__aeabi_fadd+0x94>
 80007f8:	2302      	movs	r3, #2
 80007fa:	08cf      	lsrs	r7, r1, #3
 80007fc:	e6be      	b.n	800057c <__aeabi_fadd+0x94>
 80007fe:	2520      	movs	r5, #32
 8000800:	0030      	movs	r0, r6
 8000802:	40d8      	lsrs	r0, r3
 8000804:	1aeb      	subs	r3, r5, r3
 8000806:	409e      	lsls	r6, r3
 8000808:	0033      	movs	r3, r6
 800080a:	1e5d      	subs	r5, r3, #1
 800080c:	41ab      	sbcs	r3, r5
 800080e:	4303      	orrs	r3, r0
 8000810:	0015      	movs	r5, r2
 8000812:	185e      	adds	r6, r3, r1
 8000814:	e7a0      	b.n	8000758 <__aeabi_fadd+0x270>
 8000816:	2900      	cmp	r1, #0
 8000818:	d100      	bne.n	800081c <__aeabi_fadd+0x334>
 800081a:	e765      	b.n	80006e8 <__aeabi_fadd+0x200>
 800081c:	464c      	mov	r4, r9
 800081e:	4667      	mov	r7, ip
 8000820:	e6ac      	b.n	800057c <__aeabi_fadd+0x94>
 8000822:	1b8f      	subs	r7, r1, r6
 8000824:	017b      	lsls	r3, r7, #5
 8000826:	d52e      	bpl.n	8000886 <__aeabi_fadd+0x39e>
 8000828:	01bf      	lsls	r7, r7, #6
 800082a:	09bf      	lsrs	r7, r7, #6
 800082c:	0038      	movs	r0, r7
 800082e:	f000 fe8f 	bl	8001550 <__clzsi2>
 8000832:	003b      	movs	r3, r7
 8000834:	3805      	subs	r0, #5
 8000836:	4083      	lsls	r3, r0
 8000838:	464c      	mov	r4, r9
 800083a:	3501      	adds	r5, #1
 800083c:	e710      	b.n	8000660 <__aeabi_fadd+0x178>
 800083e:	2e00      	cmp	r6, #0
 8000840:	d100      	bne.n	8000844 <__aeabi_fadd+0x35c>
 8000842:	e740      	b.n	80006c6 <__aeabi_fadd+0x1de>
 8000844:	2900      	cmp	r1, #0
 8000846:	d100      	bne.n	800084a <__aeabi_fadd+0x362>
 8000848:	e741      	b.n	80006ce <__aeabi_fadd+0x1e6>
 800084a:	2380      	movs	r3, #128	@ 0x80
 800084c:	03db      	lsls	r3, r3, #15
 800084e:	429f      	cmp	r7, r3
 8000850:	d200      	bcs.n	8000854 <__aeabi_fadd+0x36c>
 8000852:	e73c      	b.n	80006ce <__aeabi_fadd+0x1e6>
 8000854:	459c      	cmp	ip, r3
 8000856:	d300      	bcc.n	800085a <__aeabi_fadd+0x372>
 8000858:	e739      	b.n	80006ce <__aeabi_fadd+0x1e6>
 800085a:	4667      	mov	r7, ip
 800085c:	e737      	b.n	80006ce <__aeabi_fadd+0x1e6>
 800085e:	2900      	cmp	r1, #0
 8000860:	d100      	bne.n	8000864 <__aeabi_fadd+0x37c>
 8000862:	e734      	b.n	80006ce <__aeabi_fadd+0x1e6>
 8000864:	2380      	movs	r3, #128	@ 0x80
 8000866:	03db      	lsls	r3, r3, #15
 8000868:	429f      	cmp	r7, r3
 800086a:	d200      	bcs.n	800086e <__aeabi_fadd+0x386>
 800086c:	e72f      	b.n	80006ce <__aeabi_fadd+0x1e6>
 800086e:	459c      	cmp	ip, r3
 8000870:	d300      	bcc.n	8000874 <__aeabi_fadd+0x38c>
 8000872:	e72c      	b.n	80006ce <__aeabi_fadd+0x1e6>
 8000874:	464c      	mov	r4, r9
 8000876:	4667      	mov	r7, ip
 8000878:	e729      	b.n	80006ce <__aeabi_fadd+0x1e6>
 800087a:	2900      	cmp	r1, #0
 800087c:	d100      	bne.n	8000880 <__aeabi_fadd+0x398>
 800087e:	e734      	b.n	80006ea <__aeabi_fadd+0x202>
 8000880:	2300      	movs	r3, #0
 8000882:	08cf      	lsrs	r7, r1, #3
 8000884:	e67a      	b.n	800057c <__aeabi_fadd+0x94>
 8000886:	464c      	mov	r4, r9
 8000888:	2301      	movs	r3, #1
 800088a:	08ff      	lsrs	r7, r7, #3
 800088c:	e676      	b.n	800057c <__aeabi_fadd+0x94>
 800088e:	2f00      	cmp	r7, #0
 8000890:	d100      	bne.n	8000894 <__aeabi_fadd+0x3ac>
 8000892:	e729      	b.n	80006e8 <__aeabi_fadd+0x200>
 8000894:	08ff      	lsrs	r7, r7, #3
 8000896:	e671      	b.n	800057c <__aeabi_fadd+0x94>
 8000898:	fbffffff 	.word	0xfbffffff
 800089c:	7dffffff 	.word	0x7dffffff
 80008a0:	2280      	movs	r2, #128	@ 0x80
 80008a2:	2400      	movs	r4, #0
 80008a4:	20ff      	movs	r0, #255	@ 0xff
 80008a6:	03d2      	lsls	r2, r2, #15
 80008a8:	e69d      	b.n	80005e6 <__aeabi_fadd+0xfe>
 80008aa:	2300      	movs	r3, #0
 80008ac:	e666      	b.n	800057c <__aeabi_fadd+0x94>
 80008ae:	2300      	movs	r3, #0
 80008b0:	08d7      	lsrs	r7, r2, #3
 80008b2:	e663      	b.n	800057c <__aeabi_fadd+0x94>
 80008b4:	2001      	movs	r0, #1
 80008b6:	0172      	lsls	r2, r6, #5
 80008b8:	d500      	bpl.n	80008bc <__aeabi_fadd+0x3d4>
 80008ba:	e6e7      	b.n	800068c <__aeabi_fadd+0x1a4>
 80008bc:	0031      	movs	r1, r6
 80008be:	2300      	movs	r3, #0
 80008c0:	08cf      	lsrs	r7, r1, #3
 80008c2:	e65b      	b.n	800057c <__aeabi_fadd+0x94>
 80008c4:	2301      	movs	r3, #1
 80008c6:	08c7      	lsrs	r7, r0, #3
 80008c8:	e658      	b.n	800057c <__aeabi_fadd+0x94>
 80008ca:	46c0      	nop			@ (mov r8, r8)

080008cc <__aeabi_fdiv>:
 80008cc:	b5f0      	push	{r4, r5, r6, r7, lr}
 80008ce:	4646      	mov	r6, r8
 80008d0:	464f      	mov	r7, r9
 80008d2:	46d6      	mov	lr, sl
 80008d4:	0245      	lsls	r5, r0, #9
 80008d6:	b5c0      	push	{r6, r7, lr}
 80008d8:	0fc3      	lsrs	r3, r0, #31
 80008da:	0047      	lsls	r7, r0, #1
 80008dc:	4698      	mov	r8, r3
 80008de:	1c0e      	adds	r6, r1, #0
 80008e0:	0a6d      	lsrs	r5, r5, #9
 80008e2:	0e3f      	lsrs	r7, r7, #24
 80008e4:	d05b      	beq.n	800099e <__aeabi_fdiv+0xd2>
 80008e6:	2fff      	cmp	r7, #255	@ 0xff
 80008e8:	d021      	beq.n	800092e <__aeabi_fdiv+0x62>
 80008ea:	2380      	movs	r3, #128	@ 0x80
 80008ec:	00ed      	lsls	r5, r5, #3
 80008ee:	04db      	lsls	r3, r3, #19
 80008f0:	431d      	orrs	r5, r3
 80008f2:	2300      	movs	r3, #0
 80008f4:	4699      	mov	r9, r3
 80008f6:	469a      	mov	sl, r3
 80008f8:	3f7f      	subs	r7, #127	@ 0x7f
 80008fa:	0274      	lsls	r4, r6, #9
 80008fc:	0073      	lsls	r3, r6, #1
 80008fe:	0a64      	lsrs	r4, r4, #9
 8000900:	0e1b      	lsrs	r3, r3, #24
 8000902:	0ff6      	lsrs	r6, r6, #31
 8000904:	2b00      	cmp	r3, #0
 8000906:	d020      	beq.n	800094a <__aeabi_fdiv+0x7e>
 8000908:	2bff      	cmp	r3, #255	@ 0xff
 800090a:	d043      	beq.n	8000994 <__aeabi_fdiv+0xc8>
 800090c:	2280      	movs	r2, #128	@ 0x80
 800090e:	2000      	movs	r0, #0
 8000910:	00e4      	lsls	r4, r4, #3
 8000912:	04d2      	lsls	r2, r2, #19
 8000914:	4314      	orrs	r4, r2
 8000916:	3b7f      	subs	r3, #127	@ 0x7f
 8000918:	4642      	mov	r2, r8
 800091a:	1aff      	subs	r7, r7, r3
 800091c:	464b      	mov	r3, r9
 800091e:	4072      	eors	r2, r6
 8000920:	2b0f      	cmp	r3, #15
 8000922:	d900      	bls.n	8000926 <__aeabi_fdiv+0x5a>
 8000924:	e09d      	b.n	8000a62 <__aeabi_fdiv+0x196>
 8000926:	4971      	ldr	r1, [pc, #452]	@ (8000aec <__aeabi_fdiv+0x220>)
 8000928:	009b      	lsls	r3, r3, #2
 800092a:	58cb      	ldr	r3, [r1, r3]
 800092c:	469f      	mov	pc, r3
 800092e:	2d00      	cmp	r5, #0
 8000930:	d15a      	bne.n	80009e8 <__aeabi_fdiv+0x11c>
 8000932:	2308      	movs	r3, #8
 8000934:	4699      	mov	r9, r3
 8000936:	3b06      	subs	r3, #6
 8000938:	0274      	lsls	r4, r6, #9
 800093a:	469a      	mov	sl, r3
 800093c:	0073      	lsls	r3, r6, #1
 800093e:	27ff      	movs	r7, #255	@ 0xff
 8000940:	0a64      	lsrs	r4, r4, #9
 8000942:	0e1b      	lsrs	r3, r3, #24
 8000944:	0ff6      	lsrs	r6, r6, #31
 8000946:	2b00      	cmp	r3, #0
 8000948:	d1de      	bne.n	8000908 <__aeabi_fdiv+0x3c>
 800094a:	2c00      	cmp	r4, #0
 800094c:	d13b      	bne.n	80009c6 <__aeabi_fdiv+0xfa>
 800094e:	2301      	movs	r3, #1
 8000950:	4642      	mov	r2, r8
 8000952:	4649      	mov	r1, r9
 8000954:	4072      	eors	r2, r6
 8000956:	4319      	orrs	r1, r3
 8000958:	290e      	cmp	r1, #14
 800095a:	d818      	bhi.n	800098e <__aeabi_fdiv+0xc2>
 800095c:	4864      	ldr	r0, [pc, #400]	@ (8000af0 <__aeabi_fdiv+0x224>)
 800095e:	0089      	lsls	r1, r1, #2
 8000960:	5841      	ldr	r1, [r0, r1]
 8000962:	468f      	mov	pc, r1
 8000964:	4653      	mov	r3, sl
 8000966:	2b02      	cmp	r3, #2
 8000968:	d100      	bne.n	800096c <__aeabi_fdiv+0xa0>
 800096a:	e0b8      	b.n	8000ade <__aeabi_fdiv+0x212>
 800096c:	2b03      	cmp	r3, #3
 800096e:	d06e      	beq.n	8000a4e <__aeabi_fdiv+0x182>
 8000970:	4642      	mov	r2, r8
 8000972:	002c      	movs	r4, r5
 8000974:	2b01      	cmp	r3, #1
 8000976:	d140      	bne.n	80009fa <__aeabi_fdiv+0x12e>
 8000978:	2000      	movs	r0, #0
 800097a:	2400      	movs	r4, #0
 800097c:	05c0      	lsls	r0, r0, #23
 800097e:	4320      	orrs	r0, r4
 8000980:	07d2      	lsls	r2, r2, #31
 8000982:	4310      	orrs	r0, r2
 8000984:	bce0      	pop	{r5, r6, r7}
 8000986:	46ba      	mov	sl, r7
 8000988:	46b1      	mov	r9, r6
 800098a:	46a8      	mov	r8, r5
 800098c:	bdf0      	pop	{r4, r5, r6, r7, pc}
 800098e:	20ff      	movs	r0, #255	@ 0xff
 8000990:	2400      	movs	r4, #0
 8000992:	e7f3      	b.n	800097c <__aeabi_fdiv+0xb0>
 8000994:	2c00      	cmp	r4, #0
 8000996:	d120      	bne.n	80009da <__aeabi_fdiv+0x10e>
 8000998:	2302      	movs	r3, #2
 800099a:	3fff      	subs	r7, #255	@ 0xff
 800099c:	e7d8      	b.n	8000950 <__aeabi_fdiv+0x84>
 800099e:	2d00      	cmp	r5, #0
 80009a0:	d105      	bne.n	80009ae <__aeabi_fdiv+0xe2>
 80009a2:	2304      	movs	r3, #4
 80009a4:	4699      	mov	r9, r3
 80009a6:	3b03      	subs	r3, #3
 80009a8:	2700      	movs	r7, #0
 80009aa:	469a      	mov	sl, r3
 80009ac:	e7a5      	b.n	80008fa <__aeabi_fdiv+0x2e>
 80009ae:	0028      	movs	r0, r5
 80009b0:	f000 fdce 	bl	8001550 <__clzsi2>
 80009b4:	2776      	movs	r7, #118	@ 0x76
 80009b6:	1f43      	subs	r3, r0, #5
 80009b8:	409d      	lsls	r5, r3
 80009ba:	2300      	movs	r3, #0
 80009bc:	427f      	negs	r7, r7
 80009be:	4699      	mov	r9, r3
 80009c0:	469a      	mov	sl, r3
 80009c2:	1a3f      	subs	r7, r7, r0
 80009c4:	e799      	b.n	80008fa <__aeabi_fdiv+0x2e>
 80009c6:	0020      	movs	r0, r4
 80009c8:	f000 fdc2 	bl	8001550 <__clzsi2>
 80009cc:	1f43      	subs	r3, r0, #5
 80009ce:	409c      	lsls	r4, r3
 80009d0:	2376      	movs	r3, #118	@ 0x76
 80009d2:	425b      	negs	r3, r3
 80009d4:	1a1b      	subs	r3, r3, r0
 80009d6:	2000      	movs	r0, #0
 80009d8:	e79e      	b.n	8000918 <__aeabi_fdiv+0x4c>
 80009da:	2303      	movs	r3, #3
 80009dc:	464a      	mov	r2, r9
 80009de:	431a      	orrs	r2, r3
 80009e0:	4691      	mov	r9, r2
 80009e2:	2003      	movs	r0, #3
 80009e4:	33fc      	adds	r3, #252	@ 0xfc
 80009e6:	e797      	b.n	8000918 <__aeabi_fdiv+0x4c>
 80009e8:	230c      	movs	r3, #12
 80009ea:	4699      	mov	r9, r3
 80009ec:	3b09      	subs	r3, #9
 80009ee:	27ff      	movs	r7, #255	@ 0xff
 80009f0:	469a      	mov	sl, r3
 80009f2:	e782      	b.n	80008fa <__aeabi_fdiv+0x2e>
 80009f4:	2803      	cmp	r0, #3
 80009f6:	d02c      	beq.n	8000a52 <__aeabi_fdiv+0x186>
 80009f8:	0032      	movs	r2, r6
 80009fa:	0038      	movs	r0, r7
 80009fc:	307f      	adds	r0, #127	@ 0x7f
 80009fe:	2800      	cmp	r0, #0
 8000a00:	dd47      	ble.n	8000a92 <__aeabi_fdiv+0x1c6>
 8000a02:	0763      	lsls	r3, r4, #29
 8000a04:	d004      	beq.n	8000a10 <__aeabi_fdiv+0x144>
 8000a06:	230f      	movs	r3, #15
 8000a08:	4023      	ands	r3, r4
 8000a0a:	2b04      	cmp	r3, #4
 8000a0c:	d000      	beq.n	8000a10 <__aeabi_fdiv+0x144>
 8000a0e:	3404      	adds	r4, #4
 8000a10:	0123      	lsls	r3, r4, #4
 8000a12:	d503      	bpl.n	8000a1c <__aeabi_fdiv+0x150>
 8000a14:	0038      	movs	r0, r7
 8000a16:	4b37      	ldr	r3, [pc, #220]	@ (8000af4 <__aeabi_fdiv+0x228>)
 8000a18:	3080      	adds	r0, #128	@ 0x80
 8000a1a:	401c      	ands	r4, r3
 8000a1c:	28fe      	cmp	r0, #254	@ 0xfe
 8000a1e:	dcb6      	bgt.n	800098e <__aeabi_fdiv+0xc2>
 8000a20:	01a4      	lsls	r4, r4, #6
 8000a22:	0a64      	lsrs	r4, r4, #9
 8000a24:	b2c0      	uxtb	r0, r0
 8000a26:	e7a9      	b.n	800097c <__aeabi_fdiv+0xb0>
 8000a28:	2480      	movs	r4, #128	@ 0x80
 8000a2a:	2200      	movs	r2, #0
 8000a2c:	20ff      	movs	r0, #255	@ 0xff
 8000a2e:	03e4      	lsls	r4, r4, #15
 8000a30:	e7a4      	b.n	800097c <__aeabi_fdiv+0xb0>
 8000a32:	2380      	movs	r3, #128	@ 0x80
 8000a34:	03db      	lsls	r3, r3, #15
 8000a36:	421d      	tst	r5, r3
 8000a38:	d001      	beq.n	8000a3e <__aeabi_fdiv+0x172>
 8000a3a:	421c      	tst	r4, r3
 8000a3c:	d00b      	beq.n	8000a56 <__aeabi_fdiv+0x18a>
 8000a3e:	2480      	movs	r4, #128	@ 0x80
 8000a40:	03e4      	lsls	r4, r4, #15
 8000a42:	432c      	orrs	r4, r5
 8000a44:	0264      	lsls	r4, r4, #9
 8000a46:	4642      	mov	r2, r8
 8000a48:	20ff      	movs	r0, #255	@ 0xff
 8000a4a:	0a64      	lsrs	r4, r4, #9
 8000a4c:	e796      	b.n	800097c <__aeabi_fdiv+0xb0>
 8000a4e:	4646      	mov	r6, r8
 8000a50:	002c      	movs	r4, r5
 8000a52:	2380      	movs	r3, #128	@ 0x80
 8000a54:	03db      	lsls	r3, r3, #15
 8000a56:	431c      	orrs	r4, r3
 8000a58:	0264      	lsls	r4, r4, #9
 8000a5a:	0032      	movs	r2, r6
 8000a5c:	20ff      	movs	r0, #255	@ 0xff
 8000a5e:	0a64      	lsrs	r4, r4, #9
 8000a60:	e78c      	b.n	800097c <__aeabi_fdiv+0xb0>
 8000a62:	016d      	lsls	r5, r5, #5
 8000a64:	0160      	lsls	r0, r4, #5
 8000a66:	4285      	cmp	r5, r0
 8000a68:	d22d      	bcs.n	8000ac6 <__aeabi_fdiv+0x1fa>
 8000a6a:	231b      	movs	r3, #27
 8000a6c:	2400      	movs	r4, #0
 8000a6e:	3f01      	subs	r7, #1
 8000a70:	2601      	movs	r6, #1
 8000a72:	0029      	movs	r1, r5
 8000a74:	0064      	lsls	r4, r4, #1
 8000a76:	006d      	lsls	r5, r5, #1
 8000a78:	2900      	cmp	r1, #0
 8000a7a:	db01      	blt.n	8000a80 <__aeabi_fdiv+0x1b4>
 8000a7c:	4285      	cmp	r5, r0
 8000a7e:	d301      	bcc.n	8000a84 <__aeabi_fdiv+0x1b8>
 8000a80:	1a2d      	subs	r5, r5, r0
 8000a82:	4334      	orrs	r4, r6
 8000a84:	3b01      	subs	r3, #1
 8000a86:	2b00      	cmp	r3, #0
 8000a88:	d1f3      	bne.n	8000a72 <__aeabi_fdiv+0x1a6>
 8000a8a:	1e6b      	subs	r3, r5, #1
 8000a8c:	419d      	sbcs	r5, r3
 8000a8e:	432c      	orrs	r4, r5
 8000a90:	e7b3      	b.n	80009fa <__aeabi_fdiv+0x12e>
 8000a92:	2301      	movs	r3, #1
 8000a94:	1a1b      	subs	r3, r3, r0
 8000a96:	2b1b      	cmp	r3, #27
 8000a98:	dd00      	ble.n	8000a9c <__aeabi_fdiv+0x1d0>
 8000a9a:	e76d      	b.n	8000978 <__aeabi_fdiv+0xac>
 8000a9c:	0021      	movs	r1, r4
 8000a9e:	379e      	adds	r7, #158	@ 0x9e
 8000aa0:	40d9      	lsrs	r1, r3
 8000aa2:	40bc      	lsls	r4, r7
 8000aa4:	000b      	movs	r3, r1
 8000aa6:	1e61      	subs	r1, r4, #1
 8000aa8:	418c      	sbcs	r4, r1
 8000aaa:	4323      	orrs	r3, r4
 8000aac:	0759      	lsls	r1, r3, #29
 8000aae:	d004      	beq.n	8000aba <__aeabi_fdiv+0x1ee>
 8000ab0:	210f      	movs	r1, #15
 8000ab2:	4019      	ands	r1, r3
 8000ab4:	2904      	cmp	r1, #4
 8000ab6:	d000      	beq.n	8000aba <__aeabi_fdiv+0x1ee>
 8000ab8:	3304      	adds	r3, #4
 8000aba:	0159      	lsls	r1, r3, #5
 8000abc:	d413      	bmi.n	8000ae6 <__aeabi_fdiv+0x21a>
 8000abe:	019b      	lsls	r3, r3, #6
 8000ac0:	2000      	movs	r0, #0
 8000ac2:	0a5c      	lsrs	r4, r3, #9
 8000ac4:	e75a      	b.n	800097c <__aeabi_fdiv+0xb0>
 8000ac6:	231a      	movs	r3, #26
 8000ac8:	2401      	movs	r4, #1
 8000aca:	1a2d      	subs	r5, r5, r0
 8000acc:	e7d0      	b.n	8000a70 <__aeabi_fdiv+0x1a4>
 8000ace:	1e98      	subs	r0, r3, #2
 8000ad0:	4243      	negs	r3, r0
 8000ad2:	4158      	adcs	r0, r3
 8000ad4:	4240      	negs	r0, r0
 8000ad6:	0032      	movs	r2, r6
 8000ad8:	2400      	movs	r4, #0
 8000ada:	b2c0      	uxtb	r0, r0
 8000adc:	e74e      	b.n	800097c <__aeabi_fdiv+0xb0>
 8000ade:	4642      	mov	r2, r8
 8000ae0:	20ff      	movs	r0, #255	@ 0xff
 8000ae2:	2400      	movs	r4, #0
 8000ae4:	e74a      	b.n	800097c <__aeabi_fdiv+0xb0>
 8000ae6:	2001      	movs	r0, #1
 8000ae8:	2400      	movs	r4, #0
 8000aea:	e747      	b.n	800097c <__aeabi_fdiv+0xb0>
 8000aec:	080077fc 	.word	0x080077fc
 8000af0:	0800783c 	.word	0x0800783c
 8000af4:	f7ffffff 	.word	0xf7ffffff

08000af8 <__eqsf2>:
 8000af8:	b570      	push	{r4, r5, r6, lr}
 8000afa:	0042      	lsls	r2, r0, #1
 8000afc:	024e      	lsls	r6, r1, #9
 8000afe:	004c      	lsls	r4, r1, #1
 8000b00:	0245      	lsls	r5, r0, #9
 8000b02:	0a6d      	lsrs	r5, r5, #9
 8000b04:	0e12      	lsrs	r2, r2, #24
 8000b06:	0fc3      	lsrs	r3, r0, #31
 8000b08:	0a76      	lsrs	r6, r6, #9
 8000b0a:	0e24      	lsrs	r4, r4, #24
 8000b0c:	0fc9      	lsrs	r1, r1, #31
 8000b0e:	2aff      	cmp	r2, #255	@ 0xff
 8000b10:	d010      	beq.n	8000b34 <__eqsf2+0x3c>
 8000b12:	2cff      	cmp	r4, #255	@ 0xff
 8000b14:	d00c      	beq.n	8000b30 <__eqsf2+0x38>
 8000b16:	2001      	movs	r0, #1
 8000b18:	42a2      	cmp	r2, r4
 8000b1a:	d10a      	bne.n	8000b32 <__eqsf2+0x3a>
 8000b1c:	42b5      	cmp	r5, r6
 8000b1e:	d108      	bne.n	8000b32 <__eqsf2+0x3a>
 8000b20:	428b      	cmp	r3, r1
 8000b22:	d00f      	beq.n	8000b44 <__eqsf2+0x4c>
 8000b24:	2a00      	cmp	r2, #0
 8000b26:	d104      	bne.n	8000b32 <__eqsf2+0x3a>
 8000b28:	0028      	movs	r0, r5
 8000b2a:	1e43      	subs	r3, r0, #1
 8000b2c:	4198      	sbcs	r0, r3
 8000b2e:	e000      	b.n	8000b32 <__eqsf2+0x3a>
 8000b30:	2001      	movs	r0, #1
 8000b32:	bd70      	pop	{r4, r5, r6, pc}
 8000b34:	2001      	movs	r0, #1
 8000b36:	2cff      	cmp	r4, #255	@ 0xff
 8000b38:	d1fb      	bne.n	8000b32 <__eqsf2+0x3a>
 8000b3a:	4335      	orrs	r5, r6
 8000b3c:	d1f9      	bne.n	8000b32 <__eqsf2+0x3a>
 8000b3e:	404b      	eors	r3, r1
 8000b40:	0018      	movs	r0, r3
 8000b42:	e7f6      	b.n	8000b32 <__eqsf2+0x3a>
 8000b44:	2000      	movs	r0, #0
 8000b46:	e7f4      	b.n	8000b32 <__eqsf2+0x3a>

08000b48 <__gesf2>:
 8000b48:	b530      	push	{r4, r5, lr}
 8000b4a:	0042      	lsls	r2, r0, #1
 8000b4c:	0244      	lsls	r4, r0, #9
 8000b4e:	024d      	lsls	r5, r1, #9
 8000b50:	0fc3      	lsrs	r3, r0, #31
 8000b52:	0048      	lsls	r0, r1, #1
 8000b54:	0a64      	lsrs	r4, r4, #9
 8000b56:	0e12      	lsrs	r2, r2, #24
 8000b58:	0a6d      	lsrs	r5, r5, #9
 8000b5a:	0e00      	lsrs	r0, r0, #24
 8000b5c:	0fc9      	lsrs	r1, r1, #31
 8000b5e:	2aff      	cmp	r2, #255	@ 0xff
 8000b60:	d018      	beq.n	8000b94 <__gesf2+0x4c>
 8000b62:	28ff      	cmp	r0, #255	@ 0xff
 8000b64:	d00a      	beq.n	8000b7c <__gesf2+0x34>
 8000b66:	2a00      	cmp	r2, #0
 8000b68:	d11e      	bne.n	8000ba8 <__gesf2+0x60>
 8000b6a:	2800      	cmp	r0, #0
 8000b6c:	d10a      	bne.n	8000b84 <__gesf2+0x3c>
 8000b6e:	2d00      	cmp	r5, #0
 8000b70:	d029      	beq.n	8000bc6 <__gesf2+0x7e>
 8000b72:	2c00      	cmp	r4, #0
 8000b74:	d12d      	bne.n	8000bd2 <__gesf2+0x8a>
 8000b76:	0048      	lsls	r0, r1, #1
 8000b78:	3801      	subs	r0, #1
 8000b7a:	bd30      	pop	{r4, r5, pc}
 8000b7c:	2d00      	cmp	r5, #0
 8000b7e:	d125      	bne.n	8000bcc <__gesf2+0x84>
 8000b80:	2a00      	cmp	r2, #0
 8000b82:	d101      	bne.n	8000b88 <__gesf2+0x40>
 8000b84:	2c00      	cmp	r4, #0
 8000b86:	d0f6      	beq.n	8000b76 <__gesf2+0x2e>
 8000b88:	428b      	cmp	r3, r1
 8000b8a:	d019      	beq.n	8000bc0 <__gesf2+0x78>
 8000b8c:	2001      	movs	r0, #1
 8000b8e:	425b      	negs	r3, r3
 8000b90:	4318      	orrs	r0, r3
 8000b92:	e7f2      	b.n	8000b7a <__gesf2+0x32>
 8000b94:	2c00      	cmp	r4, #0
 8000b96:	d119      	bne.n	8000bcc <__gesf2+0x84>
 8000b98:	28ff      	cmp	r0, #255	@ 0xff
 8000b9a:	d1f7      	bne.n	8000b8c <__gesf2+0x44>
 8000b9c:	2d00      	cmp	r5, #0
 8000b9e:	d115      	bne.n	8000bcc <__gesf2+0x84>
 8000ba0:	2000      	movs	r0, #0
 8000ba2:	428b      	cmp	r3, r1
 8000ba4:	d1f2      	bne.n	8000b8c <__gesf2+0x44>
 8000ba6:	e7e8      	b.n	8000b7a <__gesf2+0x32>
 8000ba8:	2800      	cmp	r0, #0
 8000baa:	d0ef      	beq.n	8000b8c <__gesf2+0x44>
 8000bac:	428b      	cmp	r3, r1
 8000bae:	d1ed      	bne.n	8000b8c <__gesf2+0x44>
 8000bb0:	4282      	cmp	r2, r0
 8000bb2:	dceb      	bgt.n	8000b8c <__gesf2+0x44>
 8000bb4:	db04      	blt.n	8000bc0 <__gesf2+0x78>
 8000bb6:	42ac      	cmp	r4, r5
 8000bb8:	d8e8      	bhi.n	8000b8c <__gesf2+0x44>
 8000bba:	2000      	movs	r0, #0
 8000bbc:	42ac      	cmp	r4, r5
 8000bbe:	d2dc      	bcs.n	8000b7a <__gesf2+0x32>
 8000bc0:	0058      	lsls	r0, r3, #1
 8000bc2:	3801      	subs	r0, #1
 8000bc4:	e7d9      	b.n	8000b7a <__gesf2+0x32>
 8000bc6:	2c00      	cmp	r4, #0
 8000bc8:	d0d7      	beq.n	8000b7a <__gesf2+0x32>
 8000bca:	e7df      	b.n	8000b8c <__gesf2+0x44>
 8000bcc:	2002      	movs	r0, #2
 8000bce:	4240      	negs	r0, r0
 8000bd0:	e7d3      	b.n	8000b7a <__gesf2+0x32>
 8000bd2:	428b      	cmp	r3, r1
 8000bd4:	d1da      	bne.n	8000b8c <__gesf2+0x44>
 8000bd6:	e7ee      	b.n	8000bb6 <__gesf2+0x6e>

08000bd8 <__lesf2>:
 8000bd8:	b530      	push	{r4, r5, lr}
 8000bda:	0042      	lsls	r2, r0, #1
 8000bdc:	0244      	lsls	r4, r0, #9
 8000bde:	024d      	lsls	r5, r1, #9
 8000be0:	0fc3      	lsrs	r3, r0, #31
 8000be2:	0048      	lsls	r0, r1, #1
 8000be4:	0a64      	lsrs	r4, r4, #9
 8000be6:	0e12      	lsrs	r2, r2, #24
 8000be8:	0a6d      	lsrs	r5, r5, #9
 8000bea:	0e00      	lsrs	r0, r0, #24
 8000bec:	0fc9      	lsrs	r1, r1, #31
 8000bee:	2aff      	cmp	r2, #255	@ 0xff
 8000bf0:	d017      	beq.n	8000c22 <__lesf2+0x4a>
 8000bf2:	28ff      	cmp	r0, #255	@ 0xff
 8000bf4:	d00a      	beq.n	8000c0c <__lesf2+0x34>
 8000bf6:	2a00      	cmp	r2, #0
 8000bf8:	d11b      	bne.n	8000c32 <__lesf2+0x5a>
 8000bfa:	2800      	cmp	r0, #0
 8000bfc:	d10a      	bne.n	8000c14 <__lesf2+0x3c>
 8000bfe:	2d00      	cmp	r5, #0
 8000c00:	d01d      	beq.n	8000c3e <__lesf2+0x66>
 8000c02:	2c00      	cmp	r4, #0
 8000c04:	d12d      	bne.n	8000c62 <__lesf2+0x8a>
 8000c06:	0048      	lsls	r0, r1, #1
 8000c08:	3801      	subs	r0, #1
 8000c0a:	e011      	b.n	8000c30 <__lesf2+0x58>
 8000c0c:	2d00      	cmp	r5, #0
 8000c0e:	d10e      	bne.n	8000c2e <__lesf2+0x56>
 8000c10:	2a00      	cmp	r2, #0
 8000c12:	d101      	bne.n	8000c18 <__lesf2+0x40>
 8000c14:	2c00      	cmp	r4, #0
 8000c16:	d0f6      	beq.n	8000c06 <__lesf2+0x2e>
 8000c18:	428b      	cmp	r3, r1
 8000c1a:	d10c      	bne.n	8000c36 <__lesf2+0x5e>
 8000c1c:	0058      	lsls	r0, r3, #1
 8000c1e:	3801      	subs	r0, #1
 8000c20:	e006      	b.n	8000c30 <__lesf2+0x58>
 8000c22:	2c00      	cmp	r4, #0
 8000c24:	d103      	bne.n	8000c2e <__lesf2+0x56>
 8000c26:	28ff      	cmp	r0, #255	@ 0xff
 8000c28:	d105      	bne.n	8000c36 <__lesf2+0x5e>
 8000c2a:	2d00      	cmp	r5, #0
 8000c2c:	d015      	beq.n	8000c5a <__lesf2+0x82>
 8000c2e:	2002      	movs	r0, #2
 8000c30:	bd30      	pop	{r4, r5, pc}
 8000c32:	2800      	cmp	r0, #0
 8000c34:	d106      	bne.n	8000c44 <__lesf2+0x6c>
 8000c36:	2001      	movs	r0, #1
 8000c38:	425b      	negs	r3, r3
 8000c3a:	4318      	orrs	r0, r3
 8000c3c:	e7f8      	b.n	8000c30 <__lesf2+0x58>
 8000c3e:	2c00      	cmp	r4, #0
 8000c40:	d0f6      	beq.n	8000c30 <__lesf2+0x58>
 8000c42:	e7f8      	b.n	8000c36 <__lesf2+0x5e>
 8000c44:	428b      	cmp	r3, r1
 8000c46:	d1f6      	bne.n	8000c36 <__lesf2+0x5e>
 8000c48:	4282      	cmp	r2, r0
 8000c4a:	dcf4      	bgt.n	8000c36 <__lesf2+0x5e>
 8000c4c:	dbe6      	blt.n	8000c1c <__lesf2+0x44>
 8000c4e:	42ac      	cmp	r4, r5
 8000c50:	d8f1      	bhi.n	8000c36 <__lesf2+0x5e>
 8000c52:	2000      	movs	r0, #0
 8000c54:	42ac      	cmp	r4, r5
 8000c56:	d2eb      	bcs.n	8000c30 <__lesf2+0x58>
 8000c58:	e7e0      	b.n	8000c1c <__lesf2+0x44>
 8000c5a:	2000      	movs	r0, #0
 8000c5c:	428b      	cmp	r3, r1
 8000c5e:	d1ea      	bne.n	8000c36 <__lesf2+0x5e>
 8000c60:	e7e6      	b.n	8000c30 <__lesf2+0x58>
 8000c62:	428b      	cmp	r3, r1
 8000c64:	d1e7      	bne.n	8000c36 <__lesf2+0x5e>
 8000c66:	e7f2      	b.n	8000c4e <__lesf2+0x76>

08000c68 <__aeabi_fmul>:
 8000c68:	b5f0      	push	{r4, r5, r6, r7, lr}
 8000c6a:	464f      	mov	r7, r9
 8000c6c:	4646      	mov	r6, r8
 8000c6e:	46d6      	mov	lr, sl
 8000c70:	0044      	lsls	r4, r0, #1
 8000c72:	b5c0      	push	{r6, r7, lr}
 8000c74:	0246      	lsls	r6, r0, #9
 8000c76:	1c0f      	adds	r7, r1, #0
 8000c78:	0a76      	lsrs	r6, r6, #9
 8000c7a:	0e24      	lsrs	r4, r4, #24
 8000c7c:	0fc5      	lsrs	r5, r0, #31
 8000c7e:	2c00      	cmp	r4, #0
 8000c80:	d100      	bne.n	8000c84 <__aeabi_fmul+0x1c>
 8000c82:	e0da      	b.n	8000e3a <__aeabi_fmul+0x1d2>
 8000c84:	2cff      	cmp	r4, #255	@ 0xff
 8000c86:	d074      	beq.n	8000d72 <__aeabi_fmul+0x10a>
 8000c88:	2380      	movs	r3, #128	@ 0x80
 8000c8a:	00f6      	lsls	r6, r6, #3
 8000c8c:	04db      	lsls	r3, r3, #19
 8000c8e:	431e      	orrs	r6, r3
 8000c90:	2300      	movs	r3, #0
 8000c92:	4699      	mov	r9, r3
 8000c94:	469a      	mov	sl, r3
 8000c96:	3c7f      	subs	r4, #127	@ 0x7f
 8000c98:	027b      	lsls	r3, r7, #9
 8000c9a:	0a5b      	lsrs	r3, r3, #9
 8000c9c:	4698      	mov	r8, r3
 8000c9e:	007b      	lsls	r3, r7, #1
 8000ca0:	0e1b      	lsrs	r3, r3, #24
 8000ca2:	0fff      	lsrs	r7, r7, #31
 8000ca4:	2b00      	cmp	r3, #0
 8000ca6:	d074      	beq.n	8000d92 <__aeabi_fmul+0x12a>
 8000ca8:	2bff      	cmp	r3, #255	@ 0xff
 8000caa:	d100      	bne.n	8000cae <__aeabi_fmul+0x46>
 8000cac:	e08e      	b.n	8000dcc <__aeabi_fmul+0x164>
 8000cae:	4642      	mov	r2, r8
 8000cb0:	2180      	movs	r1, #128	@ 0x80
 8000cb2:	00d2      	lsls	r2, r2, #3
 8000cb4:	04c9      	lsls	r1, r1, #19
 8000cb6:	4311      	orrs	r1, r2
 8000cb8:	3b7f      	subs	r3, #127	@ 0x7f
 8000cba:	002a      	movs	r2, r5
 8000cbc:	18e4      	adds	r4, r4, r3
 8000cbe:	464b      	mov	r3, r9
 8000cc0:	407a      	eors	r2, r7
 8000cc2:	4688      	mov	r8, r1
 8000cc4:	b2d2      	uxtb	r2, r2
 8000cc6:	2b0a      	cmp	r3, #10
 8000cc8:	dc75      	bgt.n	8000db6 <__aeabi_fmul+0x14e>
 8000cca:	464b      	mov	r3, r9
 8000ccc:	2000      	movs	r0, #0
 8000cce:	2b02      	cmp	r3, #2
 8000cd0:	dd0f      	ble.n	8000cf2 <__aeabi_fmul+0x8a>
 8000cd2:	4649      	mov	r1, r9
 8000cd4:	2301      	movs	r3, #1
 8000cd6:	408b      	lsls	r3, r1
 8000cd8:	21a6      	movs	r1, #166	@ 0xa6
 8000cda:	00c9      	lsls	r1, r1, #3
 8000cdc:	420b      	tst	r3, r1
 8000cde:	d169      	bne.n	8000db4 <__aeabi_fmul+0x14c>
 8000ce0:	2190      	movs	r1, #144	@ 0x90
 8000ce2:	0089      	lsls	r1, r1, #2
 8000ce4:	420b      	tst	r3, r1
 8000ce6:	d000      	beq.n	8000cea <__aeabi_fmul+0x82>
 8000ce8:	e100      	b.n	8000eec <__aeabi_fmul+0x284>
 8000cea:	2188      	movs	r1, #136	@ 0x88
 8000cec:	4219      	tst	r1, r3
 8000cee:	d000      	beq.n	8000cf2 <__aeabi_fmul+0x8a>
 8000cf0:	e0f5      	b.n	8000ede <__aeabi_fmul+0x276>
 8000cf2:	4641      	mov	r1, r8
 8000cf4:	0409      	lsls	r1, r1, #16
 8000cf6:	0c09      	lsrs	r1, r1, #16
 8000cf8:	4643      	mov	r3, r8
 8000cfa:	0008      	movs	r0, r1
 8000cfc:	0c35      	lsrs	r5, r6, #16
 8000cfe:	0436      	lsls	r6, r6, #16
 8000d00:	0c1b      	lsrs	r3, r3, #16
 8000d02:	0c36      	lsrs	r6, r6, #16
 8000d04:	4370      	muls	r0, r6
 8000d06:	4369      	muls	r1, r5
 8000d08:	435e      	muls	r6, r3
 8000d0a:	435d      	muls	r5, r3
 8000d0c:	1876      	adds	r6, r6, r1
 8000d0e:	0c03      	lsrs	r3, r0, #16
 8000d10:	199b      	adds	r3, r3, r6
 8000d12:	4299      	cmp	r1, r3
 8000d14:	d903      	bls.n	8000d1e <__aeabi_fmul+0xb6>
 8000d16:	2180      	movs	r1, #128	@ 0x80
 8000d18:	0249      	lsls	r1, r1, #9
 8000d1a:	468c      	mov	ip, r1
 8000d1c:	4465      	add	r5, ip
 8000d1e:	0400      	lsls	r0, r0, #16
 8000d20:	0419      	lsls	r1, r3, #16
 8000d22:	0c00      	lsrs	r0, r0, #16
 8000d24:	1809      	adds	r1, r1, r0
 8000d26:	018e      	lsls	r6, r1, #6
 8000d28:	1e70      	subs	r0, r6, #1
 8000d2a:	4186      	sbcs	r6, r0
 8000d2c:	0c1b      	lsrs	r3, r3, #16
 8000d2e:	0e89      	lsrs	r1, r1, #26
 8000d30:	195b      	adds	r3, r3, r5
 8000d32:	430e      	orrs	r6, r1
 8000d34:	019b      	lsls	r3, r3, #6
 8000d36:	431e      	orrs	r6, r3
 8000d38:	011b      	lsls	r3, r3, #4
 8000d3a:	d46c      	bmi.n	8000e16 <__aeabi_fmul+0x1ae>
 8000d3c:	0023      	movs	r3, r4
 8000d3e:	337f      	adds	r3, #127	@ 0x7f
 8000d40:	2b00      	cmp	r3, #0
 8000d42:	dc00      	bgt.n	8000d46 <__aeabi_fmul+0xde>
 8000d44:	e0b1      	b.n	8000eaa <__aeabi_fmul+0x242>
 8000d46:	0015      	movs	r5, r2
 8000d48:	0771      	lsls	r1, r6, #29
 8000d4a:	d00b      	beq.n	8000d64 <__aeabi_fmul+0xfc>
 8000d4c:	200f      	movs	r0, #15
 8000d4e:	0021      	movs	r1, r4
 8000d50:	4030      	ands	r0, r6
 8000d52:	2804      	cmp	r0, #4
 8000d54:	d006      	beq.n	8000d64 <__aeabi_fmul+0xfc>
 8000d56:	3604      	adds	r6, #4
 8000d58:	0132      	lsls	r2, r6, #4
 8000d5a:	d503      	bpl.n	8000d64 <__aeabi_fmul+0xfc>
 8000d5c:	4b6e      	ldr	r3, [pc, #440]	@ (8000f18 <__aeabi_fmul+0x2b0>)
 8000d5e:	401e      	ands	r6, r3
 8000d60:	000b      	movs	r3, r1
 8000d62:	3380      	adds	r3, #128	@ 0x80
 8000d64:	2bfe      	cmp	r3, #254	@ 0xfe
 8000d66:	dd00      	ble.n	8000d6a <__aeabi_fmul+0x102>
 8000d68:	e0bd      	b.n	8000ee6 <__aeabi_fmul+0x27e>
 8000d6a:	01b2      	lsls	r2, r6, #6
 8000d6c:	0a52      	lsrs	r2, r2, #9
 8000d6e:	b2db      	uxtb	r3, r3
 8000d70:	e048      	b.n	8000e04 <__aeabi_fmul+0x19c>
 8000d72:	2e00      	cmp	r6, #0
 8000d74:	d000      	beq.n	8000d78 <__aeabi_fmul+0x110>
 8000d76:	e092      	b.n	8000e9e <__aeabi_fmul+0x236>
 8000d78:	2308      	movs	r3, #8
 8000d7a:	4699      	mov	r9, r3
 8000d7c:	3b06      	subs	r3, #6
 8000d7e:	469a      	mov	sl, r3
 8000d80:	027b      	lsls	r3, r7, #9
 8000d82:	0a5b      	lsrs	r3, r3, #9
 8000d84:	4698      	mov	r8, r3
 8000d86:	007b      	lsls	r3, r7, #1
 8000d88:	24ff      	movs	r4, #255	@ 0xff
 8000d8a:	0e1b      	lsrs	r3, r3, #24
 8000d8c:	0fff      	lsrs	r7, r7, #31
 8000d8e:	2b00      	cmp	r3, #0
 8000d90:	d18a      	bne.n	8000ca8 <__aeabi_fmul+0x40>
 8000d92:	4642      	mov	r2, r8
 8000d94:	2a00      	cmp	r2, #0
 8000d96:	d164      	bne.n	8000e62 <__aeabi_fmul+0x1fa>
 8000d98:	4649      	mov	r1, r9
 8000d9a:	3201      	adds	r2, #1
 8000d9c:	4311      	orrs	r1, r2
 8000d9e:	4689      	mov	r9, r1
 8000da0:	290a      	cmp	r1, #10
 8000da2:	dc08      	bgt.n	8000db6 <__aeabi_fmul+0x14e>
 8000da4:	407d      	eors	r5, r7
 8000da6:	2001      	movs	r0, #1
 8000da8:	b2ea      	uxtb	r2, r5
 8000daa:	2902      	cmp	r1, #2
 8000dac:	dc91      	bgt.n	8000cd2 <__aeabi_fmul+0x6a>
 8000dae:	0015      	movs	r5, r2
 8000db0:	2200      	movs	r2, #0
 8000db2:	e027      	b.n	8000e04 <__aeabi_fmul+0x19c>
 8000db4:	0015      	movs	r5, r2
 8000db6:	4653      	mov	r3, sl
 8000db8:	2b02      	cmp	r3, #2
 8000dba:	d100      	bne.n	8000dbe <__aeabi_fmul+0x156>
 8000dbc:	e093      	b.n	8000ee6 <__aeabi_fmul+0x27e>
 8000dbe:	2b03      	cmp	r3, #3
 8000dc0:	d01a      	beq.n	8000df8 <__aeabi_fmul+0x190>
 8000dc2:	2b01      	cmp	r3, #1
 8000dc4:	d12c      	bne.n	8000e20 <__aeabi_fmul+0x1b8>
 8000dc6:	2300      	movs	r3, #0
 8000dc8:	2200      	movs	r2, #0
 8000dca:	e01b      	b.n	8000e04 <__aeabi_fmul+0x19c>
 8000dcc:	4643      	mov	r3, r8
 8000dce:	34ff      	adds	r4, #255	@ 0xff
 8000dd0:	2b00      	cmp	r3, #0
 8000dd2:	d055      	beq.n	8000e80 <__aeabi_fmul+0x218>
 8000dd4:	2103      	movs	r1, #3
 8000dd6:	464b      	mov	r3, r9
 8000dd8:	430b      	orrs	r3, r1
 8000dda:	0019      	movs	r1, r3
 8000ddc:	2b0a      	cmp	r3, #10
 8000dde:	dc00      	bgt.n	8000de2 <__aeabi_fmul+0x17a>
 8000de0:	e092      	b.n	8000f08 <__aeabi_fmul+0x2a0>
 8000de2:	2b0f      	cmp	r3, #15
 8000de4:	d000      	beq.n	8000de8 <__aeabi_fmul+0x180>
 8000de6:	e08c      	b.n	8000f02 <__aeabi_fmul+0x29a>
 8000de8:	2280      	movs	r2, #128	@ 0x80
 8000dea:	03d2      	lsls	r2, r2, #15
 8000dec:	4216      	tst	r6, r2
 8000dee:	d003      	beq.n	8000df8 <__aeabi_fmul+0x190>
 8000df0:	4643      	mov	r3, r8
 8000df2:	4213      	tst	r3, r2
 8000df4:	d100      	bne.n	8000df8 <__aeabi_fmul+0x190>
 8000df6:	e07d      	b.n	8000ef4 <__aeabi_fmul+0x28c>
 8000df8:	2280      	movs	r2, #128	@ 0x80
 8000dfa:	03d2      	lsls	r2, r2, #15
 8000dfc:	4332      	orrs	r2, r6
 8000dfe:	0252      	lsls	r2, r2, #9
 8000e00:	0a52      	lsrs	r2, r2, #9
 8000e02:	23ff      	movs	r3, #255	@ 0xff
 8000e04:	05d8      	lsls	r0, r3, #23
 8000e06:	07ed      	lsls	r5, r5, #31
 8000e08:	4310      	orrs	r0, r2
 8000e0a:	4328      	orrs	r0, r5
 8000e0c:	bce0      	pop	{r5, r6, r7}
 8000e0e:	46ba      	mov	sl, r7
 8000e10:	46b1      	mov	r9, r6
 8000e12:	46a8      	mov	r8, r5
 8000e14:	bdf0      	pop	{r4, r5, r6, r7, pc}
 8000e16:	2301      	movs	r3, #1
 8000e18:	0015      	movs	r5, r2
 8000e1a:	0871      	lsrs	r1, r6, #1
 8000e1c:	401e      	ands	r6, r3
 8000e1e:	430e      	orrs	r6, r1
 8000e20:	0023      	movs	r3, r4
 8000e22:	3380      	adds	r3, #128	@ 0x80
 8000e24:	1c61      	adds	r1, r4, #1
 8000e26:	2b00      	cmp	r3, #0
 8000e28:	dd41      	ble.n	8000eae <__aeabi_fmul+0x246>
 8000e2a:	0772      	lsls	r2, r6, #29
 8000e2c:	d094      	beq.n	8000d58 <__aeabi_fmul+0xf0>
 8000e2e:	220f      	movs	r2, #15
 8000e30:	4032      	ands	r2, r6
 8000e32:	2a04      	cmp	r2, #4
 8000e34:	d000      	beq.n	8000e38 <__aeabi_fmul+0x1d0>
 8000e36:	e78e      	b.n	8000d56 <__aeabi_fmul+0xee>
 8000e38:	e78e      	b.n	8000d58 <__aeabi_fmul+0xf0>
 8000e3a:	2e00      	cmp	r6, #0
 8000e3c:	d105      	bne.n	8000e4a <__aeabi_fmul+0x1e2>
 8000e3e:	2304      	movs	r3, #4
 8000e40:	4699      	mov	r9, r3
 8000e42:	3b03      	subs	r3, #3
 8000e44:	2400      	movs	r4, #0
 8000e46:	469a      	mov	sl, r3
 8000e48:	e726      	b.n	8000c98 <__aeabi_fmul+0x30>
 8000e4a:	0030      	movs	r0, r6
 8000e4c:	f000 fb80 	bl	8001550 <__clzsi2>
 8000e50:	2476      	movs	r4, #118	@ 0x76
 8000e52:	1f43      	subs	r3, r0, #5
 8000e54:	409e      	lsls	r6, r3
 8000e56:	2300      	movs	r3, #0
 8000e58:	4264      	negs	r4, r4
 8000e5a:	4699      	mov	r9, r3
 8000e5c:	469a      	mov	sl, r3
 8000e5e:	1a24      	subs	r4, r4, r0
 8000e60:	e71a      	b.n	8000c98 <__aeabi_fmul+0x30>
 8000e62:	4640      	mov	r0, r8
 8000e64:	f000 fb74 	bl	8001550 <__clzsi2>
 8000e68:	464b      	mov	r3, r9
 8000e6a:	1a24      	subs	r4, r4, r0
 8000e6c:	3c76      	subs	r4, #118	@ 0x76
 8000e6e:	2b0a      	cmp	r3, #10
 8000e70:	dca1      	bgt.n	8000db6 <__aeabi_fmul+0x14e>
 8000e72:	4643      	mov	r3, r8
 8000e74:	3805      	subs	r0, #5
 8000e76:	4083      	lsls	r3, r0
 8000e78:	407d      	eors	r5, r7
 8000e7a:	4698      	mov	r8, r3
 8000e7c:	b2ea      	uxtb	r2, r5
 8000e7e:	e724      	b.n	8000cca <__aeabi_fmul+0x62>
 8000e80:	464a      	mov	r2, r9
 8000e82:	3302      	adds	r3, #2
 8000e84:	4313      	orrs	r3, r2
 8000e86:	002a      	movs	r2, r5
 8000e88:	407a      	eors	r2, r7
 8000e8a:	b2d2      	uxtb	r2, r2
 8000e8c:	2b0a      	cmp	r3, #10
 8000e8e:	dc92      	bgt.n	8000db6 <__aeabi_fmul+0x14e>
 8000e90:	4649      	mov	r1, r9
 8000e92:	0015      	movs	r5, r2
 8000e94:	2900      	cmp	r1, #0
 8000e96:	d026      	beq.n	8000ee6 <__aeabi_fmul+0x27e>
 8000e98:	4699      	mov	r9, r3
 8000e9a:	2002      	movs	r0, #2
 8000e9c:	e719      	b.n	8000cd2 <__aeabi_fmul+0x6a>
 8000e9e:	230c      	movs	r3, #12
 8000ea0:	4699      	mov	r9, r3
 8000ea2:	3b09      	subs	r3, #9
 8000ea4:	24ff      	movs	r4, #255	@ 0xff
 8000ea6:	469a      	mov	sl, r3
 8000ea8:	e6f6      	b.n	8000c98 <__aeabi_fmul+0x30>
 8000eaa:	0015      	movs	r5, r2
 8000eac:	0021      	movs	r1, r4
 8000eae:	2201      	movs	r2, #1
 8000eb0:	1ad3      	subs	r3, r2, r3
 8000eb2:	2b1b      	cmp	r3, #27
 8000eb4:	dd00      	ble.n	8000eb8 <__aeabi_fmul+0x250>
 8000eb6:	e786      	b.n	8000dc6 <__aeabi_fmul+0x15e>
 8000eb8:	319e      	adds	r1, #158	@ 0x9e
 8000eba:	0032      	movs	r2, r6
 8000ebc:	408e      	lsls	r6, r1
 8000ebe:	40da      	lsrs	r2, r3
 8000ec0:	1e73      	subs	r3, r6, #1
 8000ec2:	419e      	sbcs	r6, r3
 8000ec4:	4332      	orrs	r2, r6
 8000ec6:	0753      	lsls	r3, r2, #29
 8000ec8:	d004      	beq.n	8000ed4 <__aeabi_fmul+0x26c>
 8000eca:	230f      	movs	r3, #15
 8000ecc:	4013      	ands	r3, r2
 8000ece:	2b04      	cmp	r3, #4
 8000ed0:	d000      	beq.n	8000ed4 <__aeabi_fmul+0x26c>
 8000ed2:	3204      	adds	r2, #4
 8000ed4:	0153      	lsls	r3, r2, #5
 8000ed6:	d510      	bpl.n	8000efa <__aeabi_fmul+0x292>
 8000ed8:	2301      	movs	r3, #1
 8000eda:	2200      	movs	r2, #0
 8000edc:	e792      	b.n	8000e04 <__aeabi_fmul+0x19c>
 8000ede:	003d      	movs	r5, r7
 8000ee0:	4646      	mov	r6, r8
 8000ee2:	4682      	mov	sl, r0
 8000ee4:	e767      	b.n	8000db6 <__aeabi_fmul+0x14e>
 8000ee6:	23ff      	movs	r3, #255	@ 0xff
 8000ee8:	2200      	movs	r2, #0
 8000eea:	e78b      	b.n	8000e04 <__aeabi_fmul+0x19c>
 8000eec:	2280      	movs	r2, #128	@ 0x80
 8000eee:	2500      	movs	r5, #0
 8000ef0:	03d2      	lsls	r2, r2, #15
 8000ef2:	e786      	b.n	8000e02 <__aeabi_fmul+0x19a>
 8000ef4:	003d      	movs	r5, r7
 8000ef6:	431a      	orrs	r2, r3
 8000ef8:	e783      	b.n	8000e02 <__aeabi_fmul+0x19a>
 8000efa:	0192      	lsls	r2, r2, #6
 8000efc:	2300      	movs	r3, #0
 8000efe:	0a52      	lsrs	r2, r2, #9
 8000f00:	e780      	b.n	8000e04 <__aeabi_fmul+0x19c>
 8000f02:	003d      	movs	r5, r7
 8000f04:	4646      	mov	r6, r8
 8000f06:	e777      	b.n	8000df8 <__aeabi_fmul+0x190>
 8000f08:	002a      	movs	r2, r5
 8000f0a:	2301      	movs	r3, #1
 8000f0c:	407a      	eors	r2, r7
 8000f0e:	408b      	lsls	r3, r1
 8000f10:	2003      	movs	r0, #3
 8000f12:	b2d2      	uxtb	r2, r2
 8000f14:	e6e9      	b.n	8000cea <__aeabi_fmul+0x82>
 8000f16:	46c0      	nop			@ (mov r8, r8)
 8000f18:	f7ffffff 	.word	0xf7ffffff

08000f1c <__aeabi_fsub>:
 8000f1c:	b5f8      	push	{r3, r4, r5, r6, r7, lr}
 8000f1e:	4647      	mov	r7, r8
 8000f20:	46ce      	mov	lr, r9
 8000f22:	0243      	lsls	r3, r0, #9
 8000f24:	b580      	push	{r7, lr}
 8000f26:	0a5f      	lsrs	r7, r3, #9
 8000f28:	099b      	lsrs	r3, r3, #6
 8000f2a:	0045      	lsls	r5, r0, #1
 8000f2c:	004a      	lsls	r2, r1, #1
 8000f2e:	469c      	mov	ip, r3
 8000f30:	024b      	lsls	r3, r1, #9
 8000f32:	0fc4      	lsrs	r4, r0, #31
 8000f34:	0fce      	lsrs	r6, r1, #31
 8000f36:	0e2d      	lsrs	r5, r5, #24
 8000f38:	0a58      	lsrs	r0, r3, #9
 8000f3a:	0e12      	lsrs	r2, r2, #24
 8000f3c:	0999      	lsrs	r1, r3, #6
 8000f3e:	2aff      	cmp	r2, #255	@ 0xff
 8000f40:	d06b      	beq.n	800101a <__aeabi_fsub+0xfe>
 8000f42:	2301      	movs	r3, #1
 8000f44:	405e      	eors	r6, r3
 8000f46:	1aab      	subs	r3, r5, r2
 8000f48:	42b4      	cmp	r4, r6
 8000f4a:	d04b      	beq.n	8000fe4 <__aeabi_fsub+0xc8>
 8000f4c:	2b00      	cmp	r3, #0
 8000f4e:	dc00      	bgt.n	8000f52 <__aeabi_fsub+0x36>
 8000f50:	e0ff      	b.n	8001152 <__aeabi_fsub+0x236>
 8000f52:	2a00      	cmp	r2, #0
 8000f54:	d100      	bne.n	8000f58 <__aeabi_fsub+0x3c>
 8000f56:	e088      	b.n	800106a <__aeabi_fsub+0x14e>
 8000f58:	2dff      	cmp	r5, #255	@ 0xff
 8000f5a:	d100      	bne.n	8000f5e <__aeabi_fsub+0x42>
 8000f5c:	e0ef      	b.n	800113e <__aeabi_fsub+0x222>
 8000f5e:	2280      	movs	r2, #128	@ 0x80
 8000f60:	04d2      	lsls	r2, r2, #19
 8000f62:	4311      	orrs	r1, r2
 8000f64:	2001      	movs	r0, #1
 8000f66:	2b1b      	cmp	r3, #27
 8000f68:	dc08      	bgt.n	8000f7c <__aeabi_fsub+0x60>
 8000f6a:	0008      	movs	r0, r1
 8000f6c:	2220      	movs	r2, #32
 8000f6e:	40d8      	lsrs	r0, r3
 8000f70:	1ad3      	subs	r3, r2, r3
 8000f72:	4099      	lsls	r1, r3
 8000f74:	000b      	movs	r3, r1
 8000f76:	1e5a      	subs	r2, r3, #1
 8000f78:	4193      	sbcs	r3, r2
 8000f7a:	4318      	orrs	r0, r3
 8000f7c:	4663      	mov	r3, ip
 8000f7e:	1a1b      	subs	r3, r3, r0
 8000f80:	469c      	mov	ip, r3
 8000f82:	4663      	mov	r3, ip
 8000f84:	015b      	lsls	r3, r3, #5
 8000f86:	d400      	bmi.n	8000f8a <__aeabi_fsub+0x6e>
 8000f88:	e0cd      	b.n	8001126 <__aeabi_fsub+0x20a>
 8000f8a:	4663      	mov	r3, ip
 8000f8c:	019f      	lsls	r7, r3, #6
 8000f8e:	09bf      	lsrs	r7, r7, #6
 8000f90:	0038      	movs	r0, r7
 8000f92:	f000 fadd 	bl	8001550 <__clzsi2>
 8000f96:	003b      	movs	r3, r7
 8000f98:	3805      	subs	r0, #5
 8000f9a:	4083      	lsls	r3, r0
 8000f9c:	4285      	cmp	r5, r0
 8000f9e:	dc00      	bgt.n	8000fa2 <__aeabi_fsub+0x86>
 8000fa0:	e0a2      	b.n	80010e8 <__aeabi_fsub+0x1cc>
 8000fa2:	4ab7      	ldr	r2, [pc, #732]	@ (8001280 <__aeabi_fsub+0x364>)
 8000fa4:	1a2d      	subs	r5, r5, r0
 8000fa6:	401a      	ands	r2, r3
 8000fa8:	4694      	mov	ip, r2
 8000faa:	075a      	lsls	r2, r3, #29
 8000fac:	d100      	bne.n	8000fb0 <__aeabi_fsub+0x94>
 8000fae:	e0c3      	b.n	8001138 <__aeabi_fsub+0x21c>
 8000fb0:	220f      	movs	r2, #15
 8000fb2:	4013      	ands	r3, r2
 8000fb4:	2b04      	cmp	r3, #4
 8000fb6:	d100      	bne.n	8000fba <__aeabi_fsub+0x9e>
 8000fb8:	e0be      	b.n	8001138 <__aeabi_fsub+0x21c>
 8000fba:	2304      	movs	r3, #4
 8000fbc:	4698      	mov	r8, r3
 8000fbe:	44c4      	add	ip, r8
 8000fc0:	4663      	mov	r3, ip
 8000fc2:	015b      	lsls	r3, r3, #5
 8000fc4:	d400      	bmi.n	8000fc8 <__aeabi_fsub+0xac>
 8000fc6:	e0b7      	b.n	8001138 <__aeabi_fsub+0x21c>
 8000fc8:	1c68      	adds	r0, r5, #1
 8000fca:	2dfe      	cmp	r5, #254	@ 0xfe
 8000fcc:	d000      	beq.n	8000fd0 <__aeabi_fsub+0xb4>
 8000fce:	e0a5      	b.n	800111c <__aeabi_fsub+0x200>
 8000fd0:	20ff      	movs	r0, #255	@ 0xff
 8000fd2:	2200      	movs	r2, #0
 8000fd4:	05c0      	lsls	r0, r0, #23
 8000fd6:	4310      	orrs	r0, r2
 8000fd8:	07e4      	lsls	r4, r4, #31
 8000fda:	4320      	orrs	r0, r4
 8000fdc:	bcc0      	pop	{r6, r7}
 8000fde:	46b9      	mov	r9, r7
 8000fe0:	46b0      	mov	r8, r6
 8000fe2:	bdf8      	pop	{r3, r4, r5, r6, r7, pc}
 8000fe4:	2b00      	cmp	r3, #0
 8000fe6:	dc00      	bgt.n	8000fea <__aeabi_fsub+0xce>
 8000fe8:	e1eb      	b.n	80013c2 <__aeabi_fsub+0x4a6>
 8000fea:	2a00      	cmp	r2, #0
 8000fec:	d046      	beq.n	800107c <__aeabi_fsub+0x160>
 8000fee:	2dff      	cmp	r5, #255	@ 0xff
 8000ff0:	d100      	bne.n	8000ff4 <__aeabi_fsub+0xd8>
 8000ff2:	e0a4      	b.n	800113e <__aeabi_fsub+0x222>
 8000ff4:	2280      	movs	r2, #128	@ 0x80
 8000ff6:	04d2      	lsls	r2, r2, #19
 8000ff8:	4311      	orrs	r1, r2
 8000ffa:	2b1b      	cmp	r3, #27
 8000ffc:	dc00      	bgt.n	8001000 <__aeabi_fsub+0xe4>
 8000ffe:	e0fb      	b.n	80011f8 <__aeabi_fsub+0x2dc>
 8001000:	2305      	movs	r3, #5
 8001002:	4698      	mov	r8, r3
 8001004:	002b      	movs	r3, r5
 8001006:	44c4      	add	ip, r8
 8001008:	4662      	mov	r2, ip
 800100a:	08d7      	lsrs	r7, r2, #3
 800100c:	2bff      	cmp	r3, #255	@ 0xff
 800100e:	d100      	bne.n	8001012 <__aeabi_fsub+0xf6>
 8001010:	e095      	b.n	800113e <__aeabi_fsub+0x222>
 8001012:	027a      	lsls	r2, r7, #9
 8001014:	0a52      	lsrs	r2, r2, #9
 8001016:	b2d8      	uxtb	r0, r3
 8001018:	e7dc      	b.n	8000fd4 <__aeabi_fsub+0xb8>
 800101a:	002b      	movs	r3, r5
 800101c:	3bff      	subs	r3, #255	@ 0xff
 800101e:	4699      	mov	r9, r3
 8001020:	2900      	cmp	r1, #0
 8001022:	d118      	bne.n	8001056 <__aeabi_fsub+0x13a>
 8001024:	2301      	movs	r3, #1
 8001026:	405e      	eors	r6, r3
 8001028:	42b4      	cmp	r4, r6
 800102a:	d100      	bne.n	800102e <__aeabi_fsub+0x112>
 800102c:	e0ca      	b.n	80011c4 <__aeabi_fsub+0x2a8>
 800102e:	464b      	mov	r3, r9
 8001030:	2b00      	cmp	r3, #0
 8001032:	d02d      	beq.n	8001090 <__aeabi_fsub+0x174>
 8001034:	2d00      	cmp	r5, #0
 8001036:	d000      	beq.n	800103a <__aeabi_fsub+0x11e>
 8001038:	e13c      	b.n	80012b4 <__aeabi_fsub+0x398>
 800103a:	23ff      	movs	r3, #255	@ 0xff
 800103c:	4664      	mov	r4, ip
 800103e:	2c00      	cmp	r4, #0
 8001040:	d100      	bne.n	8001044 <__aeabi_fsub+0x128>
 8001042:	e15f      	b.n	8001304 <__aeabi_fsub+0x3e8>
 8001044:	1e5d      	subs	r5, r3, #1
 8001046:	2b01      	cmp	r3, #1
 8001048:	d100      	bne.n	800104c <__aeabi_fsub+0x130>
 800104a:	e174      	b.n	8001336 <__aeabi_fsub+0x41a>
 800104c:	0034      	movs	r4, r6
 800104e:	2bff      	cmp	r3, #255	@ 0xff
 8001050:	d074      	beq.n	800113c <__aeabi_fsub+0x220>
 8001052:	002b      	movs	r3, r5
 8001054:	e103      	b.n	800125e <__aeabi_fsub+0x342>
 8001056:	42b4      	cmp	r4, r6
 8001058:	d100      	bne.n	800105c <__aeabi_fsub+0x140>
 800105a:	e09c      	b.n	8001196 <__aeabi_fsub+0x27a>
 800105c:	2b00      	cmp	r3, #0
 800105e:	d017      	beq.n	8001090 <__aeabi_fsub+0x174>
 8001060:	2d00      	cmp	r5, #0
 8001062:	d0ea      	beq.n	800103a <__aeabi_fsub+0x11e>
 8001064:	0007      	movs	r7, r0
 8001066:	0034      	movs	r4, r6
 8001068:	e06c      	b.n	8001144 <__aeabi_fsub+0x228>
 800106a:	2900      	cmp	r1, #0
 800106c:	d0cc      	beq.n	8001008 <__aeabi_fsub+0xec>
 800106e:	1e5a      	subs	r2, r3, #1
 8001070:	2b01      	cmp	r3, #1
 8001072:	d02b      	beq.n	80010cc <__aeabi_fsub+0x1b0>
 8001074:	2bff      	cmp	r3, #255	@ 0xff
 8001076:	d062      	beq.n	800113e <__aeabi_fsub+0x222>
 8001078:	0013      	movs	r3, r2
 800107a:	e773      	b.n	8000f64 <__aeabi_fsub+0x48>
 800107c:	2900      	cmp	r1, #0
 800107e:	d0c3      	beq.n	8001008 <__aeabi_fsub+0xec>
 8001080:	1e5a      	subs	r2, r3, #1
 8001082:	2b01      	cmp	r3, #1
 8001084:	d100      	bne.n	8001088 <__aeabi_fsub+0x16c>
 8001086:	e11e      	b.n	80012c6 <__aeabi_fsub+0x3aa>
 8001088:	2bff      	cmp	r3, #255	@ 0xff
 800108a:	d058      	beq.n	800113e <__aeabi_fsub+0x222>
 800108c:	0013      	movs	r3, r2
 800108e:	e7b4      	b.n	8000ffa <__aeabi_fsub+0xde>
 8001090:	22fe      	movs	r2, #254	@ 0xfe
 8001092:	1c6b      	adds	r3, r5, #1
 8001094:	421a      	tst	r2, r3
 8001096:	d10d      	bne.n	80010b4 <__aeabi_fsub+0x198>
 8001098:	2d00      	cmp	r5, #0
 800109a:	d060      	beq.n	800115e <__aeabi_fsub+0x242>
 800109c:	4663      	mov	r3, ip
 800109e:	2b00      	cmp	r3, #0
 80010a0:	d000      	beq.n	80010a4 <__aeabi_fsub+0x188>
 80010a2:	e120      	b.n	80012e6 <__aeabi_fsub+0x3ca>
 80010a4:	2900      	cmp	r1, #0
 80010a6:	d000      	beq.n	80010aa <__aeabi_fsub+0x18e>
 80010a8:	e128      	b.n	80012fc <__aeabi_fsub+0x3e0>
 80010aa:	2280      	movs	r2, #128	@ 0x80
 80010ac:	2400      	movs	r4, #0
 80010ae:	20ff      	movs	r0, #255	@ 0xff
 80010b0:	03d2      	lsls	r2, r2, #15
 80010b2:	e78f      	b.n	8000fd4 <__aeabi_fsub+0xb8>
 80010b4:	4663      	mov	r3, ip
 80010b6:	1a5f      	subs	r7, r3, r1
 80010b8:	017b      	lsls	r3, r7, #5
 80010ba:	d500      	bpl.n	80010be <__aeabi_fsub+0x1a2>
 80010bc:	e0fe      	b.n	80012bc <__aeabi_fsub+0x3a0>
 80010be:	2f00      	cmp	r7, #0
 80010c0:	d000      	beq.n	80010c4 <__aeabi_fsub+0x1a8>
 80010c2:	e765      	b.n	8000f90 <__aeabi_fsub+0x74>
 80010c4:	2400      	movs	r4, #0
 80010c6:	2000      	movs	r0, #0
 80010c8:	2200      	movs	r2, #0
 80010ca:	e783      	b.n	8000fd4 <__aeabi_fsub+0xb8>
 80010cc:	4663      	mov	r3, ip
 80010ce:	1a59      	subs	r1, r3, r1
 80010d0:	014b      	lsls	r3, r1, #5
 80010d2:	d400      	bmi.n	80010d6 <__aeabi_fsub+0x1ba>
 80010d4:	e119      	b.n	800130a <__aeabi_fsub+0x3ee>
 80010d6:	018f      	lsls	r7, r1, #6
 80010d8:	09bf      	lsrs	r7, r7, #6
 80010da:	0038      	movs	r0, r7
 80010dc:	f000 fa38 	bl	8001550 <__clzsi2>
 80010e0:	003b      	movs	r3, r7
 80010e2:	3805      	subs	r0, #5
 80010e4:	4083      	lsls	r3, r0
 80010e6:	2501      	movs	r5, #1
 80010e8:	2220      	movs	r2, #32
 80010ea:	1b40      	subs	r0, r0, r5
 80010ec:	3001      	adds	r0, #1
 80010ee:	1a12      	subs	r2, r2, r0
 80010f0:	0019      	movs	r1, r3
 80010f2:	4093      	lsls	r3, r2
 80010f4:	40c1      	lsrs	r1, r0
 80010f6:	1e5a      	subs	r2, r3, #1
 80010f8:	4193      	sbcs	r3, r2
 80010fa:	4319      	orrs	r1, r3
 80010fc:	468c      	mov	ip, r1
 80010fe:	1e0b      	subs	r3, r1, #0
 8001100:	d0e1      	beq.n	80010c6 <__aeabi_fsub+0x1aa>
 8001102:	075b      	lsls	r3, r3, #29
 8001104:	d100      	bne.n	8001108 <__aeabi_fsub+0x1ec>
 8001106:	e152      	b.n	80013ae <__aeabi_fsub+0x492>
 8001108:	230f      	movs	r3, #15
 800110a:	2500      	movs	r5, #0
 800110c:	400b      	ands	r3, r1
 800110e:	2b04      	cmp	r3, #4
 8001110:	d000      	beq.n	8001114 <__aeabi_fsub+0x1f8>
 8001112:	e752      	b.n	8000fba <__aeabi_fsub+0x9e>
 8001114:	2001      	movs	r0, #1
 8001116:	014a      	lsls	r2, r1, #5
 8001118:	d400      	bmi.n	800111c <__aeabi_fsub+0x200>
 800111a:	e092      	b.n	8001242 <__aeabi_fsub+0x326>
 800111c:	b2c0      	uxtb	r0, r0
 800111e:	4663      	mov	r3, ip
 8001120:	019a      	lsls	r2, r3, #6
 8001122:	0a52      	lsrs	r2, r2, #9
 8001124:	e756      	b.n	8000fd4 <__aeabi_fsub+0xb8>
 8001126:	4663      	mov	r3, ip
 8001128:	075b      	lsls	r3, r3, #29
 800112a:	d005      	beq.n	8001138 <__aeabi_fsub+0x21c>
 800112c:	230f      	movs	r3, #15
 800112e:	4662      	mov	r2, ip
 8001130:	4013      	ands	r3, r2
 8001132:	2b04      	cmp	r3, #4
 8001134:	d000      	beq.n	8001138 <__aeabi_fsub+0x21c>
 8001136:	e740      	b.n	8000fba <__aeabi_fsub+0x9e>
 8001138:	002b      	movs	r3, r5
 800113a:	e765      	b.n	8001008 <__aeabi_fsub+0xec>
 800113c:	0007      	movs	r7, r0
 800113e:	2f00      	cmp	r7, #0
 8001140:	d100      	bne.n	8001144 <__aeabi_fsub+0x228>
 8001142:	e745      	b.n	8000fd0 <__aeabi_fsub+0xb4>
 8001144:	2280      	movs	r2, #128	@ 0x80
 8001146:	03d2      	lsls	r2, r2, #15
 8001148:	433a      	orrs	r2, r7
 800114a:	0252      	lsls	r2, r2, #9
 800114c:	20ff      	movs	r0, #255	@ 0xff
 800114e:	0a52      	lsrs	r2, r2, #9
 8001150:	e740      	b.n	8000fd4 <__aeabi_fsub+0xb8>
 8001152:	2b00      	cmp	r3, #0
 8001154:	d179      	bne.n	800124a <__aeabi_fsub+0x32e>
 8001156:	22fe      	movs	r2, #254	@ 0xfe
 8001158:	1c6b      	adds	r3, r5, #1
 800115a:	421a      	tst	r2, r3
 800115c:	d1aa      	bne.n	80010b4 <__aeabi_fsub+0x198>
 800115e:	4663      	mov	r3, ip
 8001160:	2b00      	cmp	r3, #0
 8001162:	d100      	bne.n	8001166 <__aeabi_fsub+0x24a>
 8001164:	e0f5      	b.n	8001352 <__aeabi_fsub+0x436>
 8001166:	2900      	cmp	r1, #0
 8001168:	d100      	bne.n	800116c <__aeabi_fsub+0x250>
 800116a:	e0d1      	b.n	8001310 <__aeabi_fsub+0x3f4>
 800116c:	1a5f      	subs	r7, r3, r1
 800116e:	2380      	movs	r3, #128	@ 0x80
 8001170:	04db      	lsls	r3, r3, #19
 8001172:	421f      	tst	r7, r3
 8001174:	d100      	bne.n	8001178 <__aeabi_fsub+0x25c>
 8001176:	e10e      	b.n	8001396 <__aeabi_fsub+0x47a>
 8001178:	4662      	mov	r2, ip
 800117a:	2401      	movs	r4, #1
 800117c:	1a8a      	subs	r2, r1, r2
 800117e:	4694      	mov	ip, r2
 8001180:	2000      	movs	r0, #0
 8001182:	4034      	ands	r4, r6
 8001184:	2a00      	cmp	r2, #0
 8001186:	d100      	bne.n	800118a <__aeabi_fsub+0x26e>
 8001188:	e724      	b.n	8000fd4 <__aeabi_fsub+0xb8>
 800118a:	2001      	movs	r0, #1
 800118c:	421a      	tst	r2, r3
 800118e:	d1c6      	bne.n	800111e <__aeabi_fsub+0x202>
 8001190:	2300      	movs	r3, #0
 8001192:	08d7      	lsrs	r7, r2, #3
 8001194:	e73d      	b.n	8001012 <__aeabi_fsub+0xf6>
 8001196:	2b00      	cmp	r3, #0
 8001198:	d017      	beq.n	80011ca <__aeabi_fsub+0x2ae>
 800119a:	2d00      	cmp	r5, #0
 800119c:	d000      	beq.n	80011a0 <__aeabi_fsub+0x284>
 800119e:	e0af      	b.n	8001300 <__aeabi_fsub+0x3e4>
 80011a0:	23ff      	movs	r3, #255	@ 0xff
 80011a2:	4665      	mov	r5, ip
 80011a4:	2d00      	cmp	r5, #0
 80011a6:	d100      	bne.n	80011aa <__aeabi_fsub+0x28e>
 80011a8:	e0ad      	b.n	8001306 <__aeabi_fsub+0x3ea>
 80011aa:	1e5e      	subs	r6, r3, #1
 80011ac:	2b01      	cmp	r3, #1
 80011ae:	d100      	bne.n	80011b2 <__aeabi_fsub+0x296>
 80011b0:	e089      	b.n	80012c6 <__aeabi_fsub+0x3aa>
 80011b2:	2bff      	cmp	r3, #255	@ 0xff
 80011b4:	d0c2      	beq.n	800113c <__aeabi_fsub+0x220>
 80011b6:	2e1b      	cmp	r6, #27
 80011b8:	dc00      	bgt.n	80011bc <__aeabi_fsub+0x2a0>
 80011ba:	e0ab      	b.n	8001314 <__aeabi_fsub+0x3f8>
 80011bc:	1d4b      	adds	r3, r1, #5
 80011be:	469c      	mov	ip, r3
 80011c0:	0013      	movs	r3, r2
 80011c2:	e721      	b.n	8001008 <__aeabi_fsub+0xec>
 80011c4:	464b      	mov	r3, r9
 80011c6:	2b00      	cmp	r3, #0
 80011c8:	d170      	bne.n	80012ac <__aeabi_fsub+0x390>
 80011ca:	22fe      	movs	r2, #254	@ 0xfe
 80011cc:	1c6b      	adds	r3, r5, #1
 80011ce:	421a      	tst	r2, r3
 80011d0:	d15e      	bne.n	8001290 <__aeabi_fsub+0x374>
 80011d2:	2d00      	cmp	r5, #0
 80011d4:	d000      	beq.n	80011d8 <__aeabi_fsub+0x2bc>
 80011d6:	e0c3      	b.n	8001360 <__aeabi_fsub+0x444>
 80011d8:	4663      	mov	r3, ip
 80011da:	2b00      	cmp	r3, #0
 80011dc:	d100      	bne.n	80011e0 <__aeabi_fsub+0x2c4>
 80011de:	e0d0      	b.n	8001382 <__aeabi_fsub+0x466>
 80011e0:	2900      	cmp	r1, #0
 80011e2:	d100      	bne.n	80011e6 <__aeabi_fsub+0x2ca>
 80011e4:	e094      	b.n	8001310 <__aeabi_fsub+0x3f4>
 80011e6:	000a      	movs	r2, r1
 80011e8:	4462      	add	r2, ip
 80011ea:	0153      	lsls	r3, r2, #5
 80011ec:	d400      	bmi.n	80011f0 <__aeabi_fsub+0x2d4>
 80011ee:	e0d8      	b.n	80013a2 <__aeabi_fsub+0x486>
 80011f0:	0192      	lsls	r2, r2, #6
 80011f2:	2001      	movs	r0, #1
 80011f4:	0a52      	lsrs	r2, r2, #9
 80011f6:	e6ed      	b.n	8000fd4 <__aeabi_fsub+0xb8>
 80011f8:	0008      	movs	r0, r1
 80011fa:	2220      	movs	r2, #32
 80011fc:	40d8      	lsrs	r0, r3
 80011fe:	1ad3      	subs	r3, r2, r3
 8001200:	4099      	lsls	r1, r3
 8001202:	000b      	movs	r3, r1
 8001204:	1e5a      	subs	r2, r3, #1
 8001206:	4193      	sbcs	r3, r2
 8001208:	4303      	orrs	r3, r0
 800120a:	449c      	add	ip, r3
 800120c:	4663      	mov	r3, ip
 800120e:	015b      	lsls	r3, r3, #5
 8001210:	d589      	bpl.n	8001126 <__aeabi_fsub+0x20a>
 8001212:	3501      	adds	r5, #1
 8001214:	2dff      	cmp	r5, #255	@ 0xff
 8001216:	d100      	bne.n	800121a <__aeabi_fsub+0x2fe>
 8001218:	e6da      	b.n	8000fd0 <__aeabi_fsub+0xb4>
 800121a:	4662      	mov	r2, ip
 800121c:	2301      	movs	r3, #1
 800121e:	4919      	ldr	r1, [pc, #100]	@ (8001284 <__aeabi_fsub+0x368>)
 8001220:	4013      	ands	r3, r2
 8001222:	0852      	lsrs	r2, r2, #1
 8001224:	400a      	ands	r2, r1
 8001226:	431a      	orrs	r2, r3
 8001228:	0013      	movs	r3, r2
 800122a:	4694      	mov	ip, r2
 800122c:	075b      	lsls	r3, r3, #29
 800122e:	d004      	beq.n	800123a <__aeabi_fsub+0x31e>
 8001230:	230f      	movs	r3, #15
 8001232:	4013      	ands	r3, r2
 8001234:	2b04      	cmp	r3, #4
 8001236:	d000      	beq.n	800123a <__aeabi_fsub+0x31e>
 8001238:	e6bf      	b.n	8000fba <__aeabi_fsub+0x9e>
 800123a:	4663      	mov	r3, ip
 800123c:	015b      	lsls	r3, r3, #5
 800123e:	d500      	bpl.n	8001242 <__aeabi_fsub+0x326>
 8001240:	e6c2      	b.n	8000fc8 <__aeabi_fsub+0xac>
 8001242:	4663      	mov	r3, ip
 8001244:	08df      	lsrs	r7, r3, #3
 8001246:	002b      	movs	r3, r5
 8001248:	e6e3      	b.n	8001012 <__aeabi_fsub+0xf6>
 800124a:	1b53      	subs	r3, r2, r5
 800124c:	2d00      	cmp	r5, #0
 800124e:	d100      	bne.n	8001252 <__aeabi_fsub+0x336>
 8001250:	e6f4      	b.n	800103c <__aeabi_fsub+0x120>
 8001252:	2080      	movs	r0, #128	@ 0x80
 8001254:	4664      	mov	r4, ip
 8001256:	04c0      	lsls	r0, r0, #19
 8001258:	4304      	orrs	r4, r0
 800125a:	46a4      	mov	ip, r4
 800125c:	0034      	movs	r4, r6
 800125e:	2001      	movs	r0, #1
 8001260:	2b1b      	cmp	r3, #27
 8001262:	dc09      	bgt.n	8001278 <__aeabi_fsub+0x35c>
 8001264:	2520      	movs	r5, #32
 8001266:	4660      	mov	r0, ip
 8001268:	40d8      	lsrs	r0, r3
 800126a:	1aeb      	subs	r3, r5, r3
 800126c:	4665      	mov	r5, ip
 800126e:	409d      	lsls	r5, r3
 8001270:	002b      	movs	r3, r5
 8001272:	1e5d      	subs	r5, r3, #1
 8001274:	41ab      	sbcs	r3, r5
 8001276:	4318      	orrs	r0, r3
 8001278:	1a0b      	subs	r3, r1, r0
 800127a:	469c      	mov	ip, r3
 800127c:	0015      	movs	r5, r2
 800127e:	e680      	b.n	8000f82 <__aeabi_fsub+0x66>
 8001280:	fbffffff 	.word	0xfbffffff
 8001284:	7dffffff 	.word	0x7dffffff
 8001288:	22fe      	movs	r2, #254	@ 0xfe
 800128a:	1c6b      	adds	r3, r5, #1
 800128c:	4213      	tst	r3, r2
 800128e:	d0a3      	beq.n	80011d8 <__aeabi_fsub+0x2bc>
 8001290:	2bff      	cmp	r3, #255	@ 0xff
 8001292:	d100      	bne.n	8001296 <__aeabi_fsub+0x37a>
 8001294:	e69c      	b.n	8000fd0 <__aeabi_fsub+0xb4>
 8001296:	4461      	add	r1, ip
 8001298:	0849      	lsrs	r1, r1, #1
 800129a:	074a      	lsls	r2, r1, #29
 800129c:	d049      	beq.n	8001332 <__aeabi_fsub+0x416>
 800129e:	220f      	movs	r2, #15
 80012a0:	400a      	ands	r2, r1
 80012a2:	2a04      	cmp	r2, #4
 80012a4:	d045      	beq.n	8001332 <__aeabi_fsub+0x416>
 80012a6:	1d0a      	adds	r2, r1, #4
 80012a8:	4694      	mov	ip, r2
 80012aa:	e6ad      	b.n	8001008 <__aeabi_fsub+0xec>
 80012ac:	2d00      	cmp	r5, #0
 80012ae:	d100      	bne.n	80012b2 <__aeabi_fsub+0x396>
 80012b0:	e776      	b.n	80011a0 <__aeabi_fsub+0x284>
 80012b2:	e68d      	b.n	8000fd0 <__aeabi_fsub+0xb4>
 80012b4:	0034      	movs	r4, r6
 80012b6:	20ff      	movs	r0, #255	@ 0xff
 80012b8:	2200      	movs	r2, #0
 80012ba:	e68b      	b.n	8000fd4 <__aeabi_fsub+0xb8>
 80012bc:	4663      	mov	r3, ip
 80012be:	2401      	movs	r4, #1
 80012c0:	1acf      	subs	r7, r1, r3
 80012c2:	4034      	ands	r4, r6
 80012c4:	e664      	b.n	8000f90 <__aeabi_fsub+0x74>
 80012c6:	4461      	add	r1, ip
 80012c8:	014b      	lsls	r3, r1, #5
 80012ca:	d56d      	bpl.n	80013a8 <__aeabi_fsub+0x48c>
 80012cc:	0848      	lsrs	r0, r1, #1
 80012ce:	4944      	ldr	r1, [pc, #272]	@ (80013e0 <__aeabi_fsub+0x4c4>)
 80012d0:	4001      	ands	r1, r0
 80012d2:	0743      	lsls	r3, r0, #29
 80012d4:	d02c      	beq.n	8001330 <__aeabi_fsub+0x414>
 80012d6:	230f      	movs	r3, #15
 80012d8:	4003      	ands	r3, r0
 80012da:	2b04      	cmp	r3, #4
 80012dc:	d028      	beq.n	8001330 <__aeabi_fsub+0x414>
 80012de:	1d0b      	adds	r3, r1, #4
 80012e0:	469c      	mov	ip, r3
 80012e2:	2302      	movs	r3, #2
 80012e4:	e690      	b.n	8001008 <__aeabi_fsub+0xec>
 80012e6:	2900      	cmp	r1, #0
 80012e8:	d100      	bne.n	80012ec <__aeabi_fsub+0x3d0>
 80012ea:	e72b      	b.n	8001144 <__aeabi_fsub+0x228>
 80012ec:	2380      	movs	r3, #128	@ 0x80
 80012ee:	03db      	lsls	r3, r3, #15
 80012f0:	429f      	cmp	r7, r3
 80012f2:	d200      	bcs.n	80012f6 <__aeabi_fsub+0x3da>
 80012f4:	e726      	b.n	8001144 <__aeabi_fsub+0x228>
 80012f6:	4298      	cmp	r0, r3
 80012f8:	d300      	bcc.n	80012fc <__aeabi_fsub+0x3e0>
 80012fa:	e723      	b.n	8001144 <__aeabi_fsub+0x228>
 80012fc:	2401      	movs	r4, #1
 80012fe:	4034      	ands	r4, r6
 8001300:	0007      	movs	r7, r0
 8001302:	e71f      	b.n	8001144 <__aeabi_fsub+0x228>
 8001304:	0034      	movs	r4, r6
 8001306:	468c      	mov	ip, r1
 8001308:	e67e      	b.n	8001008 <__aeabi_fsub+0xec>
 800130a:	2301      	movs	r3, #1
 800130c:	08cf      	lsrs	r7, r1, #3
 800130e:	e680      	b.n	8001012 <__aeabi_fsub+0xf6>
 8001310:	2300      	movs	r3, #0
 8001312:	e67e      	b.n	8001012 <__aeabi_fsub+0xf6>
 8001314:	2020      	movs	r0, #32
 8001316:	4665      	mov	r5, ip
 8001318:	1b80      	subs	r0, r0, r6
 800131a:	4085      	lsls	r5, r0
 800131c:	4663      	mov	r3, ip
 800131e:	0028      	movs	r0, r5
 8001320:	40f3      	lsrs	r3, r6
 8001322:	1e45      	subs	r5, r0, #1
 8001324:	41a8      	sbcs	r0, r5
 8001326:	4303      	orrs	r3, r0
 8001328:	469c      	mov	ip, r3
 800132a:	0015      	movs	r5, r2
 800132c:	448c      	add	ip, r1
 800132e:	e76d      	b.n	800120c <__aeabi_fsub+0x2f0>
 8001330:	2302      	movs	r3, #2
 8001332:	08cf      	lsrs	r7, r1, #3
 8001334:	e66d      	b.n	8001012 <__aeabi_fsub+0xf6>
 8001336:	1b0f      	subs	r7, r1, r4
 8001338:	017b      	lsls	r3, r7, #5
 800133a:	d528      	bpl.n	800138e <__aeabi_fsub+0x472>
 800133c:	01bf      	lsls	r7, r7, #6
 800133e:	09bf      	lsrs	r7, r7, #6
 8001340:	0038      	movs	r0, r7
 8001342:	f000 f905 	bl	8001550 <__clzsi2>
 8001346:	003b      	movs	r3, r7
 8001348:	3805      	subs	r0, #5
 800134a:	4083      	lsls	r3, r0
 800134c:	0034      	movs	r4, r6
 800134e:	2501      	movs	r5, #1
 8001350:	e6ca      	b.n	80010e8 <__aeabi_fsub+0x1cc>
 8001352:	2900      	cmp	r1, #0
 8001354:	d100      	bne.n	8001358 <__aeabi_fsub+0x43c>
 8001356:	e6b5      	b.n	80010c4 <__aeabi_fsub+0x1a8>
 8001358:	2401      	movs	r4, #1
 800135a:	0007      	movs	r7, r0
 800135c:	4034      	ands	r4, r6
 800135e:	e658      	b.n	8001012 <__aeabi_fsub+0xf6>
 8001360:	4663      	mov	r3, ip
 8001362:	2b00      	cmp	r3, #0
 8001364:	d100      	bne.n	8001368 <__aeabi_fsub+0x44c>
 8001366:	e6e9      	b.n	800113c <__aeabi_fsub+0x220>
 8001368:	2900      	cmp	r1, #0
 800136a:	d100      	bne.n	800136e <__aeabi_fsub+0x452>
 800136c:	e6ea      	b.n	8001144 <__aeabi_fsub+0x228>
 800136e:	2380      	movs	r3, #128	@ 0x80
 8001370:	03db      	lsls	r3, r3, #15
 8001372:	429f      	cmp	r7, r3
 8001374:	d200      	bcs.n	8001378 <__aeabi_fsub+0x45c>
 8001376:	e6e5      	b.n	8001144 <__aeabi_fsub+0x228>
 8001378:	4298      	cmp	r0, r3
 800137a:	d300      	bcc.n	800137e <__aeabi_fsub+0x462>
 800137c:	e6e2      	b.n	8001144 <__aeabi_fsub+0x228>
 800137e:	0007      	movs	r7, r0
 8001380:	e6e0      	b.n	8001144 <__aeabi_fsub+0x228>
 8001382:	2900      	cmp	r1, #0
 8001384:	d100      	bne.n	8001388 <__aeabi_fsub+0x46c>
 8001386:	e69e      	b.n	80010c6 <__aeabi_fsub+0x1aa>
 8001388:	2300      	movs	r3, #0
 800138a:	08cf      	lsrs	r7, r1, #3
 800138c:	e641      	b.n	8001012 <__aeabi_fsub+0xf6>
 800138e:	0034      	movs	r4, r6
 8001390:	2301      	movs	r3, #1
 8001392:	08ff      	lsrs	r7, r7, #3
 8001394:	e63d      	b.n	8001012 <__aeabi_fsub+0xf6>
 8001396:	2f00      	cmp	r7, #0
 8001398:	d100      	bne.n	800139c <__aeabi_fsub+0x480>
 800139a:	e693      	b.n	80010c4 <__aeabi_fsub+0x1a8>
 800139c:	2300      	movs	r3, #0
 800139e:	08ff      	lsrs	r7, r7, #3
 80013a0:	e637      	b.n	8001012 <__aeabi_fsub+0xf6>
 80013a2:	2300      	movs	r3, #0
 80013a4:	08d7      	lsrs	r7, r2, #3
 80013a6:	e634      	b.n	8001012 <__aeabi_fsub+0xf6>
 80013a8:	2301      	movs	r3, #1
 80013aa:	08cf      	lsrs	r7, r1, #3
 80013ac:	e631      	b.n	8001012 <__aeabi_fsub+0xf6>
 80013ae:	2280      	movs	r2, #128	@ 0x80
 80013b0:	000b      	movs	r3, r1
 80013b2:	04d2      	lsls	r2, r2, #19
 80013b4:	2001      	movs	r0, #1
 80013b6:	4013      	ands	r3, r2
 80013b8:	4211      	tst	r1, r2
 80013ba:	d000      	beq.n	80013be <__aeabi_fsub+0x4a2>
 80013bc:	e6ae      	b.n	800111c <__aeabi_fsub+0x200>
 80013be:	08cf      	lsrs	r7, r1, #3
 80013c0:	e627      	b.n	8001012 <__aeabi_fsub+0xf6>
 80013c2:	2b00      	cmp	r3, #0
 80013c4:	d100      	bne.n	80013c8 <__aeabi_fsub+0x4ac>
 80013c6:	e75f      	b.n	8001288 <__aeabi_fsub+0x36c>
 80013c8:	1b56      	subs	r6, r2, r5
 80013ca:	2d00      	cmp	r5, #0
 80013cc:	d101      	bne.n	80013d2 <__aeabi_fsub+0x4b6>
 80013ce:	0033      	movs	r3, r6
 80013d0:	e6e7      	b.n	80011a2 <__aeabi_fsub+0x286>
 80013d2:	2380      	movs	r3, #128	@ 0x80
 80013d4:	4660      	mov	r0, ip
 80013d6:	04db      	lsls	r3, r3, #19
 80013d8:	4318      	orrs	r0, r3
 80013da:	4684      	mov	ip, r0
 80013dc:	e6eb      	b.n	80011b6 <__aeabi_fsub+0x29a>
 80013de:	46c0      	nop			@ (mov r8, r8)
 80013e0:	7dffffff 	.word	0x7dffffff

080013e4 <__aeabi_f2iz>:
 80013e4:	0241      	lsls	r1, r0, #9
 80013e6:	0042      	lsls	r2, r0, #1
 80013e8:	0fc3      	lsrs	r3, r0, #31
 80013ea:	0a49      	lsrs	r1, r1, #9
 80013ec:	2000      	movs	r0, #0
 80013ee:	0e12      	lsrs	r2, r2, #24
 80013f0:	2a7e      	cmp	r2, #126	@ 0x7e
 80013f2:	dd03      	ble.n	80013fc <__aeabi_f2iz+0x18>
 80013f4:	2a9d      	cmp	r2, #157	@ 0x9d
 80013f6:	dd02      	ble.n	80013fe <__aeabi_f2iz+0x1a>
 80013f8:	4a09      	ldr	r2, [pc, #36]	@ (8001420 <__aeabi_f2iz+0x3c>)
 80013fa:	1898      	adds	r0, r3, r2
 80013fc:	4770      	bx	lr
 80013fe:	2080      	movs	r0, #128	@ 0x80
 8001400:	0400      	lsls	r0, r0, #16
 8001402:	4301      	orrs	r1, r0
 8001404:	2a95      	cmp	r2, #149	@ 0x95
 8001406:	dc07      	bgt.n	8001418 <__aeabi_f2iz+0x34>
 8001408:	2096      	movs	r0, #150	@ 0x96
 800140a:	1a82      	subs	r2, r0, r2
 800140c:	40d1      	lsrs	r1, r2
 800140e:	4248      	negs	r0, r1
 8001410:	2b00      	cmp	r3, #0
 8001412:	d1f3      	bne.n	80013fc <__aeabi_f2iz+0x18>
 8001414:	0008      	movs	r0, r1
 8001416:	e7f1      	b.n	80013fc <__aeabi_f2iz+0x18>
 8001418:	3a96      	subs	r2, #150	@ 0x96
 800141a:	4091      	lsls	r1, r2
 800141c:	e7f7      	b.n	800140e <__aeabi_f2iz+0x2a>
 800141e:	46c0      	nop			@ (mov r8, r8)
 8001420:	7fffffff 	.word	0x7fffffff

08001424 <__aeabi_i2f>:
 8001424:	b570      	push	{r4, r5, r6, lr}
 8001426:	2800      	cmp	r0, #0
 8001428:	d012      	beq.n	8001450 <__aeabi_i2f+0x2c>
 800142a:	17c3      	asrs	r3, r0, #31
 800142c:	18c5      	adds	r5, r0, r3
 800142e:	405d      	eors	r5, r3
 8001430:	0fc4      	lsrs	r4, r0, #31
 8001432:	0028      	movs	r0, r5
 8001434:	f000 f88c 	bl	8001550 <__clzsi2>
 8001438:	239e      	movs	r3, #158	@ 0x9e
 800143a:	1a1b      	subs	r3, r3, r0
 800143c:	2b96      	cmp	r3, #150	@ 0x96
 800143e:	dc0f      	bgt.n	8001460 <__aeabi_i2f+0x3c>
 8001440:	2808      	cmp	r0, #8
 8001442:	d038      	beq.n	80014b6 <__aeabi_i2f+0x92>
 8001444:	3808      	subs	r0, #8
 8001446:	4085      	lsls	r5, r0
 8001448:	026d      	lsls	r5, r5, #9
 800144a:	0a6d      	lsrs	r5, r5, #9
 800144c:	b2d8      	uxtb	r0, r3
 800144e:	e002      	b.n	8001456 <__aeabi_i2f+0x32>
 8001450:	2400      	movs	r4, #0
 8001452:	2000      	movs	r0, #0
 8001454:	2500      	movs	r5, #0
 8001456:	05c0      	lsls	r0, r0, #23
 8001458:	4328      	orrs	r0, r5
 800145a:	07e4      	lsls	r4, r4, #31
 800145c:	4320      	orrs	r0, r4
 800145e:	bd70      	pop	{r4, r5, r6, pc}
 8001460:	2b99      	cmp	r3, #153	@ 0x99
 8001462:	dc14      	bgt.n	800148e <__aeabi_i2f+0x6a>
 8001464:	1f42      	subs	r2, r0, #5
 8001466:	4095      	lsls	r5, r2
 8001468:	002a      	movs	r2, r5
 800146a:	4915      	ldr	r1, [pc, #84]	@ (80014c0 <__aeabi_i2f+0x9c>)
 800146c:	4011      	ands	r1, r2
 800146e:	0755      	lsls	r5, r2, #29
 8001470:	d01c      	beq.n	80014ac <__aeabi_i2f+0x88>
 8001472:	250f      	movs	r5, #15
 8001474:	402a      	ands	r2, r5
 8001476:	2a04      	cmp	r2, #4
 8001478:	d018      	beq.n	80014ac <__aeabi_i2f+0x88>
 800147a:	3104      	adds	r1, #4
 800147c:	08ca      	lsrs	r2, r1, #3
 800147e:	0149      	lsls	r1, r1, #5
 8001480:	d515      	bpl.n	80014ae <__aeabi_i2f+0x8a>
 8001482:	239f      	movs	r3, #159	@ 0x9f
 8001484:	0252      	lsls	r2, r2, #9
 8001486:	1a18      	subs	r0, r3, r0
 8001488:	0a55      	lsrs	r5, r2, #9
 800148a:	b2c0      	uxtb	r0, r0
 800148c:	e7e3      	b.n	8001456 <__aeabi_i2f+0x32>
 800148e:	2205      	movs	r2, #5
 8001490:	0029      	movs	r1, r5
 8001492:	1a12      	subs	r2, r2, r0
 8001494:	40d1      	lsrs	r1, r2
 8001496:	0002      	movs	r2, r0
 8001498:	321b      	adds	r2, #27
 800149a:	4095      	lsls	r5, r2
 800149c:	002a      	movs	r2, r5
 800149e:	1e55      	subs	r5, r2, #1
 80014a0:	41aa      	sbcs	r2, r5
 80014a2:	430a      	orrs	r2, r1
 80014a4:	4906      	ldr	r1, [pc, #24]	@ (80014c0 <__aeabi_i2f+0x9c>)
 80014a6:	4011      	ands	r1, r2
 80014a8:	0755      	lsls	r5, r2, #29
 80014aa:	d1e2      	bne.n	8001472 <__aeabi_i2f+0x4e>
 80014ac:	08ca      	lsrs	r2, r1, #3
 80014ae:	0252      	lsls	r2, r2, #9
 80014b0:	0a55      	lsrs	r5, r2, #9
 80014b2:	b2d8      	uxtb	r0, r3
 80014b4:	e7cf      	b.n	8001456 <__aeabi_i2f+0x32>
 80014b6:	026d      	lsls	r5, r5, #9
 80014b8:	0a6d      	lsrs	r5, r5, #9
 80014ba:	308e      	adds	r0, #142	@ 0x8e
 80014bc:	e7cb      	b.n	8001456 <__aeabi_i2f+0x32>
 80014be:	46c0      	nop			@ (mov r8, r8)
 80014c0:	fbffffff 	.word	0xfbffffff

080014c4 <__aeabi_ui2f>:
 80014c4:	b510      	push	{r4, lr}
 80014c6:	1e04      	subs	r4, r0, #0
 80014c8:	d00d      	beq.n	80014e6 <__aeabi_ui2f+0x22>
 80014ca:	f000 f841 	bl	8001550 <__clzsi2>
 80014ce:	239e      	movs	r3, #158	@ 0x9e
 80014d0:	1a1b      	subs	r3, r3, r0
 80014d2:	2b96      	cmp	r3, #150	@ 0x96
 80014d4:	dc0c      	bgt.n	80014f0 <__aeabi_ui2f+0x2c>
 80014d6:	2808      	cmp	r0, #8
 80014d8:	d034      	beq.n	8001544 <__aeabi_ui2f+0x80>
 80014da:	3808      	subs	r0, #8
 80014dc:	4084      	lsls	r4, r0
 80014de:	0264      	lsls	r4, r4, #9
 80014e0:	0a64      	lsrs	r4, r4, #9
 80014e2:	b2d8      	uxtb	r0, r3
 80014e4:	e001      	b.n	80014ea <__aeabi_ui2f+0x26>
 80014e6:	2000      	movs	r0, #0
 80014e8:	2400      	movs	r4, #0
 80014ea:	05c0      	lsls	r0, r0, #23
 80014ec:	4320      	orrs	r0, r4
 80014ee:	bd10      	pop	{r4, pc}
 80014f0:	2b99      	cmp	r3, #153	@ 0x99
 80014f2:	dc13      	bgt.n	800151c <__aeabi_ui2f+0x58>
 80014f4:	1f42      	subs	r2, r0, #5
 80014f6:	4094      	lsls	r4, r2
 80014f8:	4a14      	ldr	r2, [pc, #80]	@ (800154c <__aeabi_ui2f+0x88>)
 80014fa:	4022      	ands	r2, r4
 80014fc:	0761      	lsls	r1, r4, #29
 80014fe:	d01c      	beq.n	800153a <__aeabi_ui2f+0x76>
 8001500:	210f      	movs	r1, #15
 8001502:	4021      	ands	r1, r4
 8001504:	2904      	cmp	r1, #4
 8001506:	d018      	beq.n	800153a <__aeabi_ui2f+0x76>
 8001508:	3204      	adds	r2, #4
 800150a:	08d4      	lsrs	r4, r2, #3
 800150c:	0152      	lsls	r2, r2, #5
 800150e:	d515      	bpl.n	800153c <__aeabi_ui2f+0x78>
 8001510:	239f      	movs	r3, #159	@ 0x9f
 8001512:	0264      	lsls	r4, r4, #9
 8001514:	1a18      	subs	r0, r3, r0
 8001516:	0a64      	lsrs	r4, r4, #9
 8001518:	b2c0      	uxtb	r0, r0
 800151a:	e7e6      	b.n	80014ea <__aeabi_ui2f+0x26>
 800151c:	0002      	movs	r2, r0
 800151e:	0021      	movs	r1, r4
 8001520:	321b      	adds	r2, #27
 8001522:	4091      	lsls	r1, r2
 8001524:	000a      	movs	r2, r1
 8001526:	1e51      	subs	r1, r2, #1
 8001528:	418a      	sbcs	r2, r1
 800152a:	2105      	movs	r1, #5
 800152c:	1a09      	subs	r1, r1, r0
 800152e:	40cc      	lsrs	r4, r1
 8001530:	4314      	orrs	r4, r2
 8001532:	4a06      	ldr	r2, [pc, #24]	@ (800154c <__aeabi_ui2f+0x88>)
 8001534:	4022      	ands	r2, r4
 8001536:	0761      	lsls	r1, r4, #29
 8001538:	d1e2      	bne.n	8001500 <__aeabi_ui2f+0x3c>
 800153a:	08d4      	lsrs	r4, r2, #3
 800153c:	0264      	lsls	r4, r4, #9
 800153e:	0a64      	lsrs	r4, r4, #9
 8001540:	b2d8      	uxtb	r0, r3
 8001542:	e7d2      	b.n	80014ea <__aeabi_ui2f+0x26>
 8001544:	0264      	lsls	r4, r4, #9
 8001546:	0a64      	lsrs	r4, r4, #9
 8001548:	308e      	adds	r0, #142	@ 0x8e
 800154a:	e7ce      	b.n	80014ea <__aeabi_ui2f+0x26>
 800154c:	fbffffff 	.word	0xfbffffff

08001550 <__clzsi2>:
 8001550:	211c      	movs	r1, #28
 8001552:	2301      	movs	r3, #1
 8001554:	041b      	lsls	r3, r3, #16
 8001556:	4298      	cmp	r0, r3
 8001558:	d301      	bcc.n	800155e <__clzsi2+0xe>
 800155a:	0c00      	lsrs	r0, r0, #16
 800155c:	3910      	subs	r1, #16
 800155e:	0a1b      	lsrs	r3, r3, #8
 8001560:	4298      	cmp	r0, r3
 8001562:	d301      	bcc.n	8001568 <__clzsi2+0x18>
 8001564:	0a00      	lsrs	r0, r0, #8
 8001566:	3908      	subs	r1, #8
 8001568:	091b      	lsrs	r3, r3, #4
 800156a:	4298      	cmp	r0, r3
 800156c:	d301      	bcc.n	8001572 <__clzsi2+0x22>
 800156e:	0900      	lsrs	r0, r0, #4
 8001570:	3904      	subs	r1, #4
 8001572:	a202      	add	r2, pc, #8	@ (adr r2, 800157c <__clzsi2+0x2c>)
 8001574:	5c10      	ldrb	r0, [r2, r0]
 8001576:	1840      	adds	r0, r0, r1
 8001578:	4770      	bx	lr
 800157a:	46c0      	nop			@ (mov r8, r8)
 800157c:	02020304 	.word	0x02020304
 8001580:	01010101 	.word	0x01010101
	...

0800158c <parse_int>:
 *  Unknown commands return ERR,?,UNKNOWN
 * ==========================================================================*/

/* ── tiny integer parser (no sscanf — keeps flash small) ────────────────── */
static int32_t parse_int(const char **p)
{
 800158c:	0001      	movs	r1, r0
 800158e:	b5f0      	push	{r4, r5, r6, r7, lr}
    const char *s = *p;
 8001590:	6803      	ldr	r3, [r0, #0]
    int32_t sign = 1, val = 0;
    while (*s == ' ') s++;
 8001592:	781a      	ldrb	r2, [r3, #0]
 8001594:	2a20      	cmp	r2, #32
 8001596:	d007      	beq.n	80015a8 <parse_int+0x1c>
    if (*s == '-') { sign = -1; s++; }
 8001598:	2a2d      	cmp	r2, #45	@ 0x2d
 800159a:	d107      	bne.n	80015ac <parse_int+0x20>
 800159c:	2001      	movs	r0, #1
 800159e:	3301      	adds	r3, #1
 80015a0:	4240      	negs	r0, r0
 80015a2:	2400      	movs	r4, #0
    else if (*s == '+') { s++; }
    while (*s >= '0' && *s <= '9') { val = val * 10 + (*s - '0'); s++; }
 80015a4:	270a      	movs	r7, #10
 80015a6:	e00a      	b.n	80015be <parse_int+0x32>
    while (*s == ' ') s++;
 80015a8:	3301      	adds	r3, #1
 80015aa:	e7f2      	b.n	8001592 <parse_int+0x6>
    else if (*s == '+') { s++; }
 80015ac:	3a2b      	subs	r2, #43	@ 0x2b
 80015ae:	4254      	negs	r4, r2
 80015b0:	4162      	adcs	r2, r4
    int32_t sign = 1, val = 0;
 80015b2:	2001      	movs	r0, #1
    else if (*s == '+') { s++; }
 80015b4:	189b      	adds	r3, r3, r2
 80015b6:	e7f4      	b.n	80015a2 <parse_int+0x16>
    while (*s >= '0' && *s <= '9') { val = val * 10 + (*s - '0'); s++; }
 80015b8:	437c      	muls	r4, r7
 80015ba:	3301      	adds	r3, #1
 80015bc:	192c      	adds	r4, r5, r4
 80015be:	781a      	ldrb	r2, [r3, #0]
 80015c0:	0015      	movs	r5, r2
 80015c2:	3d30      	subs	r5, #48	@ 0x30
 80015c4:	b2ee      	uxtb	r6, r5
 80015c6:	2e09      	cmp	r6, #9
 80015c8:	d9f6      	bls.n	80015b8 <parse_int+0x2c>
    if (*s == ',') s++;
 80015ca:	3a2c      	subs	r2, #44	@ 0x2c
 80015cc:	4255      	negs	r5, r2
 80015ce:	416a      	adcs	r2, r5
 80015d0:	189b      	adds	r3, r3, r2
    *p = s;
    return sign * val;
 80015d2:	4360      	muls	r0, r4
    *p = s;
 80015d4:	600b      	str	r3, [r1, #0]
}
 80015d6:	bdf0      	pop	{r4, r5, r6, r7, pc}

080015d8 <append_int>:
    BLE_SendLine(&app->ble, buf);
}

/* Append a signed integer to buf at *idx. */
static void append_int(char *buf, uint8_t *idx, int32_t v)
{
 80015d8:	b5f0      	push	{r4, r5, r6, r7, lr}
 80015da:	0007      	movs	r7, r0
 80015dc:	000e      	movs	r6, r1
 80015de:	0014      	movs	r4, r2
 80015e0:	b087      	sub	sp, #28
    char tmp[12];
    uint8_t n = 0;
    if (v < 0) { buf[(*idx)++] = '-'; v = -v; }
 80015e2:	2a00      	cmp	r2, #0
 80015e4:	da19      	bge.n	800161a <append_int+0x42>
 80015e6:	780b      	ldrb	r3, [r1, #0]
 80015e8:	4264      	negs	r4, r4
 80015ea:	1c5a      	adds	r2, r3, #1
 80015ec:	700a      	strb	r2, [r1, #0]
 80015ee:	222d      	movs	r2, #45	@ 0x2d
 80015f0:	54c2      	strb	r2, [r0, r3]
{
 80015f2:	2500      	movs	r5, #0
    if (v == 0) { tmp[n++] = '0'; }
    while (v > 0) { tmp[n++] = (char)('0' + (v % 10)); v /= 10; }
 80015f4:	2c00      	cmp	r4, #0
 80015f6:	d016      	beq.n	8001626 <append_int+0x4e>
 80015f8:	1c6b      	adds	r3, r5, #1
 80015fa:	b2db      	uxtb	r3, r3
 80015fc:	0020      	movs	r0, r4
 80015fe:	210a      	movs	r1, #10
 8001600:	9301      	str	r3, [sp, #4]
 8001602:	f7fe ff0d 	bl	8000420 <__aeabi_idivmod>
 8001606:	ab03      	add	r3, sp, #12
 8001608:	3130      	adds	r1, #48	@ 0x30
 800160a:	5559      	strb	r1, [r3, r5]
 800160c:	0020      	movs	r0, r4
 800160e:	210a      	movs	r1, #10
 8001610:	f7fe fe20 	bl	8000254 <__divsi3>
 8001614:	9d01      	ldr	r5, [sp, #4]
 8001616:	0004      	movs	r4, r0
 8001618:	e7ec      	b.n	80015f4 <append_int+0x1c>
    if (v == 0) { tmp[n++] = '0'; }
 800161a:	2a00      	cmp	r2, #0
 800161c:	d1e9      	bne.n	80015f2 <append_int+0x1a>
 800161e:	2230      	movs	r2, #48	@ 0x30
 8001620:	2501      	movs	r5, #1
 8001622:	ab03      	add	r3, sp, #12
 8001624:	701a      	strb	r2, [r3, #0]
    while (n) buf[(*idx)++] = tmp[--n];
 8001626:	aa03      	add	r2, sp, #12
 8001628:	e006      	b.n	8001638 <append_int+0x60>
 800162a:	7833      	ldrb	r3, [r6, #0]
 800162c:	3d01      	subs	r5, #1
 800162e:	1c59      	adds	r1, r3, #1
 8001630:	b2ed      	uxtb	r5, r5
 8001632:	7031      	strb	r1, [r6, #0]
 8001634:	5d51      	ldrb	r1, [r2, r5]
 8001636:	54f9      	strb	r1, [r7, r3]
 8001638:	2d00      	cmp	r5, #0
 800163a:	d1f6      	bne.n	800162a <append_int+0x52>
}
 800163c:	b007      	add	sp, #28
 800163e:	bdf0      	pop	{r4, r5, r6, r7, pc}

08001640 <starts_with>:

/* Case-insensitive prefix match. */
static uint8_t starts_with(const char *line, const char *tok)
{
 8001640:	b530      	push	{r4, r5, lr}
    while (*tok) {
 8001642:	2400      	movs	r4, #0
 8001644:	5d0b      	ldrb	r3, [r1, r4]
 8001646:	2b00      	cmp	r3, #0
 8001648:	d101      	bne.n	800164e <starts_with+0xe>
        if (a >= 'a' && a <= 'z') a = (char)(a - 32);
        if (b >= 'a' && b <= 'z') b = (char)(b - 32);
        if (a != b) return 0;
        line++; tok++;
    }
    return 1;
 800164a:	2001      	movs	r0, #1
}
 800164c:	bd30      	pop	{r4, r5, pc}
        char a = *line, b = *tok;
 800164e:	5d02      	ldrb	r2, [r0, r4]
        if (a >= 'a' && a <= 'z') a = (char)(a - 32);
 8001650:	0015      	movs	r5, r2
 8001652:	3d61      	subs	r5, #97	@ 0x61
 8001654:	2d19      	cmp	r5, #25
 8001656:	d801      	bhi.n	800165c <starts_with+0x1c>
 8001658:	3a20      	subs	r2, #32
 800165a:	b2d2      	uxtb	r2, r2
        if (b >= 'a' && b <= 'z') b = (char)(b - 32);
 800165c:	001d      	movs	r5, r3
 800165e:	3d61      	subs	r5, #97	@ 0x61
 8001660:	2d19      	cmp	r5, #25
 8001662:	d801      	bhi.n	8001668 <starts_with+0x28>
 8001664:	3b20      	subs	r3, #32
 8001666:	b2db      	uxtb	r3, r3
        if (a != b) return 0;
 8001668:	3401      	adds	r4, #1
 800166a:	429a      	cmp	r2, r3
 800166c:	d0ea      	beq.n	8001644 <starts_with+0x4>
 800166e:	2000      	movs	r0, #0
 8001670:	e7ec      	b.n	800164c <starts_with+0xc>
	...

08001674 <send_ok>:
{
 8001674:	b5f0      	push	{r4, r5, r6, r7, lr}
    while (*pfx) buf[i++] = *pfx++;
 8001676:	2200      	movs	r2, #0
 8001678:	25ff      	movs	r5, #255	@ 0xff
 800167a:	4e0f      	ldr	r6, [pc, #60]	@ (80016b8 <send_ok+0x44>)
{
 800167c:	b08b      	sub	sp, #44	@ 0x2c
    while (*pfx) buf[i++] = *pfx++;
 800167e:	0013      	movs	r3, r2
 8001680:	5cb4      	ldrb	r4, [r6, r2]
 8001682:	402b      	ands	r3, r5
 8001684:	3201      	adds	r2, #1
 8001686:	2c00      	cmp	r4, #0
 8001688:	d10e      	bne.n	80016a8 <send_ok+0x34>
    while (*cmd && i < (uint8_t)(sizeof(buf) - 1U)) buf[i++] = *cmd++;
 800168a:	1ac9      	subs	r1, r1, r3
 800168c:	5cca      	ldrb	r2, [r1, r3]
 800168e:	2a00      	cmp	r2, #0
 8001690:	d002      	beq.n	8001698 <send_ok+0x24>
 8001692:	b2dc      	uxtb	r4, r3
 8001694:	2c26      	cmp	r4, #38	@ 0x26
 8001696:	d90a      	bls.n	80016ae <send_ok+0x3a>
    buf[i] = '\0';
 8001698:	2200      	movs	r2, #0
 800169a:	4669      	mov	r1, sp
    BLE_SendLine(&app->ble, buf);
 800169c:	3034      	adds	r0, #52	@ 0x34
    buf[i] = '\0';
 800169e:	54ca      	strb	r2, [r1, r3]
    BLE_SendLine(&app->ble, buf);
 80016a0:	f001 f814 	bl	80026cc <BLE_SendLine>
}
 80016a4:	b00b      	add	sp, #44	@ 0x2c
 80016a6:	bdf0      	pop	{r4, r5, r6, r7, pc}
    while (*pfx) buf[i++] = *pfx++;
 80016a8:	466f      	mov	r7, sp
 80016aa:	54fc      	strb	r4, [r7, r3]
 80016ac:	e7e7      	b.n	800167e <send_ok+0xa>
    while (*cmd && i < (uint8_t)(sizeof(buf) - 1U)) buf[i++] = *cmd++;
 80016ae:	466c      	mov	r4, sp
 80016b0:	54e2      	strb	r2, [r4, r3]
 80016b2:	3301      	adds	r3, #1
 80016b4:	e7ea      	b.n	800168c <send_ok+0x18>
 80016b6:	46c0      	nop			@ (mov r8, r8)
 80016b8:	08007878 	.word	0x08007878

080016bc <send_err>:
{
 80016bc:	b5f0      	push	{r4, r5, r6, r7, lr}
 80016be:	24ff      	movs	r4, #255	@ 0xff
    while (*pfx) buf[i++] = *pfx++;
 80016c0:	2300      	movs	r3, #0
 80016c2:	46a4      	mov	ip, r4
 80016c4:	4f18      	ldr	r7, [pc, #96]	@ (8001728 <send_err+0x6c>)
{
 80016c6:	b08d      	sub	sp, #52	@ 0x34
    while (*pfx) buf[i++] = *pfx++;
 80016c8:	001c      	movs	r4, r3
 80016ca:	4666      	mov	r6, ip
 80016cc:	5cfd      	ldrb	r5, [r7, r3]
 80016ce:	4034      	ands	r4, r6
 80016d0:	3301      	adds	r3, #1
 80016d2:	2d00      	cmp	r5, #0
 80016d4:	d11c      	bne.n	8001710 <send_err+0x54>
    while (*cmd && i < (uint8_t)(sizeof(buf) - 2U)) buf[i++] = *cmd++;
 80016d6:	1b09      	subs	r1, r1, r4
 80016d8:	5d0d      	ldrb	r5, [r1, r4]
 80016da:	b2e3      	uxtb	r3, r4
 80016dc:	2d00      	cmp	r5, #0
 80016de:	d001      	beq.n	80016e4 <send_err+0x28>
 80016e0:	2b2d      	cmp	r3, #45	@ 0x2d
 80016e2:	d918      	bls.n	8001716 <send_err+0x5a>
    if (i < (uint8_t)(sizeof(buf) - 1U)) buf[i++] = ',';
 80016e4:	2b2e      	cmp	r3, #46	@ 0x2e
 80016e6:	d804      	bhi.n	80016f2 <send_err+0x36>
 80016e8:	212c      	movs	r1, #44	@ 0x2c
 80016ea:	466d      	mov	r5, sp
 80016ec:	3301      	adds	r3, #1
 80016ee:	b2db      	uxtb	r3, r3
 80016f0:	5529      	strb	r1, [r5, r4]
    while (*reason && i < (uint8_t)(sizeof(buf) - 1U)) buf[i++] = *reason++;
 80016f2:	1ad2      	subs	r2, r2, r3
 80016f4:	5cd1      	ldrb	r1, [r2, r3]
 80016f6:	2900      	cmp	r1, #0
 80016f8:	d002      	beq.n	8001700 <send_err+0x44>
 80016fa:	b2dc      	uxtb	r4, r3
 80016fc:	2c2e      	cmp	r4, #46	@ 0x2e
 80016fe:	d90e      	bls.n	800171e <send_err+0x62>
    buf[i] = '\0';
 8001700:	2200      	movs	r2, #0
 8001702:	4669      	mov	r1, sp
    BLE_SendLine(&app->ble, buf);
 8001704:	3034      	adds	r0, #52	@ 0x34
    buf[i] = '\0';
 8001706:	54ca      	strb	r2, [r1, r3]
    BLE_SendLine(&app->ble, buf);
 8001708:	f000 ffe0 	bl	80026cc <BLE_SendLine>
}
 800170c:	b00d      	add	sp, #52	@ 0x34
 800170e:	bdf0      	pop	{r4, r5, r6, r7, pc}
    while (*pfx) buf[i++] = *pfx++;
 8001710:	466e      	mov	r6, sp
 8001712:	5535      	strb	r5, [r6, r4]
 8001714:	e7d8      	b.n	80016c8 <send_err+0xc>
    while (*cmd && i < (uint8_t)(sizeof(buf) - 2U)) buf[i++] = *cmd++;
 8001716:	466b      	mov	r3, sp
 8001718:	551d      	strb	r5, [r3, r4]
 800171a:	3401      	adds	r4, #1
 800171c:	e7dc      	b.n	80016d8 <send_err+0x1c>
    while (*reason && i < (uint8_t)(sizeof(buf) - 1U)) buf[i++] = *reason++;
 800171e:	466c      	mov	r4, sp
 8001720:	54e1      	strb	r1, [r4, r3]
 8001722:	3301      	adds	r3, #1
 8001724:	e7e6      	b.n	80016f4 <send_err+0x38>
 8001726:	46c0      	nop			@ (mov r8, r8)
 8001728:	0800787c 	.word	0x0800787c

0800172c <App_Init>:
{
 800172c:	b5f8      	push	{r3, r4, r5, r6, r7, lr}
 800172e:	0016      	movs	r6, r2
    memset(app, 0, sizeof(AppContext_t));
 8001730:	22a7      	movs	r2, #167	@ 0xa7
{
 8001732:	0004      	movs	r4, r0
    memset(app, 0, sizeof(AppContext_t));
 8001734:	0092      	lsls	r2, r2, #2
{
 8001736:	000d      	movs	r5, r1
    memset(app, 0, sizeof(AppContext_t));
 8001738:	2100      	movs	r1, #0
{
 800173a:	001f      	movs	r7, r3
    memset(app, 0, sizeof(AppContext_t));
 800173c:	f006 f81c 	bl	8007778 <memset>
    WS2812B_Init(htim_ws);
 8001740:	9806      	ldr	r0, [sp, #24]
 8001742:	f002 fbf3 	bl	8003f2c <WS2812B_Init>
    Buzzer_Init(htim_buz);
 8001746:	9807      	ldr	r0, [sp, #28]
 8001748:	f001 f8fc 	bl	8002944 <Buzzer_Init>
    HX711_Init(&app->hx711);
 800174c:	0020      	movs	r0, r4
 800174e:	f001 fc19 	bl	8002f84 <HX711_Init>
    TDS_Init(&app->tds, hadc);
 8001752:	0020      	movs	r0, r4
 8001754:	0029      	movs	r1, r5
 8001756:	300c      	adds	r0, #12
 8001758:	f002 fb19 	bl	8003d8e <TDS_Init>
    NTC_Init(&app->ntc, hadc);
 800175c:	0020      	movs	r0, r4
 800175e:	0029      	movs	r1, r5
 8001760:	3014      	adds	r0, #20
 8001762:	f001 feff 	bl	8003564 <NTC_Init>
    Battery_Init(&app->bat, hadc);
 8001766:	0020      	movs	r0, r4
 8001768:	0029      	movs	r1, r5
 800176a:	301c      	adds	r0, #28
 800176c:	f000 fe76 	bl	800245c <Battery_Init>
    app->bma_ok = (BMA253_Init(&app->bma, hi2c) == HAL_OK) ? 1U : 0U;
 8001770:	0020      	movs	r0, r4
 8001772:	0031      	movs	r1, r6
 8001774:	3028      	adds	r0, #40	@ 0x28
 8001776:	f001 f85f 	bl	8002838 <BMA253_Init>
    BLE_Init(&app->ble, huart);
 800177a:	0025      	movs	r5, r4
    app->bma_ok = (BMA253_Init(&app->bma, hi2c) == HAL_OK) ? 1U : 0U;
 800177c:	4243      	negs	r3, r0
 800177e:	4158      	adcs	r0, r3
    BLE_Init(&app->ble, huart);
 8001780:	0039      	movs	r1, r7
    RTC_Init(&app->rtc, hi2c);
 8001782:	0027      	movs	r7, r4
    app->bma_ok = (BMA253_Init(&app->bma, hi2c) == HAL_OK) ? 1U : 0U;
 8001784:	4b30      	ldr	r3, [pc, #192]	@ (8001848 <App_Init+0x11c>)
    BLE_Init(&app->ble, huart);
 8001786:	3534      	adds	r5, #52	@ 0x34
    app->bma_ok = (BMA253_Init(&app->bma, hi2c) == HAL_OK) ? 1U : 0U;
 8001788:	54e0      	strb	r0, [r4, r3]
    RTC_Init(&app->rtc, hi2c);
 800178a:	378c      	adds	r7, #140	@ 0x8c
    BLE_Init(&app->ble, huart);
 800178c:	0028      	movs	r0, r5
 800178e:	f000 fef9 	bl	8002584 <BLE_Init>
    RTC_Init(&app->rtc, hi2c);
 8001792:	0031      	movs	r1, r6
 8001794:	0038      	movs	r0, r7
 8001796:	f002 f948 	bl	8003a2a <RTC_Init>
    Storage_Init();
 800179a:	f001 f9e5 	bl	8002b68 <Storage_Init>
    Storage_LoadSettings(&app->settings);
 800179e:	0020      	movs	r0, r4
 80017a0:	30b0      	adds	r0, #176	@ 0xb0
 80017a2:	f001 f9e3 	bl	8002b6c <Storage_LoadSettings>
    Storage_LoadDrinkLog(&app->drink_log);
 80017a6:	0020      	movs	r0, r4
 80017a8:	30f8      	adds	r0, #248	@ 0xf8
 80017aa:	f001 fa49 	bl	8002c40 <Storage_LoadDrinkLog>
    Storage_LoadDailySummary(&app->daily_log);
 80017ae:	0020      	movs	r0, r4
 80017b0:	30ed      	adds	r0, #237	@ 0xed
 80017b2:	30ff      	adds	r0, #255	@ 0xff
 80017b4:	f001 faec 	bl	8002d90 <Storage_LoadDailySummary>
    app->hx711.tare_offset   = (int32_t)app->settings.tare_offset;
 80017b8:	0023      	movs	r3, r4
 80017ba:	33e8      	adds	r3, #232	@ 0xe8
 80017bc:	6818      	ldr	r0, [r3, #0]
 80017be:	f7ff fe11 	bl	80013e4 <__aeabi_f2iz>
    app->hx711.scale         = app->settings.hx711_scale > 0.0f
 80017c2:	0023      	movs	r3, r4
 80017c4:	33ec      	adds	r3, #236	@ 0xec
 80017c6:	681e      	ldr	r6, [r3, #0]
    app->hx711.tare_offset   = (int32_t)app->settings.tare_offset;
 80017c8:	6020      	str	r0, [r4, #0]
                             ? app->settings.hx711_scale : HX711_DEFAULT_SCALE;
 80017ca:	2100      	movs	r1, #0
 80017cc:	1c30      	adds	r0, r6, #0
 80017ce:	f7fe fe5f 	bl	8000490 <__aeabi_fcmpgt>
 80017d2:	2800      	cmp	r0, #0
 80017d4:	d100      	bne.n	80017d8 <App_Init+0xac>
 80017d6:	4e1d      	ldr	r6, [pc, #116]	@ (800184c <App_Init+0x120>)
    app->hx711.is_calibrated = app->settings.is_calibrated;
 80017d8:	0023      	movs	r3, r4
    app->hx711.scale         = app->settings.hx711_scale > 0.0f
 80017da:	6066      	str	r6, [r4, #4]
    Device_Init(&app->dev);
 80017dc:	0026      	movs	r6, r4
    app->current_temp_x10    = 250;   /* 25.0 °C default */
 80017de:	22fa      	movs	r2, #250	@ 0xfa
    app->hx711.is_calibrated = app->settings.is_calibrated;
 80017e0:	33f1      	adds	r3, #241	@ 0xf1
 80017e2:	781b      	ldrb	r3, [r3, #0]
    Device_Init(&app->dev);
 80017e4:	36a0      	adds	r6, #160	@ 0xa0
    app->hx711.is_calibrated = app->settings.is_calibrated;
 80017e6:	7263      	strb	r3, [r4, #9]
    app->current_temp_x10    = 250;   /* 25.0 °C default */
 80017e8:	4b19      	ldr	r3, [pc, #100]	@ (8001850 <App_Init+0x124>)
    Device_Init(&app->dev);
 80017ea:	0030      	movs	r0, r6
    app->current_temp_x10    = 250;   /* 25.0 °C default */
 80017ec:	52e2      	strh	r2, [r4, r3]
    Device_Init(&app->dev);
 80017ee:	f001 fb58 	bl	8002ea2 <Device_Init>
    BLE_Configure(&app->ble, "HydraSense");
 80017f2:	4918      	ldr	r1, [pc, #96]	@ (8001854 <App_Init+0x128>)
 80017f4:	0028      	movs	r0, r5
 80017f6:	f000 ffd3 	bl	80027a0 <BLE_Configure>
    BLE_StartReceive(&app->ble);
 80017fa:	0028      	movs	r0, r5
 80017fc:	f000 fed0 	bl	80025a0 <BLE_StartReceive>
    RTC_Read(&app->rtc);
 8001800:	0038      	movs	r0, r7
 8001802:	f002 f8c9 	bl	8003998 <RTC_Read>
    if (!app->settings.is_registered) {
 8001806:	0023      	movs	r3, r4
 8001808:	33f0      	adds	r3, #240	@ 0xf0
 800180a:	781b      	ldrb	r3, [r3, #0]
        Device_SetInitialState(&app->dev, DEV_STATE_UNREGISTERED);
 800180c:	2101      	movs	r1, #1
    if (!app->settings.is_registered) {
 800180e:	2b00      	cmp	r3, #0
 8001810:	d000      	beq.n	8001814 <App_Init+0xe8>
        Device_SetInitialState(&app->dev, DEV_STATE_ACTIVE);
 8001812:	2104      	movs	r1, #4
 8001814:	0030      	movs	r0, r6
 8001816:	f001 fb4a 	bl	8002eae <Device_SetInitialState>
    app->current_day_unix = (app->rtc.unix_approx / 86400UL) * 86400UL;
 800181a:	0023      	movs	r3, r4
 800181c:	3398      	adds	r3, #152	@ 0x98
 800181e:	6818      	ldr	r0, [r3, #0]
 8001820:	490d      	ldr	r1, [pc, #52]	@ (8001858 <App_Init+0x12c>)
 8001822:	f7fe fc8d 	bl	8000140 <__udivsi3>
 8001826:	22a5      	movs	r2, #165	@ 0xa5
 8001828:	4b0b      	ldr	r3, [pc, #44]	@ (8001858 <App_Init+0x12c>)
 800182a:	0092      	lsls	r2, r2, #2
 800182c:	4343      	muls	r3, r0
 800182e:	50a3      	str	r3, [r4, r2]
    app->baseline_weight_g = 0.0f;
 8001830:	239e      	movs	r3, #158	@ 0x9e
 8001832:	2200      	movs	r2, #0
 8001834:	009b      	lsls	r3, r3, #2
 8001836:	50e2      	str	r2, [r4, r3]
    app->have_baseline     = 0;
 8001838:	229f      	movs	r2, #159	@ 0x9f
 800183a:	2300      	movs	r3, #0
 800183c:	0092      	lsls	r2, r2, #2
 800183e:	54a3      	strb	r3, [r4, r2]
    app->ble_was_connected = 0;
 8001840:	3210      	adds	r2, #16
 8001842:	54a3      	strb	r3, [r4, r2]
}
 8001844:	bdf8      	pop	{r3, r4, r5, r6, r7, pc}
 8001846:	46c0      	nop			@ (mov r8, r8)
 8001848:	00000285 	.word	0x00000285
 800184c:	43dc0000 	.word	0x43dc0000
 8001850:	0000024e 	.word	0x0000024e
 8001854:	08007881 	.word	0x08007881
 8001858:	00015180 	.word	0x00015180

0800185c <App_TaskTDS>:
{
 800185c:	b510      	push	{r4, lr}
 800185e:	0004      	movs	r4, r0
    app->last_tds_ms     = HAL_GetTick();
 8001860:	f002 ff4a 	bl	80046f8 <HAL_GetTick>
 8001864:	2396      	movs	r3, #150	@ 0x96
 8001866:	009b      	lsls	r3, r3, #2
 8001868:	50e0      	str	r0, [r4, r3]
    app->current_tds_ppm = TDS_ReadPPM(&app->tds, app->current_temp_x10);
 800186a:	0020      	movs	r0, r4
 800186c:	4b10      	ldr	r3, [pc, #64]	@ (80018b0 <App_TaskTDS+0x54>)
 800186e:	300c      	adds	r0, #12
 8001870:	5ee1      	ldrsh	r1, [r4, r3]
 8001872:	f002 fa97 	bl	8003da4 <TDS_ReadPPM>
 8001876:	2393      	movs	r3, #147	@ 0x93
 8001878:	009b      	lsls	r3, r3, #2
 800187a:	52e0      	strh	r0, [r4, r3]
    uint16_t purity_goal = BLE_U16(app->settings.prefs.purity_goal_hi,
 800187c:	0023      	movs	r3, r4
 800187e:	22a6      	movs	r2, #166	@ 0xa6
 8001880:	33d4      	adds	r3, #212	@ 0xd4
 8001882:	881b      	ldrh	r3, [r3, #0]
    if (purity_goal > 0 && app->current_tds_ppm > purity_goal) {
 8001884:	0092      	lsls	r2, r2, #2
 8001886:	2b00      	cmp	r3, #0
 8001888:	d00f      	beq.n	80018aa <App_TaskTDS+0x4e>
 800188a:	ba5b      	rev16	r3, r3
 800188c:	b29b      	uxth	r3, r3
 800188e:	4283      	cmp	r3, r0
 8001890:	d20b      	bcs.n	80018aa <App_TaskTDS+0x4e>
        if (!app->purity_alert_active) {
 8001892:	5ca3      	ldrb	r3, [r4, r2]
 8001894:	2b00      	cmp	r3, #0
 8001896:	d107      	bne.n	80018a8 <App_TaskTDS+0x4c>
            app->purity_alert_active = 1;
 8001898:	3301      	adds	r3, #1
            WS2812B_SetPattern(LED_PATTERN_PURITY_ALERT);
 800189a:	2004      	movs	r0, #4
            app->purity_alert_active = 1;
 800189c:	54a3      	strb	r3, [r4, r2]
            WS2812B_SetPattern(LED_PATTERN_PURITY_ALERT);
 800189e:	f002 fc5b 	bl	8004158 <WS2812B_SetPattern>
            Buzzer_Play(BUZZER_PURITY_ALERT);
 80018a2:	2004      	movs	r0, #4
 80018a4:	f001 f86a 	bl	800297c <Buzzer_Play>
}
 80018a8:	bd10      	pop	{r4, pc}
        app->purity_alert_active = 0;
 80018aa:	2300      	movs	r3, #0
 80018ac:	54a3      	strb	r3, [r4, r2]
}
 80018ae:	e7fb      	b.n	80018a8 <App_TaskTDS+0x4c>
 80018b0:	0000024e 	.word	0x0000024e

080018b4 <App_TaskTemp>:
{
 80018b4:	b510      	push	{r4, lr}
 80018b6:	0004      	movs	r4, r0
    app->last_temp_ms    = HAL_GetTick();
 80018b8:	f002 ff1e 	bl	80046f8 <HAL_GetTick>
 80018bc:	2397      	movs	r3, #151	@ 0x97
 80018be:	009b      	lsls	r3, r3, #2
 80018c0:	50e0      	str	r0, [r4, r3]
    app->current_temp_x10 = NTC_ReadTemp_x10(&app->ntc);
 80018c2:	0020      	movs	r0, r4
 80018c4:	3014      	adds	r0, #20
 80018c6:	f001 fe53 	bl	8003570 <NTC_ReadTemp_x10>
 80018ca:	4b0d      	ldr	r3, [pc, #52]	@ (8001900 <App_TaskTemp+0x4c>)
 80018cc:	4a0d      	ldr	r2, [pc, #52]	@ (8001904 <App_TaskTemp+0x50>)
 80018ce:	52e0      	strh	r0, [r4, r3]
    int16_t temp_goal_x10 = BLE_I16(app->settings.prefs.temp_goal_hi,
 80018d0:	0023      	movs	r3, r4
 80018d2:	33d6      	adds	r3, #214	@ 0xd6
 80018d4:	881b      	ldrh	r3, [r3, #0]
 80018d6:	badb      	revsh	r3, r3
    if (temp_goal_x10 > 0 && app->current_temp_x10 > temp_goal_x10) {
 80018d8:	2b00      	cmp	r3, #0
 80018da:	dd0d      	ble.n	80018f8 <App_TaskTemp+0x44>
 80018dc:	4298      	cmp	r0, r3
 80018de:	dd0b      	ble.n	80018f8 <App_TaskTemp+0x44>
        if (!app->temp_alert_active) {
 80018e0:	5ca3      	ldrb	r3, [r4, r2]
 80018e2:	2b00      	cmp	r3, #0
 80018e4:	d107      	bne.n	80018f6 <App_TaskTemp+0x42>
            app->temp_alert_active = 1;
 80018e6:	3301      	adds	r3, #1
            WS2812B_SetPattern(LED_PATTERN_TEMP_ALERT);
 80018e8:	2005      	movs	r0, #5
            app->temp_alert_active = 1;
 80018ea:	54a3      	strb	r3, [r4, r2]
            WS2812B_SetPattern(LED_PATTERN_TEMP_ALERT);
 80018ec:	f002 fc34 	bl	8004158 <WS2812B_SetPattern>
            Buzzer_Play(BUZZER_TEMP_ALERT);
 80018f0:	2005      	movs	r0, #5
 80018f2:	f001 f843 	bl	800297c <Buzzer_Play>
}
 80018f6:	bd10      	pop	{r4, pc}
        app->temp_alert_active = 0;
 80018f8:	2300      	movs	r3, #0
 80018fa:	54a3      	strb	r3, [r4, r2]
}
 80018fc:	e7fb      	b.n	80018f6 <App_TaskTemp+0x42>
 80018fe:	46c0      	nop			@ (mov r8, r8)
 8001900:	0000024e 	.word	0x0000024e
 8001904:	00000299 	.word	0x00000299

08001908 <App_TaskBattery>:
{
 8001908:	b570      	push	{r4, r5, r6, lr}
 800190a:	0004      	movs	r4, r0
    app->last_battery_ms = HAL_GetTick();
 800190c:	f002 fef4 	bl	80046f8 <HAL_GetTick>
    Battery_Update(&app->bat);
 8001910:	0026      	movs	r6, r4
    app->last_battery_ms = HAL_GetTick();
 8001912:	2398      	movs	r3, #152	@ 0x98
    Battery_Update(&app->bat);
 8001914:	361c      	adds	r6, #28
    app->last_battery_ms = HAL_GetTick();
 8001916:	009b      	lsls	r3, r3, #2
 8001918:	50e0      	str	r0, [r4, r3]
    Battery_Update(&app->bat);
 800191a:	0030      	movs	r0, r6
 800191c:	f000 fda8 	bl	8002470 <Battery_Update>
    app->current_bat_pct = Battery_GetPercent(&app->bat);
 8001920:	0030      	movs	r0, r6
 8001922:	f000 fe13 	bl	800254c <Battery_GetPercent>
 8001926:	2394      	movs	r3, #148	@ 0x94
 8001928:	009b      	lsls	r3, r3, #2
 800192a:	54e0      	strb	r0, [r4, r3]
    uint8_t charging = Battery_IsCharging(&app->bat) || Battery_IsFull(&app->bat);
 800192c:	0030      	movs	r0, r6
 800192e:	0025      	movs	r5, r4
 8001930:	f000 fe15 	bl	800255e <Battery_IsCharging>
 8001934:	35a0      	adds	r5, #160	@ 0xa0
 8001936:	2800      	cmp	r0, #0
 8001938:	d016      	beq.n	8001968 <App_TaskBattery+0x60>
    if (charging && app->dev.state != DEV_STATE_CHARGING &&
 800193a:	782b      	ldrb	r3, [r5, #0]
 800193c:	3b05      	subs	r3, #5
 800193e:	2b01      	cmp	r3, #1
 8001940:	d81d      	bhi.n	800197e <App_TaskBattery+0x76>
    if (Battery_IsLow(&app->bat)) {
 8001942:	0030      	movs	r0, r6
 8001944:	f000 fe17 	bl	8002576 <Battery_IsLow>
 8001948:	2800      	cmp	r0, #0
 800194a:	d00c      	beq.n	8001966 <App_TaskBattery+0x5e>
        uint32_t now = HAL_GetTick();
 800194c:	f002 fed4 	bl	80046f8 <HAL_GetTick>
        if (now - app->dev.last_low_bat_ms > 3600000UL) {
 8001950:	34a8      	adds	r4, #168	@ 0xa8
 8001952:	6823      	ldr	r3, [r4, #0]
 8001954:	4a0f      	ldr	r2, [pc, #60]	@ (8001994 <App_TaskBattery+0x8c>)
 8001956:	1ac3      	subs	r3, r0, r3
 8001958:	4293      	cmp	r3, r2
 800195a:	d904      	bls.n	8001966 <App_TaskBattery+0x5e>
            app->dev.last_low_bat_ms = now;
 800195c:	6020      	str	r0, [r4, #0]
            Device_PostEvent(&app->dev, EVT_BATTERY_LOW);
 800195e:	210e      	movs	r1, #14
 8001960:	0028      	movs	r0, r5
 8001962:	f001 faa8 	bl	8002eb6 <Device_PostEvent>
}
 8001966:	bd70      	pop	{r4, r5, r6, pc}
    uint8_t charging = Battery_IsCharging(&app->bat) || Battery_IsFull(&app->bat);
 8001968:	0030      	movs	r0, r6
 800196a:	f000 fdfe 	bl	800256a <Battery_IsFull>
 800196e:	2800      	cmp	r0, #0
 8001970:	d1e3      	bne.n	800193a <App_TaskBattery+0x32>
    } else if (!charging && (app->dev.state == DEV_STATE_CHARGING ||
 8001972:	782b      	ldrb	r3, [r5, #0]
 8001974:	3b05      	subs	r3, #5
 8001976:	2b01      	cmp	r3, #1
 8001978:	d8e3      	bhi.n	8001942 <App_TaskBattery+0x3a>
        Device_PostEvent(&app->dev, EVT_CHARGER_DISCONNECTED);
 800197a:	210d      	movs	r1, #13
 800197c:	e005      	b.n	800198a <App_TaskBattery+0x82>
        WS2812B_SetChargingLevel(app->current_bat_pct);
 800197e:	2394      	movs	r3, #148	@ 0x94
 8001980:	009b      	lsls	r3, r3, #2
 8001982:	5ce0      	ldrb	r0, [r4, r3]
 8001984:	f002 fc36 	bl	80041f4 <WS2812B_SetChargingLevel>
        Device_PostEvent(&app->dev, EVT_CHARGER_CONNECTED);
 8001988:	210c      	movs	r1, #12
        Device_PostEvent(&app->dev, EVT_CHARGER_DISCONNECTED);
 800198a:	0028      	movs	r0, r5
 800198c:	f001 fa93 	bl	8002eb6 <Device_PostEvent>
 8001990:	e7d7      	b.n	8001942 <App_TaskBattery+0x3a>
 8001992:	46c0      	nop			@ (mov r8, r8)
 8001994:	0036ee80 	.word	0x0036ee80

08001998 <App_TaskDailyRollup>:
{
 8001998:	b5f8      	push	{r3, r4, r5, r6, r7, lr}
    uint32_t today_midnight = (app->rtc.unix_approx / 86400UL) * 86400UL;
 800199a:	0003      	movs	r3, r0
 800199c:	3398      	adds	r3, #152	@ 0x98
 800199e:	681f      	ldr	r7, [r3, #0]
{
 80019a0:	0004      	movs	r4, r0
    uint32_t today_midnight = (app->rtc.unix_approx / 86400UL) * 86400UL;
 80019a2:	4911      	ldr	r1, [pc, #68]	@ (80019e8 <App_TaskDailyRollup+0x50>)
 80019a4:	0038      	movs	r0, r7
 80019a6:	f7fe fbcb 	bl	8000140 <__udivsi3>
    if (today_midnight == app->current_day_unix) return;
 80019aa:	23a5      	movs	r3, #165	@ 0xa5
    uint32_t today_midnight = (app->rtc.unix_approx / 86400UL) * 86400UL;
 80019ac:	4d0e      	ldr	r5, [pc, #56]	@ (80019e8 <App_TaskDailyRollup+0x50>)
    if (today_midnight == app->current_day_unix) return;
 80019ae:	009b      	lsls	r3, r3, #2
    uint32_t today_midnight = (app->rtc.unix_approx / 86400UL) * 86400UL;
 80019b0:	4345      	muls	r5, r0
    if (today_midnight == app->current_day_unix) return;
 80019b2:	58e2      	ldr	r2, [r4, r3]
 80019b4:	42aa      	cmp	r2, r5
 80019b6:	d016      	beq.n	80019e6 <App_TaskDailyRollup+0x4e>
    Storage_UpdateDailySummary(&app->daily_log, &app->drink_log, app->rtc.unix_approx);
 80019b8:	0026      	movs	r6, r4
    app->current_day_unix  = today_midnight;
 80019ba:	50e5      	str	r5, [r4, r3]
    app->consumed_today_ml = 0;
 80019bc:	2300      	movs	r3, #0
    Storage_UpdateDailySummary(&app->daily_log, &app->drink_log, app->rtc.unix_approx);
 80019be:	0021      	movs	r1, r4
    app->consumed_today_ml = 0;
 80019c0:	4a0a      	ldr	r2, [pc, #40]	@ (80019ec <App_TaskDailyRollup+0x54>)
    Storage_UpdateDailySummary(&app->daily_log, &app->drink_log, app->rtc.unix_approx);
 80019c2:	36ed      	adds	r6, #237	@ 0xed
    app->consumed_today_ml = 0;
 80019c4:	52a3      	strh	r3, [r4, r2]
    Storage_UpdateDailySummary(&app->daily_log, &app->drink_log, app->rtc.unix_approx);
 80019c6:	36ff      	adds	r6, #255	@ 0xff
    app->hydration_score   = 0;
 80019c8:	3202      	adds	r2, #2
 80019ca:	54a3      	strb	r3, [r4, r2]
    Storage_UpdateDailySummary(&app->daily_log, &app->drink_log, app->rtc.unix_approx);
 80019cc:	31f8      	adds	r1, #248	@ 0xf8
 80019ce:	003a      	movs	r2, r7
 80019d0:	0030      	movs	r0, r6
 80019d2:	f001 f949 	bl	8002c68 <Storage_UpdateDailySummary>
    Storage_FlushDailySummary(&app->daily_log);
 80019d6:	0030      	movs	r0, r6
 80019d8:	f001 f9c6 	bl	8002d68 <Storage_FlushDailySummary>
    Storage_PurgeDailySummaryOlderThan(&app->daily_log, today_midnight - 30UL * 86400UL);
 80019dc:	4b04      	ldr	r3, [pc, #16]	@ (80019f0 <App_TaskDailyRollup+0x58>)
 80019de:	0030      	movs	r0, r6
 80019e0:	18e9      	adds	r1, r5, r3
 80019e2:	f001 f9e9 	bl	8002db8 <Storage_PurgeDailySummaryOlderThan>
}
 80019e6:	bdf8      	pop	{r3, r4, r5, r6, r7, pc}
 80019e8:	00015180 	.word	0x00015180
 80019ec:	0000028e 	.word	0x0000028e
 80019f0:	ffd87300 	.word	0xffd87300

080019f4 <App_CalcHydrationScore>:
    uint16_t goal_ml = BLE_U16(app->settings.prefs.hydration_hi,
 80019f4:	0002      	movs	r2, r0
{
 80019f6:	b510      	push	{r4, lr}
 80019f8:	2464      	movs	r4, #100	@ 0x64
 80019fa:	32d8      	adds	r2, #216	@ 0xd8
 80019fc:	8812      	ldrh	r2, [r2, #0]
 80019fe:	0003      	movs	r3, r0
 8001a00:	ba51      	rev16	r1, r2
    if (goal_ml == 0U) return 100U;
 8001a02:	0020      	movs	r0, r4
 8001a04:	b289      	uxth	r1, r1
 8001a06:	2a00      	cmp	r2, #0
 8001a08:	d009      	beq.n	8001a1e <App_CalcHydrationScore+0x2a>
    uint32_t score = ((uint32_t)app->consumed_today_ml * 100U) / goal_ml;
 8001a0a:	4a05      	ldr	r2, [pc, #20]	@ (8001a20 <App_CalcHydrationScore+0x2c>)
 8001a0c:	5a98      	ldrh	r0, [r3, r2]
 8001a0e:	4360      	muls	r0, r4
 8001a10:	f7fe fb96 	bl	8000140 <__udivsi3>
 8001a14:	0003      	movs	r3, r0
    if (goal_ml == 0U) return 100U;
 8001a16:	0020      	movs	r0, r4
    return (uint8_t)(score > 100U ? 100U : score);
 8001a18:	42a3      	cmp	r3, r4
 8001a1a:	d800      	bhi.n	8001a1e <App_CalcHydrationScore+0x2a>
 8001a1c:	b2d8      	uxtb	r0, r3
}
 8001a1e:	bd10      	pop	{r4, pc}
 8001a20:	0000028e 	.word	0x0000028e

08001a24 <App_RecordDrinkEvent>:
{
 8001a24:	b5f0      	push	{r4, r5, r6, r7, lr}
 8001a26:	0004      	movs	r4, r0
    DrinkEvent_t ev = {0};
 8001a28:	230e      	movs	r3, #14
    ev.unix_time  = app->rtc.unix_approx;
 8001a2a:	0026      	movs	r6, r4
    DrinkEvent_t ev = {0};
 8001a2c:	2200      	movs	r2, #0
{
 8001a2e:	b085      	sub	sp, #20
    DrinkEvent_t ev = {0};
 8001a30:	446b      	add	r3, sp
    ev.unix_time  = app->rtc.unix_approx;
 8001a32:	3698      	adds	r6, #152	@ 0x98
    DrinkEvent_t ev = {0};
 8001a34:	801a      	strh	r2, [r3, #0]
    ev.unix_time  = app->rtc.unix_approx;
 8001a36:	6833      	ldr	r3, [r6, #0]
{
 8001a38:	1c08      	adds	r0, r1, #0
    ev.unix_time  = app->rtc.unix_approx;
 8001a3a:	9301      	str	r3, [sp, #4]
    ev.volume_ml  = (uint16_t)volume_ml;
 8001a3c:	f7fe fd3c 	bl	80004b8 <__aeabi_f2uiz>
    ev.purity_ppm = app->current_tds_ppm;
 8001a40:	2393      	movs	r3, #147	@ 0x93
    Storage_AddDrinkEvent(&app->drink_log, &ev);
 8001a42:	0025      	movs	r5, r4
    DrinkEvent_t ev = {0};
 8001a44:	af01      	add	r7, sp, #4
    ev.volume_ml  = (uint16_t)volume_ml;
 8001a46:	80b8      	strh	r0, [r7, #4]
    ev.purity_ppm = app->current_tds_ppm;
 8001a48:	009b      	lsls	r3, r3, #2
 8001a4a:	5ae3      	ldrh	r3, [r4, r3]
    Storage_AddDrinkEvent(&app->drink_log, &ev);
 8001a4c:	35f8      	adds	r5, #248	@ 0xf8
    ev.purity_ppm = app->current_tds_ppm;
 8001a4e:	80fb      	strh	r3, [r7, #6]
    ev.temp_x10   = app->current_temp_x10;
 8001a50:	4b10      	ldr	r3, [pc, #64]	@ (8001a94 <App_RecordDrinkEvent+0x70>)
    Storage_AddDrinkEvent(&app->drink_log, &ev);
 8001a52:	0039      	movs	r1, r7
    ev.temp_x10   = app->current_temp_x10;
 8001a54:	5ae3      	ldrh	r3, [r4, r3]
    Storage_AddDrinkEvent(&app->drink_log, &ev);
 8001a56:	0028      	movs	r0, r5
    ev.temp_x10   = app->current_temp_x10;
 8001a58:	813b      	strh	r3, [r7, #8]
    Storage_AddDrinkEvent(&app->drink_log, &ev);
 8001a5a:	f001 f8c1 	bl	8002be0 <Storage_AddDrinkEvent>
    app->consumed_today_ml += ev.volume_ml;
 8001a5e:	4a0e      	ldr	r2, [pc, #56]	@ (8001a98 <App_RecordDrinkEvent+0x74>)
 8001a60:	88b9      	ldrh	r1, [r7, #4]
 8001a62:	5aa3      	ldrh	r3, [r4, r2]
    app->hydration_score    = App_CalcHydrationScore(app);
 8001a64:	0020      	movs	r0, r4
    app->consumed_today_ml += ev.volume_ml;
 8001a66:	185b      	adds	r3, r3, r1
 8001a68:	52a3      	strh	r3, [r4, r2]
    app->hydration_score    = App_CalcHydrationScore(app);
 8001a6a:	f7ff ffc3 	bl	80019f4 <App_CalcHydrationScore>
 8001a6e:	23a4      	movs	r3, #164	@ 0xa4
 8001a70:	009b      	lsls	r3, r3, #2
 8001a72:	54e0      	strb	r0, [r4, r3]
    WS2812B_SetPattern(LED_PATTERN_DRINK_CONFIRM);
 8001a74:	2007      	movs	r0, #7
 8001a76:	f002 fb6f 	bl	8004158 <WS2812B_SetPattern>
    Buzzer_Play(BUZZER_SINGLE_BEEP);
 8001a7a:	2003      	movs	r0, #3
 8001a7c:	f000 ff7e 	bl	800297c <Buzzer_Play>
    Storage_UpdateDailySummary(&app->daily_log, &app->drink_log, app->rtc.unix_approx);
 8001a80:	0020      	movs	r0, r4
 8001a82:	30ed      	adds	r0, #237	@ 0xed
 8001a84:	0029      	movs	r1, r5
 8001a86:	6832      	ldr	r2, [r6, #0]
 8001a88:	30ff      	adds	r0, #255	@ 0xff
 8001a8a:	f001 f8ed 	bl	8002c68 <Storage_UpdateDailySummary>
}
 8001a8e:	b005      	add	sp, #20
 8001a90:	bdf0      	pop	{r4, r5, r6, r7, pc}
 8001a92:	46c0      	nop			@ (mov r8, r8)
 8001a94:	0000024e 	.word	0x0000024e
 8001a98:	0000028e 	.word	0x0000028e

08001a9c <App_CheckDrinkEvent>:
    float w   = app->current_weight_g;
 8001a9c:	2391      	movs	r3, #145	@ 0x91
{
 8001a9e:	b5f7      	push	{r0, r1, r2, r4, r5, r6, r7, lr}
    float w   = app->current_weight_g;
 8001aa0:	009b      	lsls	r3, r3, #2
{
 8001aa2:	0004      	movs	r4, r0
    float w   = app->current_weight_g;
 8001aa4:	58c7      	ldr	r7, [r0, r3]
    uint32_t now = HAL_GetTick();
 8001aa6:	f002 fe27 	bl	80046f8 <HAL_GetTick>
    if (!app->have_baseline) {
 8001aaa:	219f      	movs	r1, #159	@ 0x9f
 8001aac:	239e      	movs	r3, #158	@ 0x9e
    uint32_t now = HAL_GetTick();
 8001aae:	9001      	str	r0, [sp, #4]
    if (!app->have_baseline) {
 8001ab0:	0089      	lsls	r1, r1, #2
 8001ab2:	5c62      	ldrb	r2, [r4, r1]
 8001ab4:	009b      	lsls	r3, r3, #2
 8001ab6:	2a00      	cmp	r2, #0
 8001ab8:	d106      	bne.n	8001ac8 <App_CheckDrinkEvent+0x2c>
        app->baseline_weight_g = w;
 8001aba:	50e7      	str	r7, [r4, r3]
        app->have_baseline     = 1;
 8001abc:	2301      	movs	r3, #1
 8001abe:	5463      	strb	r3, [r4, r1]
        app->weight_changing   = 0;
 8001ac0:	23a1      	movs	r3, #161	@ 0xa1
 8001ac2:	009b      	lsls	r3, r3, #2
    app->weight_changing   = 0;
 8001ac4:	54e2      	strb	r2, [r4, r3]
 8001ac6:	e02a      	b.n	8001b1e <App_CheckDrinkEvent+0x82>
    float delta_from_baseline = app->baseline_weight_g - w;   /* + = removed */
 8001ac8:	1c39      	adds	r1, r7, #0
 8001aca:	58e0      	ldr	r0, [r4, r3]
 8001acc:	f7ff fa26 	bl	8000f1c <__aeabi_fsub>
                                              :  delta_from_baseline;
 8001ad0:	2100      	movs	r1, #0
    float delta_from_baseline = app->baseline_weight_g - w;   /* + = removed */
 8001ad2:	1c05      	adds	r5, r0, #0
                                              :  delta_from_baseline;
 8001ad4:	f7fe fcc8 	bl	8000468 <__aeabi_fcmplt>
 8001ad8:	2800      	cmp	r0, #0
 8001ada:	d002      	beq.n	8001ae2 <App_CheckDrinkEvent+0x46>
 8001adc:	2380      	movs	r3, #128	@ 0x80
 8001ade:	061b      	lsls	r3, r3, #24
 8001ae0:	18ed      	adds	r5, r5, r3
    uint8_t imu_motion = app->bma_ok ? BMA253_PopMotionFlag(&app->bma) : 0U;
 8001ae2:	4b29      	ldr	r3, [pc, #164]	@ (8001b88 <App_CheckDrinkEvent+0xec>)
 8001ae4:	5ce6      	ldrb	r6, [r4, r3]
 8001ae6:	2e00      	cmp	r6, #0
 8001ae8:	d004      	beq.n	8001af4 <App_CheckDrinkEvent+0x58>
 8001aea:	0020      	movs	r0, r4
 8001aec:	3028      	adds	r0, #40	@ 0x28
 8001aee:	f000 fefb 	bl	80028e8 <BMA253_PopMotionFlag>
 8001af2:	0006      	movs	r6, r0
    if (!app->weight_changing) {
 8001af4:	23a1      	movs	r3, #161	@ 0xa1
 8001af6:	009b      	lsls	r3, r3, #2
 8001af8:	5ce3      	ldrb	r3, [r4, r3]
 8001afa:	2b00      	cmp	r3, #0
 8001afc:	d110      	bne.n	8001b20 <App_CheckDrinkEvent+0x84>
        if (abs_delta > WEIGHT_NOISE_G || imu_motion) {
 8001afe:	4923      	ldr	r1, [pc, #140]	@ (8001b8c <App_CheckDrinkEvent+0xf0>)
 8001b00:	1c28      	adds	r0, r5, #0
 8001b02:	f7fe fcc5 	bl	8000490 <__aeabi_fcmpgt>
 8001b06:	2800      	cmp	r0, #0
 8001b08:	d101      	bne.n	8001b0e <App_CheckDrinkEvent+0x72>
 8001b0a:	2e00      	cmp	r6, #0
 8001b0c:	d007      	beq.n	8001b1e <App_CheckDrinkEvent+0x82>
            app->weight_changing = 1;
 8001b0e:	22a1      	movs	r2, #161	@ 0xa1
 8001b10:	2301      	movs	r3, #1
 8001b12:	0092      	lsls	r2, r2, #2
 8001b14:	54a3      	strb	r3, [r4, r2]
            app->weight_change_ms = now;
 8001b16:	23a0      	movs	r3, #160	@ 0xa0
 8001b18:	009b      	lsls	r3, r3, #2
        app->weight_change_ms = now;
 8001b1a:	9a01      	ldr	r2, [sp, #4]
 8001b1c:	50e2      	str	r2, [r4, r3]
}
 8001b1e:	bdf7      	pop	{r0, r1, r2, r4, r5, r6, r7, pc}
    float step = app->current_weight_g - app->prev_weight_g;
 8001b20:	2392      	movs	r3, #146	@ 0x92
 8001b22:	009b      	lsls	r3, r3, #2
 8001b24:	58e1      	ldr	r1, [r4, r3]
 8001b26:	3b04      	subs	r3, #4
 8001b28:	58e0      	ldr	r0, [r4, r3]
 8001b2a:	f7ff f9f7 	bl	8000f1c <__aeabi_fsub>
    float abs_step = step < 0 ? -step : step;
 8001b2e:	2100      	movs	r1, #0
    float step = app->current_weight_g - app->prev_weight_g;
 8001b30:	1c05      	adds	r5, r0, #0
    float abs_step = step < 0 ? -step : step;
 8001b32:	f7fe fc99 	bl	8000468 <__aeabi_fcmplt>
 8001b36:	2800      	cmp	r0, #0
 8001b38:	d002      	beq.n	8001b40 <App_CheckDrinkEvent+0xa4>
 8001b3a:	2380      	movs	r3, #128	@ 0x80
 8001b3c:	061b      	lsls	r3, r3, #24
 8001b3e:	18ed      	adds	r5, r5, r3
    if (abs_step > WEIGHT_NOISE_G) {
 8001b40:	4912      	ldr	r1, [pc, #72]	@ (8001b8c <App_CheckDrinkEvent+0xf0>)
 8001b42:	1c28      	adds	r0, r5, #0
 8001b44:	f7fe fca4 	bl	8000490 <__aeabi_fcmpgt>
 8001b48:	23a0      	movs	r3, #160	@ 0xa0
 8001b4a:	009b      	lsls	r3, r3, #2
 8001b4c:	2800      	cmp	r0, #0
 8001b4e:	d1e4      	bne.n	8001b1a <App_CheckDrinkEvent+0x7e>
    if (now - app->weight_change_ms < DRINK_WEIGHT_STABLE_MS) {
 8001b50:	9a01      	ldr	r2, [sp, #4]
 8001b52:	58e3      	ldr	r3, [r4, r3]
 8001b54:	1ad3      	subs	r3, r2, r3
 8001b56:	22fa      	movs	r2, #250	@ 0xfa
 8001b58:	0052      	lsls	r2, r2, #1
 8001b5a:	4293      	cmp	r3, r2
 8001b5c:	d3df      	bcc.n	8001b1e <App_CheckDrinkEvent+0x82>
    float net_removed = app->baseline_weight_g - w;   /* + = consumed */
 8001b5e:	269e      	movs	r6, #158	@ 0x9e
 8001b60:	00b6      	lsls	r6, r6, #2
 8001b62:	1c39      	adds	r1, r7, #0
 8001b64:	59a0      	ldr	r0, [r4, r6]
 8001b66:	f7ff f9d9 	bl	8000f1c <__aeabi_fsub>
    if (net_removed >= (float)DRINK_MIN_VOLUME_ML) {
 8001b6a:	4909      	ldr	r1, [pc, #36]	@ (8001b90 <App_CheckDrinkEvent+0xf4>)
    float net_removed = app->baseline_weight_g - w;   /* + = consumed */
 8001b6c:	1c05      	adds	r5, r0, #0
    if (net_removed >= (float)DRINK_MIN_VOLUME_ML) {
 8001b6e:	f7fe fc99 	bl	80004a4 <__aeabi_fcmpge>
 8001b72:	2800      	cmp	r0, #0
 8001b74:	d003      	beq.n	8001b7e <App_CheckDrinkEvent+0xe2>
        App_RecordDrinkEvent(app, net_removed);
 8001b76:	0020      	movs	r0, r4
 8001b78:	1c29      	adds	r1, r5, #0
 8001b7a:	f7ff ff53 	bl	8001a24 <App_RecordDrinkEvent>
    app->weight_changing   = 0;
 8001b7e:	23a1      	movs	r3, #161	@ 0xa1
 8001b80:	2200      	movs	r2, #0
    app->baseline_weight_g = w;
 8001b82:	51a7      	str	r7, [r4, r6]
    app->weight_changing   = 0;
 8001b84:	009b      	lsls	r3, r3, #2
 8001b86:	e79d      	b.n	8001ac4 <App_CheckDrinkEvent+0x28>
 8001b88:	00000285 	.word	0x00000285
 8001b8c:	40a00000 	.word	0x40a00000
 8001b90:	41200000 	.word	0x41200000

08001b94 <App_TaskWeight>:
{
 8001b94:	b570      	push	{r4, r5, r6, lr}
 8001b96:	0004      	movs	r4, r0
    app->last_weight_ms   = HAL_GetTick();
 8001b98:	f002 fdae 	bl	80046f8 <HAL_GetTick>
 8001b9c:	2395      	movs	r3, #149	@ 0x95
 8001b9e:	009b      	lsls	r3, r3, #2
 8001ba0:	50e0      	str	r0, [r4, r3]
    if (!app->hx711.is_calibrated) return;
 8001ba2:	7a63      	ldrb	r3, [r4, #9]
 8001ba4:	2b00      	cmp	r3, #0
 8001ba6:	d018      	beq.n	8001bda <App_TaskWeight+0x46>
    float w = HX711_ReadMillilitres(&app->hx711);
 8001ba8:	0020      	movs	r0, r4
 8001baa:	f001 fa66 	bl	800307a <HX711_ReadMillilitres>
    app->prev_weight_g    = app->current_weight_g;
 8001bae:	2391      	movs	r3, #145	@ 0x91
 8001bb0:	2292      	movs	r2, #146	@ 0x92
    if (Battery_IsCharging(&app->bat) || Battery_IsFull(&app->bat)) {
 8001bb2:	0025      	movs	r5, r4
    app->prev_weight_g    = app->current_weight_g;
 8001bb4:	009b      	lsls	r3, r3, #2
 8001bb6:	58e1      	ldr	r1, [r4, r3]
 8001bb8:	0092      	lsls	r2, r2, #2
 8001bba:	50a1      	str	r1, [r4, r2]
    if (Battery_IsCharging(&app->bat) || Battery_IsFull(&app->bat)) {
 8001bbc:	351c      	adds	r5, #28
    app->current_weight_g = w;
 8001bbe:	50e0      	str	r0, [r4, r3]
    App_CheckDrinkEvent(app);
 8001bc0:	0020      	movs	r0, r4
 8001bc2:	f7ff ff6b 	bl	8001a9c <App_CheckDrinkEvent>
    if (Battery_IsCharging(&app->bat) || Battery_IsFull(&app->bat)) {
 8001bc6:	0028      	movs	r0, r5
 8001bc8:	f000 fcc9 	bl	800255e <Battery_IsCharging>
 8001bcc:	2800      	cmp	r0, #0
 8001bce:	d005      	beq.n	8001bdc <App_TaskWeight+0x48>
        WS2812B_SetChargingLevel(app->current_bat_pct);
 8001bd0:	2394      	movs	r3, #148	@ 0x94
 8001bd2:	009b      	lsls	r3, r3, #2
 8001bd4:	5ce0      	ldrb	r0, [r4, r3]
 8001bd6:	f002 fb0d 	bl	80041f4 <WS2812B_SetChargingLevel>
}
 8001bda:	bd70      	pop	{r4, r5, r6, pc}
    if (Battery_IsCharging(&app->bat) || Battery_IsFull(&app->bat)) {
 8001bdc:	0028      	movs	r0, r5
 8001bde:	f000 fcc4 	bl	800256a <Battery_IsFull>
 8001be2:	2800      	cmp	r0, #0
 8001be4:	d1f4      	bne.n	8001bd0 <App_TaskWeight+0x3c>
 8001be6:	e7f8      	b.n	8001bda <App_TaskWeight+0x46>

08001be8 <App_TaskReminder>:
{
 8001be8:	b51f      	push	{r0, r1, r2, r3, r4, lr}
 8001bea:	0004      	movs	r4, r0
    app->last_reminder_ms = HAL_GetTick();
 8001bec:	f002 fd84 	bl	80046f8 <HAL_GetTick>
 8001bf0:	239a      	movs	r3, #154	@ 0x9a
 8001bf2:	009b      	lsls	r3, r3, #2
 8001bf4:	50e0      	str	r0, [r4, r3]
    if (app->dev.state != DEV_STATE_ACTIVE) return;
 8001bf6:	0023      	movs	r3, r4
 8001bf8:	33a0      	adds	r3, #160	@ 0xa0
 8001bfa:	781b      	ldrb	r3, [r3, #0]
 8001bfc:	2b04      	cmp	r3, #4
 8001bfe:	d14d      	bne.n	8001c9c <App_TaskReminder+0xb4>
    RTC_Read(&app->rtc);
 8001c00:	0020      	movs	r0, r4
 8001c02:	308c      	adds	r0, #140	@ 0x8c
 8001c04:	f001 fec8 	bl	8003998 <RTC_Read>
    if (!RTC_IsInWindow(&app->rtc.now,
 8001c08:	0020      	movs	r0, r4
 8001c0a:	0023      	movs	r3, r4
 8001c0c:	0022      	movs	r2, r4
 8001c0e:	0021      	movs	r1, r4
 8001c10:	30dd      	adds	r0, #221	@ 0xdd
 8001c12:	7800      	ldrb	r0, [r0, #0]
 8001c14:	33dc      	adds	r3, #220	@ 0xdc
 8001c16:	32db      	adds	r2, #219	@ 0xdb
 8001c18:	31da      	adds	r1, #218	@ 0xda
 8001c1a:	781b      	ldrb	r3, [r3, #0]
 8001c1c:	7812      	ldrb	r2, [r2, #0]
 8001c1e:	7809      	ldrb	r1, [r1, #0]
 8001c20:	9000      	str	r0, [sp, #0]
 8001c22:	0020      	movs	r0, r4
 8001c24:	3090      	adds	r0, #144	@ 0x90
 8001c26:	f001 ff31 	bl	8003a8c <RTC_IsInWindow>
 8001c2a:	2800      	cmp	r0, #0
 8001c2c:	d036      	beq.n	8001c9c <App_TaskReminder+0xb4>
    uint32_t freq_sec = (uint32_t)app->settings.prefs.remind_freq_min * 60UL;
 8001c2e:	0023      	movs	r3, r4
 8001c30:	33de      	adds	r3, #222	@ 0xde
 8001c32:	781a      	ldrb	r2, [r3, #0]
 8001c34:	233c      	movs	r3, #60	@ 0x3c
 8001c36:	4353      	muls	r3, r2
    if (freq_sec == 0U) freq_sec = 3600U;
 8001c38:	2b00      	cmp	r3, #0
 8001c3a:	d101      	bne.n	8001c40 <App_TaskReminder+0x58>
 8001c3c:	23e1      	movs	r3, #225	@ 0xe1
 8001c3e:	011b      	lsls	r3, r3, #4
    if (app->rtc.unix_approx - last_reminder_unix < freq_sec) return;
 8001c40:	0022      	movs	r2, r4
 8001c42:	491a      	ldr	r1, [pc, #104]	@ (8001cac <App_TaskReminder+0xc4>)
 8001c44:	3298      	adds	r2, #152	@ 0x98
 8001c46:	6810      	ldr	r0, [r2, #0]
 8001c48:	680a      	ldr	r2, [r1, #0]
 8001c4a:	1a82      	subs	r2, r0, r2
 8001c4c:	429a      	cmp	r2, r3
 8001c4e:	d325      	bcc.n	8001c9c <App_TaskReminder+0xb4>
    last_reminder_unix = app->rtc.unix_approx;
 8001c50:	6008      	str	r0, [r1, #0]
    app->hydration_score = App_CalcHydrationScore(app);
 8001c52:	0020      	movs	r0, r4
 8001c54:	f7ff fece 	bl	80019f4 <App_CalcHydrationScore>
 8001c58:	23a4      	movs	r3, #164	@ 0xa4
 8001c5a:	009b      	lsls	r3, r3, #2
 8001c5c:	54e0      	strb	r0, [r4, r3]
    if (app->hydration_score > HYDRATION_SCORE_HIGH) {
 8001c5e:	2850      	cmp	r0, #80	@ 0x50
 8001c60:	d91d      	bls.n	8001c9e <App_TaskReminder+0xb6>
        RGB_t col = RGB(app->settings.prefs.remind_r,
 8001c62:	0022      	movs	r2, r4
 8001c64:	32df      	adds	r2, #223	@ 0xdf
 8001c66:	7812      	ldrb	r2, [r2, #0]
 8001c68:	ab03      	add	r3, sp, #12
 8001c6a:	701a      	strb	r2, [r3, #0]
 8001c6c:	0022      	movs	r2, r4
 8001c6e:	32e0      	adds	r2, #224	@ 0xe0
 8001c70:	7812      	ldrb	r2, [r2, #0]
 8001c72:	705a      	strb	r2, [r3, #1]
 8001c74:	0022      	movs	r2, r4
 8001c76:	32e1      	adds	r2, #225	@ 0xe1
 8001c78:	7812      	ldrb	r2, [r2, #0]
 8001c7a:	709a      	strb	r2, [r3, #2]
        WS2812B_SetCustomReminderColor(col);
 8001c7c:	9803      	ldr	r0, [sp, #12]
 8001c7e:	f002 faaf 	bl	80041e0 <WS2812B_SetCustomReminderColor>
        WS2812B_SetPattern(LED_PATTERN_HYDRATION_HIGH);
 8001c82:	2001      	movs	r0, #1
    switch (app->settings.prefs.remind_sound) {
 8001c84:	34e2      	adds	r4, #226	@ 0xe2
        WS2812B_SetPattern(LED_PATTERN_HYDRATION_LOW);
 8001c86:	f002 fa67 	bl	8004158 <WS2812B_SetPattern>
    switch (app->settings.prefs.remind_sound) {
 8001c8a:	7823      	ldrb	r3, [r4, #0]
 8001c8c:	2b00      	cmp	r3, #0
 8001c8e:	d005      	beq.n	8001c9c <App_TaskReminder+0xb4>
    case 1:  Buzzer_Play(BUZZER_SINGLE_BEEP);                      break;
 8001c90:	2003      	movs	r0, #3
    switch (app->settings.prefs.remind_sound) {
 8001c92:	2b01      	cmp	r3, #1
 8001c94:	d000      	beq.n	8001c98 <App_TaskReminder+0xb0>
    case 2:  default: Buzzer_Play(BUZZER_DOUBLE_BEEP);            break;
 8001c96:	2002      	movs	r0, #2
 8001c98:	f000 fe70 	bl	800297c <Buzzer_Play>
}
 8001c9c:	bd1f      	pop	{r0, r1, r2, r3, r4, pc}
    } else if (app->hydration_score >= HYDRATION_SCORE_MID) {
 8001c9e:	2831      	cmp	r0, #49	@ 0x31
 8001ca0:	d901      	bls.n	8001ca6 <App_TaskReminder+0xbe>
        WS2812B_SetPattern(LED_PATTERN_HYDRATION_MID);
 8001ca2:	2002      	movs	r0, #2
 8001ca4:	e7ee      	b.n	8001c84 <App_TaskReminder+0x9c>
        WS2812B_SetPattern(LED_PATTERN_HYDRATION_LOW);
 8001ca6:	2003      	movs	r0, #3
 8001ca8:	e7ec      	b.n	8001c84 <App_TaskReminder+0x9c>
 8001caa:	46c0      	nop			@ (mov r8, r8)
 8001cac:	2000002c 	.word	0x2000002c

08001cb0 <App_Cmd_GetLive>:
 * separator or end.  Prevents "RESET" from matching "REG" etc.  We still use
 * starts_with for dispatch but order commands carefully below. */

/* ── Live + status responders ─────────────────────────────────────────── */
void App_Cmd_GetLive(AppContext_t *app)
{
 8001cb0:	b5f0      	push	{r4, r5, r6, r7, lr}
    char buf[56];
    uint8_t i = 0;
    const char *p = "LIVE,";
    while (*p) buf[i++] = *p++;
 8001cb2:	493f      	ldr	r1, [pc, #252]	@ (8001db0 <App_Cmd_GetLive+0x100>)
{
 8001cb4:	b093      	sub	sp, #76	@ 0x4c
    uint8_t i = 0;
 8001cb6:	ab02      	add	r3, sp, #8
 8001cb8:	1ddc      	adds	r4, r3, #7
    while (*p) buf[i++] = *p++;
 8001cba:	9101      	str	r1, [sp, #4]
    uint8_t i = 0;
 8001cbc:	2300      	movs	r3, #0
    while (*p) buf[i++] = *p++;
 8001cbe:	2101      	movs	r1, #1
{
 8001cc0:	0006      	movs	r6, r0
    while (*p) buf[i++] = *p++;
 8001cc2:	001a      	movs	r2, r3
 8001cc4:	27ff      	movs	r7, #255	@ 0xff
 8001cc6:	468c      	mov	ip, r1
    uint8_t i = 0;
 8001cc8:	7023      	strb	r3, [r4, #0]
    while (*p) buf[i++] = *p++;
 8001cca:	ad04      	add	r5, sp, #16
 8001ccc:	9901      	ldr	r1, [sp, #4]
 8001cce:	1c58      	adds	r0, r3, #1
 8001cd0:	5c09      	ldrb	r1, [r1, r0]
 8001cd2:	2900      	cmp	r1, #0
 8001cd4:	d166      	bne.n	8001da4 <App_Cmd_GetLive+0xf4>
 8001cd6:	2a00      	cmp	r2, #0
 8001cd8:	d000      	beq.n	8001cdc <App_Cmd_GetLive+0x2c>
 8001cda:	7023      	strb	r3, [r4, #0]

    /* Temperature with one decimal: e.g. 253 -> "25.3", -12 -> "-1.2" */
    int16_t t = app->current_temp_x10;
 8001cdc:	4b35      	ldr	r3, [pc, #212]	@ (8001db4 <App_Cmd_GetLive+0x104>)
 8001cde:	5ef7      	ldrsh	r7, [r6, r3]
    if (t < 0) { buf[i++] = '-'; t = (int16_t)(-t); }
 8001ce0:	2f00      	cmp	r7, #0
 8001ce2:	da06      	bge.n	8001cf2 <App_Cmd_GetLive+0x42>
 8001ce4:	7823      	ldrb	r3, [r4, #0]
 8001ce6:	427f      	negs	r7, r7
 8001ce8:	1c5a      	adds	r2, r3, #1
 8001cea:	7022      	strb	r2, [r4, #0]
 8001cec:	222d      	movs	r2, #45	@ 0x2d
 8001cee:	b23f      	sxth	r7, r7
 8001cf0:	54ea      	strb	r2, [r5, r3]
    append_int(buf, &i, t / 10);
 8001cf2:	210a      	movs	r1, #10
 8001cf4:	0038      	movs	r0, r7
 8001cf6:	f7fe faad 	bl	8000254 <__divsi3>
 8001cfa:	0021      	movs	r1, r4
 8001cfc:	b202      	sxth	r2, r0
 8001cfe:	0028      	movs	r0, r5
 8001d00:	f7ff fc6a 	bl	80015d8 <append_int>
    buf[i++] = '.';
 8001d04:	7823      	ldrb	r3, [r4, #0]
    append_int(buf, &i, t % 10);
 8001d06:	0038      	movs	r0, r7
    buf[i++] = '.';
 8001d08:	1c5a      	adds	r2, r3, #1
 8001d0a:	7022      	strb	r2, [r4, #0]
 8001d0c:	222e      	movs	r2, #46	@ 0x2e
    append_int(buf, &i, t % 10);
 8001d0e:	210a      	movs	r1, #10
    buf[i++] = '.';
 8001d10:	54ea      	strb	r2, [r5, r3]
    append_int(buf, &i, t % 10);
 8001d12:	f7fe fb85 	bl	8000420 <__aeabi_idivmod>
    buf[i++] = ',';
 8001d16:	272c      	movs	r7, #44	@ 0x2c
    append_int(buf, &i, t % 10);
 8001d18:	b20a      	sxth	r2, r1
 8001d1a:	0028      	movs	r0, r5
 8001d1c:	0021      	movs	r1, r4
 8001d1e:	f7ff fc5b 	bl	80015d8 <append_int>
    buf[i++] = ',';
 8001d22:	7823      	ldrb	r3, [r4, #0]

    append_int(buf, &i, (int32_t)app->current_tds_ppm);
 8001d24:	0021      	movs	r1, r4
    buf[i++] = ',';
 8001d26:	54ef      	strb	r7, [r5, r3]
 8001d28:	1c5a      	adds	r2, r3, #1
    append_int(buf, &i, (int32_t)app->current_tds_ppm);
 8001d2a:	2393      	movs	r3, #147	@ 0x93
    buf[i++] = ',';
 8001d2c:	7022      	strb	r2, [r4, #0]
    append_int(buf, &i, (int32_t)app->current_tds_ppm);
 8001d2e:	009b      	lsls	r3, r3, #2
 8001d30:	5af2      	ldrh	r2, [r6, r3]
 8001d32:	0028      	movs	r0, r5
 8001d34:	f7ff fc50 	bl	80015d8 <append_int>
    buf[i++] = ',';
 8001d38:	7823      	ldrb	r3, [r4, #0]
    append_int(buf, &i, (int32_t)((app->current_weight_g > 0) ? app->current_weight_g : 0));
 8001d3a:	2100      	movs	r1, #0
    buf[i++] = ',';
 8001d3c:	1c5a      	adds	r2, r3, #1
 8001d3e:	54ef      	strb	r7, [r5, r3]
    append_int(buf, &i, (int32_t)((app->current_weight_g > 0) ? app->current_weight_g : 0));
 8001d40:	2391      	movs	r3, #145	@ 0x91
 8001d42:	009b      	lsls	r3, r3, #2
 8001d44:	58f7      	ldr	r7, [r6, r3]
    buf[i++] = ',';
 8001d46:	7022      	strb	r2, [r4, #0]
    append_int(buf, &i, (int32_t)((app->current_weight_g > 0) ? app->current_weight_g : 0));
 8001d48:	1c38      	adds	r0, r7, #0
 8001d4a:	f7fe fba1 	bl	8000490 <__aeabi_fcmpgt>
 8001d4e:	1e02      	subs	r2, r0, #0
 8001d50:	d003      	beq.n	8001d5a <App_Cmd_GetLive+0xaa>
 8001d52:	1c38      	adds	r0, r7, #0
 8001d54:	f7ff fb46 	bl	80013e4 <__aeabi_f2iz>
 8001d58:	0002      	movs	r2, r0
    buf[i++] = ',';
 8001d5a:	272c      	movs	r7, #44	@ 0x2c
    append_int(buf, &i, (int32_t)((app->current_weight_g > 0) ? app->current_weight_g : 0));
 8001d5c:	0021      	movs	r1, r4
 8001d5e:	0028      	movs	r0, r5
 8001d60:	f7ff fc3a 	bl	80015d8 <append_int>
    buf[i++] = ',';
 8001d64:	7823      	ldrb	r3, [r4, #0]
    append_int(buf, &i, (int32_t)app->hydration_score);
 8001d66:	0021      	movs	r1, r4
    buf[i++] = ',';
 8001d68:	54ef      	strb	r7, [r5, r3]
 8001d6a:	1c5a      	adds	r2, r3, #1
    append_int(buf, &i, (int32_t)app->hydration_score);
 8001d6c:	23a4      	movs	r3, #164	@ 0xa4
    buf[i++] = ',';
 8001d6e:	7022      	strb	r2, [r4, #0]
    append_int(buf, &i, (int32_t)app->hydration_score);
 8001d70:	009b      	lsls	r3, r3, #2
 8001d72:	5cf2      	ldrb	r2, [r6, r3]
 8001d74:	0028      	movs	r0, r5
 8001d76:	f7ff fc2f 	bl	80015d8 <append_int>
    buf[i++] = ',';
 8001d7a:	7823      	ldrb	r3, [r4, #0]
    append_int(buf, &i, (int32_t)app->current_bat_pct);
 8001d7c:	0021      	movs	r1, r4
    buf[i++] = ',';
 8001d7e:	54ef      	strb	r7, [r5, r3]
 8001d80:	1c5a      	adds	r2, r3, #1
    append_int(buf, &i, (int32_t)app->current_bat_pct);
 8001d82:	2394      	movs	r3, #148	@ 0x94
    buf[i++] = ',';
 8001d84:	7022      	strb	r2, [r4, #0]
    append_int(buf, &i, (int32_t)app->current_bat_pct);
 8001d86:	009b      	lsls	r3, r3, #2
 8001d88:	5cf2      	ldrb	r2, [r6, r3]
 8001d8a:	0028      	movs	r0, r5
 8001d8c:	f7ff fc24 	bl	80015d8 <append_int>
    buf[i] = '\0';
    BLE_SendLine(&app->ble, buf);
 8001d90:	0030      	movs	r0, r6
    buf[i] = '\0';
 8001d92:	2200      	movs	r2, #0
 8001d94:	7823      	ldrb	r3, [r4, #0]
    BLE_SendLine(&app->ble, buf);
 8001d96:	0029      	movs	r1, r5
 8001d98:	3034      	adds	r0, #52	@ 0x34
    buf[i] = '\0';
 8001d9a:	54ea      	strb	r2, [r5, r3]
    BLE_SendLine(&app->ble, buf);
 8001d9c:	f000 fc96 	bl	80026cc <BLE_SendLine>
}
 8001da0:	b013      	add	sp, #76	@ 0x4c
 8001da2:	bdf0      	pop	{r4, r5, r6, r7, pc}
    while (*p) buf[i++] = *p++;
 8001da4:	403b      	ands	r3, r7
 8001da6:	54e9      	strb	r1, [r5, r3]
 8001da8:	4662      	mov	r2, ip
 8001daa:	0003      	movs	r3, r0
 8001dac:	e78e      	b.n	8001ccc <App_Cmd_GetLive+0x1c>
 8001dae:	46c0      	nop			@ (mov r8, r8)
 8001db0:	0800788b 	.word	0x0800788b
 8001db4:	0000024e 	.word	0x0000024e

08001db8 <App_HandleBLELine>:
/* ── Master text-line dispatcher ──────────────────────────────────────── *
 * IMPORTANT ordering: longer/overlapping tokens are tested before their
 * prefixes so e.g. RESET is not swallowed by REG, LAMPOFF before LAMP,
 * BEEP standalone, etc. */
void App_HandleBLELine(AppContext_t *app, const char *line)
{
 8001db8:	b5f0      	push	{r4, r5, r6, r7, lr}
 8001dba:	0007      	movs	r7, r0
 8001dbc:	000c      	movs	r4, r1
    /* Find argument start (after first comma), if any. */
    const char *args = line;
 8001dbe:	000d      	movs	r5, r1
{
 8001dc0:	b097      	sub	sp, #92	@ 0x5c
    while (*args && *args != ',') args++;
 8001dc2:	782b      	ldrb	r3, [r5, #0]
 8001dc4:	2b00      	cmp	r3, #0
 8001dc6:	d002      	beq.n	8001dce <App_HandleBLELine+0x16>
 8001dc8:	3501      	adds	r5, #1
 8001dca:	2b2c      	cmp	r3, #44	@ 0x2c
 8001dcc:	d1f9      	bne.n	8001dc2 <App_HandleBLELine+0xa>
    if (*args == ',') args++;          /* now points past the comma */

    if      (starts_with(line, "PING"))    { BLE_SendLine(&app->ble, "PONG"); }
 8001dce:	0020      	movs	r0, r4
 8001dd0:	49c3      	ldr	r1, [pc, #780]	@ (80020e0 <App_HandleBLELine+0x328>)
 8001dd2:	f7ff fc35 	bl	8001640 <starts_with>
 8001dd6:	2800      	cmp	r0, #0
 8001dd8:	d006      	beq.n	8001de8 <App_HandleBLELine+0x30>
 8001dda:	0038      	movs	r0, r7
 8001ddc:	49c1      	ldr	r1, [pc, #772]	@ (80020e4 <App_HandleBLELine+0x32c>)
 8001dde:	3034      	adds	r0, #52	@ 0x34
    BLE_SendLine(&app->ble, "RESET  FACTORY");
 8001de0:	f000 fc74 	bl	80026cc <BLE_SendLine>
        HAL_NVIC_SystemReset();
    }
    else {
        send_err(app, "?", "UNKNOWN");
    }
}
 8001de4:	b017      	add	sp, #92	@ 0x5c
 8001de6:	bdf0      	pop	{r4, r5, r6, r7, pc}
    else if (starts_with(line, "HELP"))    { App_Cmd_Help(app); }
 8001de8:	0020      	movs	r0, r4
 8001dea:	49bf      	ldr	r1, [pc, #764]	@ (80020e8 <App_HandleBLELine+0x330>)
 8001dec:	f7ff fc28 	bl	8001640 <starts_with>
 8001df0:	2800      	cmp	r0, #0
 8001df2:	d01f      	beq.n	8001e34 <App_HandleBLELine+0x7c>
    BLE_SendLine(&app->ble, "PING -> PONG");
 8001df4:	3734      	adds	r7, #52	@ 0x34
 8001df6:	49bd      	ldr	r1, [pc, #756]	@ (80020ec <App_HandleBLELine+0x334>)
 8001df8:	0038      	movs	r0, r7
 8001dfa:	f000 fc67 	bl	80026cc <BLE_SendLine>
    BLE_SendLine(&app->ble, "LIVE -> temp,tds,vol,score,bat");
 8001dfe:	49bc      	ldr	r1, [pc, #752]	@ (80020f0 <App_HandleBLELine+0x338>)
 8001e00:	0038      	movs	r0, r7
 8001e02:	f000 fc63 	bl	80026cc <BLE_SendLine>
    BLE_SendLine(&app->ble, "STATUS -> bat,chg,cal,reg");
 8001e06:	49bb      	ldr	r1, [pc, #748]	@ (80020f4 <App_HandleBLELine+0x33c>)
 8001e08:	0038      	movs	r0, r7
 8001e0a:	f000 fc5f 	bl	80026cc <BLE_SendLine>
    BLE_SendLine(&app->ble, "RGB,r,g,b  | OFF");
 8001e0e:	49ba      	ldr	r1, [pc, #744]	@ (80020f8 <App_HandleBLELine+0x340>)
 8001e10:	0038      	movs	r0, r7
 8001e12:	f000 fc5b 	bl	80026cc <BLE_SendLine>
    BLE_SendLine(&app->ble, "LAMP,r,g,b | LAMPOFF (charging only)");
 8001e16:	49b9      	ldr	r1, [pc, #740]	@ (80020fc <App_HandleBLELine+0x344>)
 8001e18:	0038      	movs	r0, r7
 8001e1a:	f000 fc57 	bl	80026cc <BLE_SendLine>
    BLE_SendLine(&app->ble, "BEEP[,n]   CAL");
 8001e1e:	49b8      	ldr	r1, [pc, #736]	@ (8002100 <App_HandleBLELine+0x348>)
 8001e20:	0038      	movs	r0, r7
 8001e22:	f000 fc53 	bl	80026cc <BLE_SendLine>
    BLE_SendLine(&app->ble, "REG,id  UNPAIR  TIME,unix");
 8001e26:	49b7      	ldr	r1, [pc, #732]	@ (8002104 <App_HandleBLELine+0x34c>)
 8001e28:	0038      	movs	r0, r7
 8001e2a:	f000 fc4f 	bl	80026cc <BLE_SendLine>
    BLE_SendLine(&app->ble, "RESET  FACTORY");
 8001e2e:	0038      	movs	r0, r7
 8001e30:	49b5      	ldr	r1, [pc, #724]	@ (8002108 <App_HandleBLELine+0x350>)
 8001e32:	e7d5      	b.n	8001de0 <App_HandleBLELine+0x28>
    else if (starts_with(line, "LIVE"))    { App_Cmd_GetLive(app); }
 8001e34:	0020      	movs	r0, r4
 8001e36:	49b5      	ldr	r1, [pc, #724]	@ (800210c <App_HandleBLELine+0x354>)
 8001e38:	f7ff fc02 	bl	8001640 <starts_with>
 8001e3c:	1e06      	subs	r6, r0, #0
 8001e3e:	d003      	beq.n	8001e48 <App_HandleBLELine+0x90>
 8001e40:	0038      	movs	r0, r7
 8001e42:	f7ff ff35 	bl	8001cb0 <App_Cmd_GetLive>
 8001e46:	e7cd      	b.n	8001de4 <App_HandleBLELine+0x2c>
    else if (starts_with(line, "STATUS"))  { App_Cmd_Status(app); }
 8001e48:	0020      	movs	r0, r4
 8001e4a:	49b1      	ldr	r1, [pc, #708]	@ (8002110 <App_HandleBLELine+0x358>)
 8001e4c:	f7ff fbf8 	bl	8001640 <starts_with>
 8001e50:	2800      	cmp	r0, #0
 8001e52:	d04b      	beq.n	8001eec <App_HandleBLELine+0x134>
    while (*p) buf[i++] = *p++;
 8001e54:	4aaf      	ldr	r2, [pc, #700]	@ (8002114 <App_HandleBLELine+0x35c>)
 8001e56:	0033      	movs	r3, r6
 8001e58:	4694      	mov	ip, r2
 8001e5a:	20ff      	movs	r0, #255	@ 0xff
    uint8_t i = 0;
 8001e5c:	ac0b      	add	r4, sp, #44	@ 0x2c
 8001e5e:	7026      	strb	r6, [r4, #0]
    while (*p) buf[i++] = *p++;
 8001e60:	ad0c      	add	r5, sp, #48	@ 0x30
 8001e62:	4662      	mov	r2, ip
 8001e64:	1c71      	adds	r1, r6, #1
 8001e66:	5c52      	ldrb	r2, [r2, r1]
 8001e68:	2a00      	cmp	r2, #0
 8001e6a:	d13a      	bne.n	8001ee2 <App_HandleBLELine+0x12a>
 8001e6c:	2b00      	cmp	r3, #0
 8001e6e:	d000      	beq.n	8001e72 <App_HandleBLELine+0xba>
 8001e70:	7026      	strb	r6, [r4, #0]
    append_int(buf, &i, (int32_t)app->current_bat_pct);   buf[i++] = ',';
 8001e72:	2394      	movs	r3, #148	@ 0x94
 8001e74:	009b      	lsls	r3, r3, #2
 8001e76:	0021      	movs	r1, r4
 8001e78:	5cfa      	ldrb	r2, [r7, r3]
 8001e7a:	0028      	movs	r0, r5
 8001e7c:	f7ff fbac 	bl	80015d8 <append_int>
 8001e80:	262c      	movs	r6, #44	@ 0x2c
    append_int(buf, &i, Battery_IsCharging(&app->bat) ? 1 : 0); buf[i++] = ',';
 8001e82:	0038      	movs	r0, r7
    append_int(buf, &i, (int32_t)app->current_bat_pct);   buf[i++] = ',';
 8001e84:	7823      	ldrb	r3, [r4, #0]
    append_int(buf, &i, Battery_IsCharging(&app->bat) ? 1 : 0); buf[i++] = ',';
 8001e86:	301c      	adds	r0, #28
    append_int(buf, &i, (int32_t)app->current_bat_pct);   buf[i++] = ',';
 8001e88:	1c5a      	adds	r2, r3, #1
 8001e8a:	54ee      	strb	r6, [r5, r3]
 8001e8c:	7022      	strb	r2, [r4, #0]
    append_int(buf, &i, Battery_IsCharging(&app->bat) ? 1 : 0); buf[i++] = ',';
 8001e8e:	f000 fb66 	bl	800255e <Battery_IsCharging>
 8001e92:	0002      	movs	r2, r0
 8001e94:	0021      	movs	r1, r4
 8001e96:	1e53      	subs	r3, r2, #1
 8001e98:	419a      	sbcs	r2, r3
 8001e9a:	0028      	movs	r0, r5
 8001e9c:	f7ff fb9c 	bl	80015d8 <append_int>
 8001ea0:	7823      	ldrb	r3, [r4, #0]
    append_int(buf, &i, app->settings.is_calibrated ? 1 : 0);   buf[i++] = ',';
 8001ea2:	0021      	movs	r1, r4
    append_int(buf, &i, Battery_IsCharging(&app->bat) ? 1 : 0); buf[i++] = ',';
 8001ea4:	1c5a      	adds	r2, r3, #1
 8001ea6:	54ee      	strb	r6, [r5, r3]
    append_int(buf, &i, app->settings.is_calibrated ? 1 : 0);   buf[i++] = ',';
 8001ea8:	003b      	movs	r3, r7
    append_int(buf, &i, Battery_IsCharging(&app->bat) ? 1 : 0); buf[i++] = ',';
 8001eaa:	7022      	strb	r2, [r4, #0]
    append_int(buf, &i, app->settings.is_calibrated ? 1 : 0);   buf[i++] = ',';
 8001eac:	33f1      	adds	r3, #241	@ 0xf1
 8001eae:	781a      	ldrb	r2, [r3, #0]
 8001eb0:	0028      	movs	r0, r5
 8001eb2:	1e53      	subs	r3, r2, #1
 8001eb4:	419a      	sbcs	r2, r3
 8001eb6:	f7ff fb8f 	bl	80015d8 <append_int>
 8001eba:	7823      	ldrb	r3, [r4, #0]
    append_int(buf, &i, app->settings.is_registered ? 1 : 0);
 8001ebc:	0021      	movs	r1, r4
    append_int(buf, &i, app->settings.is_calibrated ? 1 : 0);   buf[i++] = ',';
 8001ebe:	1c5a      	adds	r2, r3, #1
 8001ec0:	54ee      	strb	r6, [r5, r3]
    append_int(buf, &i, app->settings.is_registered ? 1 : 0);
 8001ec2:	003b      	movs	r3, r7
    append_int(buf, &i, app->settings.is_calibrated ? 1 : 0);   buf[i++] = ',';
 8001ec4:	7022      	strb	r2, [r4, #0]
    append_int(buf, &i, app->settings.is_registered ? 1 : 0);
 8001ec6:	33f0      	adds	r3, #240	@ 0xf0
 8001ec8:	781a      	ldrb	r2, [r3, #0]
 8001eca:	0028      	movs	r0, r5
 8001ecc:	1e53      	subs	r3, r2, #1
 8001ece:	419a      	sbcs	r2, r3
 8001ed0:	f7ff fb82 	bl	80015d8 <append_int>
    buf[i] = '\0';
 8001ed4:	2200      	movs	r2, #0
    BLE_SendLine(&app->ble, buf);
 8001ed6:	0038      	movs	r0, r7
    buf[i] = '\0';
 8001ed8:	7823      	ldrb	r3, [r4, #0]
    BLE_SendLine(&app->ble, buf);
 8001eda:	0029      	movs	r1, r5
    buf[i] = '\0';
 8001edc:	54ea      	strb	r2, [r5, r3]
    BLE_SendLine(&app->ble, buf);
 8001ede:	3034      	adds	r0, #52	@ 0x34
 8001ee0:	e77e      	b.n	8001de0 <App_HandleBLELine+0x28>
    while (*p) buf[i++] = *p++;
 8001ee2:	4006      	ands	r6, r0
 8001ee4:	55aa      	strb	r2, [r5, r6]
 8001ee6:	2301      	movs	r3, #1
 8001ee8:	000e      	movs	r6, r1
 8001eea:	e7ba      	b.n	8001e62 <App_HandleBLELine+0xaa>
    else if (starts_with(line, "RGB"))     { App_Cmd_RGB(app, args); }
 8001eec:	4e8a      	ldr	r6, [pc, #552]	@ (8002118 <App_HandleBLELine+0x360>)
 8001eee:	0020      	movs	r0, r4
 8001ef0:	0031      	movs	r1, r6
 8001ef2:	f7ff fba5 	bl	8001640 <starts_with>
 8001ef6:	2800      	cmp	r0, #0
 8001ef8:	d02c      	beq.n	8001f54 <App_HandleBLELine+0x19c>
    int32_t r = parse_int(&p);
 8001efa:	a80c      	add	r0, sp, #48	@ 0x30
    const char *p = args;
 8001efc:	950c      	str	r5, [sp, #48]	@ 0x30
    int32_t r = parse_int(&p);
 8001efe:	f7ff fb45 	bl	800158c <parse_int>
 8001f02:	0005      	movs	r5, r0
    int32_t g = parse_int(&p);
 8001f04:	a80c      	add	r0, sp, #48	@ 0x30
 8001f06:	f7ff fb41 	bl	800158c <parse_int>
 8001f0a:	0004      	movs	r4, r0
    int32_t b = parse_int(&p);
 8001f0c:	a80c      	add	r0, sp, #48	@ 0x30
 8001f0e:	f7ff fb3d 	bl	800158c <parse_int>
    RGB_t col = RGB((uint8_t)r, (uint8_t)g, (uint8_t)b);
 8001f12:	ab0b      	add	r3, sp, #44	@ 0x2c
    if (r < 0) r = 0; if (r > 255) r = 255;
 8001f14:	2dff      	cmp	r5, #255	@ 0xff
 8001f16:	dd11      	ble.n	8001f3c <App_HandleBLELine+0x184>
 8001f18:	25ff      	movs	r5, #255	@ 0xff
    RGB_t col = RGB((uint8_t)r, (uint8_t)g, (uint8_t)b);
 8001f1a:	701d      	strb	r5, [r3, #0]
    if (g < 0) g = 0; if (g > 255) g = 255;
 8001f1c:	2cff      	cmp	r4, #255	@ 0xff
 8001f1e:	dd11      	ble.n	8001f44 <App_HandleBLELine+0x18c>
 8001f20:	24ff      	movs	r4, #255	@ 0xff
    RGB_t col = RGB((uint8_t)r, (uint8_t)g, (uint8_t)b);
 8001f22:	705c      	strb	r4, [r3, #1]
    if (b < 0) b = 0; if (b > 255) b = 255;
 8001f24:	28ff      	cmp	r0, #255	@ 0xff
 8001f26:	dd11      	ble.n	8001f4c <App_HandleBLELine+0x194>
 8001f28:	20ff      	movs	r0, #255	@ 0xff
    RGB_t col = RGB((uint8_t)r, (uint8_t)g, (uint8_t)b);
 8001f2a:	7098      	strb	r0, [r3, #2]
    WS2812B_SetSolidColor(col);
 8001f2c:	980b      	ldr	r0, [sp, #44]	@ 0x2c
 8001f2e:	f002 f941 	bl	80041b4 <WS2812B_SetSolidColor>
    send_ok(app, "CAL");
 8001f32:	0031      	movs	r1, r6
    send_ok(app, "CFG");
 8001f34:	0038      	movs	r0, r7
 8001f36:	f7ff fb9d 	bl	8001674 <send_ok>
}
 8001f3a:	e753      	b.n	8001de4 <App_HandleBLELine+0x2c>
    RGB_t col = RGB((uint8_t)r, (uint8_t)g, (uint8_t)b);
 8001f3c:	43ea      	mvns	r2, r5
 8001f3e:	17d2      	asrs	r2, r2, #31
 8001f40:	4015      	ands	r5, r2
 8001f42:	e7ea      	b.n	8001f1a <App_HandleBLELine+0x162>
 8001f44:	43e2      	mvns	r2, r4
 8001f46:	17d2      	asrs	r2, r2, #31
 8001f48:	4014      	ands	r4, r2
 8001f4a:	e7ea      	b.n	8001f22 <App_HandleBLELine+0x16a>
 8001f4c:	43c2      	mvns	r2, r0
 8001f4e:	17d2      	asrs	r2, r2, #31
 8001f50:	4010      	ands	r0, r2
 8001f52:	e7ea      	b.n	8001f2a <App_HandleBLELine+0x172>
    else if (starts_with(line, "OFF"))     { WS2812B_SetPattern(LED_PATTERN_ALL_OFF); send_ok(app, "OFF"); }
 8001f54:	4e71      	ldr	r6, [pc, #452]	@ (800211c <App_HandleBLELine+0x364>)
 8001f56:	0020      	movs	r0, r4
 8001f58:	0031      	movs	r1, r6
 8001f5a:	f7ff fb71 	bl	8001640 <starts_with>
 8001f5e:	2800      	cmp	r0, #0
 8001f60:	d003      	beq.n	8001f6a <App_HandleBLELine+0x1b2>
 8001f62:	2010      	movs	r0, #16
 8001f64:	f002 f8f8 	bl	8004158 <WS2812B_SetPattern>
 8001f68:	e7e3      	b.n	8001f32 <App_HandleBLELine+0x17a>
    else if (starts_with(line, "LAMPOFF")) { Device_PostEvent(&app->dev, EVT_CMD_LAMP_OFF); Device_Run(&app->dev); send_ok(app, "LAMPOFF"); }
 8001f6a:	4e6d      	ldr	r6, [pc, #436]	@ (8002120 <App_HandleBLELine+0x368>)
 8001f6c:	0020      	movs	r0, r4
 8001f6e:	0031      	movs	r1, r6
 8001f70:	f7ff fb66 	bl	8001640 <starts_with>
 8001f74:	2800      	cmp	r0, #0
 8001f76:	d009      	beq.n	8001f8c <App_HandleBLELine+0x1d4>
 8001f78:	003c      	movs	r4, r7
 8001f7a:	34a0      	adds	r4, #160	@ 0xa0
 8001f7c:	0020      	movs	r0, r4
 8001f7e:	2108      	movs	r1, #8
 8001f80:	f000 ff99 	bl	8002eb6 <Device_PostEvent>
 8001f84:	0020      	movs	r0, r4
 8001f86:	f000 ff99 	bl	8002ebc <Device_Run>
 8001f8a:	e7d2      	b.n	8001f32 <App_HandleBLELine+0x17a>
    else if (starts_with(line, "LAMP"))    { App_Cmd_LampText(app, args); }
 8001f8c:	4b65      	ldr	r3, [pc, #404]	@ (8002124 <App_HandleBLELine+0x36c>)
 8001f8e:	0020      	movs	r0, r4
 8001f90:	0019      	movs	r1, r3
 8001f92:	9301      	str	r3, [sp, #4]
 8001f94:	f7ff fb54 	bl	8001640 <starts_with>
 8001f98:	2800      	cmp	r0, #0
 8001f9a:	d050      	beq.n	800203e <App_HandleBLELine+0x286>
    if (!Battery_IsCharging(&app->bat) && !Battery_IsFull(&app->bat)) {
 8001f9c:	003c      	movs	r4, r7
 8001f9e:	341c      	adds	r4, #28
 8001fa0:	0020      	movs	r0, r4
 8001fa2:	f000 fadc 	bl	800255e <Battery_IsCharging>
 8001fa6:	2800      	cmp	r0, #0
 8001fa8:	d10a      	bne.n	8001fc0 <App_HandleBLELine+0x208>
 8001faa:	0020      	movs	r0, r4
 8001fac:	f000 fadd 	bl	800256a <Battery_IsFull>
 8001fb0:	2800      	cmp	r0, #0
 8001fb2:	d105      	bne.n	8001fc0 <App_HandleBLELine+0x208>
        send_err(app, "LAMP", "NOTCHARGING");
 8001fb4:	4a5c      	ldr	r2, [pc, #368]	@ (8002128 <App_HandleBLELine+0x370>)
 8001fb6:	9901      	ldr	r1, [sp, #4]
        send_err(app, "?", "UNKNOWN");
 8001fb8:	0038      	movs	r0, r7
 8001fba:	f7ff fb7f 	bl	80016bc <send_err>
}
 8001fbe:	e711      	b.n	8001de4 <App_HandleBLELine+0x2c>
    int32_t r = parse_int(&p), g = parse_int(&p), b = parse_int(&p);
 8001fc0:	a80c      	add	r0, sp, #48	@ 0x30
    const char *p = args;
 8001fc2:	950c      	str	r5, [sp, #48]	@ 0x30
    int32_t r = parse_int(&p), g = parse_int(&p), b = parse_int(&p);
 8001fc4:	f7ff fae2 	bl	800158c <parse_int>
 8001fc8:	0006      	movs	r6, r0
 8001fca:	a80c      	add	r0, sp, #48	@ 0x30
 8001fcc:	f7ff fade 	bl	800158c <parse_int>
 8001fd0:	0005      	movs	r5, r0
 8001fd2:	a80c      	add	r0, sp, #48	@ 0x30
 8001fd4:	f7ff fada 	bl	800158c <parse_int>
    if (r < 0) r = 0; if (r > 255) r = 255;
 8001fd8:	23ff      	movs	r3, #255	@ 0xff
    int32_t r = parse_int(&p), g = parse_int(&p), b = parse_int(&p);
 8001fda:	0004      	movs	r4, r0
    if (r < 0) r = 0; if (r > 255) r = 255;
 8001fdc:	2eff      	cmp	r6, #255	@ 0xff
 8001fde:	dc02      	bgt.n	8001fe6 <App_HandleBLELine+0x22e>
    RGB_t col = RGB((uint8_t)r, (uint8_t)g, (uint8_t)b);
 8001fe0:	43f3      	mvns	r3, r6
 8001fe2:	17db      	asrs	r3, r3, #31
 8001fe4:	4033      	ands	r3, r6
 8001fe6:	b2de      	uxtb	r6, r3
    if (g < 0) g = 0; if (g > 255) g = 255;
 8001fe8:	2dff      	cmp	r5, #255	@ 0xff
 8001fea:	dd20      	ble.n	800202e <App_HandleBLELine+0x276>
 8001fec:	25ff      	movs	r5, #255	@ 0xff
    RGB_t col = RGB((uint8_t)r, (uint8_t)g, (uint8_t)b);
 8001fee:	b2ed      	uxtb	r5, r5
    if (b < 0) b = 0; if (b > 255) b = 255;
 8001ff0:	2cff      	cmp	r4, #255	@ 0xff
 8001ff2:	dd20      	ble.n	8002036 <App_HandleBLELine+0x27e>
 8001ff4:	24ff      	movs	r4, #255	@ 0xff
    app->settings.prefs.lamp_r = col.r;
 8001ff6:	003b      	movs	r3, r7
    Storage_SaveSettings(&app->settings);
 8001ff8:	0038      	movs	r0, r7
    app->settings.prefs.lamp_r = col.r;
 8001ffa:	33e3      	adds	r3, #227	@ 0xe3
    RGB_t col = RGB((uint8_t)r, (uint8_t)g, (uint8_t)b);
 8001ffc:	b2e4      	uxtb	r4, r4
    app->settings.prefs.lamp_b = col.b;
 8001ffe:	709c      	strb	r4, [r3, #2]
    app->settings.prefs.lamp_r = col.r;
 8002000:	701e      	strb	r6, [r3, #0]
    app->settings.prefs.lamp_g = col.g;
 8002002:	705d      	strb	r5, [r3, #1]
    Storage_SaveSettings(&app->settings);
 8002004:	30b0      	adds	r0, #176	@ 0xb0
 8002006:	f000 fdcd 	bl	8002ba4 <Storage_SaveSettings>
    WS2812B_SetLampColor(col);
 800200a:	ab0b      	add	r3, sp, #44	@ 0x2c
 800200c:	709c      	strb	r4, [r3, #2]
    Device_PostEvent(&app->dev, EVT_CMD_LAMP_ON);
 800200e:	003c      	movs	r4, r7
    WS2812B_SetLampColor(col);
 8002010:	701e      	strb	r6, [r3, #0]
 8002012:	705d      	strb	r5, [r3, #1]
 8002014:	980b      	ldr	r0, [sp, #44]	@ 0x2c
    Device_PostEvent(&app->dev, EVT_CMD_LAMP_ON);
 8002016:	34a0      	adds	r4, #160	@ 0xa0
    WS2812B_SetLampColor(col);
 8002018:	f002 f8c2 	bl	80041a0 <WS2812B_SetLampColor>
    Device_PostEvent(&app->dev, EVT_CMD_LAMP_ON);
 800201c:	0020      	movs	r0, r4
 800201e:	2107      	movs	r1, #7
 8002020:	f000 ff49 	bl	8002eb6 <Device_PostEvent>
    Device_Run(&app->dev);
 8002024:	0020      	movs	r0, r4
 8002026:	f000 ff49 	bl	8002ebc <Device_Run>
    send_ok(app, "CFG");
 800202a:	9901      	ldr	r1, [sp, #4]
 800202c:	e782      	b.n	8001f34 <App_HandleBLELine+0x17c>
    RGB_t col = RGB((uint8_t)r, (uint8_t)g, (uint8_t)b);
 800202e:	43eb      	mvns	r3, r5
 8002030:	17db      	asrs	r3, r3, #31
 8002032:	401d      	ands	r5, r3
 8002034:	e7db      	b.n	8001fee <App_HandleBLELine+0x236>
 8002036:	43e3      	mvns	r3, r4
 8002038:	17db      	asrs	r3, r3, #31
 800203a:	401c      	ands	r4, r3
 800203c:	e7db      	b.n	8001ff6 <App_HandleBLELine+0x23e>
    else if (starts_with(line, "BEEP"))    { App_Cmd_Beep(app, args); }
 800203e:	4e3b      	ldr	r6, [pc, #236]	@ (800212c <App_HandleBLELine+0x374>)
 8002040:	0020      	movs	r0, r4
 8002042:	0031      	movs	r1, r6
 8002044:	f7ff fafc 	bl	8001640 <starts_with>
 8002048:	2800      	cmp	r0, #0
 800204a:	d012      	beq.n	8002072 <App_HandleBLELine+0x2ba>
    int32_t n = parse_int(&p);
 800204c:	a80c      	add	r0, sp, #48	@ 0x30
    const char *p = args;
 800204e:	950c      	str	r5, [sp, #48]	@ 0x30
    int32_t n = parse_int(&p);
 8002050:	f7ff fa9c 	bl	800158c <parse_int>
    switch (n) {
 8002054:	2803      	cmp	r0, #3
 8002056:	d006      	beq.n	8002066 <App_HandleBLELine+0x2ae>
 8002058:	2804      	cmp	r0, #4
 800205a:	d006      	beq.n	800206a <App_HandleBLELine+0x2b2>
 800205c:	2802      	cmp	r0, #2
 800205e:	d106      	bne.n	800206e <App_HandleBLELine+0x2b6>
    Buzzer_Play(BUZZER_CALIBRATION_DONE);
 8002060:	f000 fc8c 	bl	800297c <Buzzer_Play>
 8002064:	e765      	b.n	8001f32 <App_HandleBLELine+0x17a>
    case 3:  Buzzer_Play(BUZZER_SYNC_OK);     break;
 8002066:	2006      	movs	r0, #6
 8002068:	e7fa      	b.n	8002060 <App_HandleBLELine+0x2a8>
    case 4:  Buzzer_Play(BUZZER_ERROR);       break;
 800206a:	200a      	movs	r0, #10
 800206c:	e7f8      	b.n	8002060 <App_HandleBLELine+0x2a8>
    default: Buzzer_Play(BUZZER_SINGLE_BEEP); break;
 800206e:	2003      	movs	r0, #3
 8002070:	e7f6      	b.n	8002060 <App_HandleBLELine+0x2a8>
    else if (starts_with(line, "CAL"))     { App_Cmd_CalText(app); }
 8002072:	4e2f      	ldr	r6, [pc, #188]	@ (8002130 <App_HandleBLELine+0x378>)
 8002074:	0020      	movs	r0, r4
 8002076:	0031      	movs	r1, r6
 8002078:	f7ff fae2 	bl	8001640 <starts_with>
 800207c:	2800      	cmp	r0, #0
 800207e:	d059      	beq.n	8002134 <App_HandleBLELine+0x37c>
    Device_PostEvent(&app->dev, EVT_CMD_CALIBRATION);
 8002080:	003c      	movs	r4, r7
 8002082:	34a0      	adds	r4, #160	@ 0xa0
 8002084:	2105      	movs	r1, #5
 8002086:	0020      	movs	r0, r4
 8002088:	f000 ff15 	bl	8002eb6 <Device_PostEvent>
    Device_Run(&app->dev);
 800208c:	0020      	movs	r0, r4
 800208e:	f000 ff15 	bl	8002ebc <Device_Run>
    WS2812B_SetPattern(LED_PATTERN_CALIBRATION);
 8002092:	2006      	movs	r0, #6
 8002094:	f002 f860 	bl	8004158 <WS2812B_SetPattern>
    HX711_Tare(&app->hx711);
 8002098:	0038      	movs	r0, r7
 800209a:	f000 fff2 	bl	8003082 <HX711_Tare>
    app->settings.tare_offset   = (float)app->hx711.tare_offset;
 800209e:	003d      	movs	r5, r7
 80020a0:	6838      	ldr	r0, [r7, #0]
 80020a2:	f7ff f9bf 	bl	8001424 <__aeabi_i2f>
 80020a6:	35e8      	adds	r5, #232	@ 0xe8
    app->settings.is_calibrated = 1;
 80020a8:	003b      	movs	r3, r7
 80020aa:	2201      	movs	r2, #1
    app->settings.tare_offset   = (float)app->hx711.tare_offset;
 80020ac:	6028      	str	r0, [r5, #0]
    Storage_SaveSettings(&app->settings);
 80020ae:	0038      	movs	r0, r7
    app->settings.is_calibrated = 1;
 80020b0:	33f1      	adds	r3, #241	@ 0xf1
 80020b2:	701a      	strb	r2, [r3, #0]
    Storage_SaveSettings(&app->settings);
 80020b4:	30b0      	adds	r0, #176	@ 0xb0
 80020b6:	f000 fd75 	bl	8002ba4 <Storage_SaveSettings>
    app->baseline_weight_g = 0.0f;
 80020ba:	239e      	movs	r3, #158	@ 0x9e
 80020bc:	2200      	movs	r2, #0
 80020be:	009b      	lsls	r3, r3, #2
 80020c0:	50fa      	str	r2, [r7, r3]
    app->have_baseline     = 0;
 80020c2:	229f      	movs	r2, #159	@ 0x9f
 80020c4:	2300      	movs	r3, #0
 80020c6:	0092      	lsls	r2, r2, #2
 80020c8:	54bb      	strb	r3, [r7, r2]
    app->weight_changing   = 0;
 80020ca:	3208      	adds	r2, #8
    Device_PostEvent(&app->dev, EVT_CALIBRATION_DONE);
 80020cc:	2106      	movs	r1, #6
 80020ce:	0020      	movs	r0, r4
    app->weight_changing   = 0;
 80020d0:	54bb      	strb	r3, [r7, r2]
    Device_PostEvent(&app->dev, EVT_CALIBRATION_DONE);
 80020d2:	f000 fef0 	bl	8002eb6 <Device_PostEvent>
    Device_Run(&app->dev);
 80020d6:	0020      	movs	r0, r4
 80020d8:	f000 fef0 	bl	8002ebc <Device_Run>
    Buzzer_Play(BUZZER_CALIBRATION_DONE);
 80020dc:	2009      	movs	r0, #9
 80020de:	e7bf      	b.n	8002060 <App_HandleBLELine+0x2a8>
 80020e0:	08007892 	.word	0x08007892
 80020e4:	080078a4 	.word	0x080078a4
 80020e8:	08007897 	.word	0x08007897
 80020ec:	0800789c 	.word	0x0800789c
 80020f0:	080078a9 	.word	0x080078a9
 80020f4:	080078c8 	.word	0x080078c8
 80020f8:	080078e2 	.word	0x080078e2
 80020fc:	080078f3 	.word	0x080078f3
 8002100:	08007918 	.word	0x08007918
 8002104:	08007927 	.word	0x08007927
 8002108:	08007941 	.word	0x08007941
 800210c:	08007950 	.word	0x08007950
 8002110:	08007955 	.word	0x08007955
 8002114:	0800795b 	.word	0x0800795b
 8002118:	08007964 	.word	0x08007964
 800211c:	080078ef 	.word	0x080078ef
 8002120:	08007968 	.word	0x08007968
 8002124:	08007970 	.word	0x08007970
 8002128:	08007975 	.word	0x08007975
 800212c:	08007981 	.word	0x08007981
 8002130:	08007923 	.word	0x08007923
    else if (starts_with(line, "REG"))     {
 8002134:	4b6c      	ldr	r3, [pc, #432]	@ (80022e8 <App_HandleBLELine+0x530>)
 8002136:	0020      	movs	r0, r4
 8002138:	0019      	movs	r1, r3
 800213a:	9301      	str	r3, [sp, #4]
 800213c:	f7ff fa80 	bl	8001640 <starts_with>
        while (args[n] && n < 15U) { app->settings.user_id[n] = args[n]; n++; }
 8002140:	0039      	movs	r1, r7
 8002142:	2300      	movs	r3, #0
    else if (starts_with(line, "REG"))     {
 8002144:	0006      	movs	r6, r0
        while (args[n] && n < 15U) { app->settings.user_id[n] = args[n]; n++; }
 8002146:	31b3      	adds	r1, #179	@ 0xb3
    else if (starts_with(line, "REG"))     {
 8002148:	4298      	cmp	r0, r3
 800214a:	d116      	bne.n	800217a <App_HandleBLELine+0x3c2>
    else if (starts_with(line, "UNPAIR"))  {
 800214c:	4b67      	ldr	r3, [pc, #412]	@ (80022ec <App_HandleBLELine+0x534>)
 800214e:	0020      	movs	r0, r4
 8002150:	0019      	movs	r1, r3
 8002152:	9301      	str	r3, [sp, #4]
 8002154:	f7ff fa74 	bl	8001640 <starts_with>
 8002158:	2800      	cmp	r0, #0
 800215a:	d02e      	beq.n	80021ba <App_HandleBLELine+0x402>
        memset(app->settings.user_id, 0, sizeof(app->settings.user_id));
 800215c:	0038      	movs	r0, r7
 800215e:	2210      	movs	r2, #16
 8002160:	0031      	movs	r1, r6
 8002162:	30b4      	adds	r0, #180	@ 0xb4
 8002164:	f005 fb08 	bl	8007778 <memset>
        app->settings.is_registered = 0;
 8002168:	003b      	movs	r3, r7
 800216a:	33f0      	adds	r3, #240	@ 0xf0
 800216c:	701e      	strb	r6, [r3, #0]
    Storage_SaveSettings(&app->settings);
 800216e:	0038      	movs	r0, r7
 8002170:	30b0      	adds	r0, #176	@ 0xb0
 8002172:	f000 fd17 	bl	8002ba4 <Storage_SaveSettings>
 8002176:	e758      	b.n	800202a <App_HandleBLELine+0x272>
        while (args[n] && n < 15U) { app->settings.user_id[n] = args[n]; n++; }
 8002178:	54ca      	strb	r2, [r1, r3]
 800217a:	5cea      	ldrb	r2, [r5, r3]
 800217c:	2a00      	cmp	r2, #0
 800217e:	d003      	beq.n	8002188 <App_HandleBLELine+0x3d0>
 8002180:	3301      	adds	r3, #1
 8002182:	2b10      	cmp	r3, #16
 8002184:	d1f8      	bne.n	8002178 <App_HandleBLELine+0x3c0>
 8002186:	3b01      	subs	r3, #1
        app->settings.user_id[n] = '\0';
 8002188:	2200      	movs	r2, #0
 800218a:	18fb      	adds	r3, r7, r3
 800218c:	33b4      	adds	r3, #180	@ 0xb4
 800218e:	701a      	strb	r2, [r3, #0]
        app->settings.is_registered = 1;
 8002190:	003b      	movs	r3, r7
        Storage_SaveSettings(&app->settings);
 8002192:	0038      	movs	r0, r7
        Device_PostEvent(&app->dev, EVT_CMD_REGISTER);
 8002194:	003c      	movs	r4, r7
        app->settings.is_registered = 1;
 8002196:	33f0      	adds	r3, #240	@ 0xf0
 8002198:	3201      	adds	r2, #1
 800219a:	701a      	strb	r2, [r3, #0]
        Device_PostEvent(&app->dev, EVT_CMD_REGISTER);
 800219c:	34a0      	adds	r4, #160	@ 0xa0
        Storage_SaveSettings(&app->settings);
 800219e:	30b0      	adds	r0, #176	@ 0xb0
 80021a0:	f000 fd00 	bl	8002ba4 <Storage_SaveSettings>
        Device_PostEvent(&app->dev, EVT_CMD_REGISTER);
 80021a4:	2104      	movs	r1, #4
 80021a6:	0020      	movs	r0, r4
 80021a8:	f000 fe85 	bl	8002eb6 <Device_PostEvent>
        Device_Run(&app->dev);
 80021ac:	0020      	movs	r0, r4
 80021ae:	f000 fe85 	bl	8002ebc <Device_Run>
        Buzzer_Play(BUZZER_REGISTRATION_OK);
 80021b2:	200b      	movs	r0, #11
 80021b4:	f000 fbe2 	bl	800297c <Buzzer_Play>
        send_ok(app, "REG");
 80021b8:	e737      	b.n	800202a <App_HandleBLELine+0x272>
    else if (starts_with(line, "TIME"))    {
 80021ba:	4e4d      	ldr	r6, [pc, #308]	@ (80022f0 <App_HandleBLELine+0x538>)
 80021bc:	0020      	movs	r0, r4
 80021be:	0031      	movs	r1, r6
 80021c0:	f7ff fa3e 	bl	8001640 <starts_with>
 80021c4:	2800      	cmp	r0, #0
 80021c6:	d00d      	beq.n	80021e4 <App_HandleBLELine+0x42c>
        RTC_SetFromUnix(&app->rtc, unix_t);
 80021c8:	003c      	movs	r4, r7
        uint32_t unix_t = (uint32_t)parse_int(&p);
 80021ca:	a80c      	add	r0, sp, #48	@ 0x30
        const char *p = args;
 80021cc:	950c      	str	r5, [sp, #48]	@ 0x30
        uint32_t unix_t = (uint32_t)parse_int(&p);
 80021ce:	f7ff f9dd 	bl	800158c <parse_int>
        RTC_SetFromUnix(&app->rtc, unix_t);
 80021d2:	348c      	adds	r4, #140	@ 0x8c
        uint32_t unix_t = (uint32_t)parse_int(&p);
 80021d4:	0001      	movs	r1, r0
        RTC_SetFromUnix(&app->rtc, unix_t);
 80021d6:	0020      	movs	r0, r4
 80021d8:	f001 fb20 	bl	800381c <RTC_SetFromUnix>
        RTC_Read(&app->rtc);
 80021dc:	0020      	movs	r0, r4
 80021de:	f001 fbdb 	bl	8003998 <RTC_Read>
        send_ok(app, "TIME");
 80021e2:	e6a6      	b.n	8001f32 <App_HandleBLELine+0x17a>
    else if (starts_with(line, "CFG"))     { App_Cmd_CfgText(app, args); }
 80021e4:	4b43      	ldr	r3, [pc, #268]	@ (80022f4 <App_HandleBLELine+0x53c>)
 80021e6:	0020      	movs	r0, r4
 80021e8:	0019      	movs	r1, r3
 80021ea:	9301      	str	r3, [sp, #4]
 80021ec:	f7ff fa28 	bl	8001640 <starts_with>
 80021f0:	2800      	cmp	r0, #0
 80021f2:	d04c      	beq.n	800228e <App_HandleBLELine+0x4d6>
    int32_t pur  = parse_int(&p);
 80021f4:	a80c      	add	r0, sp, #48	@ 0x30
    const char *p = args;
 80021f6:	950c      	str	r5, [sp, #48]	@ 0x30
    int32_t pur  = parse_int(&p);
 80021f8:	f7ff f9c8 	bl	800158c <parse_int>
 80021fc:	0005      	movs	r5, r0
    int32_t tx10 = parse_int(&p);
 80021fe:	a80c      	add	r0, sp, #48	@ 0x30
 8002200:	f7ff f9c4 	bl	800158c <parse_int>
 8002204:	0004      	movs	r4, r0
    int32_t hyd  = parse_int(&p);
 8002206:	a80c      	add	r0, sp, #48	@ 0x30
 8002208:	f7ff f9c0 	bl	800158c <parse_int>
 800220c:	0006      	movs	r6, r0
    int32_t hs   = parse_int(&p);
 800220e:	a80c      	add	r0, sp, #48	@ 0x30
 8002210:	f7ff f9bc 	bl	800158c <parse_int>
 8002214:	9002      	str	r0, [sp, #8]
    int32_t ms   = parse_int(&p);
 8002216:	a80c      	add	r0, sp, #48	@ 0x30
 8002218:	f7ff f9b8 	bl	800158c <parse_int>
 800221c:	9003      	str	r0, [sp, #12]
    int32_t he   = parse_int(&p);
 800221e:	a80c      	add	r0, sp, #48	@ 0x30
 8002220:	f7ff f9b4 	bl	800158c <parse_int>
 8002224:	9004      	str	r0, [sp, #16]
    int32_t me   = parse_int(&p);
 8002226:	a80c      	add	r0, sp, #48	@ 0x30
 8002228:	f7ff f9b0 	bl	800158c <parse_int>
 800222c:	9005      	str	r0, [sp, #20]
    int32_t freq = parse_int(&p);
 800222e:	a80c      	add	r0, sp, #48	@ 0x30
 8002230:	f7ff f9ac 	bl	800158c <parse_int>
 8002234:	9006      	str	r0, [sp, #24]
    int32_t r    = parse_int(&p);
 8002236:	a80c      	add	r0, sp, #48	@ 0x30
 8002238:	f7ff f9a8 	bl	800158c <parse_int>
 800223c:	9007      	str	r0, [sp, #28]
    int32_t g    = parse_int(&p);
 800223e:	a80c      	add	r0, sp, #48	@ 0x30
 8002240:	f7ff f9a4 	bl	800158c <parse_int>
 8002244:	9008      	str	r0, [sp, #32]
    int32_t b    = parse_int(&p);
 8002246:	a80c      	add	r0, sp, #48	@ 0x30
 8002248:	f7ff f9a0 	bl	800158c <parse_int>
 800224c:	9009      	str	r0, [sp, #36]	@ 0x24
    int32_t snd  = parse_int(&p);
 800224e:	a80c      	add	r0, sp, #48	@ 0x30
 8002250:	f7ff f99c 	bl	800158c <parse_int>
    pr->purity_goal_hi = (uint8_t)((pur >> 8) & 0xFF);
 8002254:	003b      	movs	r3, r7
 8002256:	122a      	asrs	r2, r5, #8
 8002258:	33d4      	adds	r3, #212	@ 0xd4
 800225a:	701a      	strb	r2, [r3, #0]
    pr->temp_goal_hi   = (uint8_t)((tx10 >> 8) & 0xFF);
 800225c:	1222      	asrs	r2, r4, #8
 800225e:	709a      	strb	r2, [r3, #2]
    pr->hydration_hi   = (uint8_t)((hyd >> 8) & 0xFF);
 8002260:	1232      	asrs	r2, r6, #8
 8002262:	711a      	strb	r2, [r3, #4]
    pr->remind_h_start = (uint8_t)hs;
 8002264:	9a02      	ldr	r2, [sp, #8]
    pr->purity_goal_lo = (uint8_t)(pur & 0xFF);
 8002266:	705d      	strb	r5, [r3, #1]
    pr->remind_h_start = (uint8_t)hs;
 8002268:	719a      	strb	r2, [r3, #6]
    pr->remind_m_start = (uint8_t)ms;
 800226a:	9a03      	ldr	r2, [sp, #12]
    pr->temp_goal_lo   = (uint8_t)(tx10 & 0xFF);
 800226c:	70dc      	strb	r4, [r3, #3]
    pr->remind_m_start = (uint8_t)ms;
 800226e:	71da      	strb	r2, [r3, #7]
    pr->remind_h_end   = (uint8_t)he;
 8002270:	9a04      	ldr	r2, [sp, #16]
    pr->hydration_lo   = (uint8_t)(hyd & 0xFF);
 8002272:	715e      	strb	r6, [r3, #5]
    pr->remind_h_end   = (uint8_t)he;
 8002274:	721a      	strb	r2, [r3, #8]
    pr->remind_m_end   = (uint8_t)me;
 8002276:	9a05      	ldr	r2, [sp, #20]
    pr->remind_sound   = (uint8_t)snd;
 8002278:	7398      	strb	r0, [r3, #14]
    pr->remind_m_end   = (uint8_t)me;
 800227a:	725a      	strb	r2, [r3, #9]
    pr->remind_freq_min= (uint8_t)freq;
 800227c:	9a06      	ldr	r2, [sp, #24]
 800227e:	729a      	strb	r2, [r3, #10]
    pr->remind_r       = (uint8_t)r;
 8002280:	9a07      	ldr	r2, [sp, #28]
 8002282:	72da      	strb	r2, [r3, #11]
    pr->remind_g       = (uint8_t)g;
 8002284:	9a08      	ldr	r2, [sp, #32]
 8002286:	731a      	strb	r2, [r3, #12]
    pr->remind_b       = (uint8_t)b;
 8002288:	9a09      	ldr	r2, [sp, #36]	@ 0x24
 800228a:	735a      	strb	r2, [r3, #13]
    pr->remind_sound   = (uint8_t)snd;
 800228c:	e76f      	b.n	800216e <App_HandleBLELine+0x3b6>
    else if (starts_with(line, "RESET"))   {
 800228e:	0020      	movs	r0, r4
 8002290:	4919      	ldr	r1, [pc, #100]	@ (80022f8 <App_HandleBLELine+0x540>)
 8002292:	f7ff f9d5 	bl	8001640 <starts_with>
 8002296:	2800      	cmp	r0, #0
 8002298:	d008      	beq.n	80022ac <App_HandleBLELine+0x4f4>
        send_ok(app, "RESET");
 800229a:	0038      	movs	r0, r7
 800229c:	f7ff f9ea 	bl	8001674 <send_ok>
        HAL_Delay(150);
 80022a0:	2096      	movs	r0, #150	@ 0x96
 80022a2:	f002 fa2f 	bl	8004704 <HAL_Delay>
        HAL_NVIC_SystemReset();
 80022a6:	f002 fdbb 	bl	8004e20 <HAL_NVIC_SystemReset>
 80022aa:	e59b      	b.n	8001de4 <App_HandleBLELine+0x2c>
    else if (starts_with(line, "FACTORY")) {
 80022ac:	4d13      	ldr	r5, [pc, #76]	@ (80022fc <App_HandleBLELine+0x544>)
 80022ae:	0020      	movs	r0, r4
 80022b0:	0029      	movs	r1, r5
 80022b2:	f7ff f9c5 	bl	8001640 <starts_with>
 80022b6:	2800      	cmp	r0, #0
 80022b8:	d012      	beq.n	80022e0 <App_HandleBLELine+0x528>
        WS2812B_SetPattern(LED_PATTERN_FACTORY_RESET_WARN);
 80022ba:	200e      	movs	r0, #14
 80022bc:	f001 ff4c 	bl	8004158 <WS2812B_SetPattern>
        Buzzer_Play(BUZZER_FACTORY_RESET);
 80022c0:	2008      	movs	r0, #8
 80022c2:	f000 fb5b 	bl	800297c <Buzzer_Play>
        HAL_Delay(3000);
 80022c6:	480e      	ldr	r0, [pc, #56]	@ (8002300 <App_HandleBLELine+0x548>)
 80022c8:	f002 fa1c 	bl	8004704 <HAL_Delay>
        send_ok(app, "FACTORY");
 80022cc:	0029      	movs	r1, r5
 80022ce:	0038      	movs	r0, r7
 80022d0:	f7ff f9d0 	bl	8001674 <send_ok>
        HAL_Delay(150);
 80022d4:	2096      	movs	r0, #150	@ 0x96
 80022d6:	f002 fa15 	bl	8004704 <HAL_Delay>
        Storage_FactoryReset();
 80022da:	f000 fd93 	bl	8002e04 <Storage_FactoryReset>
 80022de:	e7e2      	b.n	80022a6 <App_HandleBLELine+0x4ee>
        send_err(app, "?", "UNKNOWN");
 80022e0:	4a08      	ldr	r2, [pc, #32]	@ (8002304 <App_HandleBLELine+0x54c>)
 80022e2:	4909      	ldr	r1, [pc, #36]	@ (8002308 <App_HandleBLELine+0x550>)
 80022e4:	e668      	b.n	8001fb8 <App_HandleBLELine+0x200>
 80022e6:	46c0      	nop			@ (mov r8, r8)
 80022e8:	08007986 	.word	0x08007986
 80022ec:	0800798a 	.word	0x0800798a
 80022f0:	08007991 	.word	0x08007991
 80022f4:	08007996 	.word	0x08007996
 80022f8:	0800799a 	.word	0x0800799a
 80022fc:	08007948 	.word	0x08007948
 8002300:	00000bb8 	.word	0x00000bb8
 8002304:	080079a0 	.word	0x080079a0
 8002308:	080079a8 	.word	0x080079a8

0800230c <App_TaskBLE>:
{
 800230c:	b5f0      	push	{r4, r5, r6, r7, lr}
 800230e:	0004      	movs	r4, r0
 8002310:	b095      	sub	sp, #84	@ 0x54
    app->last_ble_poll_ms = HAL_GetTick();
 8002312:	f002 f9f1 	bl	80046f8 <HAL_GetTick>
    BLE_StartReceive(&app->ble);
 8002316:	0026      	movs	r6, r4
    app->last_ble_poll_ms = HAL_GetTick();
 8002318:	2399      	movs	r3, #153	@ 0x99
    BLE_StartReceive(&app->ble);
 800231a:	3634      	adds	r6, #52	@ 0x34
    app->last_ble_poll_ms = HAL_GetTick();
 800231c:	009b      	lsls	r3, r3, #2
 800231e:	50e0      	str	r0, [r4, r3]
    BLE_StartReceive(&app->ble);
 8002320:	0030      	movs	r0, r6
 8002322:	f000 f93d 	bl	80025a0 <BLE_StartReceive>
    while (BLE_GetLine(&app->ble, line, sizeof(line)) && guard++ < 4U) {
 8002326:	2505      	movs	r5, #5
 8002328:	2250      	movs	r2, #80	@ 0x50
 800232a:	4669      	mov	r1, sp
 800232c:	0030      	movs	r0, r6
 800232e:	f000 f9a1 	bl	8002674 <BLE_GetLine>
 8002332:	2800      	cmp	r0, #0
 8002334:	d10a      	bne.n	800234c <App_TaskBLE+0x40>
    uint8_t connected = BLE_IsConnected(&app->ble);
 8002336:	0030      	movs	r0, r6
 8002338:	f000 f9f0 	bl	800271c <BLE_IsConnected>
 800233c:	23a3      	movs	r3, #163	@ 0xa3
 800233e:	0005      	movs	r5, r0
    if (connected && !app->ble_was_connected) {
 8002340:	009b      	lsls	r3, r3, #2
 8002342:	2800      	cmp	r0, #0
 8002344:	d10b      	bne.n	800235e <App_TaskBLE+0x52>
    app->ble_was_connected = connected;
 8002346:	54e0      	strb	r0, [r4, r3]
}
 8002348:	b015      	add	sp, #84	@ 0x54
 800234a:	bdf0      	pop	{r4, r5, r6, r7, pc}
    while (BLE_GetLine(&app->ble, line, sizeof(line)) && guard++ < 4U) {
 800234c:	3d01      	subs	r5, #1
 800234e:	b2ed      	uxtb	r5, r5
 8002350:	2d00      	cmp	r5, #0
 8002352:	d0f0      	beq.n	8002336 <App_TaskBLE+0x2a>
        App_HandleBLELine(app, line);
 8002354:	4669      	mov	r1, sp
 8002356:	0020      	movs	r0, r4
 8002358:	f7ff fd2e 	bl	8001db8 <App_HandleBLELine>
 800235c:	e7e4      	b.n	8002328 <App_TaskBLE+0x1c>
 800235e:	27ea      	movs	r7, #234	@ 0xea
    if (connected && !app->ble_was_connected) {
 8002360:	5ce3      	ldrb	r3, [r4, r3]
 8002362:	37ff      	adds	r7, #255	@ 0xff
 8002364:	2b00      	cmp	r3, #0
 8002366:	d10d      	bne.n	8002384 <App_TaskBLE+0x78>
        BLE_SendLine(&app->ble, "HydraSense ready. Send HELP for commands.");
 8002368:	0030      	movs	r0, r6
 800236a:	490c      	ldr	r1, [pc, #48]	@ (800239c <App_TaskBLE+0x90>)
 800236c:	f000 f9ae 	bl	80026cc <BLE_SendLine>
        if (app->drink_log.dirty) Storage_FlushDrinkLog(&app->drink_log);
 8002370:	5de3      	ldrb	r3, [r4, r7]
 8002372:	2b00      	cmp	r3, #0
 8002374:	d003      	beq.n	800237e <App_TaskBLE+0x72>
 8002376:	0020      	movs	r0, r4
 8002378:	30f8      	adds	r0, #248	@ 0xf8
 800237a:	f000 fc4d 	bl	8002c18 <Storage_FlushDrinkLog>
        WS2812B_SetPattern(LED_PATTERN_SYNC_SUCCESS);
 800237e:	2008      	movs	r0, #8
 8002380:	f001 feea 	bl	8004158 <WS2812B_SetPattern>
    app->ble_was_connected = connected;
 8002384:	23a3      	movs	r3, #163	@ 0xa3
 8002386:	009b      	lsls	r3, r3, #2
 8002388:	54e5      	strb	r5, [r4, r3]
    if (connected && app->drink_log.dirty) {
 800238a:	5de3      	ldrb	r3, [r4, r7]
 800238c:	2b00      	cmp	r3, #0
 800238e:	d0db      	beq.n	8002348 <App_TaskBLE+0x3c>
        Storage_FlushDrinkLog(&app->drink_log);
 8002390:	0020      	movs	r0, r4
 8002392:	30f8      	adds	r0, #248	@ 0xf8
 8002394:	f000 fc40 	bl	8002c18 <Storage_FlushDrinkLog>
}
 8002398:	e7d6      	b.n	8002348 <App_TaskBLE+0x3c>
 800239a:	46c0      	nop			@ (mov r8, r8)
 800239c:	080079aa 	.word	0x080079aa

080023a0 <App_Run>:
{
 80023a0:	b570      	push	{r4, r5, r6, lr}
 80023a2:	0004      	movs	r4, r0
    uint32_t now = HAL_GetTick();
 80023a4:	f002 f9a8 	bl	80046f8 <HAL_GetTick>
 80023a8:	0005      	movs	r5, r0
    Device_Run(&app->dev);
 80023aa:	0020      	movs	r0, r4
 80023ac:	30a0      	adds	r0, #160	@ 0xa0
 80023ae:	f000 fd85 	bl	8002ebc <Device_Run>
    if (now - app->last_rtc_ms >= APP_RTC_POLL_MS) {
 80023b2:	22a2      	movs	r2, #162	@ 0xa2
 80023b4:	21fa      	movs	r1, #250	@ 0xfa
 80023b6:	0092      	lsls	r2, r2, #2
 80023b8:	58a3      	ldr	r3, [r4, r2]
 80023ba:	0089      	lsls	r1, r1, #2
 80023bc:	1aeb      	subs	r3, r5, r3
 80023be:	428b      	cmp	r3, r1
 80023c0:	d304      	bcc.n	80023cc <App_Run+0x2c>
        RTC_Read(&app->rtc);
 80023c2:	0020      	movs	r0, r4
        app->last_rtc_ms = now;
 80023c4:	50a5      	str	r5, [r4, r2]
        RTC_Read(&app->rtc);
 80023c6:	308c      	adds	r0, #140	@ 0x8c
 80023c8:	f001 fae6 	bl	8003998 <RTC_Read>
    if (now - app->last_weight_ms  >= APP_WEIGHT_POLL_MS)  App_TaskWeight(app);
 80023cc:	2395      	movs	r3, #149	@ 0x95
 80023ce:	009b      	lsls	r3, r3, #2
 80023d0:	58e3      	ldr	r3, [r4, r3]
 80023d2:	1aeb      	subs	r3, r5, r3
 80023d4:	2bc7      	cmp	r3, #199	@ 0xc7
 80023d6:	d902      	bls.n	80023de <App_Run+0x3e>
 80023d8:	0020      	movs	r0, r4
 80023da:	f7ff fbdb 	bl	8001b94 <App_TaskWeight>
    if (now - app->last_tds_ms     >= APP_TDS_POLL_MS)     App_TaskTDS(app);
 80023de:	2396      	movs	r3, #150	@ 0x96
 80023e0:	009b      	lsls	r3, r3, #2
 80023e2:	58e3      	ldr	r3, [r4, r3]
 80023e4:	4e1a      	ldr	r6, [pc, #104]	@ (8002450 <App_Run+0xb0>)
 80023e6:	1aeb      	subs	r3, r5, r3
 80023e8:	42b3      	cmp	r3, r6
 80023ea:	d902      	bls.n	80023f2 <App_Run+0x52>
 80023ec:	0020      	movs	r0, r4
 80023ee:	f7ff fa35 	bl	800185c <App_TaskTDS>
    if (now - app->last_temp_ms    >= APP_TEMP_POLL_MS)    App_TaskTemp(app);
 80023f2:	2397      	movs	r3, #151	@ 0x97
 80023f4:	009b      	lsls	r3, r3, #2
 80023f6:	58e3      	ldr	r3, [r4, r3]
 80023f8:	1aeb      	subs	r3, r5, r3
 80023fa:	42b3      	cmp	r3, r6
 80023fc:	d902      	bls.n	8002404 <App_Run+0x64>
 80023fe:	0020      	movs	r0, r4
 8002400:	f7ff fa58 	bl	80018b4 <App_TaskTemp>
    if (now - app->last_battery_ms >= APP_BATTERY_POLL_MS) App_TaskBattery(app);
 8002404:	2398      	movs	r3, #152	@ 0x98
 8002406:	009b      	lsls	r3, r3, #2
 8002408:	58e3      	ldr	r3, [r4, r3]
 800240a:	4a12      	ldr	r2, [pc, #72]	@ (8002454 <App_Run+0xb4>)
 800240c:	1aeb      	subs	r3, r5, r3
 800240e:	4293      	cmp	r3, r2
 8002410:	d902      	bls.n	8002418 <App_Run+0x78>
 8002412:	0020      	movs	r0, r4
 8002414:	f7ff fa78 	bl	8001908 <App_TaskBattery>
    if (now - app->last_ble_poll_ms>= APP_BLE_STATE_POLL_MS) App_TaskBLE(app);
 8002418:	2399      	movs	r3, #153	@ 0x99
 800241a:	009b      	lsls	r3, r3, #2
 800241c:	58e3      	ldr	r3, [r4, r3]
 800241e:	1aeb      	subs	r3, r5, r3
 8002420:	2b31      	cmp	r3, #49	@ 0x31
 8002422:	d902      	bls.n	800242a <App_Run+0x8a>
 8002424:	0020      	movs	r0, r4
 8002426:	f7ff ff71 	bl	800230c <App_TaskBLE>
    if (now - app->last_reminder_ms>= APP_REMINDER_CHECK_MS) App_TaskReminder(app);
 800242a:	239a      	movs	r3, #154	@ 0x9a
 800242c:	009b      	lsls	r3, r3, #2
 800242e:	58e3      	ldr	r3, [r4, r3]
 8002430:	1aed      	subs	r5, r5, r3
 8002432:	4b09      	ldr	r3, [pc, #36]	@ (8002458 <App_Run+0xb8>)
 8002434:	429d      	cmp	r5, r3
 8002436:	d902      	bls.n	800243e <App_Run+0x9e>
 8002438:	0020      	movs	r0, r4
 800243a:	f7ff fbd5 	bl	8001be8 <App_TaskReminder>
    App_TaskDailyRollup(app);
 800243e:	0020      	movs	r0, r4
 8002440:	f7ff faaa 	bl	8001998 <App_TaskDailyRollup>
    WS2812B_Update();
 8002444:	f001 fee4 	bl	8004210 <WS2812B_Update>
    Buzzer_Update();
 8002448:	f000 fac6 	bl	80029d8 <Buzzer_Update>
}
 800244c:	bd70      	pop	{r4, r5, r6, pc}
 800244e:	46c0      	nop			@ (mov r8, r8)
 8002450:	00001387 	.word	0x00001387
 8002454:	0000270f 	.word	0x0000270f
 8002458:	0000ea5f 	.word	0x0000ea5f

0800245c <Battery_Init>:
}

void Battery_Init(Battery_Handle_t *hbat, ADC_HandleTypeDef *hadc)
{
    hbat->hadc       = hadc;
    hbat->percent    = 100;
 800245c:	2364      	movs	r3, #100	@ 0x64
 800245e:	7103      	strb	r3, [r0, #4]
    hbat->voltage_mv = BAT_FULL_MV;
 8002460:	4b02      	ldr	r3, [pc, #8]	@ (800246c <Battery_Init+0x10>)
    hbat->hadc       = hadc;
 8002462:	6001      	str	r1, [r0, #0]
    hbat->voltage_mv = BAT_FULL_MV;
 8002464:	80c3      	strh	r3, [r0, #6]
    hbat->status     = BAT_STATUS_DISCHARGING;
 8002466:	2300      	movs	r3, #0
 8002468:	8103      	strh	r3, [r0, #8]
    hbat->valid      = 0;
}
 800246a:	4770      	bx	lr
 800246c:	00001068 	.word	0x00001068

08002470 <Battery_Update>:

void Battery_Update(Battery_Handle_t *hbat)
{
 8002470:	b5f0      	push	{r4, r5, r6, r7, lr}
 8002472:	0004      	movs	r4, r0
 8002474:	2604      	movs	r6, #4
    uint32_t sum = 0;
 8002476:	2500      	movs	r5, #0
    sConfig.Channel      = ADC_CHANNEL_7;
 8002478:	2707      	movs	r7, #7
{
 800247a:	b087      	sub	sp, #28
    hbat->hadc->Instance->CHSELR = 0U;
 800247c:	2200      	movs	r2, #0
 800247e:	6820      	ldr	r0, [r4, #0]
    HAL_ADC_ConfigChannel(hbat->hadc, &sConfig);
 8002480:	a903      	add	r1, sp, #12
    hbat->hadc->Instance->CHSELR = 0U;
 8002482:	6803      	ldr	r3, [r0, #0]
    sConfig.Channel      = ADC_CHANNEL_7;
 8002484:	9703      	str	r7, [sp, #12]
    hbat->hadc->Instance->CHSELR = 0U;
 8002486:	629a      	str	r2, [r3, #40]	@ 0x28
    sConfig.Rank         = ADC_RANK_CHANNEL_NUMBER;
 8002488:	2380      	movs	r3, #128	@ 0x80
 800248a:	015b      	lsls	r3, r3, #5
 800248c:	9304      	str	r3, [sp, #16]
    sConfig.SamplingTime = ADC_SAMPLETIME_71CYCLES_5;
 800248e:	2306      	movs	r3, #6
 8002490:	9305      	str	r3, [sp, #20]
    HAL_ADC_ConfigChannel(hbat->hadc, &sConfig);
 8002492:	f002 fbc1 	bl	8004c18 <HAL_ADC_ConfigChannel>
    HAL_ADC_Start(hbat->hadc);
 8002496:	6820      	ldr	r0, [r4, #0]
 8002498:	f002 faa2 	bl	80049e0 <HAL_ADC_Start>
    HAL_ADC_PollForConversion(hbat->hadc, 100);
 800249c:	2164      	movs	r1, #100	@ 0x64
 800249e:	6820      	ldr	r0, [r4, #0]
 80024a0:	f002 fae8 	bl	8004a74 <HAL_ADC_PollForConversion>
    uint16_t val = (uint16_t)HAL_ADC_GetValue(hbat->hadc);
 80024a4:	6820      	ldr	r0, [r4, #0]
 80024a6:	f002 fb49 	bl	8004b3c <HAL_ADC_GetValue>
 80024aa:	9001      	str	r0, [sp, #4]
    HAL_ADC_Stop(hbat->hadc);
 80024ac:	6820      	ldr	r0, [r4, #0]
 80024ae:	f002 fac3 	bl	8004a38 <HAL_ADC_Stop>
    for (uint8_t i = 0; i < 4; i++) {
        sum += Battery_ReadADC(hbat);
 80024b2:	466b      	mov	r3, sp
    for (uint8_t i = 0; i < 4; i++) {
 80024b4:	3e01      	subs	r6, #1
        sum += Battery_ReadADC(hbat);
 80024b6:	889b      	ldrh	r3, [r3, #4]
    for (uint8_t i = 0; i < 4; i++) {
 80024b8:	b2f6      	uxtb	r6, r6
        sum += Battery_ReadADC(hbat);
 80024ba:	18ed      	adds	r5, r5, r3
    for (uint8_t i = 0; i < 4; i++) {
 80024bc:	2e00      	cmp	r6, #0
 80024be:	d1dd      	bne.n	800247c <Battery_Update+0xc>
    /* v_adc_mv = adc_avg * 3300 / 4096
     * voltage_mv = v_adc_mv * BAT_DIVIDER_RATIO_X10 / 10
     * Combined: voltage_mv = adc_avg * 3300 * BAT_DIVIDER_RATIO_X10 / (4096 * 10)
     */
    uint32_t v_adc_mv  = (uint32_t)adc_avg * BAT_ADC_VREF_MV / BAT_ADC_RESOLUTION;
    uint32_t voltage   = v_adc_mv * BAT_DIVIDER_RATIO_X10 / 10U;
 80024c0:	2014      	movs	r0, #20
    uint32_t v_adc_mv  = (uint32_t)adc_avg * BAT_ADC_VREF_MV / BAT_ADC_RESOLUTION;
 80024c2:	4b1b      	ldr	r3, [pc, #108]	@ (8002530 <Battery_Update+0xc0>)
    uint16_t adc_avg = (uint16_t)(sum >> 2);
 80024c4:	08ad      	lsrs	r5, r5, #2
    uint32_t v_adc_mv  = (uint32_t)adc_avg * BAT_ADC_VREF_MV / BAT_ADC_RESOLUTION;
 80024c6:	b2ad      	uxth	r5, r5
 80024c8:	436b      	muls	r3, r5
 80024ca:	0b1b      	lsrs	r3, r3, #12
    uint32_t voltage   = v_adc_mv * BAT_DIVIDER_RATIO_X10 / 10U;
 80024cc:	4358      	muls	r0, r3

    if (voltage > BAT_FULL_MV)  voltage = BAT_FULL_MV;
 80024ce:	4b19      	ldr	r3, [pc, #100]	@ (8002534 <Battery_Update+0xc4>)
 80024d0:	4298      	cmp	r0, r3
 80024d2:	d820      	bhi.n	8002516 <Battery_Update+0xa6>
    if (voltage < BAT_EMPTY_MV) voltage = BAT_EMPTY_MV;
 80024d4:	4b18      	ldr	r3, [pc, #96]	@ (8002538 <Battery_Update+0xc8>)
 80024d6:	4298      	cmp	r0, r3
 80024d8:	d91f      	bls.n	800251a <Battery_Update+0xaa>
    uint32_t voltage   = v_adc_mv * BAT_DIVIDER_RATIO_X10 / 10U;
 80024da:	210a      	movs	r1, #10
 80024dc:	f7fd fe30 	bl	8000140 <__udivsi3>
    hbat->voltage_mv = (uint16_t)voltage;

    uint32_t range   = BAT_FULL_MV - BAT_EMPTY_MV;
    hbat->percent    = (uint8_t)(((uint32_t)(hbat->voltage_mv - BAT_EMPTY_MV) * 100U) / range);
 80024e0:	2564      	movs	r5, #100	@ 0x64
 80024e2:	2196      	movs	r1, #150	@ 0x96
    hbat->voltage_mv = (uint16_t)voltage;
 80024e4:	80e0      	strh	r0, [r4, #6]
    hbat->percent    = (uint8_t)(((uint32_t)(hbat->voltage_mv - BAT_EMPTY_MV) * 100U) / range);
 80024e6:	4368      	muls	r0, r5
 80024e8:	4b14      	ldr	r3, [pc, #80]	@ (800253c <Battery_Update+0xcc>)
 80024ea:	00c9      	lsls	r1, r1, #3
 80024ec:	18c0      	adds	r0, r0, r3
 80024ee:	f7fd fe27 	bl	8000140 <__udivsi3>

    uint8_t chrg  = (HAL_GPIO_ReadPin(CHRG_STAT_GPIO_Port,  CHRG_STAT_Pin)  == GPIO_PIN_RESET) ? 1U : 0U;
 80024f2:	2101      	movs	r1, #1
    hbat->percent    = (uint8_t)(((uint32_t)(hbat->voltage_mv - BAT_EMPTY_MV) * 100U) / range);
 80024f4:	7120      	strb	r0, [r4, #4]
    uint8_t chrg  = (HAL_GPIO_ReadPin(CHRG_STAT_GPIO_Port,  CHRG_STAT_Pin)  == GPIO_PIN_RESET) ? 1U : 0U;
 80024f6:	4812      	ldr	r0, [pc, #72]	@ (8002540 <Battery_Update+0xd0>)
 80024f8:	f002 ff82 	bl	8005400 <HAL_GPIO_ReadPin>
    uint8_t stdby = (HAL_GPIO_ReadPin(STDBY_STAT_GPIO_Port, STDBY_STAT_Pin) == GPIO_PIN_RESET) ? 1U : 0U;
 80024fc:	2102      	movs	r1, #2
    uint8_t chrg  = (HAL_GPIO_ReadPin(CHRG_STAT_GPIO_Port,  CHRG_STAT_Pin)  == GPIO_PIN_RESET) ? 1U : 0U;
 80024fe:	0006      	movs	r6, r0
    uint8_t stdby = (HAL_GPIO_ReadPin(STDBY_STAT_GPIO_Port, STDBY_STAT_Pin) == GPIO_PIN_RESET) ? 1U : 0U;
 8002500:	480f      	ldr	r0, [pc, #60]	@ (8002540 <Battery_Update+0xd0>)
 8002502:	f002 ff7d 	bl	8005400 <HAL_GPIO_ReadPin>
 8002506:	2301      	movs	r3, #1
 8002508:	2800      	cmp	r0, #0
 800250a:	d008      	beq.n	800251e <Battery_Update+0xae>

    if (stdby) {
        hbat->status  = BAT_STATUS_FULL;
        hbat->percent = 100;
    } else if (chrg) {
 800250c:	2e00      	cmp	r6, #0
 800250e:	d00c      	beq.n	800252a <Battery_Update+0xba>
        hbat->status = BAT_STATUS_CHARGING;
    } else {
        hbat->status = BAT_STATUS_DISCHARGING;
 8002510:	2200      	movs	r2, #0
 8002512:	7222      	strb	r2, [r4, #8]
 8002514:	e006      	b.n	8002524 <Battery_Update+0xb4>
    if (voltage > BAT_FULL_MV)  voltage = BAT_FULL_MV;
 8002516:	480b      	ldr	r0, [pc, #44]	@ (8002544 <Battery_Update+0xd4>)
 8002518:	e7e2      	b.n	80024e0 <Battery_Update+0x70>
    if (voltage < BAT_EMPTY_MV) voltage = BAT_EMPTY_MV;
 800251a:	480b      	ldr	r0, [pc, #44]	@ (8002548 <Battery_Update+0xd8>)
 800251c:	e7e0      	b.n	80024e0 <Battery_Update+0x70>
        hbat->status  = BAT_STATUS_FULL;
 800251e:	2202      	movs	r2, #2
        hbat->percent = 100;
 8002520:	7125      	strb	r5, [r4, #4]
        hbat->status  = BAT_STATUS_FULL;
 8002522:	7222      	strb	r2, [r4, #8]
    }
    hbat->valid = 1;
 8002524:	7263      	strb	r3, [r4, #9]
}
 8002526:	b007      	add	sp, #28
 8002528:	bdf0      	pop	{r4, r5, r6, r7, pc}
        hbat->status = BAT_STATUS_CHARGING;
 800252a:	7223      	strb	r3, [r4, #8]
 800252c:	e7fa      	b.n	8002524 <Battery_Update+0xb4>
 800252e:	46c0      	nop			@ (mov r8, r8)
 8002530:	00000ce4 	.word	0x00000ce4
 8002534:	0000a419 	.word	0x0000a419
 8002538:	0000752f 	.word	0x0000752f
 800253c:	fffb6c20 	.word	0xfffb6c20
 8002540:	48000400 	.word	0x48000400
 8002544:	00001068 	.word	0x00001068
 8002548:	00000bb8 	.word	0x00000bb8

0800254c <Battery_GetPercent>:

uint8_t Battery_GetPercent(Battery_Handle_t *hbat)
{
 800254c:	b510      	push	{r4, lr}
    if (!hbat->valid) Battery_Update(hbat);
 800254e:	7a43      	ldrb	r3, [r0, #9]
{
 8002550:	0004      	movs	r4, r0
    if (!hbat->valid) Battery_Update(hbat);
 8002552:	2b00      	cmp	r3, #0
 8002554:	d101      	bne.n	800255a <Battery_GetPercent+0xe>
 8002556:	f7ff ff8b 	bl	8002470 <Battery_Update>
    return hbat->percent;
 800255a:	7920      	ldrb	r0, [r4, #4]
}
 800255c:	bd10      	pop	{r4, pc}

0800255e <Battery_IsCharging>:

uint8_t Battery_IsCharging(Battery_Handle_t *hbat) { return (hbat->status == BAT_STATUS_CHARGING)    ? 1U : 0U; }
 800255e:	7a00      	ldrb	r0, [r0, #8]
 8002560:	3801      	subs	r0, #1
 8002562:	4243      	negs	r3, r0
 8002564:	4158      	adcs	r0, r3
 8002566:	b2c0      	uxtb	r0, r0
 8002568:	4770      	bx	lr

0800256a <Battery_IsFull>:
uint8_t Battery_IsFull(Battery_Handle_t *hbat)     { return (hbat->status == BAT_STATUS_FULL)         ? 1U : 0U; }
 800256a:	7a00      	ldrb	r0, [r0, #8]
 800256c:	3802      	subs	r0, #2
 800256e:	4243      	negs	r3, r0
 8002570:	4158      	adcs	r0, r3
 8002572:	b2c0      	uxtb	r0, r0
 8002574:	4770      	bx	lr

08002576 <Battery_IsLow>:
uint8_t Battery_IsLow(Battery_Handle_t *hbat)      { return (hbat->percent <= BAT_LOW_THRESHOLD_PCT)  ? 1U : 0U; }
 8002576:	7903      	ldrb	r3, [r0, #4]
 8002578:	220a      	movs	r2, #10
 800257a:	2000      	movs	r0, #0
 800257c:	429a      	cmp	r2, r3
 800257e:	4140      	adcs	r0, r0
 8002580:	b2c0      	uxtb	r0, r0
 8002582:	4770      	bx	lr

08002584 <BLE_Init>:
/* ─── Init ───────────────────────────────────────────────────── */
void BLE_Init(BLE_Handle_t *hble, UART_HandleTypeDef *huart)
{
    hble->huart      = huart;
    hble->rx_byte    = 0;
    hble->line_len   = 0;
 8002584:	0003      	movs	r3, r0
{
 8002586:	b510      	push	{r4, lr}
    hble->huart      = huart;
 8002588:	6001      	str	r1, [r0, #0]
    hble->rx_byte    = 0;
 800258a:	2100      	movs	r1, #0
    hble->line_len   = 0;
 800258c:	3355      	adds	r3, #85	@ 0x55
    hble->rx_byte    = 0;
 800258e:	7101      	strb	r1, [r0, #4]
    hble->line_len   = 0;
 8002590:	7019      	strb	r1, [r3, #0]
    hble->line_ready = 0;
 8002592:	3301      	adds	r3, #1
    hble->conn_state = BLE_STATE_DISCONNECTED;
    memset(hble->line_buf, 0, sizeof(hble->line_buf));
 8002594:	2250      	movs	r2, #80	@ 0x50
    hble->line_ready = 0;
 8002596:	8019      	strh	r1, [r3, #0]
    memset(hble->line_buf, 0, sizeof(hble->line_buf));
 8002598:	3005      	adds	r0, #5
 800259a:	f005 f8ed 	bl	8007778 <memset>
    s_active_ble = hble;
}
 800259e:	bd10      	pop	{r4, pc}

080025a0 <BLE_StartReceive>:
/* ─── Arm the interrupt-driven receiver ─────────────────────── *
 * Idempotent: safe to call repeatedly.  HAL_UART_Receive_IT returns BUSY if
 * already armed, which we treat as "fine, already listening".
 */
void BLE_StartReceive(BLE_Handle_t *hble)
{
 80025a0:	b510      	push	{r4, lr}
    s_active_ble = hble;
    HAL_UART_Receive_IT(hble->huart, &hble->rx_byte, 1);
 80025a2:	1d01      	adds	r1, r0, #4
 80025a4:	2201      	movs	r2, #1
 80025a6:	6800      	ldr	r0, [r0, #0]
 80025a8:	f005 f8a6 	bl	80076f8 <HAL_UART_Receive_IT>
}
 80025ac:	bd10      	pop	{r4, pc}
	...

080025b0 <BLE_RxISR>:
 *    normal use.
 *  • Overlong lines (> BLE_LINE_MAX_LEN-1 chars without a newline)
 *    are silently discarded; the accumulator resets on the next '\n'.
 */
void BLE_RxISR(BLE_Handle_t *hble)
{
 80025b0:	b5f8      	push	{r3, r4, r5, r6, r7, lr}
 80025b2:	0004      	movs	r4, r0
    /* Update debug globals — watch these in Live Expressions. */
    g_ble_rx_byte  = byte;
    g_ble_rx_count++;

    /* Drop if the previous line has not been consumed yet. */
    if (hble->line_ready) return;
 80025b4:	0027      	movs	r7, r4
    uint8_t byte = hble->rx_byte;
 80025b6:	7906      	ldrb	r6, [r0, #4]
    HAL_UART_Receive_IT(hble->huart, &hble->rx_byte, 1);
 80025b8:	2201      	movs	r2, #1
 80025ba:	1d01      	adds	r1, r0, #4
 80025bc:	6800      	ldr	r0, [r0, #0]
 80025be:	f005 f89b 	bl	80076f8 <HAL_UART_Receive_IT>
    g_ble_rx_byte  = byte;
 80025c2:	4b17      	ldr	r3, [pc, #92]	@ (8002620 <BLE_RxISR+0x70>)
    g_ble_rx_count++;
 80025c4:	4a17      	ldr	r2, [pc, #92]	@ (8002624 <BLE_RxISR+0x74>)
    g_ble_rx_byte  = byte;
 80025c6:	701e      	strb	r6, [r3, #0]
    g_ble_rx_count++;
 80025c8:	6813      	ldr	r3, [r2, #0]
    if (hble->line_ready) return;
 80025ca:	3756      	adds	r7, #86	@ 0x56
    g_ble_rx_count++;
 80025cc:	3301      	adds	r3, #1
 80025ce:	6013      	str	r3, [r2, #0]
    if (hble->line_ready) return;
 80025d0:	783b      	ldrb	r3, [r7, #0]
 80025d2:	2b00      	cmp	r3, #0
 80025d4:	d117      	bne.n	8002606 <BLE_RxISR+0x56>
        }
        return;
    }

    /* Accumulate printable byte. */
    if (hble->line_len < (BLE_LINE_MAX_LEN - 1U)) {
 80025d6:	0025      	movs	r5, r4
 80025d8:	3555      	adds	r5, #85	@ 0x55
 80025da:	782a      	ldrb	r2, [r5, #0]
    if (byte == '\n' || byte == '\r') {
 80025dc:	2e0a      	cmp	r6, #10
 80025de:	d001      	beq.n	80025e4 <BLE_RxISR+0x34>
 80025e0:	2e0d      	cmp	r6, #13
 80025e2:	d111      	bne.n	8002608 <BLE_RxISR+0x58>
        if (hble->line_len > 0U) {
 80025e4:	2a00      	cmp	r2, #0
 80025e6:	d00e      	beq.n	8002606 <BLE_RxISR+0x56>
            hble->line_buf[hble->line_len] = '\0';
 80025e8:	2100      	movs	r1, #0
 80025ea:	18a3      	adds	r3, r4, r2
 80025ec:	7159      	strb	r1, [r3, #5]
            memcpy((void *)g_ble_line_buf, hble->line_buf, hble->line_len + 1U);
 80025ee:	3201      	adds	r2, #1
 80025f0:	480d      	ldr	r0, [pc, #52]	@ (8002628 <BLE_RxISR+0x78>)
 80025f2:	1d61      	adds	r1, r4, #5
 80025f4:	f005 f8ec 	bl	80077d0 <memcpy>
            g_ble_line_len   = hble->line_len;
 80025f8:	782a      	ldrb	r2, [r5, #0]
 80025fa:	4b0c      	ldr	r3, [pc, #48]	@ (800262c <BLE_RxISR+0x7c>)
 80025fc:	701a      	strb	r2, [r3, #0]
            g_ble_line_ready = 1;
 80025fe:	2201      	movs	r2, #1
 8002600:	4b0b      	ldr	r3, [pc, #44]	@ (8002630 <BLE_RxISR+0x80>)
            hble->line_ready = 1;
 8002602:	703a      	strb	r2, [r7, #0]
            g_ble_line_ready = 1;
 8002604:	701a      	strb	r2, [r3, #0]
    } else {
        /* Line too long — discard, wait for next '\n' to resync. */
        hble->line_len = 0;
        g_ble_line_len = 0;
    }
}
 8002606:	bdf8      	pop	{r3, r4, r5, r6, r7, pc}
    if (hble->line_len < (BLE_LINE_MAX_LEN - 1U)) {
 8002608:	4908      	ldr	r1, [pc, #32]	@ (800262c <BLE_RxISR+0x7c>)
 800260a:	2a4e      	cmp	r2, #78	@ 0x4e
 800260c:	d806      	bhi.n	800261c <BLE_RxISR+0x6c>
        hble->line_buf[hble->line_len++] = (char)byte;
 800260e:	1c53      	adds	r3, r2, #1
 8002610:	b2db      	uxtb	r3, r3
 8002612:	18a4      	adds	r4, r4, r2
 8002614:	702b      	strb	r3, [r5, #0]
 8002616:	7166      	strb	r6, [r4, #5]
        g_ble_line_len = 0;
 8002618:	700b      	strb	r3, [r1, #0]
 800261a:	e7f4      	b.n	8002606 <BLE_RxISR+0x56>
        hble->line_len = 0;
 800261c:	702b      	strb	r3, [r5, #0]
 800261e:	e7fb      	b.n	8002618 <BLE_RxISR+0x68>
 8002620:	20000090 	.word	0x20000090
 8002624:	2000008c 	.word	0x2000008c
 8002628:	20000030 	.word	0x20000030
 800262c:	20000089 	.word	0x20000089
 8002630:	20000088 	.word	0x20000088

08002634 <BLE_RecoverFromError>:
 * (FE), noise (NE) or parity (PE) error makes the HAL abort the IT receive.
 * We clear the flags, reset the partial line, and re-arm reception so the
 * link keeps working instead of going permanently deaf.
 */
void BLE_RecoverFromError(BLE_Handle_t *hble)
{
 8002634:	0001      	movs	r1, r0
 8002636:	b510      	push	{r4, lr}
    if (!hble) return;
 8002638:	2800      	cmp	r0, #0
 800263a:	d016      	beq.n	800266a <BLE_RecoverFromError+0x36>

    /* Clear the sticky error flags (ORE/FE/NE/PE) on the F0 USART. */
    __HAL_UART_CLEAR_OREFLAG(hble->huart);
 800263c:	2208      	movs	r2, #8
 800263e:	6800      	ldr	r0, [r0, #0]
    __HAL_UART_CLEAR_NEFLAG(hble->huart);
    __HAL_UART_CLEAR_FEFLAG(hble->huart);
    __HAL_UART_CLEAR_PEFLAG(hble->huart);

    g_ble_rx_errors++;
 8002640:	4c0a      	ldr	r4, [pc, #40]	@ (800266c <BLE_RecoverFromError+0x38>)
    __HAL_UART_CLEAR_OREFLAG(hble->huart);
 8002642:	6803      	ldr	r3, [r0, #0]
 8002644:	621a      	str	r2, [r3, #32]
    __HAL_UART_CLEAR_NEFLAG(hble->huart);
 8002646:	3a04      	subs	r2, #4
 8002648:	621a      	str	r2, [r3, #32]
    __HAL_UART_CLEAR_FEFLAG(hble->huart);
 800264a:	3a02      	subs	r2, #2
 800264c:	621a      	str	r2, [r3, #32]
    __HAL_UART_CLEAR_PEFLAG(hble->huart);
 800264e:	3a01      	subs	r2, #1
 8002650:	621a      	str	r2, [r3, #32]
    g_ble_rx_errors++;
 8002652:	6823      	ldr	r3, [r4, #0]
 8002654:	189b      	adds	r3, r3, r2
 8002656:	6023      	str	r3, [r4, #0]

    /* Discard whatever partial garbage we had and re-arm. */
    hble->line_len = 0;
 8002658:	000c      	movs	r4, r1
 800265a:	2300      	movs	r3, #0
 800265c:	3455      	adds	r4, #85	@ 0x55
 800265e:	7023      	strb	r3, [r4, #0]
    g_ble_line_len = 0;
 8002660:	4c03      	ldr	r4, [pc, #12]	@ (8002670 <BLE_RecoverFromError+0x3c>)

    HAL_UART_Receive_IT(hble->huart, &hble->rx_byte, 1);
 8002662:	3104      	adds	r1, #4
    g_ble_line_len = 0;
 8002664:	7023      	strb	r3, [r4, #0]
    HAL_UART_Receive_IT(hble->huart, &hble->rx_byte, 1);
 8002666:	f005 f847 	bl	80076f8 <HAL_UART_Receive_IT>
}
 800266a:	bd10      	pop	{r4, pc}
 800266c:	20000080 	.word	0x20000080
 8002670:	20000089 	.word	0x20000089

08002674 <BLE_GetLine>:
/* ─── Text line I/O ─────────────────────────────────────────── */

/* Copy the buffered line into `out` (NUL-terminated, max out_sz bytes).
 * Returns 1 if a line was available, 0 otherwise. */
uint8_t BLE_GetLine(BLE_Handle_t *hble, char *out, uint8_t out_sz)
{
 8002674:	b5f8      	push	{r3, r4, r5, r6, r7, lr}
    if (!hble->line_ready) return 0;
 8002676:	0005      	movs	r5, r0
 8002678:	3556      	adds	r5, #86	@ 0x56
{
 800267a:	0003      	movs	r3, r0
    if (!hble->line_ready) return 0;
 800267c:	7828      	ldrb	r0, [r5, #0]
{
 800267e:	000c      	movs	r4, r1
    if (!hble->line_ready) return 0;
 8002680:	2800      	cmp	r0, #0
 8002682:	d01b      	beq.n	80026bc <BLE_GetLine+0x48>

    uint8_t n = hble->line_len;
 8002684:	001e      	movs	r6, r3
 8002686:	3655      	adds	r6, #85	@ 0x55
    if (n > (uint8_t)(out_sz - 1U)) n = (uint8_t)(out_sz - 1U);
 8002688:	3a01      	subs	r2, #1
 800268a:	7831      	ldrb	r1, [r6, #0]
 800268c:	1c17      	adds	r7, r2, #0
 800268e:	b2d2      	uxtb	r2, r2
 8002690:	428a      	cmp	r2, r1
 8002692:	d900      	bls.n	8002696 <BLE_GetLine+0x22>
 8002694:	1c0f      	adds	r7, r1, #0
    memcpy(out, hble->line_buf, n);
 8002696:	b2ff      	uxtb	r7, r7
 8002698:	003a      	movs	r2, r7
 800269a:	1d59      	adds	r1, r3, #5
 800269c:	0020      	movs	r0, r4
 800269e:	f005 f897 	bl	80077d0 <memcpy>
    out[n] = '\0';
 80026a2:	2300      	movs	r3, #0
    hble->line_len   = 0;
    g_ble_line_ready = 0;
    g_ble_line_len   = 0;
    g_ble_lines_done++;

    return 1;
 80026a4:	2001      	movs	r0, #1
    g_ble_line_ready = 0;
 80026a6:	4a06      	ldr	r2, [pc, #24]	@ (80026c0 <BLE_GetLine+0x4c>)
    out[n] = '\0';
 80026a8:	55e3      	strb	r3, [r4, r7]
    g_ble_line_ready = 0;
 80026aa:	7013      	strb	r3, [r2, #0]
    g_ble_line_len   = 0;
 80026ac:	4a05      	ldr	r2, [pc, #20]	@ (80026c4 <BLE_GetLine+0x50>)
    hble->line_ready = 0;
 80026ae:	702b      	strb	r3, [r5, #0]
    g_ble_line_len   = 0;
 80026b0:	7013      	strb	r3, [r2, #0]
    g_ble_lines_done++;
 80026b2:	4a05      	ldr	r2, [pc, #20]	@ (80026c8 <BLE_GetLine+0x54>)
    hble->line_len   = 0;
 80026b4:	7033      	strb	r3, [r6, #0]
    g_ble_lines_done++;
 80026b6:	6813      	ldr	r3, [r2, #0]
 80026b8:	3301      	adds	r3, #1
 80026ba:	6013      	str	r3, [r2, #0]
}
 80026bc:	bdf8      	pop	{r3, r4, r5, r6, r7, pc}
 80026be:	46c0      	nop			@ (mov r8, r8)
 80026c0:	20000088 	.word	0x20000088
 80026c4:	20000089 	.word	0x20000089
 80026c8:	20000084 	.word	0x20000084

080026cc <BLE_SendLine>:

/* Send a string followed by \r\n (one complete response line). */
HAL_StatusTypeDef BLE_SendLine(BLE_Handle_t *hble, const char *str)
{
 80026cc:	b570      	push	{r4, r5, r6, lr}
 80026ce:	0004      	movs	r4, r0
    uint16_t len = (uint16_t)strlen(str);
 80026d0:	0008      	movs	r0, r1
{
 80026d2:	000d      	movs	r5, r1
    uint16_t len = (uint16_t)strlen(str);
 80026d4:	f7fd fd18 	bl	8000108 <strlen>
 80026d8:	b282      	uxth	r2, r0
    if (len) HAL_UART_Transmit(hble->huart, (uint8_t *)str, len, 1000);
 80026da:	2a00      	cmp	r2, #0
 80026dc:	d005      	beq.n	80026ea <BLE_SendLine+0x1e>
 80026de:	23fa      	movs	r3, #250	@ 0xfa
 80026e0:	0029      	movs	r1, r5
 80026e2:	6820      	ldr	r0, [r4, #0]
 80026e4:	009b      	lsls	r3, r3, #2
 80026e6:	f004 feb7 	bl	8007458 <HAL_UART_Transmit>
    return HAL_UART_Transmit(hble->huart, (uint8_t *)"\r\n", 2, 1000);
 80026ea:	23fa      	movs	r3, #250	@ 0xfa
 80026ec:	2202      	movs	r2, #2
 80026ee:	4903      	ldr	r1, [pc, #12]	@ (80026fc <BLE_SendLine+0x30>)
 80026f0:	6820      	ldr	r0, [r4, #0]
 80026f2:	009b      	lsls	r3, r3, #2
 80026f4:	f004 feb0 	bl	8007458 <HAL_UART_Transmit>
}
 80026f8:	bd70      	pop	{r4, r5, r6, pc}
 80026fa:	46c0      	nop			@ (mov r8, r8)
 80026fc:	080079d4 	.word	0x080079d4

08002700 <BLE_PollState>:
                             (uint16_t)strlen(str), 1000);
}

/* ─── Connection state ───────────────────────────────────────── */
void BLE_PollState(BLE_Handle_t *hble)
{
 8002700:	b510      	push	{r4, lr}
    GPIO_PinState pin = HAL_GPIO_ReadPin(BLE_STATE_GPIO_Port, BLE_STATE_Pin);
 8002702:	2180      	movs	r1, #128	@ 0x80
{
 8002704:	0004      	movs	r4, r0
    GPIO_PinState pin = HAL_GPIO_ReadPin(BLE_STATE_GPIO_Port, BLE_STATE_Pin);
 8002706:	2090      	movs	r0, #144	@ 0x90
 8002708:	0209      	lsls	r1, r1, #8
 800270a:	05c0      	lsls	r0, r0, #23
 800270c:	f002 fe78 	bl	8005400 <HAL_GPIO_ReadPin>
    hble->conn_state  = (pin == GPIO_PIN_SET) ? BLE_STATE_CONNECTED
                                               : BLE_STATE_DISCONNECTED;
 8002710:	3801      	subs	r0, #1
 8002712:	4243      	negs	r3, r0
 8002714:	4158      	adcs	r0, r3
    hble->conn_state  = (pin == GPIO_PIN_SET) ? BLE_STATE_CONNECTED
 8002716:	3457      	adds	r4, #87	@ 0x57
 8002718:	7020      	strb	r0, [r4, #0]
}
 800271a:	bd10      	pop	{r4, pc}

0800271c <BLE_IsConnected>:

uint8_t BLE_IsConnected(BLE_Handle_t *hble)
{
 800271c:	b510      	push	{r4, lr}
 800271e:	0004      	movs	r4, r0
    BLE_PollState(hble);
    return (hble->conn_state == BLE_STATE_CONNECTED) ? 1U : 0U;
 8002720:	3457      	adds	r4, #87	@ 0x57
    BLE_PollState(hble);
 8002722:	f7ff ffed 	bl	8002700 <BLE_PollState>
    return (hble->conn_state == BLE_STATE_CONNECTED) ? 1U : 0U;
 8002726:	7820      	ldrb	r0, [r4, #0]
 8002728:	3801      	subs	r0, #1
 800272a:	4243      	negs	r3, r0
 800272c:	4158      	adcs	r0, r3
 800272e:	b2c0      	uxtb	r0, r0
}
 8002730:	bd10      	pop	{r4, pc}
	...

08002734 <BLE_AT_SetName>:
    return HAL_OK;
}

/* Build "AT+NAME<name>\r\n" without snprintf (avoids pulling in printf). */
HAL_StatusTypeDef BLE_AT_SetName(BLE_Handle_t *hble, const char *name)
{
 8002734:	b530      	push	{r4, r5, lr}
 8002736:	b089      	sub	sp, #36	@ 0x24
    char buf[32];
    uint8_t i = 0;
    buf[i++]='A'; buf[i++]='T'; buf[i++]='+';
    buf[i++]='N'; buf[i++]='A'; buf[i++]='M'; buf[i++]='E';
 8002738:	466a      	mov	r2, sp
    buf[i++]='A'; buf[i++]='T'; buf[i++]='+';
 800273a:	4b17      	ldr	r3, [pc, #92]	@ (8002798 <BLE_AT_SetName+0x64>)
{
 800273c:	0004      	movs	r4, r0
    buf[i++]='A'; buf[i++]='T'; buf[i++]='+';
 800273e:	9300      	str	r3, [sp, #0]
    buf[i++]='N'; buf[i++]='A'; buf[i++]='M'; buf[i++]='E';
 8002740:	4b16      	ldr	r3, [pc, #88]	@ (800279c <BLE_AT_SetName+0x68>)
    while (*name && i < (uint8_t)(sizeof(buf) - 3U)) buf[i++] = *name++;
 8002742:	3907      	subs	r1, #7
    buf[i++]='N'; buf[i++]='A'; buf[i++]='M'; buf[i++]='E';
 8002744:	8093      	strh	r3, [r2, #4]
 8002746:	2345      	movs	r3, #69	@ 0x45
 8002748:	7193      	strb	r3, [r2, #6]
    while (*name && i < (uint8_t)(sizeof(buf) - 3U)) buf[i++] = *name++;
 800274a:	3b3e      	subs	r3, #62	@ 0x3e
 800274c:	5cca      	ldrb	r2, [r1, r3]
 800274e:	2a00      	cmp	r2, #0
 8002750:	d11e      	bne.n	8002790 <BLE_AT_SetName+0x5c>
 8002752:	b2da      	uxtb	r2, r3
    buf[i++] = '\r'; buf[i++] = '\n'; buf[i] = '\0';
 8002754:	4668      	mov	r0, sp
 8002756:	210d      	movs	r1, #13
 8002758:	2500      	movs	r5, #0
 800275a:	54c1      	strb	r1, [r0, r3]
 800275c:	1c53      	adds	r3, r2, #1
 800275e:	3202      	adds	r2, #2
 8002760:	b2db      	uxtb	r3, r3
 8002762:	3903      	subs	r1, #3
 8002764:	b2d2      	uxtb	r2, r2
 8002766:	54c1      	strb	r1, [r0, r3]
 8002768:	5485      	strb	r5, [r0, r2]
    HAL_UART_Transmit(hble->huart, (uint8_t *)cmd, (uint16_t)strlen(cmd), 500);
 800276a:	f7fd fccd 	bl	8000108 <strlen>
 800276e:	23fa      	movs	r3, #250	@ 0xfa
 8002770:	b282      	uxth	r2, r0
 8002772:	4669      	mov	r1, sp
 8002774:	005b      	lsls	r3, r3, #1
 8002776:	6820      	ldr	r0, [r4, #0]
 8002778:	f004 fe6e 	bl	8007458 <HAL_UART_Transmit>
    HAL_Delay(150);
 800277c:	2096      	movs	r0, #150	@ 0x96
 800277e:	f001 ffc1 	bl	8004704 <HAL_Delay>
    return BLE_AT_Raw(hble, buf);
}
 8002782:	0028      	movs	r0, r5
 8002784:	b009      	add	sp, #36	@ 0x24
 8002786:	bd30      	pop	{r4, r5, pc}
    while (*name && i < (uint8_t)(sizeof(buf) - 3U)) buf[i++] = *name++;
 8002788:	4668      	mov	r0, sp
 800278a:	54c2      	strb	r2, [r0, r3]
 800278c:	3301      	adds	r3, #1
 800278e:	e7dd      	b.n	800274c <BLE_AT_SetName+0x18>
 8002790:	2b1d      	cmp	r3, #29
 8002792:	d1f9      	bne.n	8002788 <BLE_AT_SetName+0x54>
 8002794:	001a      	movs	r2, r3
 8002796:	e7dd      	b.n	8002754 <BLE_AT_SetName+0x20>
 8002798:	4e2b5441 	.word	0x4e2b5441
 800279c:	00004d41 	.word	0x00004d41

080027a0 <BLE_Configure>:
{
 80027a0:	b570      	push	{r4, r5, r6, lr}
 80027a2:	0005      	movs	r5, r0
    HAL_Delay(500);
 80027a4:	20fa      	movs	r0, #250	@ 0xfa
 80027a6:	0040      	lsls	r0, r0, #1
{
 80027a8:	000c      	movs	r4, r1
    HAL_Delay(500);
 80027aa:	f001 ffab 	bl	8004704 <HAL_Delay>
    if (adv_name && adv_name[0] && !BLE_IsConnected(hble)) {
 80027ae:	2c00      	cmp	r4, #0
 80027b0:	d00e      	beq.n	80027d0 <BLE_Configure+0x30>
 80027b2:	7823      	ldrb	r3, [r4, #0]
 80027b4:	2b00      	cmp	r3, #0
 80027b6:	d00b      	beq.n	80027d0 <BLE_Configure+0x30>
 80027b8:	0028      	movs	r0, r5
 80027ba:	f7ff ffaf 	bl	800271c <BLE_IsConnected>
 80027be:	2800      	cmp	r0, #0
 80027c0:	d106      	bne.n	80027d0 <BLE_Configure+0x30>
        BLE_AT_SetName(hble, adv_name);
 80027c2:	0021      	movs	r1, r4
 80027c4:	0028      	movs	r0, r5
 80027c6:	f7ff ffb5 	bl	8002734 <BLE_AT_SetName>
        HAL_Delay(200);
 80027ca:	20c8      	movs	r0, #200	@ 0xc8
 80027cc:	f001 ff9a 	bl	8004704 <HAL_Delay>
}
 80027d0:	bd70      	pop	{r4, r5, r6, pc}

080027d2 <BMA253_ReadRegs>:
                                   buf, 2, 50U);
}

static HAL_StatusTypeDef BMA253_ReadRegs(BMA253_Handle_t *hbma,
                                          uint8_t reg, uint8_t *out, uint8_t len)
{
 80027d2:	b5f0      	push	{r4, r5, r6, r7, lr}
 80027d4:	0015      	movs	r5, r2
 80027d6:	220f      	movs	r2, #15
    HAL_StatusTypeDef s;
    s = HAL_I2C_Master_Transmit(hbma->hi2c, BMA253_I2C_ADDR, &reg, 1, 50U);
 80027d8:	2732      	movs	r7, #50	@ 0x32
{
 80027da:	b085      	sub	sp, #20
 80027dc:	446a      	add	r2, sp
 80027de:	7011      	strb	r1, [r2, #0]
    s = HAL_I2C_Master_Transmit(hbma->hi2c, BMA253_I2C_ADDR, &reg, 1, 50U);
 80027e0:	9700      	str	r7, [sp, #0]
{
 80027e2:	0004      	movs	r4, r0
 80027e4:	001e      	movs	r6, r3
    s = HAL_I2C_Master_Transmit(hbma->hi2c, BMA253_I2C_ADDR, &reg, 1, 50U);
 80027e6:	2130      	movs	r1, #48	@ 0x30
 80027e8:	2301      	movs	r3, #1
 80027ea:	6800      	ldr	r0, [r0, #0]
 80027ec:	f003 f800 	bl	80057f0 <HAL_I2C_Master_Transmit>
    if (s != HAL_OK) return s;
 80027f0:	2800      	cmp	r0, #0
 80027f2:	d106      	bne.n	8002802 <BMA253_ReadRegs+0x30>
    return HAL_I2C_Master_Receive(hbma->hi2c, BMA253_I2C_ADDR, out, len, 50U);
 80027f4:	9700      	str	r7, [sp, #0]
 80027f6:	0033      	movs	r3, r6
 80027f8:	002a      	movs	r2, r5
 80027fa:	2130      	movs	r1, #48	@ 0x30
 80027fc:	6820      	ldr	r0, [r4, #0]
 80027fe:	f003 f89b 	bl	8005938 <HAL_I2C_Master_Receive>
}
 8002802:	b005      	add	sp, #20
 8002804:	bdf0      	pop	{r4, r5, r6, r7, pc}

08002806 <BMA253_WriteReg.isra.0>:
static HAL_StatusTypeDef BMA253_WriteReg(BMA253_Handle_t *hbma,
 8002806:	b51f      	push	{r0, r1, r2, r3, r4, lr}
    uint8_t buf[2] = {reg, val};
 8002808:	466b      	mov	r3, sp
 800280a:	7319      	strb	r1, [r3, #12]
 800280c:	735a      	strb	r2, [r3, #13]
    return HAL_I2C_Master_Transmit(hbma->hi2c, BMA253_I2C_ADDR,
 800280e:	2332      	movs	r3, #50	@ 0x32
 8002810:	2130      	movs	r1, #48	@ 0x30
 8002812:	9300      	str	r3, [sp, #0]
 8002814:	aa03      	add	r2, sp, #12
 8002816:	3b30      	subs	r3, #48	@ 0x30
 8002818:	f002 ffea 	bl	80057f0 <HAL_I2C_Master_Transmit>
}
 800281c:	b005      	add	sp, #20
 800281e:	bd00      	pop	{pc}

08002820 <BMA253_SoftReset>:

HAL_StatusTypeDef BMA253_SoftReset(BMA253_Handle_t *hbma)
{
 8002820:	b510      	push	{r4, lr}
    HAL_StatusTypeDef s = BMA253_WriteReg(hbma, BMA253_REG_SOFTRESET, 0xB6);
 8002822:	22b6      	movs	r2, #182	@ 0xb6
 8002824:	2114      	movs	r1, #20
 8002826:	6800      	ldr	r0, [r0, #0]
 8002828:	f7ff ffed 	bl	8002806 <BMA253_WriteReg.isra.0>
 800282c:	0004      	movs	r4, r0
    HAL_Delay(5);  /* >1.8 ms power-on time */
 800282e:	2005      	movs	r0, #5
 8002830:	f001 ff68 	bl	8004704 <HAL_Delay>
    return s;
}
 8002834:	0020      	movs	r0, r4
 8002836:	bd10      	pop	{r4, pc}

08002838 <BMA253_Init>:

HAL_StatusTypeDef BMA253_Init(BMA253_Handle_t *hbma, I2C_HandleTypeDef *hi2c)
{
 8002838:	b573      	push	{r0, r1, r4, r5, r6, lr}
    hbma->motion_detected = 0;
    hbma->initialized    = 0;
    hbma->accel_x_mg = hbma->accel_y_mg = hbma->accel_z_mg = 0;

    /* Verify chip ID */
    uint8_t chip_id = 0;
 800283a:	466b      	mov	r3, sp
    hbma->hi2c           = hi2c;
 800283c:	6001      	str	r1, [r0, #0]
    hbma->accel_x_mg = hbma->accel_y_mg = hbma->accel_z_mg = 0;
 800283e:	2100      	movs	r1, #0
    uint8_t chip_id = 0;
 8002840:	1ddd      	adds	r5, r3, #7
    if (BMA253_ReadRegs(hbma, BMA253_REG_CHIP_ID, &chip_id, 1) != HAL_OK) return HAL_ERROR;
 8002842:	002a      	movs	r2, r5
 8002844:	2301      	movs	r3, #1
    hbma->accel_x_mg = hbma->accel_y_mg = hbma->accel_z_mg = 0;
 8002846:	6041      	str	r1, [r0, #4]
 8002848:	6081      	str	r1, [r0, #8]
{
 800284a:	0004      	movs	r4, r0
    uint8_t chip_id = 0;
 800284c:	7029      	strb	r1, [r5, #0]
    if (BMA253_ReadRegs(hbma, BMA253_REG_CHIP_ID, &chip_id, 1) != HAL_OK) return HAL_ERROR;
 800284e:	f7ff ffc0 	bl	80027d2 <BMA253_ReadRegs>
 8002852:	1e06      	subs	r6, r0, #0
 8002854:	d001      	beq.n	800285a <BMA253_Init+0x22>
 8002856:	2001      	movs	r0, #1
    /* INT1 = push-pull, active HIGH */
    if (BMA253_WriteReg(hbma, BMA253_REG_INT_OUT_CTRL, 0x01) != HAL_OK) return HAL_ERROR;

    hbma->initialized = 1;
    return HAL_OK;
}
 8002858:	bd76      	pop	{r1, r2, r4, r5, r6, pc}
    if (chip_id != BMA253_CHIP_ID_VALUE) return HAL_ERROR;
 800285a:	782b      	ldrb	r3, [r5, #0]
 800285c:	2bfa      	cmp	r3, #250	@ 0xfa
 800285e:	d1fa      	bne.n	8002856 <BMA253_Init+0x1e>
    BMA253_SoftReset(hbma);
 8002860:	0020      	movs	r0, r4
 8002862:	f7ff ffdd 	bl	8002820 <BMA253_SoftReset>
    if (BMA253_ReadRegs(hbma, BMA253_REG_CHIP_ID, &chip_id, 1) != HAL_OK) return HAL_ERROR;
 8002866:	2301      	movs	r3, #1
 8002868:	002a      	movs	r2, r5
 800286a:	0031      	movs	r1, r6
 800286c:	0020      	movs	r0, r4
 800286e:	f7ff ffb0 	bl	80027d2 <BMA253_ReadRegs>
 8002872:	2800      	cmp	r0, #0
 8002874:	d1ef      	bne.n	8002856 <BMA253_Init+0x1e>
    if (chip_id != BMA253_CHIP_ID_VALUE) return HAL_ERROR;
 8002876:	782b      	ldrb	r3, [r5, #0]
 8002878:	2bfa      	cmp	r3, #250	@ 0xfa
 800287a:	d1ec      	bne.n	8002856 <BMA253_Init+0x1e>
    if (BMA253_WriteReg(hbma, BMA253_REG_PMU_RANGE, 0x03) != HAL_OK) return HAL_ERROR;
 800287c:	2203      	movs	r2, #3
 800287e:	210f      	movs	r1, #15
 8002880:	6820      	ldr	r0, [r4, #0]
 8002882:	f7ff ffc0 	bl	8002806 <BMA253_WriteReg.isra.0>
 8002886:	2800      	cmp	r0, #0
 8002888:	d1e5      	bne.n	8002856 <BMA253_Init+0x1e>
    if (BMA253_WriteReg(hbma, BMA253_REG_PMU_BW, 0x0B) != HAL_OK) return HAL_ERROR;
 800288a:	220b      	movs	r2, #11
 800288c:	2110      	movs	r1, #16
 800288e:	6820      	ldr	r0, [r4, #0]
 8002890:	f7ff ffb9 	bl	8002806 <BMA253_WriteReg.isra.0>
 8002894:	1e02      	subs	r2, r0, #0
 8002896:	d1de      	bne.n	8002856 <BMA253_Init+0x1e>
    if (BMA253_WriteReg(hbma, BMA253_REG_SLOPE_DUR,   0x00) != HAL_OK) return HAL_ERROR;
 8002898:	2127      	movs	r1, #39	@ 0x27
 800289a:	6820      	ldr	r0, [r4, #0]
 800289c:	f7ff ffb3 	bl	8002806 <BMA253_WriteReg.isra.0>
 80028a0:	2800      	cmp	r0, #0
 80028a2:	d1d8      	bne.n	8002856 <BMA253_Init+0x1e>
    if (BMA253_WriteReg(hbma, BMA253_REG_SLOPE_THRES, 0x14) != HAL_OK) return HAL_ERROR;
 80028a4:	2214      	movs	r2, #20
 80028a6:	2128      	movs	r1, #40	@ 0x28
 80028a8:	6820      	ldr	r0, [r4, #0]
 80028aa:	f7ff ffac 	bl	8002806 <BMA253_WriteReg.isra.0>
 80028ae:	2800      	cmp	r0, #0
 80028b0:	d1d1      	bne.n	8002856 <BMA253_Init+0x1e>
    if (BMA253_WriteReg(hbma, BMA253_REG_INT_EN_0, 0x07) != HAL_OK) return HAL_ERROR;
 80028b2:	2207      	movs	r2, #7
 80028b4:	2116      	movs	r1, #22
 80028b6:	6820      	ldr	r0, [r4, #0]
 80028b8:	f7ff ffa5 	bl	8002806 <BMA253_WriteReg.isra.0>
 80028bc:	2800      	cmp	r0, #0
 80028be:	d1ca      	bne.n	8002856 <BMA253_Init+0x1e>
    if (BMA253_WriteReg(hbma, BMA253_REG_INT_MAP_0, 0x04) != HAL_OK) return HAL_ERROR;
 80028c0:	2204      	movs	r2, #4
 80028c2:	2119      	movs	r1, #25
 80028c4:	6820      	ldr	r0, [r4, #0]
 80028c6:	f7ff ff9e 	bl	8002806 <BMA253_WriteReg.isra.0>
 80028ca:	2800      	cmp	r0, #0
 80028cc:	d1c3      	bne.n	8002856 <BMA253_Init+0x1e>
    if (BMA253_WriteReg(hbma, BMA253_REG_INT_OUT_CTRL, 0x01) != HAL_OK) return HAL_ERROR;
 80028ce:	2201      	movs	r2, #1
 80028d0:	2120      	movs	r1, #32
 80028d2:	6820      	ldr	r0, [r4, #0]
 80028d4:	f7ff ff97 	bl	8002806 <BMA253_WriteReg.isra.0>
 80028d8:	2800      	cmp	r0, #0
 80028da:	d1bc      	bne.n	8002856 <BMA253_Init+0x1e>
    hbma->initialized = 1;
 80028dc:	2301      	movs	r3, #1
 80028de:	72e3      	strb	r3, [r4, #11]
    return HAL_OK;
 80028e0:	e7ba      	b.n	8002858 <BMA253_Init+0x20>

080028e2 <BMA253_MotionISR>:
    return HAL_OK;
}

void BMA253_MotionISR(BMA253_Handle_t *hbma)
{
    hbma->motion_detected = 1;
 80028e2:	2301      	movs	r3, #1
 80028e4:	7283      	strb	r3, [r0, #10]
}
 80028e6:	4770      	bx	lr

080028e8 <BMA253_PopMotionFlag>:

uint8_t BMA253_PopMotionFlag(BMA253_Handle_t *hbma)
{
 80028e8:	0003      	movs	r3, r0
    if (hbma->motion_detected) {
 80028ea:	7a80      	ldrb	r0, [r0, #10]
 80028ec:	2800      	cmp	r0, #0
 80028ee:	d002      	beq.n	80028f6 <BMA253_PopMotionFlag+0xe>
        hbma->motion_detected = 0;
 80028f0:	2200      	movs	r2, #0
        return 1;
 80028f2:	2001      	movs	r0, #1
        hbma->motion_detected = 0;
 80028f4:	729a      	strb	r2, [r3, #10]
    }
    return 0;
}
 80028f6:	4770      	bx	lr

080028f8 <Buzzer_ToneOff>:
    s_tone_on = 1;
}

static void Buzzer_ToneOff(void)
{
    if (!s_htim) return;
 80028f8:	4b05      	ldr	r3, [pc, #20]	@ (8002910 <Buzzer_ToneOff+0x18>)
{
 80028fa:	b510      	push	{r4, lr}
    if (!s_htim) return;
 80028fc:	6818      	ldr	r0, [r3, #0]
 80028fe:	2800      	cmp	r0, #0
 8002900:	d005      	beq.n	800290e <Buzzer_ToneOff+0x16>
    HAL_TIM_PWM_Stop(s_htim, TIM_CHANNEL_2);
 8002902:	2104      	movs	r1, #4
 8002904:	f004 f868 	bl	80069d8 <HAL_TIM_PWM_Stop>
    s_tone_on = 0;
 8002908:	2200      	movs	r2, #0
 800290a:	4b02      	ldr	r3, [pc, #8]	@ (8002914 <Buzzer_ToneOff+0x1c>)
 800290c:	701a      	strb	r2, [r3, #0]
}
 800290e:	bd10      	pop	{r4, pc}
 8002910:	200000a0 	.word	0x200000a0
 8002914:	20000092 	.word	0x20000092

08002918 <Buzzer_ToneOn.constprop.0>:
    if (!s_htim || freq_hz == 0) return;
 8002918:	4b08      	ldr	r3, [pc, #32]	@ (800293c <Buzzer_ToneOn.constprop.0+0x24>)
static void Buzzer_ToneOn(uint16_t freq_hz)
 800291a:	b510      	push	{r4, lr}
    if (!s_htim || freq_hz == 0) return;
 800291c:	6818      	ldr	r0, [r3, #0]
 800291e:	2800      	cmp	r0, #0
 8002920:	d00b      	beq.n	800293a <Buzzer_ToneOn.constprop.0+0x22>
    s_htim->Instance->ARR = arr;
 8002922:	22f4      	movs	r2, #244	@ 0xf4
 8002924:	6803      	ldr	r3, [r0, #0]
 8002926:	32ff      	adds	r2, #255	@ 0xff
 8002928:	62da      	str	r2, [r3, #44]	@ 0x2c
    s_htim->Instance->CCR2 = arr * BUZZER_DUTY / 100;
 800292a:	3afa      	subs	r2, #250	@ 0xfa
 800292c:	639a      	str	r2, [r3, #56]	@ 0x38
    HAL_TIM_PWM_Start(s_htim, TIM_CHANNEL_2);
 800292e:	2104      	movs	r1, #4
 8002930:	f004 f808 	bl	8006944 <HAL_TIM_PWM_Start>
    s_tone_on = 1;
 8002934:	2201      	movs	r2, #1
 8002936:	4b02      	ldr	r3, [pc, #8]	@ (8002940 <Buzzer_ToneOn.constprop.0+0x28>)
 8002938:	701a      	strb	r2, [r3, #0]
}
 800293a:	bd10      	pop	{r4, pc}
 800293c:	200000a0 	.word	0x200000a0
 8002940:	20000092 	.word	0x20000092

08002944 <Buzzer_Init>:

void Buzzer_Init(TIM_HandleTypeDef *htim)
{
    s_htim = htim;
    /* Ensure PSC=47 so timer runs at 1 MHz */
    htim->Instance->PSC = 47;
 8002944:	222f      	movs	r2, #47	@ 0x2f
    s_htim = htim;
 8002946:	4b05      	ldr	r3, [pc, #20]	@ (800295c <Buzzer_Init+0x18>)
{
 8002948:	b510      	push	{r4, lr}
    s_htim = htim;
 800294a:	6018      	str	r0, [r3, #0]
    htim->Instance->PSC = 47;
 800294c:	6803      	ldr	r3, [r0, #0]
 800294e:	629a      	str	r2, [r3, #40]	@ 0x28
    htim->Instance->EGR = TIM_EGR_UG;
 8002950:	3a2e      	subs	r2, #46	@ 0x2e
 8002952:	615a      	str	r2, [r3, #20]
    Buzzer_ToneOff();
 8002954:	f7ff ffd0 	bl	80028f8 <Buzzer_ToneOff>
}
 8002958:	bd10      	pop	{r4, pc}
 800295a:	46c0      	nop			@ (mov r8, r8)
 800295c:	200000a0 	.word	0x200000a0

08002960 <Buzzer_Stop>:

void Buzzer_Stop(void)
{
 8002960:	b510      	push	{r4, lr}
    Buzzer_ToneOff();
 8002962:	f7ff ffc9 	bl	80028f8 <Buzzer_ToneOff>
    s_steps   = NULL;
 8002966:	2200      	movs	r2, #0
 8002968:	4b02      	ldr	r3, [pc, #8]	@ (8002974 <Buzzer_Stop+0x14>)
 800296a:	601a      	str	r2, [r3, #0]
    s_busy    = 0;
 800296c:	4b02      	ldr	r3, [pc, #8]	@ (8002978 <Buzzer_Stop+0x18>)
 800296e:	701a      	strb	r2, [r3, #0]
}
 8002970:	bd10      	pop	{r4, pc}
 8002972:	46c0      	nop			@ (mov r8, r8)
 8002974:	2000009c 	.word	0x2000009c
 8002978:	20000091 	.word	0x20000091

0800297c <Buzzer_Play>:

uint8_t Buzzer_IsBusy(void) { return s_busy; }

void Buzzer_Play(Buzzer_Pattern_t pattern)
{
 800297c:	b510      	push	{r4, lr}
 800297e:	0004      	movs	r4, r0
    if ((uint8_t)pattern >= sizeof(s_patterns) / sizeof(s_patterns[0])) return;
 8002980:	280b      	cmp	r0, #11
 8002982:	d81b      	bhi.n	80029bc <Buzzer_Play+0x40>
    Buzzer_Stop();
 8002984:	f7ff ffec 	bl	8002960 <Buzzer_Stop>
    s_steps        = s_patterns[pattern];
 8002988:	4b0d      	ldr	r3, [pc, #52]	@ (80029c0 <Buzzer_Play+0x44>)
 800298a:	00a4      	lsls	r4, r4, #2
 800298c:	4a0d      	ldr	r2, [pc, #52]	@ (80029c4 <Buzzer_Play+0x48>)
 800298e:	58e3      	ldr	r3, [r4, r3]
 8002990:	0014      	movs	r4, r2
 8002992:	6013      	str	r3, [r2, #0]
    s_step_idx     = 0;
 8002994:	2200      	movs	r2, #0
 8002996:	4b0c      	ldr	r3, [pc, #48]	@ (80029c8 <Buzzer_Play+0x4c>)
 8002998:	701a      	strb	r2, [r3, #0]
    s_rep_cnt      = 0;
 800299a:	4b0c      	ldr	r3, [pc, #48]	@ (80029cc <Buzzer_Play+0x50>)
 800299c:	701a      	strb	r2, [r3, #0]
    s_step_start_ms = HAL_GetTick();
 800299e:	f001 feab 	bl	80046f8 <HAL_GetTick>
    s_busy         = 1;
 80029a2:	2201      	movs	r2, #1
    s_step_start_ms = HAL_GetTick();
 80029a4:	4b0a      	ldr	r3, [pc, #40]	@ (80029d0 <Buzzer_Play+0x54>)
 80029a6:	6018      	str	r0, [r3, #0]
    s_busy         = 1;
 80029a8:	4b0a      	ldr	r3, [pc, #40]	@ (80029d4 <Buzzer_Play+0x58>)
 80029aa:	701a      	strb	r2, [r3, #0]

    if (s_steps && s_steps[0].on_ms) {
 80029ac:	6823      	ldr	r3, [r4, #0]
 80029ae:	2b00      	cmp	r3, #0
 80029b0:	d004      	beq.n	80029bc <Buzzer_Play+0x40>
 80029b2:	881b      	ldrh	r3, [r3, #0]
 80029b4:	2b00      	cmp	r3, #0
 80029b6:	d001      	beq.n	80029bc <Buzzer_Play+0x40>
        Buzzer_ToneOn(BUZZER_DEFAULT_FREQ);
 80029b8:	f7ff ffae 	bl	8002918 <Buzzer_ToneOn.constprop.0>
    }
}
 80029bc:	bd10      	pop	{r4, pc}
 80029be:	46c0      	nop			@ (mov r8, r8)
 80029c0:	080079d8 	.word	0x080079d8
 80029c4:	2000009c 	.word	0x2000009c
 80029c8:	20000099 	.word	0x20000099
 80029cc:	20000098 	.word	0x20000098
 80029d0:	20000094 	.word	0x20000094
 80029d4:	20000091 	.word	0x20000091

080029d8 <Buzzer_Update>:

/* ─── Call every ms (SysTick or main-loop ≤ 1 ms) ──────────── */
void Buzzer_Update(void)
{
 80029d8:	b5f8      	push	{r3, r4, r5, r6, r7, lr}
    if (!s_busy || !s_steps) return;
 80029da:	4b28      	ldr	r3, [pc, #160]	@ (8002a7c <Buzzer_Update+0xa4>)
 80029dc:	781b      	ldrb	r3, [r3, #0]
 80029de:	2b00      	cmp	r3, #0
 80029e0:	d013      	beq.n	8002a0a <Buzzer_Update+0x32>
 80029e2:	4e27      	ldr	r6, [pc, #156]	@ (8002a80 <Buzzer_Update+0xa8>)
 80029e4:	6832      	ldr	r2, [r6, #0]
 80029e6:	2a00      	cmp	r2, #0
 80029e8:	d00f      	beq.n	8002a0a <Buzzer_Update+0x32>

    const BuzzerStep_t *step = &s_steps[s_step_idx];
 80029ea:	2306      	movs	r3, #6
 80029ec:	4d25      	ldr	r5, [pc, #148]	@ (8002a84 <Buzzer_Update+0xac>)
 80029ee:	7829      	ldrb	r1, [r5, #0]
 80029f0:	434b      	muls	r3, r1
 80029f2:	18d7      	adds	r7, r2, r3
    if (step->on_ms == 0 && step->off_ms == 0 && step->repeat == 0) {
 80029f4:	5ad3      	ldrh	r3, [r2, r3]
 80029f6:	2b00      	cmp	r3, #0
 80029f8:	d108      	bne.n	8002a0c <Buzzer_Update+0x34>
 80029fa:	887b      	ldrh	r3, [r7, #2]
 80029fc:	2b00      	cmp	r3, #0
 80029fe:	d105      	bne.n	8002a0c <Buzzer_Update+0x34>
 8002a00:	793b      	ldrb	r3, [r7, #4]
 8002a02:	2b00      	cmp	r3, #0
 8002a04:	d102      	bne.n	8002a0c <Buzzer_Update+0x34>
        Buzzer_Stop(); return;
 8002a06:	f7ff ffab 	bl	8002960 <Buzzer_Stop>
                s_step_start_ms = HAL_GetTick();
                Buzzer_ToneOn(BUZZER_DEFAULT_FREQ);
            }
        }
    }
}
 8002a0a:	bdf8      	pop	{r3, r4, r5, r6, r7, pc}
    uint32_t elapsed = HAL_GetTick() - s_step_start_ms;
 8002a0c:	f001 fe74 	bl	80046f8 <HAL_GetTick>
 8002a10:	4c1d      	ldr	r4, [pc, #116]	@ (8002a88 <Buzzer_Update+0xb0>)
 8002a12:	6823      	ldr	r3, [r4, #0]
 8002a14:	1ac0      	subs	r0, r0, r3
    if (s_tone_on) {
 8002a16:	4b1d      	ldr	r3, [pc, #116]	@ (8002a8c <Buzzer_Update+0xb4>)
 8002a18:	781b      	ldrb	r3, [r3, #0]
 8002a1a:	2b00      	cmp	r3, #0
 8002a1c:	d018      	beq.n	8002a50 <Buzzer_Update+0x78>
        if (elapsed >= step->on_ms) {
 8002a1e:	883b      	ldrh	r3, [r7, #0]
 8002a20:	4283      	cmp	r3, r0
 8002a22:	d8f2      	bhi.n	8002a0a <Buzzer_Update+0x32>
            Buzzer_ToneOff();
 8002a24:	f7ff ff68 	bl	80028f8 <Buzzer_ToneOff>
            s_step_start_ms = HAL_GetTick();
 8002a28:	f001 fe66 	bl	80046f8 <HAL_GetTick>
 8002a2c:	6020      	str	r0, [r4, #0]
            if (step->off_ms == 0) {
 8002a2e:	887b      	ldrh	r3, [r7, #2]
 8002a30:	2b00      	cmp	r3, #0
 8002a32:	d1ea      	bne.n	8002a0a <Buzzer_Update+0x32>
            s_rep_cnt++;
 8002a34:	4a16      	ldr	r2, [pc, #88]	@ (8002a90 <Buzzer_Update+0xb8>)
 8002a36:	7813      	ldrb	r3, [r2, #0]
 8002a38:	3301      	adds	r3, #1
 8002a3a:	b2db      	uxtb	r3, r3
 8002a3c:	7013      	strb	r3, [r2, #0]
            if (s_rep_cnt < step->repeat) {
 8002a3e:	7939      	ldrb	r1, [r7, #4]
 8002a40:	4299      	cmp	r1, r3
 8002a42:	d909      	bls.n	8002a58 <Buzzer_Update+0x80>
                s_step_start_ms = HAL_GetTick();
 8002a44:	f001 fe58 	bl	80046f8 <HAL_GetTick>
 8002a48:	6020      	str	r0, [r4, #0]
                Buzzer_ToneOn(BUZZER_DEFAULT_FREQ);
 8002a4a:	f7ff ff65 	bl	8002918 <Buzzer_ToneOn.constprop.0>
 8002a4e:	e7dc      	b.n	8002a0a <Buzzer_Update+0x32>
        if (elapsed >= step->off_ms) {
 8002a50:	887b      	ldrh	r3, [r7, #2]
 8002a52:	4283      	cmp	r3, r0
 8002a54:	d9ee      	bls.n	8002a34 <Buzzer_Update+0x5c>
 8002a56:	e7d8      	b.n	8002a0a <Buzzer_Update+0x32>
                s_rep_cnt = 0;
 8002a58:	2100      	movs	r1, #0
 8002a5a:	7011      	strb	r1, [r2, #0]
                const BuzzerStep_t *nxt = &s_steps[s_step_idx];
 8002a5c:	2206      	movs	r2, #6
                s_step_idx++;
 8002a5e:	782b      	ldrb	r3, [r5, #0]
 8002a60:	3301      	adds	r3, #1
 8002a62:	b2db      	uxtb	r3, r3
 8002a64:	702b      	strb	r3, [r5, #0]
                const BuzzerStep_t *nxt = &s_steps[s_step_idx];
 8002a66:	4353      	muls	r3, r2
 8002a68:	6832      	ldr	r2, [r6, #0]
 8002a6a:	18d1      	adds	r1, r2, r3
                if (nxt->on_ms == 0 && nxt->off_ms == 0) {
 8002a6c:	5ad3      	ldrh	r3, [r2, r3]
 8002a6e:	2b00      	cmp	r3, #0
 8002a70:	d1e8      	bne.n	8002a44 <Buzzer_Update+0x6c>
 8002a72:	884b      	ldrh	r3, [r1, #2]
 8002a74:	2b00      	cmp	r3, #0
 8002a76:	d1e5      	bne.n	8002a44 <Buzzer_Update+0x6c>
 8002a78:	e7c5      	b.n	8002a06 <Buzzer_Update+0x2e>
 8002a7a:	46c0      	nop			@ (mov r8, r8)
 8002a7c:	20000091 	.word	0x20000091
 8002a80:	2000009c 	.word	0x2000009c
 8002a84:	20000099 	.word	0x20000099
 8002a88:	20000094 	.word	0x20000094
 8002a8c:	20000092 	.word	0x20000092
 8002a90:	20000098 	.word	0x20000098

08002a94 <Flash_WriteBytes.isra.0>:
    HAL_StatusTypeDef s = HAL_FLASHEx_Erase(&erase, &page_err);
    HAL_FLASH_Lock();
    return s;
}

static HAL_StatusTypeDef Flash_WriteBytes(uint32_t addr,
 8002a94:	b5f8      	push	{r3, r4, r5, r6, r7, lr}
 8002a96:	0007      	movs	r7, r0
 8002a98:	000c      	movs	r4, r1
 8002a9a:	0016      	movs	r6, r2
                                           const uint8_t *data, uint32_t len)
{
    HAL_FLASH_Unlock();
    HAL_StatusTypeDef s = HAL_OK;
    for (uint32_t i = 0; i < len; i += 2) {
 8002a9c:	2500      	movs	r5, #0
    HAL_FLASH_Unlock();
 8002a9e:	f002 fafb 	bl	8005098 <HAL_FLASH_Unlock>
        uint16_t hw = (uint16_t)data[i];
        if (i + 1 < len) hw |= (uint16_t)((uint16_t)data[i + 1] << 8);
 8002aa2:	1c6b      	adds	r3, r5, #1
        uint16_t hw = (uint16_t)data[i];
 8002aa4:	7822      	ldrb	r2, [r4, #0]
        if (i + 1 < len) hw |= (uint16_t)((uint16_t)data[i + 1] << 8);
 8002aa6:	429e      	cmp	r6, r3
 8002aa8:	d902      	bls.n	8002ab0 <Flash_WriteBytes.isra.0+0x1c>
 8002aaa:	7863      	ldrb	r3, [r4, #1]
 8002aac:	021b      	lsls	r3, r3, #8
 8002aae:	431a      	orrs	r2, r3
        s = HAL_FLASH_Program(FLASH_TYPEPROGRAM_HALFWORD, addr + i, hw);
 8002ab0:	2300      	movs	r3, #0
 8002ab2:	2001      	movs	r0, #1
 8002ab4:	1979      	adds	r1, r7, r5
 8002ab6:	f002 fb37 	bl	8005128 <HAL_FLASH_Program>
        if (s != HAL_OK) break;
 8002aba:	2800      	cmp	r0, #0
 8002abc:	d103      	bne.n	8002ac6 <Flash_WriteBytes.isra.0+0x32>
    for (uint32_t i = 0; i < len; i += 2) {
 8002abe:	3502      	adds	r5, #2
 8002ac0:	3402      	adds	r4, #2
 8002ac2:	42ae      	cmp	r6, r5
 8002ac4:	d8ed      	bhi.n	8002aa2 <Flash_WriteBytes.isra.0+0xe>
    }
    HAL_FLASH_Lock();
 8002ac6:	f002 fafb 	bl	80050c0 <HAL_FLASH_Lock>
    return s;
}
 8002aca:	bdf8      	pop	{r3, r4, r5, r6, r7, pc}

08002acc <Flash_ErasePage.isra.0>:
static HAL_StatusTypeDef Flash_ErasePage(uint32_t page_addr)
 8002acc:	b51f      	push	{r0, r1, r2, r3, r4, lr}
    FLASH_EraseInitTypeDef erase = {0};
 8002ace:	2300      	movs	r3, #0
 8002ad0:	9301      	str	r3, [sp, #4]
    erase.NbPages     = 1;
 8002ad2:	3301      	adds	r3, #1
 8002ad4:	9303      	str	r3, [sp, #12]
    erase.PageAddress = page_addr;
 8002ad6:	9002      	str	r0, [sp, #8]
    HAL_FLASH_Unlock();
 8002ad8:	f002 fade 	bl	8005098 <HAL_FLASH_Unlock>
    HAL_StatusTypeDef s = HAL_FLASHEx_Erase(&erase, &page_err);
 8002adc:	4669      	mov	r1, sp
 8002ade:	a801      	add	r0, sp, #4
 8002ae0:	f002 fb8c 	bl	80051fc <HAL_FLASHEx_Erase>
    HAL_FLASH_Lock();
 8002ae4:	f002 faec 	bl	80050c0 <HAL_FLASH_Lock>
}
 8002ae8:	b005      	add	sp, #20
 8002aea:	bd00      	pop	{pc}

08002aec <Storage_CRC32>:
{
    uint32_t crc = 0xFFFFFFFFUL;
    for (uint16_t i = 0; i < len; i++) {
        crc ^= data[i];
        for (uint8_t j = 0; j < 8; j++)
            crc = (crc & 1U) ? ((crc >> 1) ^ 0xEDB88320UL) : (crc >> 1);
 8002aec:	4a0e      	ldr	r2, [pc, #56]	@ (8002b28 <Storage_CRC32+0x3c>)
    uint32_t crc = 0xFFFFFFFFUL;
 8002aee:	2301      	movs	r3, #1
{
 8002af0:	b5f0      	push	{r4, r5, r6, r7, lr}
            crc = (crc & 1U) ? ((crc >> 1) ^ 0xEDB88320UL) : (crc >> 1);
 8002af2:	4694      	mov	ip, r2
{
 8002af4:	0006      	movs	r6, r0
    for (uint16_t i = 0; i < len; i++) {
 8002af6:	2500      	movs	r5, #0
        crc ^= data[i];
 8002af8:	2708      	movs	r7, #8
    uint32_t crc = 0xFFFFFFFFUL;
 8002afa:	425b      	negs	r3, r3
    for (uint16_t i = 0; i < len; i++) {
 8002afc:	b2aa      	uxth	r2, r5
 8002afe:	428a      	cmp	r2, r1
 8002b00:	d301      	bcc.n	8002b06 <Storage_CRC32+0x1a>
    }
    return ~crc;
 8002b02:	43d8      	mvns	r0, r3
}
 8002b04:	bdf0      	pop	{r4, r5, r6, r7, pc}
        crc ^= data[i];
 8002b06:	5d72      	ldrb	r2, [r6, r5]
 8002b08:	4053      	eors	r3, r2
 8002b0a:	003a      	movs	r2, r7
            crc = (crc & 1U) ? ((crc >> 1) ^ 0xEDB88320UL) : (crc >> 1);
 8002b0c:	001c      	movs	r4, r3
 8002b0e:	2001      	movs	r0, #1
 8002b10:	4004      	ands	r4, r0
 8002b12:	4660      	mov	r0, ip
 8002b14:	4264      	negs	r4, r4
        for (uint8_t j = 0; j < 8; j++)
 8002b16:	3a01      	subs	r2, #1
            crc = (crc & 1U) ? ((crc >> 1) ^ 0xEDB88320UL) : (crc >> 1);
 8002b18:	4004      	ands	r4, r0
 8002b1a:	085b      	lsrs	r3, r3, #1
        for (uint8_t j = 0; j < 8; j++)
 8002b1c:	b2d2      	uxtb	r2, r2
            crc = (crc & 1U) ? ((crc >> 1) ^ 0xEDB88320UL) : (crc >> 1);
 8002b1e:	4063      	eors	r3, r4
        for (uint8_t j = 0; j < 8; j++)
 8002b20:	2a00      	cmp	r2, #0
 8002b22:	d1f3      	bne.n	8002b0c <Storage_CRC32+0x20>
    for (uint16_t i = 0; i < len; i++) {
 8002b24:	3501      	adds	r5, #1
 8002b26:	e7e9      	b.n	8002afc <Storage_CRC32+0x10>
 8002b28:	edb88320 	.word	0xedb88320

08002b2c <Storage_DefaultPrefs>:

/* ─── Default preferences ───────────────────────────────────── */
void Storage_DefaultPrefs(BLE_PrefsPayload_t *p)
{
    /* purity goal: 500 ppm */
    p->purity_goal_hi = 0x01; p->purity_goal_lo = 0xF4;
 8002b2c:	22f4      	movs	r2, #244	@ 0xf4
 8002b2e:	2301      	movs	r3, #1
 8002b30:	7042      	strb	r2, [r0, #1]
    /* temp goal: 40.0°C → 400 × 10 → 0x0190 */
    p->temp_goal_hi = 0x01; p->temp_goal_lo = 0x90;
    /* hydration: 2000 ml → 0x07D0 */
    p->hydration_hi = 0x07; p->hydration_lo = 0xD0;
    p->remind_h_start  = 8;   p->remind_m_start = 0;
 8002b32:	2200      	movs	r2, #0
    p->purity_goal_hi = 0x01; p->purity_goal_lo = 0xF4;
 8002b34:	7003      	strb	r3, [r0, #0]
    p->temp_goal_hi = 0x01; p->temp_goal_lo = 0x90;
 8002b36:	7083      	strb	r3, [r0, #2]
 8002b38:	338f      	adds	r3, #143	@ 0x8f
 8002b3a:	70c3      	strb	r3, [r0, #3]
    p->hydration_hi = 0x07; p->hydration_lo = 0xD0;
 8002b3c:	3b89      	subs	r3, #137	@ 0x89
 8002b3e:	7103      	strb	r3, [r0, #4]
 8002b40:	33c9      	adds	r3, #201	@ 0xc9
 8002b42:	7143      	strb	r3, [r0, #5]
    p->remind_h_start  = 8;   p->remind_m_start = 0;
 8002b44:	3bc8      	subs	r3, #200	@ 0xc8
 8002b46:	7183      	strb	r3, [r0, #6]
    p->remind_h_end    = 20;  p->remind_m_end   = 0;
 8002b48:	330c      	adds	r3, #12
 8002b4a:	7203      	strb	r3, [r0, #8]
    p->remind_freq_min = 60;
 8002b4c:	3328      	adds	r3, #40	@ 0x28
    p->remind_h_start  = 8;   p->remind_m_start = 0;
 8002b4e:	71c2      	strb	r2, [r0, #7]
    p->remind_h_end    = 20;  p->remind_m_end   = 0;
 8002b50:	7242      	strb	r2, [r0, #9]
    p->remind_freq_min = 60;
 8002b52:	7283      	strb	r3, [r0, #10]
    p->remind_r = 0;  p->remind_g = 255; p->remind_b = 0;  /* green */
 8002b54:	72c2      	strb	r2, [r0, #11]
 8002b56:	33c3      	adds	r3, #195	@ 0xc3
 8002b58:	7342      	strb	r2, [r0, #13]
    p->remind_sound = 2;   /* double_beep */
 8002b5a:	3202      	adds	r2, #2
    p->remind_r = 0;  p->remind_g = 255; p->remind_b = 0;  /* green */
 8002b5c:	7303      	strb	r3, [r0, #12]
    p->remind_sound = 2;   /* double_beep */
 8002b5e:	7382      	strb	r2, [r0, #14]
    p->lamp_r = 255; p->lamp_g = 255; p->lamp_b = 255;    /* white */
 8002b60:	73c3      	strb	r3, [r0, #15]
 8002b62:	7403      	strb	r3, [r0, #16]
 8002b64:	7443      	strb	r3, [r0, #17]
}
 8002b66:	4770      	bx	lr

08002b68 <Storage_Init>:

/* ─── Init ──────────────────────────────────────────────────── */
void Storage_Init(void) { /* flash always readable, nothing to do */ }
 8002b68:	4770      	bx	lr
	...

08002b6c <Storage_LoadSettings>:

/* ─── Settings ──────────────────────────────────────────────── */
void Storage_LoadSettings(DeviceSettings_t *out)
{
 8002b6c:	b510      	push	{r4, lr}
 8002b6e:	0004      	movs	r4, r0
    memcpy(out, (const void *)addr, len);
 8002b70:	2248      	movs	r2, #72	@ 0x48
 8002b72:	4909      	ldr	r1, [pc, #36]	@ (8002b98 <Storage_LoadSettings+0x2c>)
 8002b74:	f004 fe2c 	bl	80077d0 <memcpy>
    Flash_ReadBytes(STORAGE_SETTINGS_ADDR, (uint8_t *)out, sizeof(DeviceSettings_t));
    if (out->magic != SETTINGS_MAGIC) {
 8002b78:	4b08      	ldr	r3, [pc, #32]	@ (8002b9c <Storage_LoadSettings+0x30>)
 8002b7a:	6822      	ldr	r2, [r4, #0]
 8002b7c:	429a      	cmp	r2, r3
 8002b7e:	d00a      	beq.n	8002b96 <Storage_LoadSettings+0x2a>
        memset(out, 0, sizeof(DeviceSettings_t));
 8002b80:	2248      	movs	r2, #72	@ 0x48
 8002b82:	2100      	movs	r1, #0
 8002b84:	0020      	movs	r0, r4
 8002b86:	f004 fdf7 	bl	8007778 <memset>
        Storage_DefaultPrefs(&out->prefs);
 8002b8a:	0020      	movs	r0, r4
 8002b8c:	3024      	adds	r0, #36	@ 0x24
 8002b8e:	f7ff ffcd 	bl	8002b2c <Storage_DefaultPrefs>
        out->hx711_scale   = 440.0f;
 8002b92:	4b03      	ldr	r3, [pc, #12]	@ (8002ba0 <Storage_LoadSettings+0x34>)
 8002b94:	63e3      	str	r3, [r4, #60]	@ 0x3c
        out->tare_offset   = 0.0f;
        out->is_registered = 0;
        out->is_calibrated = 0;
    }
}
 8002b96:	bd10      	pop	{r4, pc}
 8002b98:	08007000 	.word	0x08007000
 8002b9c:	abcd1234 	.word	0xabcd1234
 8002ba0:	43dc0000 	.word	0x43dc0000

08002ba4 <Storage_SaveSettings>:

void Storage_SaveSettings(const DeviceSettings_t *in)
{
 8002ba4:	b510      	push	{r4, lr}
    DeviceSettings_t tmp;
    memcpy(&tmp, in, sizeof(DeviceSettings_t));
 8002ba6:	2444      	movs	r4, #68	@ 0x44
{
 8002ba8:	b092      	sub	sp, #72	@ 0x48
    memcpy(&tmp, in, sizeof(DeviceSettings_t));
 8002baa:	0022      	movs	r2, r4
 8002bac:	1d01      	adds	r1, r0, #4
 8002bae:	a801      	add	r0, sp, #4
 8002bb0:	f004 fe0e 	bl	80077d0 <memcpy>
    tmp.magic = SETTINGS_MAGIC;
 8002bb4:	4b08      	ldr	r3, [pc, #32]	@ (8002bd8 <Storage_SaveSettings+0x34>)
    tmp.crc   = Storage_CRC32((const uint8_t *)&tmp,
 8002bb6:	0021      	movs	r1, r4
 8002bb8:	4668      	mov	r0, sp
    tmp.magic = SETTINGS_MAGIC;
 8002bba:	9300      	str	r3, [sp, #0]
    tmp.crc   = Storage_CRC32((const uint8_t *)&tmp,
 8002bbc:	f7ff ff96 	bl	8002aec <Storage_CRC32>
                               (uint16_t)(sizeof(DeviceSettings_t) - 4U));
    Flash_ErasePage(STORAGE_SETTINGS_ADDR);
 8002bc0:	4c06      	ldr	r4, [pc, #24]	@ (8002bdc <Storage_SaveSettings+0x38>)
    tmp.crc   = Storage_CRC32((const uint8_t *)&tmp,
 8002bc2:	9011      	str	r0, [sp, #68]	@ 0x44
    Flash_ErasePage(STORAGE_SETTINGS_ADDR);
 8002bc4:	0020      	movs	r0, r4
 8002bc6:	f7ff ff81 	bl	8002acc <Flash_ErasePage.isra.0>
    Flash_WriteBytes(STORAGE_SETTINGS_ADDR, (const uint8_t *)&tmp,
 8002bca:	2248      	movs	r2, #72	@ 0x48
 8002bcc:	4669      	mov	r1, sp
 8002bce:	0020      	movs	r0, r4
 8002bd0:	f7ff ff60 	bl	8002a94 <Flash_WriteBytes.isra.0>
                     sizeof(DeviceSettings_t));
}
 8002bd4:	b012      	add	sp, #72	@ 0x48
 8002bd6:	bd10      	pop	{r4, pc}
 8002bd8:	abcd1234 	.word	0xabcd1234
 8002bdc:	08007000 	.word	0x08007000

08002be0 <Storage_AddDrinkEvent>:
    Flash_ErasePage(STORAGE_SETTINGS_ADDR);
}

/* ─── Drink log ─────────────────────────────────────────────── */
void Storage_AddDrinkEvent(DrinkLog_t *log, const DrinkEvent_t *ev)
{
 8002be0:	b570      	push	{r4, r5, r6, lr}
    if (log->count >= STORAGE_MAX_DRINK_EVENTS) {
 8002be2:	0006      	movs	r6, r0
 8002be4:	36f0      	adds	r6, #240	@ 0xf0
 8002be6:	7833      	ldrb	r3, [r6, #0]
{
 8002be8:	0004      	movs	r4, r0
 8002bea:	000d      	movs	r5, r1
    if (log->count >= STORAGE_MAX_DRINK_EVENTS) {
 8002bec:	2b13      	cmp	r3, #19
 8002bee:	d906      	bls.n	8002bfe <Storage_AddDrinkEvent+0x1e>
        memmove(&log->events[0], &log->events[1],
 8002bf0:	0001      	movs	r1, r0
 8002bf2:	22e4      	movs	r2, #228	@ 0xe4
 8002bf4:	310c      	adds	r1, #12
 8002bf6:	f004 fdad 	bl	8007754 <memmove>
                sizeof(DrinkEvent_t) * (STORAGE_MAX_DRINK_EVENTS - 1U));
        log->count = STORAGE_MAX_DRINK_EVENTS - 1U;
 8002bfa:	2313      	movs	r3, #19
 8002bfc:	7033      	strb	r3, [r6, #0]
    }
    log->events[log->count++] = *ev;
 8002bfe:	7832      	ldrb	r2, [r6, #0]
 8002c00:	1c53      	adds	r3, r2, #1
 8002c02:	7033      	strb	r3, [r6, #0]
 8002c04:	230c      	movs	r3, #12
 8002c06:	4353      	muls	r3, r2
 8002c08:	18e3      	adds	r3, r4, r3
 8002c0a:	cd07      	ldmia	r5!, {r0, r1, r2}
 8002c0c:	c307      	stmia	r3!, {r0, r1, r2}
    log->dirty = 1;
 8002c0e:	2301      	movs	r3, #1
 8002c10:	34f1      	adds	r4, #241	@ 0xf1
 8002c12:	7023      	strb	r3, [r4, #0]
}
 8002c14:	bd70      	pop	{r4, r5, r6, pc}
	...

08002c18 <Storage_FlushDrinkLog>:

void Storage_FlushDrinkLog(DrinkLog_t *log)
{
 8002c18:	b570      	push	{r4, r5, r6, lr}
    if (!log->dirty) return;
 8002c1a:	0005      	movs	r5, r0
 8002c1c:	35f1      	adds	r5, #241	@ 0xf1
 8002c1e:	782b      	ldrb	r3, [r5, #0]
{
 8002c20:	0004      	movs	r4, r0
    if (!log->dirty) return;
 8002c22:	2b00      	cmp	r3, #0
 8002c24:	d009      	beq.n	8002c3a <Storage_FlushDrinkLog+0x22>
    Flash_ErasePage(STORAGE_LOG_A_ADDR);
 8002c26:	4805      	ldr	r0, [pc, #20]	@ (8002c3c <Storage_FlushDrinkLog+0x24>)
 8002c28:	f7ff ff50 	bl	8002acc <Flash_ErasePage.isra.0>
    Flash_WriteBytes(STORAGE_LOG_A_ADDR, (const uint8_t *)log,
 8002c2c:	22f4      	movs	r2, #244	@ 0xf4
 8002c2e:	0021      	movs	r1, r4
 8002c30:	4802      	ldr	r0, [pc, #8]	@ (8002c3c <Storage_FlushDrinkLog+0x24>)
 8002c32:	f7ff ff2f 	bl	8002a94 <Flash_WriteBytes.isra.0>
                     sizeof(DrinkLog_t));
    log->dirty = 0;
 8002c36:	2300      	movs	r3, #0
 8002c38:	702b      	strb	r3, [r5, #0]
}
 8002c3a:	bd70      	pop	{r4, r5, r6, pc}
 8002c3c:	08007400 	.word	0x08007400

08002c40 <Storage_LoadDrinkLog>:

void Storage_LoadDrinkLog(DrinkLog_t *log)
{
 8002c40:	b510      	push	{r4, lr}
 8002c42:	0004      	movs	r4, r0
    memcpy(out, (const void *)addr, len);
 8002c44:	22f4      	movs	r2, #244	@ 0xf4
 8002c46:	4907      	ldr	r1, [pc, #28]	@ (8002c64 <Storage_LoadDrinkLog+0x24>)
 8002c48:	f004 fdc2 	bl	80077d0 <memcpy>
    Flash_ReadBytes(STORAGE_LOG_A_ADDR, (uint8_t *)log, sizeof(DrinkLog_t));
    if (log->count > STORAGE_MAX_DRINK_EVENTS)
 8002c4c:	0023      	movs	r3, r4
 8002c4e:	33f0      	adds	r3, #240	@ 0xf0
 8002c50:	781b      	ldrb	r3, [r3, #0]
 8002c52:	2b14      	cmp	r3, #20
 8002c54:	d904      	bls.n	8002c60 <Storage_LoadDrinkLog+0x20>
        memset(log, 0, sizeof(DrinkLog_t));
 8002c56:	22f4      	movs	r2, #244	@ 0xf4
 8002c58:	2100      	movs	r1, #0
 8002c5a:	0020      	movs	r0, r4
 8002c5c:	f004 fd8c 	bl	8007778 <memset>
}
 8002c60:	bd10      	pop	{r4, pc}
 8002c62:	46c0      	nop			@ (mov r8, r8)
 8002c64:	08007400 	.word	0x08007400

08002c68 <Storage_UpdateDailySummary>:

/* ─── Daily summary ─────────────────────────────────────────── */
void Storage_UpdateDailySummary(DailySummaryLog_t *daily,
                                 DrinkLog_t *log,
                                 uint32_t today_unix)
{
 8002c68:	b5f0      	push	{r4, r5, r6, r7, lr}
 8002c6a:	0004      	movs	r4, r0
 8002c6c:	b085      	sub	sp, #20
 8002c6e:	0010      	movs	r0, r2
 8002c70:	000d      	movs	r5, r1
    uint32_t midnight = (today_unix / 86400UL) * 86400UL;
 8002c72:	493c      	ldr	r1, [pc, #240]	@ (8002d64 <Storage_UpdateDailySummary+0xfc>)
 8002c74:	f7fd fa64 	bl	8000140 <__udivsi3>
 8002c78:	4b3a      	ldr	r3, [pc, #232]	@ (8002d64 <Storage_UpdateDailySummary+0xfc>)
    int8_t today_idx = -1;
    for (uint8_t i = 0; i < daily->count; i++)
 8002c7a:	0026      	movs	r6, r4
    uint32_t midnight = (today_unix / 86400UL) * 86400UL;
 8002c7c:	4343      	muls	r3, r0
        if (daily->days[i].date_unix == midnight) { today_idx = (int8_t)i; break; }
 8002c7e:	0020      	movs	r0, r4
 8002c80:	380c      	subs	r0, #12
    uint32_t midnight = (today_unix / 86400UL) * 86400UL;
 8002c82:	9302      	str	r3, [sp, #8]
        if (daily->days[i].date_unix == midnight) { today_idx = (int8_t)i; break; }
 8002c84:	0007      	movs	r7, r0
    for (uint8_t i = 0; i < daily->count; i++)
 8002c86:	2300      	movs	r3, #0
 8002c88:	3654      	adds	r6, #84	@ 0x54
 8002c8a:	7832      	ldrb	r2, [r6, #0]
 8002c8c:	b2d9      	uxtb	r1, r3
 8002c8e:	428a      	cmp	r2, r1
 8002c90:	d81b      	bhi.n	8002cca <Storage_UpdateDailySummary+0x62>

    if (today_idx < 0) {
        if (daily->count >= STORAGE_MAX_DAILY_DAYS) {
 8002c92:	2a07      	cmp	r2, #7
 8002c94:	d107      	bne.n	8002ca6 <Storage_UpdateDailySummary+0x3e>
            memmove(&daily->days[0], &daily->days[1],
 8002c96:	0021      	movs	r1, r4
 8002c98:	0020      	movs	r0, r4
 8002c9a:	3241      	adds	r2, #65	@ 0x41
 8002c9c:	310c      	adds	r1, #12
 8002c9e:	f004 fd59 	bl	8007754 <memmove>
                    sizeof(DailySummary_t) * (STORAGE_MAX_DAILY_DAYS - 1U));
            daily->count = STORAGE_MAX_DAILY_DAYS - 1U;
 8002ca2:	2306      	movs	r3, #6
 8002ca4:	7033      	strb	r3, [r6, #0]
        }
        today_idx = (int8_t)daily->count++;
 8002ca6:	7833      	ldrb	r3, [r6, #0]
        memset(&daily->days[today_idx], 0, sizeof(DailySummary_t));
 8002ca8:	2100      	movs	r1, #0
        today_idx = (int8_t)daily->count++;
 8002caa:	1c5a      	adds	r2, r3, #1
 8002cac:	b25b      	sxtb	r3, r3
        memset(&daily->days[today_idx], 0, sizeof(DailySummary_t));
 8002cae:	001f      	movs	r7, r3
        today_idx = (int8_t)daily->count++;
 8002cb0:	7032      	strb	r2, [r6, #0]
        memset(&daily->days[today_idx], 0, sizeof(DailySummary_t));
 8002cb2:	220c      	movs	r2, #12
 8002cb4:	4357      	muls	r7, r2
 8002cb6:	19e6      	adds	r6, r4, r7
 8002cb8:	0030      	movs	r0, r6
        today_idx = (int8_t)daily->count++;
 8002cba:	9301      	str	r3, [sp, #4]
        memset(&daily->days[today_idx], 0, sizeof(DailySummary_t));
 8002cbc:	f004 fd5c 	bl	8007778 <memset>
        daily->days[today_idx].date_unix = midnight;
 8002cc0:	9b02      	ldr	r3, [sp, #8]
 8002cc2:	513b      	str	r3, [r7, r4]
        daily->days[today_idx].valid     = 1;
 8002cc4:	2301      	movs	r3, #1
 8002cc6:	72b3      	strb	r3, [r6, #10]
 8002cc8:	e009      	b.n	8002cde <Storage_UpdateDailySummary+0x76>
        if (daily->days[i].date_unix == midnight) { today_idx = (int8_t)i; break; }
 8002cca:	200c      	movs	r0, #12
 8002ccc:	1c59      	adds	r1, r3, #1
 8002cce:	4348      	muls	r0, r1
 8002cd0:	5838      	ldr	r0, [r7, r0]
 8002cd2:	4684      	mov	ip, r0
 8002cd4:	9802      	ldr	r0, [sp, #8]
 8002cd6:	4584      	cmp	ip, r0
 8002cd8:	d12e      	bne.n	8002d38 <Storage_UpdateDailySummary+0xd0>
 8002cda:	b25b      	sxtb	r3, r3
 8002cdc:	9301      	str	r3, [sp, #4]
    }

    uint32_t total_ml = 0, sum_ppm = 0;
    int32_t  sum_temp = 0;
    uint16_t cnt = 0;
    for (uint8_t i = 0; i < log->count; i++) {
 8002cde:	002b      	movs	r3, r5
 8002ce0:	33f0      	adds	r3, #240	@ 0xf0
 8002ce2:	781a      	ldrb	r2, [r3, #0]
 8002ce4:	230c      	movs	r3, #12
    uint16_t cnt = 0;
 8002ce6:	2600      	movs	r6, #0
 8002ce8:	4353      	muls	r3, r2
        if (log->events[i].unix_time >= midnight &&
            log->events[i].unix_time <  midnight + 86400UL) {
 8002cea:	491e      	ldr	r1, [pc, #120]	@ (8002d64 <Storage_UpdateDailySummary+0xfc>)
 8002cec:	9a02      	ldr	r2, [sp, #8]
 8002cee:	18ef      	adds	r7, r5, r3
 8002cf0:	1852      	adds	r2, r2, r1
    uint32_t total_ml = 0, sum_ppm = 0;
 8002cf2:	0030      	movs	r0, r6
 8002cf4:	0033      	movs	r3, r6
            log->events[i].unix_time <  midnight + 86400UL) {
 8002cf6:	4694      	mov	ip, r2
    int32_t  sum_temp = 0;
 8002cf8:	9603      	str	r6, [sp, #12]
    for (uint8_t i = 0; i < log->count; i++) {
 8002cfa:	42bd      	cmp	r5, r7
 8002cfc:	d11e      	bne.n	8002d3c <Storage_UpdateDailySummary+0xd4>
            sum_ppm  += log->events[i].purity_ppm;
            sum_temp += log->events[i].temp_x10;
            cnt++;
        }
    }
    daily->days[today_idx].total_ml       = (uint16_t)total_ml;
 8002cfe:	250c      	movs	r5, #12
 8002d00:	9a01      	ldr	r2, [sp, #4]
 8002d02:	4355      	muls	r5, r2
    daily->days[today_idx].avg_purity_ppm = cnt ? (uint16_t)(sum_ppm / cnt) : 0U;
    daily->days[today_idx].avg_temp_x10   = cnt ? (int16_t)(sum_temp / cnt) : 0;
 8002d04:	2200      	movs	r2, #0
 8002d06:	1965      	adds	r5, r4, r5
    daily->days[today_idx].total_ml       = (uint16_t)total_ml;
 8002d08:	80ab      	strh	r3, [r5, #4]
    daily->days[today_idx].avg_purity_ppm = cnt ? (uint16_t)(sum_ppm / cnt) : 0U;
 8002d0a:	4296      	cmp	r6, r2
 8002d0c:	d009      	beq.n	8002d22 <Storage_UpdateDailySummary+0xba>
 8002d0e:	0031      	movs	r1, r6
 8002d10:	f7fd fa16 	bl	8000140 <__udivsi3>
    daily->days[today_idx].avg_temp_x10   = cnt ? (int16_t)(sum_temp / cnt) : 0;
 8002d14:	0031      	movs	r1, r6
    daily->days[today_idx].avg_purity_ppm = cnt ? (uint16_t)(sum_ppm / cnt) : 0U;
 8002d16:	b287      	uxth	r7, r0
    daily->days[today_idx].avg_temp_x10   = cnt ? (int16_t)(sum_temp / cnt) : 0;
 8002d18:	9803      	ldr	r0, [sp, #12]
 8002d1a:	f7fd fa9b 	bl	8000254 <__divsi3>
    daily->days[today_idx].avg_purity_ppm = cnt ? (uint16_t)(sum_ppm / cnt) : 0U;
 8002d1e:	003e      	movs	r6, r7
    daily->days[today_idx].avg_temp_x10   = cnt ? (int16_t)(sum_temp / cnt) : 0;
 8002d20:	b202      	sxth	r2, r0
 8002d22:	230c      	movs	r3, #12
 8002d24:	9901      	ldr	r1, [sp, #4]
 8002d26:	80ee      	strh	r6, [r5, #6]
 8002d28:	434b      	muls	r3, r1
 8002d2a:	18e3      	adds	r3, r4, r3
 8002d2c:	811a      	strh	r2, [r3, #8]
    daily->dirty = 1;
 8002d2e:	2301      	movs	r3, #1
 8002d30:	3455      	adds	r4, #85	@ 0x55
 8002d32:	7023      	strb	r3, [r4, #0]
}
 8002d34:	b005      	add	sp, #20
 8002d36:	bdf0      	pop	{r4, r5, r6, r7, pc}
 8002d38:	000b      	movs	r3, r1
 8002d3a:	e7a7      	b.n	8002c8c <Storage_UpdateDailySummary+0x24>
        if (log->events[i].unix_time >= midnight &&
 8002d3c:	682a      	ldr	r2, [r5, #0]
 8002d3e:	9902      	ldr	r1, [sp, #8]
 8002d40:	428a      	cmp	r2, r1
 8002d42:	d30c      	bcc.n	8002d5e <Storage_UpdateDailySummary+0xf6>
 8002d44:	4562      	cmp	r2, ip
 8002d46:	d20a      	bcs.n	8002d5e <Storage_UpdateDailySummary+0xf6>
            total_ml += log->events[i].volume_ml;
 8002d48:	88aa      	ldrh	r2, [r5, #4]
            cnt++;
 8002d4a:	3601      	adds	r6, #1
            total_ml += log->events[i].volume_ml;
 8002d4c:	189b      	adds	r3, r3, r2
            sum_ppm  += log->events[i].purity_ppm;
 8002d4e:	88ea      	ldrh	r2, [r5, #6]
            cnt++;
 8002d50:	b2b6      	uxth	r6, r6
            sum_ppm  += log->events[i].purity_ppm;
 8002d52:	1880      	adds	r0, r0, r2
            sum_temp += log->events[i].temp_x10;
 8002d54:	2108      	movs	r1, #8
 8002d56:	5e6a      	ldrsh	r2, [r5, r1]
 8002d58:	9903      	ldr	r1, [sp, #12]
 8002d5a:	188a      	adds	r2, r1, r2
 8002d5c:	9203      	str	r2, [sp, #12]
    for (uint8_t i = 0; i < log->count; i++) {
 8002d5e:	350c      	adds	r5, #12
 8002d60:	e7cb      	b.n	8002cfa <Storage_UpdateDailySummary+0x92>
 8002d62:	46c0      	nop			@ (mov r8, r8)
 8002d64:	00015180 	.word	0x00015180

08002d68 <Storage_FlushDailySummary>:

void Storage_FlushDailySummary(DailySummaryLog_t *daily)
{
 8002d68:	b570      	push	{r4, r5, r6, lr}
    if (!daily->dirty) return;
 8002d6a:	0005      	movs	r5, r0
 8002d6c:	3555      	adds	r5, #85	@ 0x55
 8002d6e:	782b      	ldrb	r3, [r5, #0]
{
 8002d70:	0004      	movs	r4, r0
    if (!daily->dirty) return;
 8002d72:	2b00      	cmp	r3, #0
 8002d74:	d009      	beq.n	8002d8a <Storage_FlushDailySummary+0x22>
    Flash_ErasePage(STORAGE_DAILY_ADDR);
 8002d76:	4805      	ldr	r0, [pc, #20]	@ (8002d8c <Storage_FlushDailySummary+0x24>)
 8002d78:	f7ff fea8 	bl	8002acc <Flash_ErasePage.isra.0>
    Flash_WriteBytes(STORAGE_DAILY_ADDR, (const uint8_t *)daily,
 8002d7c:	2258      	movs	r2, #88	@ 0x58
 8002d7e:	0021      	movs	r1, r4
 8002d80:	4802      	ldr	r0, [pc, #8]	@ (8002d8c <Storage_FlushDailySummary+0x24>)
 8002d82:	f7ff fe87 	bl	8002a94 <Flash_WriteBytes.isra.0>
                     sizeof(DailySummaryLog_t));
    daily->dirty = 0;
 8002d86:	2300      	movs	r3, #0
 8002d88:	702b      	strb	r3, [r5, #0]
}
 8002d8a:	bd70      	pop	{r4, r5, r6, pc}
 8002d8c:	08007c00 	.word	0x08007c00

08002d90 <Storage_LoadDailySummary>:

void Storage_LoadDailySummary(DailySummaryLog_t *daily)
{
 8002d90:	b510      	push	{r4, lr}
 8002d92:	0004      	movs	r4, r0
    memcpy(out, (const void *)addr, len);
 8002d94:	2258      	movs	r2, #88	@ 0x58
 8002d96:	4907      	ldr	r1, [pc, #28]	@ (8002db4 <Storage_LoadDailySummary+0x24>)
 8002d98:	f004 fd1a 	bl	80077d0 <memcpy>
    Flash_ReadBytes(STORAGE_DAILY_ADDR, (uint8_t *)daily,
                    sizeof(DailySummaryLog_t));
    if (daily->count > STORAGE_MAX_DAILY_DAYS)
 8002d9c:	0023      	movs	r3, r4
 8002d9e:	3354      	adds	r3, #84	@ 0x54
 8002da0:	781b      	ldrb	r3, [r3, #0]
 8002da2:	2b07      	cmp	r3, #7
 8002da4:	d904      	bls.n	8002db0 <Storage_LoadDailySummary+0x20>
        memset(daily, 0, sizeof(DailySummaryLog_t));
 8002da6:	2258      	movs	r2, #88	@ 0x58
 8002da8:	2100      	movs	r1, #0
 8002daa:	0020      	movs	r0, r4
 8002dac:	f004 fce4 	bl	8007778 <memset>
}
 8002db0:	bd10      	pop	{r4, pc}
 8002db2:	46c0      	nop			@ (mov r8, r8)
 8002db4:	08007c00 	.word	0x08007c00

08002db8 <Storage_PurgeDailySummaryOlderThan>:

void Storage_PurgeDailySummaryOlderThan(DailySummaryLog_t *daily,
                                          uint32_t cutoff_unix)
{
 8002db8:	b5f0      	push	{r4, r5, r6, r7, lr}
 8002dba:	b085      	sub	sp, #20
 8002dbc:	9102      	str	r1, [sp, #8]
    uint8_t new_count = 0;
    for (uint8_t i = 0; i < daily->count; i++)
 8002dbe:	0001      	movs	r1, r0
 8002dc0:	240c      	movs	r4, #12
 8002dc2:	3154      	adds	r1, #84	@ 0x54
 8002dc4:	780b      	ldrb	r3, [r1, #0]
 8002dc6:	0002      	movs	r2, r0
 8002dc8:	4363      	muls	r3, r4
 8002dca:	181b      	adds	r3, r3, r0
 8002dcc:	9301      	str	r3, [sp, #4]
 8002dce:	46a4      	mov	ip, r4
    uint8_t new_count = 0;
 8002dd0:	2300      	movs	r3, #0
    for (uint8_t i = 0; i < daily->count; i++)
 8002dd2:	9c01      	ldr	r4, [sp, #4]
 8002dd4:	42a2      	cmp	r2, r4
 8002dd6:	d105      	bne.n	8002de4 <Storage_PurgeDailySummaryOlderThan+0x2c>
        if (daily->days[i].date_unix >= cutoff_unix)
            daily->days[new_count++] = daily->days[i];
    daily->count = new_count;
 8002dd8:	700b      	strb	r3, [r1, #0]
    daily->dirty = 1;
 8002dda:	2301      	movs	r3, #1
 8002ddc:	3055      	adds	r0, #85	@ 0x55
 8002dde:	7003      	strb	r3, [r0, #0]
}
 8002de0:	b005      	add	sp, #20
 8002de2:	bdf0      	pop	{r4, r5, r6, r7, pc}
        if (daily->days[i].date_unix >= cutoff_unix)
 8002de4:	6815      	ldr	r5, [r2, #0]
 8002de6:	9c02      	ldr	r4, [sp, #8]
 8002de8:	42a5      	cmp	r5, r4
 8002dea:	d309      	bcc.n	8002e00 <Storage_PurgeDailySummaryOlderThan+0x48>
            daily->days[new_count++] = daily->days[i];
 8002dec:	1c5c      	adds	r4, r3, #1
 8002dee:	9403      	str	r4, [sp, #12]
 8002df0:	4664      	mov	r4, ip
 8002df2:	4363      	muls	r3, r4
 8002df4:	0014      	movs	r4, r2
 8002df6:	18c3      	adds	r3, r0, r3
 8002df8:	cce0      	ldmia	r4!, {r5, r6, r7}
 8002dfa:	c3e0      	stmia	r3!, {r5, r6, r7}
 8002dfc:	466b      	mov	r3, sp
 8002dfe:	7b1b      	ldrb	r3, [r3, #12]
    for (uint8_t i = 0; i < daily->count; i++)
 8002e00:	320c      	adds	r2, #12
 8002e02:	e7e6      	b.n	8002dd2 <Storage_PurgeDailySummaryOlderThan+0x1a>

08002e04 <Storage_FactoryReset>:

void Storage_FactoryReset(void)
{
 8002e04:	b510      	push	{r4, lr}
    Flash_ErasePage(STORAGE_SETTINGS_ADDR);
 8002e06:	4806      	ldr	r0, [pc, #24]	@ (8002e20 <Storage_FactoryReset+0x1c>)
 8002e08:	f7ff fe60 	bl	8002acc <Flash_ErasePage.isra.0>
    Flash_ErasePage(STORAGE_LOG_A_ADDR);
 8002e0c:	4805      	ldr	r0, [pc, #20]	@ (8002e24 <Storage_FactoryReset+0x20>)
 8002e0e:	f7ff fe5d 	bl	8002acc <Flash_ErasePage.isra.0>
    Flash_ErasePage(STORAGE_LOG_B_ADDR);
 8002e12:	4805      	ldr	r0, [pc, #20]	@ (8002e28 <Storage_FactoryReset+0x24>)
 8002e14:	f7ff fe5a 	bl	8002acc <Flash_ErasePage.isra.0>
    Flash_ErasePage(STORAGE_DAILY_ADDR);
 8002e18:	4804      	ldr	r0, [pc, #16]	@ (8002e2c <Storage_FactoryReset+0x28>)
 8002e1a:	f7ff fe57 	bl	8002acc <Flash_ErasePage.isra.0>
}
 8002e1e:	bd10      	pop	{r4, pc}
 8002e20:	08007000 	.word	0x08007000
 8002e24:	08007400 	.word	0x08007400
 8002e28:	08007800 	.word	0x08007800
 8002e2c:	08007c00 	.word	0x08007c00

08002e30 <OnEnterState>:
#pragma GCC optimize("Os")
#include "device_state.h"
#include <string.h>

static void OnEnterState(DeviceContext_t *ctx, DeviceState_t new_state)
{
 8002e30:	b570      	push	{r4, r5, r6, lr}
    ctx->state            = new_state;
 8002e32:	7001      	strb	r1, [r0, #0]
{
 8002e34:	0005      	movs	r5, r0
 8002e36:	000c      	movs	r4, r1
    ctx->state_entry_tick = HAL_GetTick();
 8002e38:	f001 fc5e 	bl	80046f8 <HAL_GetTick>
 8002e3c:	6068      	str	r0, [r5, #4]

    switch (new_state) {
 8002e3e:	1e60      	subs	r0, r4, #1
 8002e40:	2809      	cmp	r0, #9
 8002e42:	d810      	bhi.n	8002e66 <OnEnterState+0x36>
 8002e44:	f7fd f968 	bl	8000118 <__gnu_thumb1_case_uqi>
 8002e48:	12100c05 	.word	0x12100c05
 8002e4c:	2a1b1917 	.word	0x2a1b1917
 8002e50:	2520      	.short	0x2520
    case DEV_STATE_UNREGISTERED:
        WS2812B_SetPattern(LED_PATTERN_REGISTRATION);
 8002e52:	200d      	movs	r0, #13
 8002e54:	f001 f980 	bl	8004158 <WS2812B_SetPattern>
        Buzzer_Play(BUZZER_STARTUP);
 8002e58:	2001      	movs	r0, #1
        WS2812B_SetPattern(LED_PATTERN_FACTORY_RESET_WARN);
        Buzzer_Play(BUZZER_FACTORY_RESET);
        break;
    case DEV_STATE_ERROR:
        WS2812B_SetPattern(LED_PATTERN_ERROR);
        Buzzer_Play(BUZZER_ERROR);
 8002e5a:	f7ff fd8f 	bl	800297c <Buzzer_Play>
        break;
 8002e5e:	e002      	b.n	8002e66 <OnEnterState+0x36>
        WS2812B_SetPattern(LED_PATTERN_REGISTRATION);
 8002e60:	200d      	movs	r0, #13
        WS2812B_SetPattern(LED_PATTERN_CHARGING_BAR);
 8002e62:	f001 f979 	bl	8004158 <WS2812B_SetPattern>
        HAL_NVIC_SystemReset();
        break;
    default:
        break;
    }
}
 8002e66:	bd70      	pop	{r4, r5, r6, pc}
        WS2812B_SetPattern(LED_PATTERN_CALIBRATION);
 8002e68:	2006      	movs	r0, #6
 8002e6a:	e7fa      	b.n	8002e62 <OnEnterState+0x32>
        WS2812B_SetPattern(LED_PATTERN_ALL_OFF);
 8002e6c:	2010      	movs	r0, #16
 8002e6e:	f001 f973 	bl	8004158 <WS2812B_SetPattern>
        Buzzer_Play(BUZZER_REGISTRATION_OK);
 8002e72:	200b      	movs	r0, #11
 8002e74:	e7f1      	b.n	8002e5a <OnEnterState+0x2a>
        WS2812B_SetPattern(LED_PATTERN_LAMP_MODE);
 8002e76:	200b      	movs	r0, #11
 8002e78:	e7f3      	b.n	8002e62 <OnEnterState+0x32>
        WS2812B_SetPattern(LED_PATTERN_CHARGING_BAR);
 8002e7a:	2009      	movs	r0, #9
 8002e7c:	e7f1      	b.n	8002e62 <OnEnterState+0x32>
        WS2812B_SetPattern(LED_PATTERN_LOW_BATTERY);
 8002e7e:	200a      	movs	r0, #10
 8002e80:	f001 f96a 	bl	8004158 <WS2812B_SetPattern>
        Buzzer_Play(BUZZER_LOW_BATTERY);
 8002e84:	2007      	movs	r0, #7
 8002e86:	e7e8      	b.n	8002e5a <OnEnterState+0x2a>
        WS2812B_SetPattern(LED_PATTERN_FACTORY_RESET_WARN);
 8002e88:	200e      	movs	r0, #14
 8002e8a:	f001 f965 	bl	8004158 <WS2812B_SetPattern>
        Buzzer_Play(BUZZER_FACTORY_RESET);
 8002e8e:	2008      	movs	r0, #8
 8002e90:	e7e3      	b.n	8002e5a <OnEnterState+0x2a>
        WS2812B_SetPattern(LED_PATTERN_ERROR);
 8002e92:	200f      	movs	r0, #15
 8002e94:	f001 f960 	bl	8004158 <WS2812B_SetPattern>
        Buzzer_Play(BUZZER_ERROR);
 8002e98:	200a      	movs	r0, #10
 8002e9a:	e7de      	b.n	8002e5a <OnEnterState+0x2a>
        HAL_NVIC_SystemReset();
 8002e9c:	f001 ffc0 	bl	8004e20 <HAL_NVIC_SystemReset>
}
 8002ea0:	e7e1      	b.n	8002e66 <OnEnterState+0x36>

08002ea2 <Device_Init>:

void Device_Init(DeviceContext_t *ctx)
{
 8002ea2:	b510      	push	{r4, lr}
    memset(ctx, 0, sizeof(DeviceContext_t));
 8002ea4:	2210      	movs	r2, #16
 8002ea6:	2100      	movs	r1, #0
 8002ea8:	f004 fc66 	bl	8007778 <memset>
    ctx->state         = DEV_STATE_BOOT;
    ctx->pending_event = EVT_NONE;
}
 8002eac:	bd10      	pop	{r4, pc}

08002eae <Device_SetInitialState>:
 * after loading settings so the device begins in UNREGISTERED (first use)
 * or ACTIVE (returning user) — instead of being stuck in BOOT, which the
 * run loop ignores.  This was the bug that prevented the PRD power-on flow
 * from ever starting. */
void Device_SetInitialState(DeviceContext_t *ctx, DeviceState_t state)
{
 8002eae:	b510      	push	{r4, lr}
    OnEnterState(ctx, state);
 8002eb0:	f7ff ffbe 	bl	8002e30 <OnEnterState>
}
 8002eb4:	bd10      	pop	{r4, pc}

08002eb6 <Device_PostEvent>:

void Device_PostEvent(DeviceContext_t *ctx, DeviceEvent_t evt)
{
    ctx->pending_event = evt;
 8002eb6:	7041      	strb	r1, [r0, #1]
}
 8002eb8:	4770      	bx	lr
	...

08002ebc <Device_Run>:

void Device_Run(DeviceContext_t *ctx)
{
    DeviceEvent_t evt = ctx->pending_event;
    ctx->pending_event = EVT_NONE;
 8002ebc:	2200      	movs	r2, #0
{
 8002ebe:	b510      	push	{r4, lr}
    DeviceEvent_t evt = ctx->pending_event;
 8002ec0:	7843      	ldrb	r3, [r0, #1]
{
 8002ec2:	0004      	movs	r4, r0
    ctx->pending_event = EVT_NONE;
 8002ec4:	7042      	strb	r2, [r0, #1]
    if (evt == EVT_NONE) return;
 8002ec6:	4293      	cmp	r3, r2
 8002ec8:	d019      	beq.n	8002efe <Device_Run+0x42>

    DeviceState_t cur = ctx->state;

    switch (cur) {
 8002eca:	7800      	ldrb	r0, [r0, #0]
 8002ecc:	3801      	subs	r0, #1
 8002ece:	2809      	cmp	r0, #9
 8002ed0:	d815      	bhi.n	8002efe <Device_Run+0x42>
 8002ed2:	f7fd f921 	bl	8000118 <__gnu_thumb1_case_uqi>
 8002ed6:	0c05      	.short	0x0c05
 8002ed8:	32271815 	.word	0x32271815
 8002edc:	443c1437 	.word	0x443c1437

    case DEV_STATE_UNREGISTERED:
        /* PRD §4: first-time unit waits to be registered.  Accept the
         * register command (→ pairing) and also a direct calibration
         * command in case the app calibrates as part of registration. */
        if (evt == EVT_CMD_REGISTER)    OnEnterState(ctx, DEV_STATE_PAIRING);
 8002ee0:	2b04      	cmp	r3, #4
 8002ee2:	d148      	bne.n	8002f76 <Device_Run+0xba>
 8002ee4:	2102      	movs	r1, #2
        if (evt == EVT_CALIBRATION_DONE) OnEnterState(ctx, DEV_STATE_ACTIVE);
        break;

    case DEV_STATE_ACTIVE:
        if (evt == EVT_CHARGER_CONNECTED) {
            if (ctx->lamp_mode_active) OnEnterState(ctx, DEV_STATE_LAMP_MODE);
 8002ee6:	0020      	movs	r0, r4
 8002ee8:	f7ff ffa2 	bl	8002e30 <OnEnterState>
            else                       OnEnterState(ctx, DEV_STATE_CHARGING);
        }
        if (evt == EVT_BATTERY_LOW)       OnEnterState(ctx, DEV_STATE_LOW_BATTERY);
 8002eec:	e007      	b.n	8002efe <Device_Run+0x42>
        if (evt == EVT_CMD_CALIBRATION)  OnEnterState(ctx, DEV_STATE_CALIBRATING);
 8002eee:	2b05      	cmp	r3, #5
 8002ef0:	d043      	beq.n	8002f7a <Device_Run+0xbe>
        if (evt == EVT_CALIBRATION_DONE) OnEnterState(ctx, DEV_STATE_ACTIVE);
 8002ef2:	2b06      	cmp	r3, #6
 8002ef4:	d101      	bne.n	8002efa <Device_Run+0x3e>
        if (evt == EVT_CMD_CALIBRATION)   OnEnterState(ctx, DEV_STATE_CALIBRATING);
        break;

    case DEV_STATE_LAMP_MODE:
        if (evt == EVT_CMD_LAMP_OFF)          { ctx->lamp_mode_active = 0; OnEnterState(ctx, DEV_STATE_CHARGING); }
        if (evt == EVT_CHARGER_DISCONNECTED)  { ctx->lamp_mode_active = 0; OnEnterState(ctx, DEV_STATE_ACTIVE);   }
 8002ef6:	2104      	movs	r1, #4
 8002ef8:	e7f5      	b.n	8002ee6 <Device_Run+0x2a>
        if (evt == EVT_CMD_REGISTER)     OnEnterState(ctx, DEV_STATE_PAIRING);
 8002efa:	2b04      	cmp	r3, #4
 8002efc:	d0f2      	beq.n	8002ee4 <Device_Run+0x28>
        break;

    default:
        break;
    }
}
 8002efe:	bd10      	pop	{r4, pc}
        if (evt == EVT_CALIBRATION_DONE) OnEnterState(ctx, DEV_STATE_ACTIVE);
 8002f00:	2b06      	cmp	r3, #6
 8002f02:	d1fc      	bne.n	8002efe <Device_Run+0x42>
 8002f04:	e7f7      	b.n	8002ef6 <Device_Run+0x3a>
        if (evt == EVT_CHARGER_CONNECTED) {
 8002f06:	2b0c      	cmp	r3, #12
 8002f08:	d104      	bne.n	8002f14 <Device_Run+0x58>
            if (ctx->lamp_mode_active) OnEnterState(ctx, DEV_STATE_LAMP_MODE);
 8002f0a:	7b23      	ldrb	r3, [r4, #12]
 8002f0c:	2b00      	cmp	r3, #0
 8002f0e:	d00d      	beq.n	8002f2c <Device_Run+0x70>
 8002f10:	2105      	movs	r1, #5
 8002f12:	e7e8      	b.n	8002ee6 <Device_Run+0x2a>
        if (evt == EVT_BATTERY_LOW)       OnEnterState(ctx, DEV_STATE_LOW_BATTERY);
 8002f14:	2107      	movs	r1, #7
 8002f16:	2b0e      	cmp	r3, #14
 8002f18:	d0e5      	beq.n	8002ee6 <Device_Run+0x2a>
        if (evt == EVT_CMD_LAMP_ON)       { ctx->lamp_mode_active = 1; OnEnterState(ctx, DEV_STATE_LAMP_MODE); }
 8002f1a:	2b07      	cmp	r3, #7
 8002f1c:	d123      	bne.n	8002f66 <Device_Run+0xaa>
        if (evt == EVT_CMD_LAMP_ON)          { ctx->lamp_mode_active = 1; OnEnterState(ctx, DEV_STATE_LAMP_MODE); }
 8002f1e:	3b06      	subs	r3, #6
 8002f20:	7323      	strb	r3, [r4, #12]
 8002f22:	e7f5      	b.n	8002f10 <Device_Run+0x54>
        if (evt == EVT_CMD_LAMP_OFF)          { ctx->lamp_mode_active = 0; OnEnterState(ctx, DEV_STATE_CHARGING); }
 8002f24:	2b08      	cmp	r3, #8
 8002f26:	d103      	bne.n	8002f30 <Device_Run+0x74>
 8002f28:	2300      	movs	r3, #0
 8002f2a:	7323      	strb	r3, [r4, #12]
 8002f2c:	2106      	movs	r1, #6
 8002f2e:	e7da      	b.n	8002ee6 <Device_Run+0x2a>
        if (evt == EVT_CHARGER_DISCONNECTED)  { ctx->lamp_mode_active = 0; OnEnterState(ctx, DEV_STATE_ACTIVE);   }
 8002f30:	2b0d      	cmp	r3, #13
 8002f32:	d1e4      	bne.n	8002efe <Device_Run+0x42>
 8002f34:	2300      	movs	r3, #0
 8002f36:	7323      	strb	r3, [r4, #12]
 8002f38:	e7dd      	b.n	8002ef6 <Device_Run+0x3a>
        if (evt == EVT_CHARGER_DISCONNECTED) OnEnterState(ctx, DEV_STATE_ACTIVE);
 8002f3a:	2b0d      	cmp	r3, #13
 8002f3c:	d0db      	beq.n	8002ef6 <Device_Run+0x3a>
        if (evt == EVT_CMD_LAMP_ON)          { ctx->lamp_mode_active = 1; OnEnterState(ctx, DEV_STATE_LAMP_MODE); }
 8002f3e:	2b07      	cmp	r3, #7
 8002f40:	d1dd      	bne.n	8002efe <Device_Run+0x42>
 8002f42:	e7ec      	b.n	8002f1e <Device_Run+0x62>
        if (evt == EVT_BATTERY_OK)        OnEnterState(ctx, DEV_STATE_ACTIVE);
 8002f44:	2b0f      	cmp	r3, #15
 8002f46:	d0d6      	beq.n	8002ef6 <Device_Run+0x3a>
        if (evt == EVT_CHARGER_CONNECTED) OnEnterState(ctx, DEV_STATE_CHARGING);
 8002f48:	2b0c      	cmp	r3, #12
 8002f4a:	d1d8      	bne.n	8002efe <Device_Run+0x42>
 8002f4c:	e7ee      	b.n	8002f2c <Device_Run+0x70>
        if (HAL_GetTick() - ctx->state_entry_tick > 5000U) OnEnterState(ctx, DEV_STATE_ACTIVE);
 8002f4e:	f001 fbd3 	bl	80046f8 <HAL_GetTick>
 8002f52:	6863      	ldr	r3, [r4, #4]
 8002f54:	1ac0      	subs	r0, r0, r3
 8002f56:	4b0a      	ldr	r3, [pc, #40]	@ (8002f80 <Device_Run+0xc4>)
 8002f58:	4298      	cmp	r0, r3
 8002f5a:	d9d0      	bls.n	8002efe <Device_Run+0x42>
 8002f5c:	e7cb      	b.n	8002ef6 <Device_Run+0x3a>
        if (evt == EVT_CMD_SOFT_RESET) OnEnterState(ctx, DEV_STATE_SOFT_RESET_PENDING);
 8002f5e:	2b09      	cmp	r3, #9
 8002f60:	d1cd      	bne.n	8002efe <Device_Run+0x42>
 8002f62:	2108      	movs	r1, #8
 8002f64:	e7bf      	b.n	8002ee6 <Device_Run+0x2a>
        if (evt == EVT_CMD_SOFT_RESET)    OnEnterState(ctx, DEV_STATE_SOFT_RESET_PENDING);
 8002f66:	2b09      	cmp	r3, #9
 8002f68:	d0fb      	beq.n	8002f62 <Device_Run+0xa6>
        if (evt == EVT_CMD_FACTORY_RESET) OnEnterState(ctx, DEV_STATE_FACTORY_RESET_PENDING);
 8002f6a:	2109      	movs	r1, #9
 8002f6c:	2b0a      	cmp	r3, #10
 8002f6e:	d0ba      	beq.n	8002ee6 <Device_Run+0x2a>
        if (evt == EVT_SENSOR_ERROR)      OnEnterState(ctx, DEV_STATE_ERROR);
 8002f70:	210a      	movs	r1, #10
 8002f72:	2b10      	cmp	r3, #16
 8002f74:	d0b7      	beq.n	8002ee6 <Device_Run+0x2a>
        if (evt == EVT_CMD_CALIBRATION) OnEnterState(ctx, DEV_STATE_CALIBRATING);
 8002f76:	2b05      	cmp	r3, #5
 8002f78:	d1c1      	bne.n	8002efe <Device_Run+0x42>
 8002f7a:	2103      	movs	r1, #3
 8002f7c:	e7b3      	b.n	8002ee6 <Device_Run+0x2a>
 8002f7e:	46c0      	nop			@ (mov r8, r8)
 8002f80:	00001388 	.word	0x00001388

08002f84 <HX711_Init>:
#define HX711_DELAY()  do { __NOP(); __NOP(); __NOP(); __NOP(); } while(0)

void HX711_Init(HX711_Handle_t *hx)
{
    hx->tare_offset  = 0;
    hx->scale        = HX711_DEFAULT_SCALE;
 8002f84:	4b06      	ldr	r3, [pc, #24]	@ (8002fa0 <HX711_Init+0x1c>)
{
 8002f86:	b510      	push	{r4, lr}
    hx->tare_offset  = 0;
 8002f88:	2200      	movs	r2, #0
    hx->scale        = HX711_DEFAULT_SCALE;
 8002f8a:	6043      	str	r3, [r0, #4]
    hx->gain_pulses  = HX711_GAIN_128;
 8002f8c:	2301      	movs	r3, #1
    hx->tare_offset  = 0;
 8002f8e:	6002      	str	r2, [r0, #0]
    hx->gain_pulses  = HX711_GAIN_128;
 8002f90:	8103      	strh	r3, [r0, #8]
    hx->is_calibrated = 0;
    SCK_LOW();
 8002f92:	2090      	movs	r0, #144	@ 0x90
 8002f94:	2120      	movs	r1, #32
 8002f96:	05c0      	lsls	r0, r0, #23
 8002f98:	f002 fa38 	bl	800540c <HAL_GPIO_WritePin>
}
 8002f9c:	bd10      	pop	{r4, pc}
 8002f9e:	46c0      	nop			@ (mov r8, r8)
 8002fa0:	43dc0000 	.word	0x43dc0000

08002fa4 <HX711_IsReady>:

uint8_t HX711_IsReady(void)
{
    return (DOUT_READ() == GPIO_PIN_RESET) ? 1 : 0;
 8002fa4:	2090      	movs	r0, #144	@ 0x90
{
 8002fa6:	b510      	push	{r4, lr}
    return (DOUT_READ() == GPIO_PIN_RESET) ? 1 : 0;
 8002fa8:	2110      	movs	r1, #16
 8002faa:	05c0      	lsls	r0, r0, #23
 8002fac:	f002 fa28 	bl	8005400 <HAL_GPIO_ReadPin>
 8002fb0:	4243      	negs	r3, r0
 8002fb2:	4158      	adcs	r0, r3
 8002fb4:	b2c0      	uxtb	r0, r0
}
 8002fb6:	bd10      	pop	{r4, pc}

08002fb8 <HX711_ReadRaw>:

int32_t HX711_ReadRaw(HX711_Handle_t *hx)
{
 8002fb8:	b5f7      	push	{r0, r1, r2, r4, r5, r6, r7, lr}
 8002fba:	9001      	str	r0, [sp, #4]
    /* Wait for DOUT to go LOW (data ready) */
    uint32_t timeout = HAL_GetTick() + HX711_TIMEOUT_MS;
 8002fbc:	f001 fb9c 	bl	80046f8 <HAL_GetTick>
 8002fc0:	30f5      	adds	r0, #245	@ 0xf5
 8002fc2:	30ff      	adds	r0, #255	@ 0xff
 8002fc4:	0005      	movs	r5, r0
    while (!HX711_IsReady()) {
 8002fc6:	f7ff ffed 	bl	8002fa4 <HX711_IsReady>
 8002fca:	1e04      	subs	r4, r0, #0
 8002fcc:	d02e      	beq.n	800302c <HX711_ReadRaw+0x74>
    }

    uint32_t raw = 0;
    /* Read 24 bits MSB first */
    for (int8_t i = 23; i >= 0; i--) {
        SCK_HIGH(); HX711_DELAY();
 8002fce:	2690      	movs	r6, #144	@ 0x90
 8002fd0:	2517      	movs	r5, #23
    uint32_t raw = 0;
 8002fd2:	2400      	movs	r4, #0
        SCK_HIGH(); HX711_DELAY();
 8002fd4:	2720      	movs	r7, #32
 8002fd6:	05f6      	lsls	r6, r6, #23
 8002fd8:	2201      	movs	r2, #1
 8002fda:	0039      	movs	r1, r7
 8002fdc:	0030      	movs	r0, r6
 8002fde:	f002 fa15 	bl	800540c <HAL_GPIO_WritePin>
 8002fe2:	46c0      	nop			@ (mov r8, r8)
 8002fe4:	46c0      	nop			@ (mov r8, r8)
 8002fe6:	46c0      	nop			@ (mov r8, r8)
 8002fe8:	46c0      	nop			@ (mov r8, r8)
        if (DOUT_READ()) raw |= (1UL << i);
 8002fea:	2110      	movs	r1, #16
 8002fec:	0030      	movs	r0, r6
 8002fee:	f002 fa07 	bl	8005400 <HAL_GPIO_ReadPin>
 8002ff2:	2800      	cmp	r0, #0
 8002ff4:	d002      	beq.n	8002ffc <HX711_ReadRaw+0x44>
 8002ff6:	2301      	movs	r3, #1
 8002ff8:	40ab      	lsls	r3, r5
 8002ffa:	431c      	orrs	r4, r3
        SCK_LOW();  HX711_DELAY();
 8002ffc:	2200      	movs	r2, #0
 8002ffe:	0039      	movs	r1, r7
 8003000:	0030      	movs	r0, r6
 8003002:	f002 fa03 	bl	800540c <HAL_GPIO_WritePin>
 8003006:	46c0      	nop			@ (mov r8, r8)
 8003008:	46c0      	nop			@ (mov r8, r8)
 800300a:	46c0      	nop			@ (mov r8, r8)
 800300c:	46c0      	nop			@ (mov r8, r8)
    for (int8_t i = 23; i >= 0; i--) {
 800300e:	3d01      	subs	r5, #1
 8003010:	d2e2      	bcs.n	8002fd8 <HX711_ReadRaw+0x20>
    }

    /* Extra pulses select gain for NEXT conversion */
    for (uint8_t p = 0; p < hx->gain_pulses; p++) {
        SCK_HIGH(); HX711_DELAY();
 8003012:	2690      	movs	r6, #144	@ 0x90
    for (uint8_t p = 0; p < hx->gain_pulses; p++) {
 8003014:	2500      	movs	r5, #0
        SCK_HIGH(); HX711_DELAY();
 8003016:	05f6      	lsls	r6, r6, #23
    for (uint8_t p = 0; p < hx->gain_pulses; p++) {
 8003018:	9b01      	ldr	r3, [sp, #4]
 800301a:	7a1b      	ldrb	r3, [r3, #8]
 800301c:	42ab      	cmp	r3, r5
 800301e:	d80b      	bhi.n	8003038 <HX711_ReadRaw+0x80>
        SCK_LOW();  HX711_DELAY();
    }

    /* Convert from 24-bit two's complement */
    if (raw & 0x800000UL) {
 8003020:	0223      	lsls	r3, r4, #8
 8003022:	d507      	bpl.n	8003034 <HX711_ReadRaw+0x7c>
        raw |= 0xFF000000UL;   /* sign-extend to 32 bits */
 8003024:	23ff      	movs	r3, #255	@ 0xff
 8003026:	061b      	lsls	r3, r3, #24
 8003028:	431c      	orrs	r4, r3
    }

    return (int32_t)raw;
 800302a:	e003      	b.n	8003034 <HX711_ReadRaw+0x7c>
        if (HAL_GetTick() > timeout) return 0;
 800302c:	f001 fb64 	bl	80046f8 <HAL_GetTick>
 8003030:	42a8      	cmp	r0, r5
 8003032:	d9c8      	bls.n	8002fc6 <HX711_ReadRaw+0xe>
 8003034:	0020      	movs	r0, r4
}
 8003036:	bdfe      	pop	{r1, r2, r3, r4, r5, r6, r7, pc}
        SCK_HIGH(); HX711_DELAY();
 8003038:	2201      	movs	r2, #1
 800303a:	2120      	movs	r1, #32
 800303c:	0030      	movs	r0, r6
 800303e:	f002 f9e5 	bl	800540c <HAL_GPIO_WritePin>
 8003042:	46c0      	nop			@ (mov r8, r8)
 8003044:	46c0      	nop			@ (mov r8, r8)
 8003046:	46c0      	nop			@ (mov r8, r8)
 8003048:	46c0      	nop			@ (mov r8, r8)
        SCK_LOW();  HX711_DELAY();
 800304a:	2200      	movs	r2, #0
 800304c:	2120      	movs	r1, #32
 800304e:	0030      	movs	r0, r6
 8003050:	f002 f9dc 	bl	800540c <HAL_GPIO_WritePin>
 8003054:	46c0      	nop			@ (mov r8, r8)
 8003056:	46c0      	nop			@ (mov r8, r8)
 8003058:	46c0      	nop			@ (mov r8, r8)
 800305a:	46c0      	nop			@ (mov r8, r8)
    for (uint8_t p = 0; p < hx->gain_pulses; p++) {
 800305c:	3501      	adds	r5, #1
 800305e:	b2ed      	uxtb	r5, r5
 8003060:	e7da      	b.n	8003018 <HX711_ReadRaw+0x60>

08003062 <HX711_ReadGrams>:

float HX711_ReadGrams(HX711_Handle_t *hx)
{
 8003062:	b510      	push	{r4, lr}
 8003064:	0004      	movs	r4, r0
    int32_t raw = HX711_ReadRaw(hx);
 8003066:	f7ff ffa7 	bl	8002fb8 <HX711_ReadRaw>
    return (float)(raw - hx->tare_offset) / hx->scale;
 800306a:	6823      	ldr	r3, [r4, #0]
 800306c:	1ac0      	subs	r0, r0, r3
 800306e:	f7fe f9d9 	bl	8001424 <__aeabi_i2f>
 8003072:	6861      	ldr	r1, [r4, #4]
 8003074:	f7fd fc2a 	bl	80008cc <__aeabi_fdiv>
}
 8003078:	bd10      	pop	{r4, pc}

0800307a <HX711_ReadMillilitres>:

float HX711_ReadMillilitres(HX711_Handle_t *hx)
{
 800307a:	b510      	push	{r4, lr}
    /* Water: 1 g ≈ 1 ml at room temperature */
    return HX711_ReadGrams(hx);
 800307c:	f7ff fff1 	bl	8003062 <HX711_ReadGrams>
}
 8003080:	bd10      	pop	{r4, pc}

08003082 <HX711_Tare>:

void HX711_Tare(HX711_Handle_t *hx)
{
 8003082:	b570      	push	{r4, r5, r6, lr}
 8003084:	0004      	movs	r4, r0
 8003086:	2505      	movs	r5, #5
    /* Average 5 readings to reduce noise */
    int32_t sum = 0;
 8003088:	2600      	movs	r6, #0
    for (uint8_t i = 0; i < 5; i++) {
        sum += HX711_ReadRaw(hx);
 800308a:	0020      	movs	r0, r4
 800308c:	f7ff ff94 	bl	8002fb8 <HX711_ReadRaw>
    for (uint8_t i = 0; i < 5; i++) {
 8003090:	3d01      	subs	r5, #1
        sum += HX711_ReadRaw(hx);
 8003092:	1836      	adds	r6, r6, r0
    for (uint8_t i = 0; i < 5; i++) {
 8003094:	b2ed      	uxtb	r5, r5
        HAL_Delay(10);
 8003096:	200a      	movs	r0, #10
 8003098:	f001 fb34 	bl	8004704 <HAL_Delay>
    for (uint8_t i = 0; i < 5; i++) {
 800309c:	2d00      	cmp	r5, #0
 800309e:	d1f4      	bne.n	800308a <HX711_Tare+0x8>
    }
    hx->tare_offset  = sum / 5;
 80030a0:	0030      	movs	r0, r6
 80030a2:	2105      	movs	r1, #5
 80030a4:	f7fd f8d6 	bl	8000254 <__divsi3>
    hx->is_calibrated = 1;
 80030a8:	2301      	movs	r3, #1
    hx->tare_offset  = sum / 5;
 80030aa:	6020      	str	r0, [r4, #0]
    hx->is_calibrated = 1;
 80030ac:	7263      	strb	r3, [r4, #9]
}
 80030ae:	bd70      	pop	{r4, r5, r6, pc}

080030b0 <SystemClock_Config>:
/**
  * @brief System Clock Configuration
  * @retval None
  */
void SystemClock_Config(void)
{
 80030b0:	b530      	push	{r4, r5, lr}
  RCC_OscInitTypeDef RCC_OscInitStruct = {0};
  RCC_ClkInitTypeDef RCC_ClkInitStruct = {0};
 80030b2:	2410      	movs	r4, #16
{
 80030b4:	b095      	sub	sp, #84	@ 0x54
  RCC_OscInitTypeDef RCC_OscInitStruct = {0};
 80030b6:	222c      	movs	r2, #44	@ 0x2c
 80030b8:	2100      	movs	r1, #0
 80030ba:	a809      	add	r0, sp, #36	@ 0x24
 80030bc:	f004 fb5c 	bl	8007778 <memset>
  RCC_ClkInitTypeDef RCC_ClkInitStruct = {0};
 80030c0:	0022      	movs	r2, r4
 80030c2:	2100      	movs	r1, #0
 80030c4:	4668      	mov	r0, sp
 80030c6:	f004 fb57 	bl	8007778 <memset>
  RCC_PeriphCLKInitTypeDef PeriphClkInit = {0};
 80030ca:	0022      	movs	r2, r4
 80030cc:	2100      	movs	r1, #0
 80030ce:	a804      	add	r0, sp, #16
 80030d0:	f004 fb52 	bl	8007778 <memset>

  /** Initializes the RCC Oscillators according to the specified parameters
  * in the RCC_OscInitTypeDef structure.
  */
  RCC_OscInitStruct.OscillatorType = RCC_OSCILLATORTYPE_HSI|RCC_OSCILLATORTYPE_HSI14;
 80030d4:	2312      	movs	r3, #18
 80030d6:	9308      	str	r3, [sp, #32]
  RCC_OscInitStruct.HSI14State = RCC_HSI14_ON;
  RCC_OscInitStruct.HSICalibrationValue = RCC_HSICALIBRATION_DEFAULT;
  RCC_OscInitStruct.HSI14CalibrationValue = 16;
  RCC_OscInitStruct.PLL.PLLState = RCC_PLL_ON;
  RCC_OscInitStruct.PLL.PLLSource = RCC_PLLSOURCE_HSI;
  RCC_OscInitStruct.PLL.PLLMUL = RCC_PLL_MUL12;
 80030d8:	23a0      	movs	r3, #160	@ 0xa0
  RCC_OscInitStruct.HSIState = RCC_HSI_ON;
 80030da:	2501      	movs	r5, #1
  RCC_OscInitStruct.HSICalibrationValue = RCC_HSICALIBRATION_DEFAULT;
 80030dc:	940c      	str	r4, [sp, #48]	@ 0x30
  RCC_OscInitStruct.HSI14CalibrationValue = 16;
 80030de:	940e      	str	r4, [sp, #56]	@ 0x38
  RCC_OscInitStruct.PLL.PLLMUL = RCC_PLL_MUL12;
 80030e0:	039b      	lsls	r3, r3, #14
  RCC_OscInitStruct.PLL.PLLState = RCC_PLL_ON;
 80030e2:	3c0e      	subs	r4, #14
  RCC_OscInitStruct.PLL.PREDIV = RCC_PREDIV_DIV1;
  if (HAL_RCC_OscConfig(&RCC_OscInitStruct) != HAL_OK)
 80030e4:	a808      	add	r0, sp, #32
  RCC_OscInitStruct.HSIState = RCC_HSI_ON;
 80030e6:	950b      	str	r5, [sp, #44]	@ 0x2c
  RCC_OscInitStruct.HSI14State = RCC_HSI14_ON;
 80030e8:	950d      	str	r5, [sp, #52]	@ 0x34
  RCC_OscInitStruct.PLL.PLLState = RCC_PLL_ON;
 80030ea:	9410      	str	r4, [sp, #64]	@ 0x40
  RCC_OscInitStruct.PLL.PLLMUL = RCC_PLL_MUL12;
 80030ec:	9312      	str	r3, [sp, #72]	@ 0x48
  if (HAL_RCC_OscConfig(&RCC_OscInitStruct) != HAL_OK)
 80030ee:	f002 fcfd 	bl	8005aec <HAL_RCC_OscConfig>
 80030f2:	2800      	cmp	r0, #0
 80030f4:	d001      	beq.n	80030fa <SystemClock_Config+0x4a>
  \details Disables IRQ interrupts by setting the I-bit in the CPSR.
           Can only be executed in Privileged modes.
 */
__STATIC_FORCEINLINE void __disable_irq(void)
{
  __ASM volatile ("cpsid i" : : : "memory");
 80030f6:	b672      	cpsid	i
void Error_Handler(void)
{
  /* USER CODE BEGIN Error_Handler_Debug */
  /* User can add his own implementation to report the HAL error return state */
  __disable_irq();
  while (1)
 80030f8:	e7fe      	b.n	80030f8 <SystemClock_Config+0x48>
  RCC_ClkInitStruct.ClockType = RCC_CLOCKTYPE_HCLK|RCC_CLOCKTYPE_SYSCLK
 80030fa:	2307      	movs	r3, #7
  RCC_ClkInitStruct.AHBCLKDivider = RCC_SYSCLK_DIV1;
 80030fc:	9002      	str	r0, [sp, #8]
  RCC_ClkInitStruct.APB1CLKDivider = RCC_HCLK_DIV1;
 80030fe:	9003      	str	r0, [sp, #12]
  if (HAL_RCC_ClockConfig(&RCC_ClkInitStruct, FLASH_LATENCY_1) != HAL_OK)
 8003100:	0029      	movs	r1, r5
 8003102:	4668      	mov	r0, sp
  RCC_ClkInitStruct.ClockType = RCC_CLOCKTYPE_HCLK|RCC_CLOCKTYPE_SYSCLK
 8003104:	9300      	str	r3, [sp, #0]
  RCC_ClkInitStruct.SYSCLKSource = RCC_SYSCLKSOURCE_PLLCLK;
 8003106:	9401      	str	r4, [sp, #4]
  if (HAL_RCC_ClockConfig(&RCC_ClkInitStruct, FLASH_LATENCY_1) != HAL_OK)
 8003108:	f002 ff14 	bl	8005f34 <HAL_RCC_ClockConfig>
 800310c:	2800      	cmp	r0, #0
 800310e:	d001      	beq.n	8003114 <SystemClock_Config+0x64>
 8003110:	b672      	cpsid	i
  while (1)
 8003112:	e7fe      	b.n	8003112 <SystemClock_Config+0x62>
  PeriphClkInit.PeriphClockSelection = RCC_PERIPHCLK_USART1|RCC_PERIPHCLK_I2C1;
 8003114:	2321      	movs	r3, #33	@ 0x21
  PeriphClkInit.Usart1ClockSelection = RCC_USART1CLKSOURCE_PCLK1;
 8003116:	9006      	str	r0, [sp, #24]
  PeriphClkInit.I2c1ClockSelection = RCC_I2C1CLKSOURCE_HSI;
 8003118:	9007      	str	r0, [sp, #28]
  if (HAL_RCCEx_PeriphCLKConfig(&PeriphClkInit) != HAL_OK)
 800311a:	a804      	add	r0, sp, #16
  PeriphClkInit.PeriphClockSelection = RCC_PERIPHCLK_USART1|RCC_PERIPHCLK_I2C1;
 800311c:	9304      	str	r3, [sp, #16]
  if (HAL_RCCEx_PeriphCLKConfig(&PeriphClkInit) != HAL_OK)
 800311e:	f002 ff9d 	bl	800605c <HAL_RCCEx_PeriphCLKConfig>
 8003122:	2800      	cmp	r0, #0
 8003124:	d001      	beq.n	800312a <SystemClock_Config+0x7a>
 8003126:	b672      	cpsid	i
  while (1)
 8003128:	e7fe      	b.n	8003128 <SystemClock_Config+0x78>
}
 800312a:	b015      	add	sp, #84	@ 0x54
 800312c:	bd30      	pop	{r4, r5, pc}
	...

08003130 <main>:
{
 8003130:	b5f0      	push	{r4, r5, r6, r7, lr}
 8003132:	b09d      	sub	sp, #116	@ 0x74
  HAL_Init();
 8003134:	f001 fac4 	bl	80046c0 <HAL_Init>
  SystemClock_Config();
 8003138:	f7ff ffba 	bl	80030b0 <SystemClock_Config>
  GPIO_InitTypeDef GPIO_InitStruct = {0};
 800313c:	2214      	movs	r2, #20
 800313e:	2100      	movs	r1, #0
 8003140:	a814      	add	r0, sp, #80	@ 0x50
 8003142:	f004 fb19 	bl	8007778 <memset>
  __HAL_RCC_GPIOA_CLK_ENABLE();
 8003146:	2280      	movs	r2, #128	@ 0x80
 8003148:	4dcd      	ldr	r5, [pc, #820]	@ (8003480 <main+0x350>)
 800314a:	0292      	lsls	r2, r2, #10
 800314c:	696b      	ldr	r3, [r5, #20]
  HAL_GPIO_WritePin(GPIOA, HX711_SCK_Pin|TDS_DRIVE_Pin, GPIO_PIN_RESET);
 800314e:	2090      	movs	r0, #144	@ 0x90
  __HAL_RCC_GPIOA_CLK_ENABLE();
 8003150:	4313      	orrs	r3, r2
 8003152:	616b      	str	r3, [r5, #20]
 8003154:	696b      	ldr	r3, [r5, #20]
  HAL_GPIO_WritePin(GPIOA, HX711_SCK_Pin|TDS_DRIVE_Pin, GPIO_PIN_RESET);
 8003156:	2160      	movs	r1, #96	@ 0x60
  __HAL_RCC_GPIOA_CLK_ENABLE();
 8003158:	4013      	ands	r3, r2
  __HAL_RCC_GPIOB_CLK_ENABLE();
 800315a:	2280      	movs	r2, #128	@ 0x80
  __HAL_RCC_GPIOA_CLK_ENABLE();
 800315c:	9304      	str	r3, [sp, #16]
 800315e:	9b04      	ldr	r3, [sp, #16]
  __HAL_RCC_GPIOB_CLK_ENABLE();
 8003160:	696b      	ldr	r3, [r5, #20]
 8003162:	02d2      	lsls	r2, r2, #11
 8003164:	4313      	orrs	r3, r2
 8003166:	616b      	str	r3, [r5, #20]
 8003168:	696b      	ldr	r3, [r5, #20]
  HAL_GPIO_WritePin(GPIOA, HX711_SCK_Pin|TDS_DRIVE_Pin, GPIO_PIN_RESET);
 800316a:	05c0      	lsls	r0, r0, #23
  __HAL_RCC_GPIOB_CLK_ENABLE();
 800316c:	4013      	ands	r3, r2
 800316e:	9305      	str	r3, [sp, #20]
  HAL_GPIO_WritePin(GPIOA, HX711_SCK_Pin|TDS_DRIVE_Pin, GPIO_PIN_RESET);
 8003170:	2200      	movs	r2, #0
  __HAL_RCC_GPIOB_CLK_ENABLE();
 8003172:	9b05      	ldr	r3, [sp, #20]
  HAL_GPIO_WritePin(GPIOA, HX711_SCK_Pin|TDS_DRIVE_Pin, GPIO_PIN_RESET);
 8003174:	f002 f94a 	bl	800540c <HAL_GPIO_WritePin>
  GPIO_InitStruct.Pin = MOTION_INT_Pin|RTC_INT_Pin;
 8003178:	4bc2      	ldr	r3, [pc, #776]	@ (8003484 <main+0x354>)
  HAL_GPIO_Init(GPIOA, &GPIO_InitStruct);
 800317a:	2090      	movs	r0, #144	@ 0x90
  GPIO_InitStruct.Pin = MOTION_INT_Pin|RTC_INT_Pin;
 800317c:	9314      	str	r3, [sp, #80]	@ 0x50
  GPIO_InitStruct.Mode = GPIO_MODE_IT_RISING;
 800317e:	2388      	movs	r3, #136	@ 0x88
  GPIO_InitStruct.Pull = GPIO_NOPULL;
 8003180:	2400      	movs	r4, #0
  GPIO_InitStruct.Mode = GPIO_MODE_IT_RISING;
 8003182:	035b      	lsls	r3, r3, #13
  HAL_GPIO_Init(GPIOA, &GPIO_InitStruct);
 8003184:	a914      	add	r1, sp, #80	@ 0x50
 8003186:	05c0      	lsls	r0, r0, #23
  GPIO_InitStruct.Mode = GPIO_MODE_IT_RISING;
 8003188:	9315      	str	r3, [sp, #84]	@ 0x54
  GPIO_InitStruct.Pull = GPIO_NOPULL;
 800318a:	9416      	str	r4, [sp, #88]	@ 0x58
  HAL_GPIO_Init(GPIOA, &GPIO_InitStruct);
 800318c:	f002 f880 	bl	8005290 <HAL_GPIO_Init>
  HAL_GPIO_Init(GPIOA, &GPIO_InitStruct);
 8003190:	2090      	movs	r0, #144	@ 0x90
  GPIO_InitStruct.Pin = HX711_DOUT_Pin|BLE_STATE_Pin;
 8003192:	4bbd      	ldr	r3, [pc, #756]	@ (8003488 <main+0x358>)
  HAL_GPIO_Init(GPIOA, &GPIO_InitStruct);
 8003194:	a914      	add	r1, sp, #80	@ 0x50
 8003196:	05c0      	lsls	r0, r0, #23
  GPIO_InitStruct.Pin = HX711_DOUT_Pin|BLE_STATE_Pin;
 8003198:	9314      	str	r3, [sp, #80]	@ 0x50
  GPIO_InitStruct.Mode = GPIO_MODE_INPUT;
 800319a:	9415      	str	r4, [sp, #84]	@ 0x54
  GPIO_InitStruct.Pull = GPIO_NOPULL;
 800319c:	9416      	str	r4, [sp, #88]	@ 0x58
  HAL_GPIO_Init(GPIOA, &GPIO_InitStruct);
 800319e:	f002 f877 	bl	8005290 <HAL_GPIO_Init>
  HAL_GPIO_Init(GPIOA, &GPIO_InitStruct);
 80031a2:	2090      	movs	r0, #144	@ 0x90
  GPIO_InitStruct.Pin = HX711_SCK_Pin|TDS_DRIVE_Pin;
 80031a4:	2360      	movs	r3, #96	@ 0x60
  GPIO_InitStruct.Mode = GPIO_MODE_OUTPUT_PP;
 80031a6:	2601      	movs	r6, #1
  GPIO_InitStruct.Pin = CHRG_STAT_Pin|STDBY_STAT_Pin;
 80031a8:	2703      	movs	r7, #3
  HAL_GPIO_Init(GPIOA, &GPIO_InitStruct);
 80031aa:	a914      	add	r1, sp, #80	@ 0x50
 80031ac:	05c0      	lsls	r0, r0, #23
  GPIO_InitStruct.Pin = HX711_SCK_Pin|TDS_DRIVE_Pin;
 80031ae:	9314      	str	r3, [sp, #80]	@ 0x50
  GPIO_InitStruct.Mode = GPIO_MODE_OUTPUT_PP;
 80031b0:	9615      	str	r6, [sp, #84]	@ 0x54
  GPIO_InitStruct.Pull = GPIO_NOPULL;
 80031b2:	9416      	str	r4, [sp, #88]	@ 0x58
  GPIO_InitStruct.Speed = GPIO_SPEED_FREQ_LOW;
 80031b4:	9417      	str	r4, [sp, #92]	@ 0x5c
  HAL_GPIO_Init(GPIOA, &GPIO_InitStruct);
 80031b6:	f002 f86b 	bl	8005290 <HAL_GPIO_Init>
  HAL_GPIO_Init(GPIOB, &GPIO_InitStruct);
 80031ba:	48b4      	ldr	r0, [pc, #720]	@ (800348c <main+0x35c>)
 80031bc:	a914      	add	r1, sp, #80	@ 0x50
  GPIO_InitStruct.Pin = CHRG_STAT_Pin|STDBY_STAT_Pin;
 80031be:	9714      	str	r7, [sp, #80]	@ 0x50
  GPIO_InitStruct.Mode = GPIO_MODE_INPUT;
 80031c0:	9415      	str	r4, [sp, #84]	@ 0x54
  GPIO_InitStruct.Pull = GPIO_NOPULL;
 80031c2:	9416      	str	r4, [sp, #88]	@ 0x58
  HAL_GPIO_Init(GPIOB, &GPIO_InitStruct);
 80031c4:	f002 f864 	bl	8005290 <HAL_GPIO_Init>
  HAL_NVIC_SetPriority(EXTI0_1_IRQn, 0, 0);
 80031c8:	0022      	movs	r2, r4
 80031ca:	0021      	movs	r1, r4
 80031cc:	2005      	movs	r0, #5
 80031ce:	f001 fdf1 	bl	8004db4 <HAL_NVIC_SetPriority>
  HAL_NVIC_EnableIRQ(EXTI0_1_IRQn);
 80031d2:	2005      	movs	r0, #5
 80031d4:	f001 fe18 	bl	8004e08 <HAL_NVIC_EnableIRQ>
  HAL_NVIC_SetPriority(EXTI4_15_IRQn, 0, 0);
 80031d8:	0022      	movs	r2, r4
 80031da:	0021      	movs	r1, r4
 80031dc:	2007      	movs	r0, #7
 80031de:	f001 fde9 	bl	8004db4 <HAL_NVIC_SetPriority>
  HAL_NVIC_EnableIRQ(EXTI4_15_IRQn);
 80031e2:	2007      	movs	r0, #7
 80031e4:	f001 fe10 	bl	8004e08 <HAL_NVIC_EnableIRQ>
  __HAL_RCC_DMA1_CLK_ENABLE();
 80031e8:	696b      	ldr	r3, [r5, #20]
  HAL_NVIC_SetPriority(DMA1_Channel2_3_IRQn, 0, 0);
 80031ea:	0022      	movs	r2, r4
  __HAL_RCC_DMA1_CLK_ENABLE();
 80031ec:	4333      	orrs	r3, r6
 80031ee:	616b      	str	r3, [r5, #20]
 80031f0:	696b      	ldr	r3, [r5, #20]
  HAL_NVIC_SetPriority(DMA1_Channel2_3_IRQn, 0, 0);
 80031f2:	0021      	movs	r1, r4
  __HAL_RCC_DMA1_CLK_ENABLE();
 80031f4:	4033      	ands	r3, r6
  HAL_NVIC_SetPriority(DMA1_Channel2_3_IRQn, 0, 0);
 80031f6:	200a      	movs	r0, #10
  __HAL_RCC_DMA1_CLK_ENABLE();
 80031f8:	9303      	str	r3, [sp, #12]
 80031fa:	9b03      	ldr	r3, [sp, #12]
  HAL_NVIC_SetPriority(DMA1_Channel2_3_IRQn, 0, 0);
 80031fc:	f001 fdda 	bl	8004db4 <HAL_NVIC_SetPriority>
  HAL_NVIC_EnableIRQ(DMA1_Channel2_3_IRQn);
 8003200:	200a      	movs	r0, #10
 8003202:	f001 fe01 	bl	8004e08 <HAL_NVIC_EnableIRQ>
  ADC_ChannelConfTypeDef sConfig = {0};
 8003206:	220c      	movs	r2, #12
 8003208:	0021      	movs	r1, r4
 800320a:	a814      	add	r0, sp, #80	@ 0x50
 800320c:	f004 fab4 	bl	8007778 <memset>
  hadc.Instance = ADC1;
 8003210:	4d9f      	ldr	r5, [pc, #636]	@ (8003490 <main+0x360>)
 8003212:	4ba0      	ldr	r3, [pc, #640]	@ (8003494 <main+0x364>)
  if (HAL_ADC_Init(&hadc) != HAL_OK)
 8003214:	0028      	movs	r0, r5
  hadc.Instance = ADC1;
 8003216:	602b      	str	r3, [r5, #0]
  hadc.Init.EOCSelection = ADC_EOC_SINGLE_CONV;
 8003218:	2304      	movs	r3, #4
 800321a:	616b      	str	r3, [r5, #20]
  hadc.Init.ExternalTrigConv = ADC_SOFTWARE_START;
 800321c:	23c2      	movs	r3, #194	@ 0xc2
 800321e:	33ff      	adds	r3, #255	@ 0xff
 8003220:	61eb      	str	r3, [r5, #28]
  hadc.Init.DMAContinuousRequests = DISABLE;
 8003222:	1d6b      	adds	r3, r5, #5
  hadc.Init.ClockPrescaler = ADC_CLOCK_ASYNC_DIV1;
 8003224:	606c      	str	r4, [r5, #4]
  hadc.Init.Resolution = ADC_RESOLUTION_12B;
 8003226:	60ac      	str	r4, [r5, #8]
  hadc.Init.DataAlign = ADC_DATAALIGN_RIGHT;
 8003228:	60ec      	str	r4, [r5, #12]
  hadc.Init.ScanConvMode = ADC_SCAN_DIRECTION_FORWARD;
 800322a:	612e      	str	r6, [r5, #16]
  hadc.Init.LowPowerAutoWait = DISABLE;
 800322c:	61ac      	str	r4, [r5, #24]
  hadc.Init.ExternalTrigConvEdge = ADC_EXTERNALTRIGCONVEDGE_NONE;
 800322e:	622c      	str	r4, [r5, #32]
  hadc.Init.DMAContinuousRequests = DISABLE;
 8003230:	77dc      	strb	r4, [r3, #31]
  hadc.Init.Overrun = ADC_OVR_DATA_PRESERVED;
 8003232:	62ae      	str	r6, [r5, #40]	@ 0x28
  if (HAL_ADC_Init(&hadc) != HAL_OK)
 8003234:	f001 fb32 	bl	800489c <HAL_ADC_Init>
 8003238:	42a0      	cmp	r0, r4
 800323a:	d001      	beq.n	8003240 <main+0x110>
 800323c:	b672      	cpsid	i
  while (1)
 800323e:	e7fe      	b.n	800323e <main+0x10e>
  sConfig.Channel = ADC_CHANNEL_2;
 8003240:	2302      	movs	r3, #2
 8003242:	9314      	str	r3, [sp, #80]	@ 0x50
  sConfig.Rank = ADC_RANK_CHANNEL_NUMBER;
 8003244:	2380      	movs	r3, #128	@ 0x80
 8003246:	015b      	lsls	r3, r3, #5
 8003248:	9315      	str	r3, [sp, #84]	@ 0x54
  sConfig.SamplingTime = ADC_SAMPLETIME_71CYCLES_5;
 800324a:	2306      	movs	r3, #6
  if (HAL_ADC_ConfigChannel(&hadc, &sConfig) != HAL_OK)
 800324c:	0028      	movs	r0, r5
 800324e:	a914      	add	r1, sp, #80	@ 0x50
  sConfig.SamplingTime = ADC_SAMPLETIME_71CYCLES_5;
 8003250:	9316      	str	r3, [sp, #88]	@ 0x58
  if (HAL_ADC_ConfigChannel(&hadc, &sConfig) != HAL_OK)
 8003252:	f001 fce1 	bl	8004c18 <HAL_ADC_ConfigChannel>
 8003256:	2800      	cmp	r0, #0
 8003258:	d001      	beq.n	800325e <main+0x12e>
 800325a:	b672      	cpsid	i
  while (1)
 800325c:	e7fe      	b.n	800325c <main+0x12c>
  if (HAL_ADC_ConfigChannel(&hadc, &sConfig) != HAL_OK)
 800325e:	0028      	movs	r0, r5
 8003260:	a914      	add	r1, sp, #80	@ 0x50
  sConfig.Channel = ADC_CHANNEL_3;
 8003262:	9714      	str	r7, [sp, #80]	@ 0x50
  if (HAL_ADC_ConfigChannel(&hadc, &sConfig) != HAL_OK)
 8003264:	f001 fcd8 	bl	8004c18 <HAL_ADC_ConfigChannel>
 8003268:	2800      	cmp	r0, #0
 800326a:	d001      	beq.n	8003270 <main+0x140>
 800326c:	b672      	cpsid	i
  while (1)
 800326e:	e7fe      	b.n	800326e <main+0x13e>
  sConfig.Channel = ADC_CHANNEL_7;
 8003270:	2307      	movs	r3, #7
  if (HAL_ADC_ConfigChannel(&hadc, &sConfig) != HAL_OK)
 8003272:	0028      	movs	r0, r5
 8003274:	a914      	add	r1, sp, #80	@ 0x50
  sConfig.Channel = ADC_CHANNEL_7;
 8003276:	9314      	str	r3, [sp, #80]	@ 0x50
  if (HAL_ADC_ConfigChannel(&hadc, &sConfig) != HAL_OK)
 8003278:	f001 fcce 	bl	8004c18 <HAL_ADC_ConfigChannel>
 800327c:	2800      	cmp	r0, #0
 800327e:	d001      	beq.n	8003284 <main+0x154>
 8003280:	b672      	cpsid	i
  while (1)
 8003282:	e7fe      	b.n	8003282 <main+0x152>
  hi2c1.Instance = I2C1;
 8003284:	4c84      	ldr	r4, [pc, #528]	@ (8003498 <main+0x368>)
 8003286:	4b85      	ldr	r3, [pc, #532]	@ (800349c <main+0x36c>)
  hi2c1.Init.OwnAddress1 = 0;
 8003288:	60a0      	str	r0, [r4, #8]
  hi2c1.Instance = I2C1;
 800328a:	6023      	str	r3, [r4, #0]
  hi2c1.Init.Timing = 0x00201D2B;
 800328c:	4b84      	ldr	r3, [pc, #528]	@ (80034a0 <main+0x370>)
  hi2c1.Init.DualAddressMode = I2C_DUALADDRESS_DISABLE;
 800328e:	6120      	str	r0, [r4, #16]
  hi2c1.Init.OwnAddress2 = 0;
 8003290:	6160      	str	r0, [r4, #20]
  hi2c1.Init.OwnAddress2Masks = I2C_OA2_NOMASK;
 8003292:	61a0      	str	r0, [r4, #24]
  hi2c1.Init.GeneralCallMode = I2C_GENERALCALL_DISABLE;
 8003294:	61e0      	str	r0, [r4, #28]
  hi2c1.Init.NoStretchMode = I2C_NOSTRETCH_DISABLE;
 8003296:	6220      	str	r0, [r4, #32]
  if (HAL_I2C_Init(&hi2c1) != HAL_OK)
 8003298:	0020      	movs	r0, r4
  hi2c1.Init.Timing = 0x00201D2B;
 800329a:	6063      	str	r3, [r4, #4]
  hi2c1.Init.AddressingMode = I2C_ADDRESSINGMODE_7BIT;
 800329c:	60e6      	str	r6, [r4, #12]
  if (HAL_I2C_Init(&hi2c1) != HAL_OK)
 800329e:	f002 fa49 	bl	8005734 <HAL_I2C_Init>
 80032a2:	1e01      	subs	r1, r0, #0
 80032a4:	d001      	beq.n	80032aa <main+0x17a>
 80032a6:	b672      	cpsid	i
  while (1)
 80032a8:	e7fe      	b.n	80032a8 <main+0x178>
  if (HAL_I2CEx_ConfigAnalogFilter(&hi2c1, I2C_ANALOGFILTER_ENABLE) != HAL_OK)
 80032aa:	0020      	movs	r0, r4
 80032ac:	f002 fbd4 	bl	8005a58 <HAL_I2CEx_ConfigAnalogFilter>
 80032b0:	1e01      	subs	r1, r0, #0
 80032b2:	d001      	beq.n	80032b8 <main+0x188>
 80032b4:	b672      	cpsid	i
  while (1)
 80032b6:	e7fe      	b.n	80032b6 <main+0x186>
  if (HAL_I2CEx_ConfigDigitalFilter(&hi2c1, 0) != HAL_OK)
 80032b8:	0020      	movs	r0, r4
 80032ba:	f002 fbf3 	bl	8005aa4 <HAL_I2CEx_ConfigDigitalFilter>
 80032be:	1e03      	subs	r3, r0, #0
 80032c0:	d001      	beq.n	80032c6 <main+0x196>
 80032c2:	b672      	cpsid	i
  while (1)
 80032c4:	e7fe      	b.n	80032c4 <main+0x194>
  huart1.Instance = USART1;
 80032c6:	4877      	ldr	r0, [pc, #476]	@ (80034a4 <main+0x374>)
 80032c8:	4a77      	ldr	r2, [pc, #476]	@ (80034a8 <main+0x378>)
  huart1.Init.WordLength = UART_WORDLENGTH_8B;
 80032ca:	6083      	str	r3, [r0, #8]
  huart1.Instance = USART1;
 80032cc:	6002      	str	r2, [r0, #0]
  huart1.Init.BaudRate = 9600;
 80032ce:	2296      	movs	r2, #150	@ 0x96
 80032d0:	0192      	lsls	r2, r2, #6
 80032d2:	6042      	str	r2, [r0, #4]
  huart1.Init.Mode = UART_MODE_TX_RX;
 80032d4:	220c      	movs	r2, #12
  huart1.Init.StopBits = UART_STOPBITS_1;
 80032d6:	60c3      	str	r3, [r0, #12]
  huart1.Init.Parity = UART_PARITY_NONE;
 80032d8:	6103      	str	r3, [r0, #16]
  huart1.Init.Mode = UART_MODE_TX_RX;
 80032da:	6142      	str	r2, [r0, #20]
  huart1.Init.HwFlowCtl = UART_HWCONTROL_NONE;
 80032dc:	6183      	str	r3, [r0, #24]
  huart1.Init.OverSampling = UART_OVERSAMPLING_16;
 80032de:	61c3      	str	r3, [r0, #28]
  huart1.Init.OneBitSampling = UART_ONE_BIT_SAMPLE_DISABLE;
 80032e0:	6203      	str	r3, [r0, #32]
  huart1.AdvancedInit.AdvFeatureInit = UART_ADVFEATURE_NO_INIT;
 80032e2:	6243      	str	r3, [r0, #36]	@ 0x24
  if (HAL_UART_Init(&huart1) != HAL_OK)
 80032e4:	f004 f97e 	bl	80075e4 <HAL_UART_Init>
 80032e8:	1e05      	subs	r5, r0, #0
 80032ea:	d001      	beq.n	80032f0 <main+0x1c0>
 80032ec:	b672      	cpsid	i
  while (1)
 80032ee:	e7fe      	b.n	80032ee <main+0x1be>
  TIM_SlaveConfigTypeDef sSlaveConfig = {0};
 80032f0:	0001      	movs	r1, r0
 80032f2:	2214      	movs	r2, #20
 80032f4:	a808      	add	r0, sp, #32
 80032f6:	f004 fa3f 	bl	8007778 <memset>
  TIM_MasterConfigTypeDef sMasterConfig = {0};
 80032fa:	2208      	movs	r2, #8
 80032fc:	0029      	movs	r1, r5
 80032fe:	a806      	add	r0, sp, #24
 8003300:	f004 fa3a 	bl	8007778 <memset>
  TIM_OC_InitTypeDef sConfigOC = {0};
 8003304:	221c      	movs	r2, #28
 8003306:	0029      	movs	r1, r5
 8003308:	a80d      	add	r0, sp, #52	@ 0x34
 800330a:	f004 fa35 	bl	8007778 <memset>
  TIM_BreakDeadTimeConfigTypeDef sBreakDeadTimeConfig = {0};
 800330e:	2220      	movs	r2, #32
 8003310:	0029      	movs	r1, r5
 8003312:	a814      	add	r0, sp, #80	@ 0x50
 8003314:	f004 fa30 	bl	8007778 <memset>
  htim1.Instance = TIM1;
 8003318:	4c64      	ldr	r4, [pc, #400]	@ (80034ac <main+0x37c>)
 800331a:	4b65      	ldr	r3, [pc, #404]	@ (80034b0 <main+0x380>)
  htim1.Init.Period = 999;
 800331c:	4f65      	ldr	r7, [pc, #404]	@ (80034b4 <main+0x384>)
  htim1.Instance = TIM1;
 800331e:	6023      	str	r3, [r4, #0]
  htim1.Init.Prescaler = 47;
 8003320:	232f      	movs	r3, #47	@ 0x2f
  if (HAL_TIM_Base_Init(&htim1) != HAL_OK)
 8003322:	0020      	movs	r0, r4
  htim1.Init.Prescaler = 47;
 8003324:	6063      	str	r3, [r4, #4]
  htim1.Init.CounterMode = TIM_COUNTERMODE_UP;
 8003326:	60a5      	str	r5, [r4, #8]
  htim1.Init.Period = 999;
 8003328:	60e7      	str	r7, [r4, #12]
  htim1.Init.ClockDivision = TIM_CLOCKDIVISION_DIV1;
 800332a:	6125      	str	r5, [r4, #16]
  htim1.Init.RepetitionCounter = 0;
 800332c:	6165      	str	r5, [r4, #20]
  htim1.Init.AutoReloadPreload = TIM_AUTORELOAD_PRELOAD_DISABLE;
 800332e:	61a5      	str	r5, [r4, #24]
  if (HAL_TIM_Base_Init(&htim1) != HAL_OK)
 8003330:	f003 f88a 	bl	8006448 <HAL_TIM_Base_Init>
 8003334:	2800      	cmp	r0, #0
 8003336:	d001      	beq.n	800333c <main+0x20c>
 8003338:	b672      	cpsid	i
  while (1)
 800333a:	e7fe      	b.n	800333a <main+0x20a>
  if (HAL_TIM_PWM_Init(&htim1) != HAL_OK)
 800333c:	0020      	movs	r0, r4
 800333e:	f003 f8ab 	bl	8006498 <HAL_TIM_PWM_Init>
 8003342:	2800      	cmp	r0, #0
 8003344:	d001      	beq.n	800334a <main+0x21a>
 8003346:	b672      	cpsid	i
  while (1)
 8003348:	e7fe      	b.n	8003348 <main+0x218>
  sSlaveConfig.SlaveMode = TIM_SLAVEMODE_EXTERNAL1;
 800334a:	2307      	movs	r3, #7
 800334c:	9308      	str	r3, [sp, #32]
  sSlaveConfig.InputTrigger = TIM_TS_ITR0;
 800334e:	2300      	movs	r3, #0
  if (HAL_TIM_SlaveConfigSynchro(&htim1, &sSlaveConfig) != HAL_OK)
 8003350:	0020      	movs	r0, r4
 8003352:	a908      	add	r1, sp, #32
  sSlaveConfig.InputTrigger = TIM_TS_ITR0;
 8003354:	9309      	str	r3, [sp, #36]	@ 0x24
  if (HAL_TIM_SlaveConfigSynchro(&htim1, &sSlaveConfig) != HAL_OK)
 8003356:	f003 fa6b 	bl	8006830 <HAL_TIM_SlaveConfigSynchro>
 800335a:	2800      	cmp	r0, #0
 800335c:	d001      	beq.n	8003362 <main+0x232>
 800335e:	b672      	cpsid	i
  while (1)
 8003360:	e7fe      	b.n	8003360 <main+0x230>
  sMasterConfig.MasterOutputTrigger = TIM_TRGO_RESET;
 8003362:	9006      	str	r0, [sp, #24]
  sMasterConfig.MasterSlaveMode = TIM_MASTERSLAVEMODE_DISABLE;
 8003364:	9007      	str	r0, [sp, #28]
  if (HAL_TIMEx_MasterConfigSynchronization(&htim1, &sMasterConfig) != HAL_OK)
 8003366:	a906      	add	r1, sp, #24
 8003368:	0020      	movs	r0, r4
 800336a:	f003 fc7d 	bl	8006c68 <HAL_TIMEx_MasterConfigSynchronization>
 800336e:	1e02      	subs	r2, r0, #0
 8003370:	d001      	beq.n	8003376 <main+0x246>
 8003372:	b672      	cpsid	i
  while (1)
 8003374:	e7fe      	b.n	8003374 <main+0x244>
  sConfigOC.OCMode = TIM_OCMODE_PWM1;
 8003376:	2660      	movs	r6, #96	@ 0x60
  sConfigOC.Pulse = 0;
 8003378:	900e      	str	r0, [sp, #56]	@ 0x38
  sConfigOC.OCPolarity = TIM_OCPOLARITY_HIGH;
 800337a:	900f      	str	r0, [sp, #60]	@ 0x3c
  sConfigOC.OCNPolarity = TIM_OCNPOLARITY_HIGH;
 800337c:	9010      	str	r0, [sp, #64]	@ 0x40
  sConfigOC.OCFastMode = TIM_OCFAST_DISABLE;
 800337e:	9011      	str	r0, [sp, #68]	@ 0x44
  sConfigOC.OCIdleState = TIM_OCIDLESTATE_RESET;
 8003380:	9012      	str	r0, [sp, #72]	@ 0x48
  sConfigOC.OCNIdleState = TIM_OCNIDLESTATE_RESET;
 8003382:	9013      	str	r0, [sp, #76]	@ 0x4c
  if (HAL_TIM_PWM_ConfigChannel(&htim1, &sConfigOC, TIM_CHANNEL_1) != HAL_OK)
 8003384:	a90d      	add	r1, sp, #52	@ 0x34
 8003386:	0020      	movs	r0, r4
  sConfigOC.OCMode = TIM_OCMODE_PWM1;
 8003388:	960d      	str	r6, [sp, #52]	@ 0x34
  if (HAL_TIM_PWM_ConfigChannel(&htim1, &sConfigOC, TIM_CHANNEL_1) != HAL_OK)
 800338a:	f003 f8e9 	bl	8006560 <HAL_TIM_PWM_ConfigChannel>
 800338e:	2800      	cmp	r0, #0
 8003390:	d001      	beq.n	8003396 <main+0x266>
 8003392:	b672      	cpsid	i
  while (1)
 8003394:	e7fe      	b.n	8003394 <main+0x264>
  sBreakDeadTimeConfig.BreakPolarity = TIM_BREAKPOLARITY_HIGH;
 8003396:	2380      	movs	r3, #128	@ 0x80
  sBreakDeadTimeConfig.OffStateRunMode = TIM_OSSR_DISABLE;
 8003398:	9014      	str	r0, [sp, #80]	@ 0x50
  sBreakDeadTimeConfig.OffStateIDLEMode = TIM_OSSI_DISABLE;
 800339a:	9015      	str	r0, [sp, #84]	@ 0x54
  sBreakDeadTimeConfig.LockLevel = TIM_LOCKLEVEL_OFF;
 800339c:	9016      	str	r0, [sp, #88]	@ 0x58
  sBreakDeadTimeConfig.DeadTime = 0;
 800339e:	9017      	str	r0, [sp, #92]	@ 0x5c
  sBreakDeadTimeConfig.BreakState = TIM_BREAK_DISABLE;
 80033a0:	9018      	str	r0, [sp, #96]	@ 0x60
  sBreakDeadTimeConfig.BreakPolarity = TIM_BREAKPOLARITY_HIGH;
 80033a2:	019b      	lsls	r3, r3, #6
  sBreakDeadTimeConfig.AutomaticOutput = TIM_AUTOMATICOUTPUT_DISABLE;
 80033a4:	901b      	str	r0, [sp, #108]	@ 0x6c
  if (HAL_TIMEx_ConfigBreakDeadTime(&htim1, &sBreakDeadTimeConfig) != HAL_OK)
 80033a6:	a914      	add	r1, sp, #80	@ 0x50
 80033a8:	0020      	movs	r0, r4
  sBreakDeadTimeConfig.BreakPolarity = TIM_BREAKPOLARITY_HIGH;
 80033aa:	9319      	str	r3, [sp, #100]	@ 0x64
  if (HAL_TIMEx_ConfigBreakDeadTime(&htim1, &sBreakDeadTimeConfig) != HAL_OK)
 80033ac:	f003 fc84 	bl	8006cb8 <HAL_TIMEx_ConfigBreakDeadTime>
 80033b0:	1e05      	subs	r5, r0, #0
 80033b2:	d001      	beq.n	80033b8 <main+0x288>
 80033b4:	b672      	cpsid	i
  while (1)
 80033b6:	e7fe      	b.n	80033b6 <main+0x286>
  HAL_TIM_MspPostInit(&htim1);
 80033b8:	0020      	movs	r0, r4
 80033ba:	f000 fc3d 	bl	8003c38 <HAL_TIM_MspPostInit>
  TIM_ClockConfigTypeDef sClockSourceConfig = {0};
 80033be:	2210      	movs	r2, #16
 80033c0:	0029      	movs	r1, r5
 80033c2:	a808      	add	r0, sp, #32
 80033c4:	f004 f9d8 	bl	8007778 <memset>
  TIM_SlaveConfigTypeDef sSlaveConfig = {0};
 80033c8:	2214      	movs	r2, #20
 80033ca:	0029      	movs	r1, r5
 80033cc:	a80d      	add	r0, sp, #52	@ 0x34
 80033ce:	f004 f9d3 	bl	8007778 <memset>
  TIM_MasterConfigTypeDef sMasterConfig = {0};
 80033d2:	2208      	movs	r2, #8
 80033d4:	0029      	movs	r1, r5
 80033d6:	a806      	add	r0, sp, #24
 80033d8:	f004 f9ce 	bl	8007778 <memset>
  TIM_OC_InitTypeDef sConfigOC = {0};
 80033dc:	221c      	movs	r2, #28
 80033de:	0029      	movs	r1, r5
 80033e0:	a814      	add	r0, sp, #80	@ 0x50
 80033e2:	f004 f9c9 	bl	8007778 <memset>
  htim3.Instance = TIM3;
 80033e6:	4c34      	ldr	r4, [pc, #208]	@ (80034b8 <main+0x388>)
 80033e8:	4b34      	ldr	r3, [pc, #208]	@ (80034bc <main+0x38c>)
  if (HAL_TIM_Base_Init(&htim3) != HAL_OK)
 80033ea:	0020      	movs	r0, r4
  htim3.Instance = TIM3;
 80033ec:	6023      	str	r3, [r4, #0]
  htim3.Init.Prescaler = 0;
 80033ee:	6065      	str	r5, [r4, #4]
  htim3.Init.CounterMode = TIM_COUNTERMODE_UP;
 80033f0:	60a5      	str	r5, [r4, #8]
  htim3.Init.Period = 999;
 80033f2:	60e7      	str	r7, [r4, #12]
  htim3.Init.ClockDivision = TIM_CLOCKDIVISION_DIV1;
 80033f4:	6125      	str	r5, [r4, #16]
  htim3.Init.AutoReloadPreload = TIM_AUTORELOAD_PRELOAD_DISABLE;
 80033f6:	61a5      	str	r5, [r4, #24]
  if (HAL_TIM_Base_Init(&htim3) != HAL_OK)
 80033f8:	f003 f826 	bl	8006448 <HAL_TIM_Base_Init>
 80033fc:	2800      	cmp	r0, #0
 80033fe:	d001      	beq.n	8003404 <main+0x2d4>
 8003400:	b672      	cpsid	i
  while (1)
 8003402:	e7fe      	b.n	8003402 <main+0x2d2>
  sClockSourceConfig.ClockSource = TIM_CLOCKSOURCE_INTERNAL;
 8003404:	2380      	movs	r3, #128	@ 0x80
  if (HAL_TIM_ConfigClockSource(&htim3, &sClockSourceConfig) != HAL_OK)
 8003406:	0020      	movs	r0, r4
  sClockSourceConfig.ClockSource = TIM_CLOCKSOURCE_INTERNAL;
 8003408:	015b      	lsls	r3, r3, #5
  if (HAL_TIM_ConfigClockSource(&htim3, &sClockSourceConfig) != HAL_OK)
 800340a:	a908      	add	r1, sp, #32
  sClockSourceConfig.ClockSource = TIM_CLOCKSOURCE_INTERNAL;
 800340c:	9308      	str	r3, [sp, #32]
  if (HAL_TIM_ConfigClockSource(&htim3, &sClockSourceConfig) != HAL_OK)
 800340e:	f003 f913 	bl	8006638 <HAL_TIM_ConfigClockSource>
 8003412:	2800      	cmp	r0, #0
 8003414:	d001      	beq.n	800341a <main+0x2ea>
 8003416:	b672      	cpsid	i
  while (1)
 8003418:	e7fe      	b.n	8003418 <main+0x2e8>
  if (HAL_TIM_PWM_Init(&htim3) != HAL_OK)
 800341a:	0020      	movs	r0, r4
 800341c:	f003 f83c 	bl	8006498 <HAL_TIM_PWM_Init>
 8003420:	2800      	cmp	r0, #0
 8003422:	d001      	beq.n	8003428 <main+0x2f8>
 8003424:	b672      	cpsid	i
  while (1)
 8003426:	e7fe      	b.n	8003426 <main+0x2f6>
  sSlaveConfig.InputTrigger = TIM_TS_ITR2;
 8003428:	2320      	movs	r3, #32
  sSlaveConfig.SlaveMode = TIM_SLAVEMODE_DISABLE;
 800342a:	900d      	str	r0, [sp, #52]	@ 0x34
  if (HAL_TIM_SlaveConfigSynchro(&htim3, &sSlaveConfig) != HAL_OK)
 800342c:	a90d      	add	r1, sp, #52	@ 0x34
 800342e:	0020      	movs	r0, r4
  sSlaveConfig.InputTrigger = TIM_TS_ITR2;
 8003430:	930e      	str	r3, [sp, #56]	@ 0x38
  if (HAL_TIM_SlaveConfigSynchro(&htim3, &sSlaveConfig) != HAL_OK)
 8003432:	f003 f9fd 	bl	8006830 <HAL_TIM_SlaveConfigSynchro>
 8003436:	2800      	cmp	r0, #0
 8003438:	d001      	beq.n	800343e <main+0x30e>
 800343a:	b672      	cpsid	i
  while (1)
 800343c:	e7fe      	b.n	800343c <main+0x30c>
  sMasterConfig.MasterOutputTrigger = TIM_TRGO_RESET;
 800343e:	9006      	str	r0, [sp, #24]
  sMasterConfig.MasterSlaveMode = TIM_MASTERSLAVEMODE_DISABLE;
 8003440:	9007      	str	r0, [sp, #28]
  if (HAL_TIMEx_MasterConfigSynchronization(&htim3, &sMasterConfig) != HAL_OK)
 8003442:	a906      	add	r1, sp, #24
 8003444:	0020      	movs	r0, r4
 8003446:	f003 fc0f 	bl	8006c68 <HAL_TIMEx_MasterConfigSynchronization>
 800344a:	2800      	cmp	r0, #0
 800344c:	d001      	beq.n	8003452 <main+0x322>
 800344e:	b672      	cpsid	i
  while (1)
 8003450:	e7fe      	b.n	8003450 <main+0x320>
  sConfigOC.Pulse = 0;
 8003452:	9015      	str	r0, [sp, #84]	@ 0x54
  sConfigOC.OCPolarity = TIM_OCPOLARITY_HIGH;
 8003454:	9016      	str	r0, [sp, #88]	@ 0x58
  sConfigOC.OCFastMode = TIM_OCFAST_DISABLE;
 8003456:	9018      	str	r0, [sp, #96]	@ 0x60
  if (HAL_TIM_PWM_ConfigChannel(&htim3, &sConfigOC, TIM_CHANNEL_2) != HAL_OK)
 8003458:	2204      	movs	r2, #4
 800345a:	0020      	movs	r0, r4
 800345c:	a914      	add	r1, sp, #80	@ 0x50
  sConfigOC.OCMode = TIM_OCMODE_PWM1;
 800345e:	9614      	str	r6, [sp, #80]	@ 0x50
  if (HAL_TIM_PWM_ConfigChannel(&htim3, &sConfigOC, TIM_CHANNEL_2) != HAL_OK)
 8003460:	f003 f87e 	bl	8006560 <HAL_TIM_PWM_ConfigChannel>
 8003464:	2800      	cmp	r0, #0
 8003466:	d001      	beq.n	800346c <main+0x33c>
 8003468:	b672      	cpsid	i
  while (1)
 800346a:	e7fe      	b.n	800346a <main+0x33a>
  if (HAL_TIM_PWM_ConfigChannel(&htim3, &sConfigOC, TIM_CHANNEL_3) != HAL_OK)
 800346c:	2208      	movs	r2, #8
 800346e:	0020      	movs	r0, r4
 8003470:	a914      	add	r1, sp, #80	@ 0x50
 8003472:	f003 f875 	bl	8006560 <HAL_TIM_PWM_ConfigChannel>
 8003476:	2800      	cmp	r0, #0
 8003478:	d022      	beq.n	80034c0 <main+0x390>
 800347a:	b672      	cpsid	i
  while (1)
 800347c:	e7fe      	b.n	800347c <main+0x34c>
 800347e:	46c0      	nop			@ (mov r8, r8)
 8003480:	40021000 	.word	0x40021000
 8003484:	00000801 	.word	0x00000801
 8003488:	00008010 	.word	0x00008010
 800348c:	48000400 	.word	0x48000400
 8003490:	200004f0 	.word	0x200004f0
 8003494:	40012400 	.word	0x40012400
 8003498:	2000049c 	.word	0x2000049c
 800349c:	40005400 	.word	0x40005400
 80034a0:	00201d2b 	.word	0x00201d2b
 80034a4:	20000340 	.word	0x20000340
 80034a8:	40013800 	.word	0x40013800
 80034ac:	20000454 	.word	0x20000454
 80034b0:	40012c00 	.word	0x40012c00
 80034b4:	000003e7 	.word	0x000003e7
 80034b8:	2000040c 	.word	0x2000040c
 80034bc:	40000400 	.word	0x40000400
  HAL_TIM_MspPostInit(&htim3);
 80034c0:	0020      	movs	r0, r4
 80034c2:	f000 fbb9 	bl	8003c38 <HAL_TIM_MspPostInit>
  HAL_ADCEx_Calibration_Start(&hadc);
 80034c6:	4e09      	ldr	r6, [pc, #36]	@ (80034ec <main+0x3bc>)
 80034c8:	0030      	movs	r0, r6
 80034ca:	f001 fc1b 	bl	8004d04 <HAL_ADCEx_Calibration_Start>
  App_Init(&g_app,
 80034ce:	4908      	ldr	r1, [pc, #32]	@ (80034f0 <main+0x3c0>)
 80034d0:	4d08      	ldr	r5, [pc, #32]	@ (80034f4 <main+0x3c4>)
 80034d2:	9100      	str	r1, [sp, #0]
 80034d4:	0028      	movs	r0, r5
 80034d6:	0031      	movs	r1, r6
 80034d8:	4b07      	ldr	r3, [pc, #28]	@ (80034f8 <main+0x3c8>)
 80034da:	4a08      	ldr	r2, [pc, #32]	@ (80034fc <main+0x3cc>)
 80034dc:	9401      	str	r4, [sp, #4]
 80034de:	f7fe f925 	bl	800172c <App_Init>
    App_Run(&g_app);
 80034e2:	0028      	movs	r0, r5
 80034e4:	f7fe ff5c 	bl	80023a0 <App_Run>
  while (1)
 80034e8:	e7fb      	b.n	80034e2 <main+0x3b2>
 80034ea:	46c0      	nop			@ (mov r8, r8)
 80034ec:	200004f0 	.word	0x200004f0
 80034f0:	20000454 	.word	0x20000454
 80034f4:	200000a4 	.word	0x200000a4
 80034f8:	20000340 	.word	0x20000340
 80034fc:	2000049c 	.word	0x2000049c

08003500 <HAL_GPIO_EXTI_Callback>:
{
 8003500:	b510      	push	{r4, lr}
  if (GPIO_Pin == MOTION_INT_Pin) {
 8003502:	2801      	cmp	r0, #1
 8003504:	d103      	bne.n	800350e <HAL_GPIO_EXTI_Callback+0xe>
    BMA253_MotionISR(&g_app.bma);
 8003506:	4806      	ldr	r0, [pc, #24]	@ (8003520 <HAL_GPIO_EXTI_Callback+0x20>)
 8003508:	f7ff f9eb 	bl	80028e2 <BMA253_MotionISR>
}
 800350c:	bd10      	pop	{r4, pc}
  } else if (GPIO_Pin == RTC_INT_Pin) {
 800350e:	2380      	movs	r3, #128	@ 0x80
 8003510:	011b      	lsls	r3, r3, #4
 8003512:	4298      	cmp	r0, r3
 8003514:	d1fa      	bne.n	800350c <HAL_GPIO_EXTI_Callback+0xc>
    RTC_TickISR(&g_app.rtc);
 8003516:	4803      	ldr	r0, [pc, #12]	@ (8003524 <HAL_GPIO_EXTI_Callback+0x24>)
 8003518:	f000 fa08 	bl	800392c <RTC_TickISR>
}
 800351c:	e7f6      	b.n	800350c <HAL_GPIO_EXTI_Callback+0xc>
 800351e:	46c0      	nop			@ (mov r8, r8)
 8003520:	200000cc 	.word	0x200000cc
 8003524:	20000130 	.word	0x20000130

08003528 <HAL_UART_RxCpltCallback>:
  if (huart->Instance == USART1) {
 8003528:	4b04      	ldr	r3, [pc, #16]	@ (800353c <HAL_UART_RxCpltCallback+0x14>)
 800352a:	6802      	ldr	r2, [r0, #0]
{
 800352c:	b510      	push	{r4, lr}
  if (huart->Instance == USART1) {
 800352e:	429a      	cmp	r2, r3
 8003530:	d102      	bne.n	8003538 <HAL_UART_RxCpltCallback+0x10>
    BLE_RxISR(&g_app.ble);
 8003532:	4803      	ldr	r0, [pc, #12]	@ (8003540 <HAL_UART_RxCpltCallback+0x18>)
 8003534:	f7ff f83c 	bl	80025b0 <BLE_RxISR>
}
 8003538:	bd10      	pop	{r4, pc}
 800353a:	46c0      	nop			@ (mov r8, r8)
 800353c:	40013800 	.word	0x40013800
 8003540:	200000d8 	.word	0x200000d8

08003544 <HAL_UART_ErrorCallback>:
  if (huart->Instance == USART1) {
 8003544:	4b04      	ldr	r3, [pc, #16]	@ (8003558 <HAL_UART_ErrorCallback+0x14>)
 8003546:	6802      	ldr	r2, [r0, #0]
{
 8003548:	b510      	push	{r4, lr}
  if (huart->Instance == USART1) {
 800354a:	429a      	cmp	r2, r3
 800354c:	d102      	bne.n	8003554 <HAL_UART_ErrorCallback+0x10>
    BLE_RecoverFromError(&g_app.ble);
 800354e:	4803      	ldr	r0, [pc, #12]	@ (800355c <HAL_UART_ErrorCallback+0x18>)
 8003550:	f7ff f870 	bl	8002634 <BLE_RecoverFromError>
}
 8003554:	bd10      	pop	{r4, pc}
 8003556:	46c0      	nop			@ (mov r8, r8)
 8003558:	40013800 	.word	0x40013800
 800355c:	200000d8 	.word	0x200000d8

08003560 <Error_Handler>:
 8003560:	b672      	cpsid	i
  while (1)
 8003562:	e7fe      	b.n	8003562 <Error_Handler+0x2>

08003564 <NTC_Init>:
 * ===========================================================================
 */
void NTC_Init(NTC_Handle_t *hntc, ADC_HandleTypeDef *hadc)
{
    hntc->hadc          = hadc;
    hntc->last_temp_x10 = 250;    /* 25.0 °C default */
 8003564:	23fa      	movs	r3, #250	@ 0xfa
 8003566:	8083      	strh	r3, [r0, #4]
    hntc->valid         = 0;
 8003568:	2300      	movs	r3, #0
    hntc->hadc          = hadc;
 800356a:	6001      	str	r1, [r0, #0]
    hntc->valid         = 0;
 800356c:	7183      	strb	r3, [r0, #6]
}
 800356e:	4770      	bx	lr

08003570 <NTC_ReadTemp_x10>:
 * Returns temperature in tenths of °C.
 * ===========================================================================
 */
int16_t NTC_ReadTemp_x10(NTC_Handle_t *hntc)
{
    g_ntc_fault = 0;
 8003570:	2300      	movs	r3, #0
{
 8003572:	b5f0      	push	{r4, r5, r6, r7, lr}
 8003574:	0004      	movs	r4, r0
    g_ntc_fault = 0;
 8003576:	2504      	movs	r5, #4
 8003578:	4f52      	ldr	r7, [pc, #328]	@ (80036c4 <NTC_ReadTemp_x10+0x154>)
{
 800357a:	b087      	sub	sp, #28

    /* ── 1. Average 4 samples ────────────────────────────────────────── */
    uint32_t sum = 0U;
 800357c:	9300      	str	r3, [sp, #0]
    g_ntc_fault = 0;
 800357e:	703b      	strb	r3, [r7, #0]
    g_ntc_chselr_before = hntc->hadc->Instance->CHSELR;
 8003580:	6820      	ldr	r0, [r4, #0]
 8003582:	4a51      	ldr	r2, [pc, #324]	@ (80036c8 <NTC_ReadTemp_x10+0x158>)
 8003584:	6803      	ldr	r3, [r0, #0]
 8003586:	6a99      	ldr	r1, [r3, #40]	@ 0x28
 8003588:	6011      	str	r1, [r2, #0]
    hntc->hadc->Instance->CHSELR = 0U;
 800358a:	2200      	movs	r2, #0
 800358c:	629a      	str	r2, [r3, #40]	@ 0x28
    sConfig.Channel      = ADC_CHANNEL_3;             /* PA3 = NTC_TEMP     */
 800358e:	2303      	movs	r3, #3
 8003590:	9303      	str	r3, [sp, #12]
    sConfig.Rank         = ADC_RANK_CHANNEL_NUMBER;
 8003592:	2380      	movs	r3, #128	@ 0x80
 8003594:	015b      	lsls	r3, r3, #5
 8003596:	9304      	str	r3, [sp, #16]
    sConfig.SamplingTime = ADC_SAMPLETIME_239CYCLES_5; /* max time for 100nF */
 8003598:	2307      	movs	r3, #7
    HAL_ADC_ConfigChannel(hntc->hadc, &sConfig);
 800359a:	a903      	add	r1, sp, #12
    sConfig.SamplingTime = ADC_SAMPLETIME_239CYCLES_5; /* max time for 100nF */
 800359c:	9305      	str	r3, [sp, #20]
    HAL_ADC_ConfigChannel(hntc->hadc, &sConfig);
 800359e:	f001 fb3b 	bl	8004c18 <HAL_ADC_ConfigChannel>
    g_ntc_chselr_after = hntc->hadc->Instance->CHSELR;
 80035a2:	6820      	ldr	r0, [r4, #0]
 80035a4:	6803      	ldr	r3, [r0, #0]
 80035a6:	6a9a      	ldr	r2, [r3, #40]	@ 0x28
 80035a8:	4b48      	ldr	r3, [pc, #288]	@ (80036cc <NTC_ReadTemp_x10+0x15c>)
 80035aa:	601a      	str	r2, [r3, #0]
    HAL_ADC_Start(hntc->hadc);
 80035ac:	f001 fa18 	bl	80049e0 <HAL_ADC_Start>
    if (HAL_ADC_PollForConversion(hntc->hadc, 10U) != HAL_OK) {
 80035b0:	210a      	movs	r1, #10
 80035b2:	6820      	ldr	r0, [r4, #0]
 80035b4:	f001 fa5e 	bl	8004a74 <HAL_ADC_PollForConversion>
 80035b8:	4b45      	ldr	r3, [pc, #276]	@ (80036d0 <NTC_ReadTemp_x10+0x160>)
 80035ba:	9301      	str	r3, [sp, #4]
 80035bc:	2800      	cmp	r0, #0
 80035be:	d045      	beq.n	800364c <NTC_ReadTemp_x10+0xdc>
        HAL_ADC_Stop(hntc->hadc);
 80035c0:	6820      	ldr	r0, [r4, #0]
 80035c2:	f001 fa39 	bl	8004a38 <HAL_ADC_Stop>
        g_ntc_fault    = 5;
 80035c6:	2305      	movs	r3, #5
        return 2048U;
 80035c8:	2680      	movs	r6, #128	@ 0x80
        g_ntc_fault    = 5;
 80035ca:	703b      	strb	r3, [r7, #0]
        g_ntc_raw_adc  = 9999;   /* sentinel: timeout */
 80035cc:	9a01      	ldr	r2, [sp, #4]
 80035ce:	4b41      	ldr	r3, [pc, #260]	@ (80036d4 <NTC_ReadTemp_x10+0x164>)
        return 2048U;
 80035d0:	0136      	lsls	r6, r6, #4
        g_ntc_raw_adc  = 9999;   /* sentinel: timeout */
 80035d2:	8013      	strh	r3, [r2, #0]
    for (uint8_t i = 0U; i < 4U; i++) {
        sum += NTC_ReadADC(hntc);
 80035d4:	9b00      	ldr	r3, [sp, #0]
    for (uint8_t i = 0U; i < 4U; i++) {
 80035d6:	3d01      	subs	r5, #1
        sum += NTC_ReadADC(hntc);
 80035d8:	199b      	adds	r3, r3, r6
        HAL_Delay(2);
 80035da:	2002      	movs	r0, #2
    for (uint8_t i = 0U; i < 4U; i++) {
 80035dc:	b2ed      	uxtb	r5, r5
        sum += NTC_ReadADC(hntc);
 80035de:	9300      	str	r3, [sp, #0]
        HAL_Delay(2);
 80035e0:	f001 f890 	bl	8004704 <HAL_Delay>
    for (uint8_t i = 0U; i < 4U; i++) {
 80035e4:	2d00      	cmp	r5, #0
 80035e6:	d1cb      	bne.n	8003580 <NTC_ReadTemp_x10+0x10>
    }
    uint16_t adc_avg = (uint16_t)(sum >> 2);
 80035e8:	9b00      	ldr	r3, [sp, #0]
 80035ea:	089b      	lsrs	r3, r3, #2
 80035ec:	9300      	str	r3, [sp, #0]
 80035ee:	466b      	mov	r3, sp
 80035f0:	8818      	ldrh	r0, [r3, #0]
    g_ntc_adc_avg = adc_avg;
 80035f2:	4b39      	ldr	r3, [pc, #228]	@ (80036d8 <NTC_ReadTemp_x10+0x168>)
 80035f4:	8018      	strh	r0, [r3, #0]

    /* ── 2. Fault detection ──────────────────────────────────────────── */
    if (adc_avg < 10U) {
        g_ntc_fault = 1;   /* open / floating */
 80035f6:	2301      	movs	r3, #1
    if (adc_avg < 10U) {
 80035f8:	2809      	cmp	r0, #9
 80035fa:	d932      	bls.n	8003662 <NTC_ReadTemp_x10+0xf2>
        hntc->valid = 0;
        return hntc->last_temp_x10;
    }
    if (adc_avg > (NTC_ADC_RESOLUTION - 11U)) {
 80035fc:	4b37      	ldr	r3, [pc, #220]	@ (80036dc <NTC_ReadTemp_x10+0x16c>)
 80035fe:	4298      	cmp	r0, r3
 8003600:	d82e      	bhi.n	8003660 <NTC_ReadTemp_x10+0xf0>
 8003602:	4e37      	ldr	r6, [pc, #220]	@ (80036e0 <NTC_ReadTemp_x10+0x170>)
        return hntc->last_temp_x10;
    }

    /* ── 3. LUT search ───────────────────────────────────────────────── */
    uint8_t idx = 0U;
    for (; idx < (NTC_LUT_ENTRIES - 1U); idx++) {
 8003604:	0031      	movs	r1, r6
        if (adc_avg >= s_ntc_lut[idx + 1U]) {
 8003606:	8872      	ldrh	r2, [r6, #2]
 8003608:	002b      	movs	r3, r5
 800360a:	3501      	adds	r5, #1
 800360c:	3602      	adds	r6, #2
 800360e:	b2ed      	uxtb	r5, r5
 8003610:	4282      	cmp	r2, r0
 8003612:	d904      	bls.n	800361e <NTC_ReadTemp_x10+0xae>
    for (; idx < (NTC_LUT_ENTRIES - 1U); idx++) {
 8003614:	2d11      	cmp	r5, #17
 8003616:	d1f6      	bne.n	8003606 <NTC_ReadTemp_x10+0x96>
        }
    }

    if (idx >= (NTC_LUT_ENTRIES - 1U)) {
        idx = NTC_LUT_ENTRIES - 2U;
        g_ntc_fault = 3;
 8003618:	2303      	movs	r3, #3
 800361a:	703b      	strb	r3, [r7, #0]
        idx = NTC_LUT_ENTRIES - 2U;
 800361c:	330d      	adds	r3, #13
    }
    g_ntc_lut_idx = idx;

    /* ── 4. Linear interpolation ─────────────────────────────────────── */
    int32_t t_lo_x10  = ((int32_t)NTC_LUT_TEMP_MIN
 800361e:	2532      	movs	r5, #50	@ 0x32
    g_ntc_lut_idx = idx;
 8003620:	4830      	ldr	r0, [pc, #192]	@ (80036e4 <NTC_ReadTemp_x10+0x174>)
                         + (int32_t)idx        * (int32_t)NTC_LUT_TEMP_STEP) * 10;
    int32_t t_hi_x10  = ((int32_t)NTC_LUT_TEMP_MIN
                         + (int32_t)(idx + 1U) * (int32_t)NTC_LUT_TEMP_STEP) * 10;
 8003622:	1c5e      	adds	r6, r3, #1
    g_ntc_lut_idx = idx;
 8003624:	7003      	strb	r3, [r0, #0]
                         + (int32_t)(idx + 1U) * (int32_t)NTC_LUT_TEMP_STEP) * 10;
 8003626:	b2f6      	uxtb	r6, r6
                         + (int32_t)idx        * (int32_t)NTC_LUT_TEMP_STEP) * 10;
 8003628:	1e58      	subs	r0, r3, #1
    int32_t t_lo_x10  = ((int32_t)NTC_LUT_TEMP_MIN
 800362a:	4345      	muls	r5, r0

    int32_t adc_lo    = (int32_t)s_ntc_lut[idx];
 800362c:	005b      	lsls	r3, r3, #1
    int32_t adc_hi    = (int32_t)s_ntc_lut[idx + 1U];
 800362e:	0070      	lsls	r0, r6, #1
    int32_t adc_lo    = (int32_t)s_ntc_lut[idx];
 8003630:	5acb      	ldrh	r3, [r1, r3]
    int32_t adc_hi    = (int32_t)s_ntc_lut[idx + 1U];
 8003632:	5a08      	ldrh	r0, [r1, r0]
 8003634:	4a2c      	ldr	r2, [pc, #176]	@ (80036e8 <NTC_ReadTemp_x10+0x178>)
    int32_t adc_range = adc_lo - adc_hi;
 8003636:	1a19      	subs	r1, r3, r0

    if (adc_range == 0) {
 8003638:	9201      	str	r2, [sp, #4]
 800363a:	4283      	cmp	r3, r0
 800363c:	d117      	bne.n	800366e <NTC_ReadTemp_x10+0xfe>
        hntc->last_temp_x10 = (int16_t)t_lo_x10;
        hntc->valid         = 1;
 800363e:	2301      	movs	r3, #1
 8003640:	71a3      	strb	r3, [r4, #6]
        g_ntc_temp_x10      = hntc->last_temp_x10;
 8003642:	0013      	movs	r3, r2
        hntc->last_temp_x10 = (int16_t)t_lo_x10;
 8003644:	b228      	sxth	r0, r5
 8003646:	80a0      	strh	r0, [r4, #4]

    int32_t temp_x10 = t_lo_x10 + ((t_hi_x10 - t_lo_x10) * frac) / 100;

    hntc->last_temp_x10 = (int16_t)temp_x10;
    hntc->valid         = 1;
    g_ntc_temp_x10      = hntc->last_temp_x10;
 8003648:	8018      	strh	r0, [r3, #0]

    return hntc->last_temp_x10;
 800364a:	e00e      	b.n	800366a <NTC_ReadTemp_x10+0xfa>
    uint16_t val = (uint16_t)HAL_ADC_GetValue(hntc->hadc);
 800364c:	6820      	ldr	r0, [r4, #0]
 800364e:	f001 fa75 	bl	8004b3c <HAL_ADC_GetValue>
 8003652:	b286      	uxth	r6, r0
    HAL_ADC_Stop(hntc->hadc);
 8003654:	6820      	ldr	r0, [r4, #0]
 8003656:	f001 f9ef 	bl	8004a38 <HAL_ADC_Stop>
    g_ntc_raw_adc = val;
 800365a:	9b01      	ldr	r3, [sp, #4]
 800365c:	801e      	strh	r6, [r3, #0]
    return val;
 800365e:	e7b9      	b.n	80035d4 <NTC_ReadTemp_x10+0x64>
        g_ntc_fault = 2;   /* shorted to Vcc */
 8003660:	2302      	movs	r3, #2
 8003662:	703b      	strb	r3, [r7, #0]
        return hntc->last_temp_x10;
 8003664:	2304      	movs	r3, #4
 8003666:	5ee0      	ldrsh	r0, [r4, r3]
        hntc->valid = 0;
 8003668:	71a5      	strb	r5, [r4, #6]
}
 800366a:	b007      	add	sp, #28
 800366c:	bdf0      	pop	{r4, r5, r6, r7, pc}
    int32_t frac = ((adc_lo - (int32_t)adc_avg) * 100) / adc_range;
 800366e:	466a      	mov	r2, sp
 8003670:	2064      	movs	r0, #100	@ 0x64
 8003672:	8812      	ldrh	r2, [r2, #0]
 8003674:	1a9b      	subs	r3, r3, r2
 8003676:	4358      	muls	r0, r3
 8003678:	f7fc fdec 	bl	8000254 <__divsi3>
    if (frac < 0 || frac > 100) {
 800367c:	2864      	cmp	r0, #100	@ 0x64
 800367e:	d815      	bhi.n	80036ac <NTC_ReadTemp_x10+0x13c>
    if (frac > 100) { frac = 100; }
 8003680:	2864      	cmp	r0, #100	@ 0x64
 8003682:	dd00      	ble.n	8003686 <NTC_ReadTemp_x10+0x116>
 8003684:	2064      	movs	r0, #100	@ 0x64
                         + (int32_t)(idx + 1U) * (int32_t)NTC_LUT_TEMP_STEP) * 10;
 8003686:	2205      	movs	r2, #5
    g_ntc_frac = frac;
 8003688:	4b18      	ldr	r3, [pc, #96]	@ (80036ec <NTC_ReadTemp_x10+0x17c>)
                         + (int32_t)(idx + 1U) * (int32_t)NTC_LUT_TEMP_STEP) * 10;
 800368a:	4372      	muls	r2, r6
    g_ntc_frac = frac;
 800368c:	6018      	str	r0, [r3, #0]
    int32_t t_hi_x10  = ((int32_t)NTC_LUT_TEMP_MIN
 800368e:	230a      	movs	r3, #10
                         + (int32_t)(idx + 1U) * (int32_t)NTC_LUT_TEMP_STEP) * 10;
 8003690:	3a05      	subs	r2, #5
    int32_t t_hi_x10  = ((int32_t)NTC_LUT_TEMP_MIN
 8003692:	4353      	muls	r3, r2
    int32_t temp_x10 = t_lo_x10 + ((t_hi_x10 - t_lo_x10) * frac) / 100;
 8003694:	1b5b      	subs	r3, r3, r5
 8003696:	4358      	muls	r0, r3
 8003698:	2164      	movs	r1, #100	@ 0x64
 800369a:	f7fc fddb 	bl	8000254 <__divsi3>
    hntc->valid         = 1;
 800369e:	2301      	movs	r3, #1
    int32_t temp_x10 = t_lo_x10 + ((t_hi_x10 - t_lo_x10) * frac) / 100;
 80036a0:	1940      	adds	r0, r0, r5
    hntc->last_temp_x10 = (int16_t)temp_x10;
 80036a2:	b200      	sxth	r0, r0
    hntc->valid         = 1;
 80036a4:	71a3      	strb	r3, [r4, #6]
    hntc->last_temp_x10 = (int16_t)temp_x10;
 80036a6:	80a0      	strh	r0, [r4, #4]
    g_ntc_temp_x10      = hntc->last_temp_x10;
 80036a8:	9b01      	ldr	r3, [sp, #4]
 80036aa:	e7cd      	b.n	8003648 <NTC_ReadTemp_x10+0xd8>
        g_ntc_fault = (g_ntc_fault == 0) ? 4U : g_ntc_fault;
 80036ac:	783a      	ldrb	r2, [r7, #0]
 80036ae:	2304      	movs	r3, #4
 80036b0:	2a00      	cmp	r2, #0
 80036b2:	d001      	beq.n	80036b8 <NTC_ReadTemp_x10+0x148>
 80036b4:	783b      	ldrb	r3, [r7, #0]
 80036b6:	b2db      	uxtb	r3, r3
 80036b8:	703b      	strb	r3, [r7, #0]
    if (frac <   0) { frac =   0; }
 80036ba:	2800      	cmp	r0, #0
 80036bc:	dae0      	bge.n	8003680 <NTC_ReadTemp_x10+0x110>
 80036be:	2000      	movs	r0, #0
 80036c0:	e7e1      	b.n	8003686 <NTC_ReadTemp_x10+0x116>
 80036c2:	46c0      	nop			@ (mov r8, r8)
 80036c4:	20000538 	.word	0x20000538
 80036c8:	20000534 	.word	0x20000534
 80036cc:	20000530 	.word	0x20000530
 80036d0:	20000544 	.word	0x20000544
 80036d4:	0000270f 	.word	0x0000270f
 80036d8:	20000542 	.word	0x20000542
 80036dc:	00000ff5 	.word	0x00000ff5
 80036e0:	08007aa4 	.word	0x08007aa4
 80036e4:	20000540 	.word	0x20000540
 80036e8:	2000053a 	.word	0x2000053a
 80036ec:	2000053c 	.word	0x2000053c

080036f0 <DS3231_WriteRegs>:
    return HAL_I2C_Master_Receive(hi2c, RTC_I2C_ADDR, buf, len, RTC_TIMEOUT_MS);
}

static HAL_StatusTypeDef DS3231_WriteRegs(I2C_HandleTypeDef *hi2c,
                                           uint8_t reg, const uint8_t *buf, uint8_t len)
{
 80036f0:	b570      	push	{r4, r5, r6, lr}
 80036f2:	0005      	movs	r5, r0
 80036f4:	0008      	movs	r0, r1
 80036f6:	b086      	sub	sp, #24
    uint8_t tx[16];
    tx[0] = reg;
 80036f8:	ae02      	add	r6, sp, #8
 80036fa:	7030      	strb	r0, [r6, #0]
    memcpy(&tx[1], buf, len);
 80036fc:	2009      	movs	r0, #9
{
 80036fe:	0011      	movs	r1, r2
 8003700:	001c      	movs	r4, r3
    memcpy(&tx[1], buf, len);
 8003702:	001a      	movs	r2, r3
 8003704:	4468      	add	r0, sp
 8003706:	f004 f863 	bl	80077d0 <memcpy>
    return HAL_I2C_Master_Transmit(hi2c, RTC_I2C_ADDR, tx, (uint16_t)(len + 1U), RTC_TIMEOUT_MS);
 800370a:	2264      	movs	r2, #100	@ 0x64
 800370c:	3401      	adds	r4, #1
 800370e:	9200      	str	r2, [sp, #0]
 8003710:	21d0      	movs	r1, #208	@ 0xd0
 8003712:	0032      	movs	r2, r6
 8003714:	0028      	movs	r0, r5
 8003716:	b2e3      	uxtb	r3, r4
 8003718:	f002 f86a 	bl	80057f0 <HAL_I2C_Master_Transmit>
}
 800371c:	b006      	add	sp, #24
 800371e:	bd70      	pop	{r4, r5, r6, pc}

08003720 <DS3231_ReadRegs>:
{
 8003720:	b5f0      	push	{r4, r5, r6, r7, lr}
 8003722:	0015      	movs	r5, r2
 8003724:	220f      	movs	r2, #15
    HAL_StatusTypeDef s = HAL_I2C_Master_Transmit(hi2c, RTC_I2C_ADDR, &reg, 1, RTC_TIMEOUT_MS);
 8003726:	2764      	movs	r7, #100	@ 0x64
{
 8003728:	b085      	sub	sp, #20
 800372a:	446a      	add	r2, sp
 800372c:	7011      	strb	r1, [r2, #0]
 800372e:	001e      	movs	r6, r3
    HAL_StatusTypeDef s = HAL_I2C_Master_Transmit(hi2c, RTC_I2C_ADDR, &reg, 1, RTC_TIMEOUT_MS);
 8003730:	21d0      	movs	r1, #208	@ 0xd0
 8003732:	2301      	movs	r3, #1
 8003734:	9700      	str	r7, [sp, #0]
{
 8003736:	0004      	movs	r4, r0
    HAL_StatusTypeDef s = HAL_I2C_Master_Transmit(hi2c, RTC_I2C_ADDR, &reg, 1, RTC_TIMEOUT_MS);
 8003738:	f002 f85a 	bl	80057f0 <HAL_I2C_Master_Transmit>
    if (s != HAL_OK) return s;
 800373c:	2800      	cmp	r0, #0
 800373e:	d106      	bne.n	800374e <DS3231_ReadRegs+0x2e>
    return HAL_I2C_Master_Receive(hi2c, RTC_I2C_ADDR, buf, len, RTC_TIMEOUT_MS);
 8003740:	0033      	movs	r3, r6
 8003742:	002a      	movs	r2, r5
 8003744:	21d0      	movs	r1, #208	@ 0xd0
 8003746:	0020      	movs	r0, r4
 8003748:	9700      	str	r7, [sp, #0]
 800374a:	f002 f8f5 	bl	8005938 <HAL_I2C_Master_Receive>
}
 800374e:	b005      	add	sp, #20
 8003750:	bdf0      	pop	{r4, r5, r6, r7, pc}

08003752 <RTC_Write>:
    hrtc->unix_approx = RTC_ToUnix(&hrtc->now);
    return HAL_OK;
}

HAL_StatusTypeDef RTC_Write(RTC_Handle_t *hrtc, const RTC_DateTime_t *dt)
{
 8003752:	b5f7      	push	{r0, r1, r2, r4, r5, r6, r7, lr}
    uint8_t raw[7];
    raw[0] = DEC2BCD(dt->seconds);
 8003754:	780f      	ldrb	r7, [r1, #0]
{
 8003756:	000c      	movs	r4, r1
 8003758:	0005      	movs	r5, r0
static uint8_t DEC2BCD(uint8_t d) { return (uint8_t)(((d / 10U) << 4) | (d % 10U)); }
 800375a:	210a      	movs	r1, #10
 800375c:	0038      	movs	r0, r7
 800375e:	f7fc fcef 	bl	8000140 <__udivsi3>
 8003762:	210a      	movs	r1, #10
 8003764:	0106      	lsls	r6, r0, #4
 8003766:	0038      	movs	r0, r7
 8003768:	f7fc fd70 	bl	800024c <__aeabi_uidivmod>
    raw[0] = DEC2BCD(dt->seconds);
 800376c:	466b      	mov	r3, sp
static uint8_t DEC2BCD(uint8_t d) { return (uint8_t)(((d / 10U) << 4) | (d % 10U)); }
 800376e:	430e      	orrs	r6, r1
    raw[0] = DEC2BCD(dt->seconds);
 8003770:	701e      	strb	r6, [r3, #0]
    raw[1] = DEC2BCD(dt->minutes);
 8003772:	7867      	ldrb	r7, [r4, #1]
static uint8_t DEC2BCD(uint8_t d) { return (uint8_t)(((d / 10U) << 4) | (d % 10U)); }
 8003774:	210a      	movs	r1, #10
 8003776:	0038      	movs	r0, r7
 8003778:	f7fc fce2 	bl	8000140 <__udivsi3>
 800377c:	210a      	movs	r1, #10
 800377e:	0106      	lsls	r6, r0, #4
 8003780:	0038      	movs	r0, r7
 8003782:	f7fc fd63 	bl	800024c <__aeabi_uidivmod>
    raw[1] = DEC2BCD(dt->minutes);
 8003786:	466b      	mov	r3, sp
static uint8_t DEC2BCD(uint8_t d) { return (uint8_t)(((d / 10U) << 4) | (d % 10U)); }
 8003788:	430e      	orrs	r6, r1
    raw[1] = DEC2BCD(dt->minutes);
 800378a:	705e      	strb	r6, [r3, #1]
    raw[2] = DEC2BCD(dt->hours);
 800378c:	78a7      	ldrb	r7, [r4, #2]
static uint8_t DEC2BCD(uint8_t d) { return (uint8_t)(((d / 10U) << 4) | (d % 10U)); }
 800378e:	210a      	movs	r1, #10
 8003790:	0038      	movs	r0, r7
 8003792:	f7fc fcd5 	bl	8000140 <__udivsi3>
 8003796:	210a      	movs	r1, #10
 8003798:	0106      	lsls	r6, r0, #4
 800379a:	0038      	movs	r0, r7
 800379c:	f7fc fd56 	bl	800024c <__aeabi_uidivmod>
    raw[2] = DEC2BCD(dt->hours);
 80037a0:	466b      	mov	r3, sp
static uint8_t DEC2BCD(uint8_t d) { return (uint8_t)(((d / 10U) << 4) | (d % 10U)); }
 80037a2:	430e      	orrs	r6, r1
    raw[2] = DEC2BCD(dt->hours);
 80037a4:	709e      	strb	r6, [r3, #2]
    raw[3] = DEC2BCD(dt->day);
 80037a6:	78e7      	ldrb	r7, [r4, #3]
static uint8_t DEC2BCD(uint8_t d) { return (uint8_t)(((d / 10U) << 4) | (d % 10U)); }
 80037a8:	210a      	movs	r1, #10
 80037aa:	0038      	movs	r0, r7
 80037ac:	f7fc fcc8 	bl	8000140 <__udivsi3>
 80037b0:	210a      	movs	r1, #10
 80037b2:	0106      	lsls	r6, r0, #4
 80037b4:	0038      	movs	r0, r7
 80037b6:	f7fc fd49 	bl	800024c <__aeabi_uidivmod>
    raw[3] = DEC2BCD(dt->day);
 80037ba:	466b      	mov	r3, sp
static uint8_t DEC2BCD(uint8_t d) { return (uint8_t)(((d / 10U) << 4) | (d % 10U)); }
 80037bc:	430e      	orrs	r6, r1
    raw[3] = DEC2BCD(dt->day);
 80037be:	70de      	strb	r6, [r3, #3]
    raw[4] = DEC2BCD(dt->date);
 80037c0:	7927      	ldrb	r7, [r4, #4]
static uint8_t DEC2BCD(uint8_t d) { return (uint8_t)(((d / 10U) << 4) | (d % 10U)); }
 80037c2:	210a      	movs	r1, #10
 80037c4:	0038      	movs	r0, r7
 80037c6:	f7fc fcbb 	bl	8000140 <__udivsi3>
 80037ca:	210a      	movs	r1, #10
 80037cc:	0106      	lsls	r6, r0, #4
 80037ce:	0038      	movs	r0, r7
 80037d0:	f7fc fd3c 	bl	800024c <__aeabi_uidivmod>
    raw[4] = DEC2BCD(dt->date);
 80037d4:	466b      	mov	r3, sp
static uint8_t DEC2BCD(uint8_t d) { return (uint8_t)(((d / 10U) << 4) | (d % 10U)); }
 80037d6:	430e      	orrs	r6, r1
    raw[4] = DEC2BCD(dt->date);
 80037d8:	711e      	strb	r6, [r3, #4]
    raw[5] = DEC2BCD(dt->month);
 80037da:	7967      	ldrb	r7, [r4, #5]
static uint8_t DEC2BCD(uint8_t d) { return (uint8_t)(((d / 10U) << 4) | (d % 10U)); }
 80037dc:	210a      	movs	r1, #10
 80037de:	0038      	movs	r0, r7
 80037e0:	f7fc fcae 	bl	8000140 <__udivsi3>
 80037e4:	210a      	movs	r1, #10
 80037e6:	0106      	lsls	r6, r0, #4
 80037e8:	0038      	movs	r0, r7
 80037ea:	f7fc fd2f 	bl	800024c <__aeabi_uidivmod>
    raw[5] = DEC2BCD(dt->month);
 80037ee:	466b      	mov	r3, sp
static uint8_t DEC2BCD(uint8_t d) { return (uint8_t)(((d / 10U) << 4) | (d % 10U)); }
 80037f0:	430e      	orrs	r6, r1
    raw[5] = DEC2BCD(dt->month);
 80037f2:	715e      	strb	r6, [r3, #5]
    raw[6] = DEC2BCD(dt->year);
 80037f4:	79a6      	ldrb	r6, [r4, #6]
static uint8_t DEC2BCD(uint8_t d) { return (uint8_t)(((d / 10U) << 4) | (d % 10U)); }
 80037f6:	210a      	movs	r1, #10
 80037f8:	0030      	movs	r0, r6
 80037fa:	f7fc fca1 	bl	8000140 <__udivsi3>
 80037fe:	210a      	movs	r1, #10
 8003800:	0104      	lsls	r4, r0, #4
 8003802:	0030      	movs	r0, r6
 8003804:	f7fc fd22 	bl	800024c <__aeabi_uidivmod>
    raw[6] = DEC2BCD(dt->year);
 8003808:	466b      	mov	r3, sp
static uint8_t DEC2BCD(uint8_t d) { return (uint8_t)(((d / 10U) << 4) | (d % 10U)); }
 800380a:	430c      	orrs	r4, r1
    return DS3231_WriteRegs(hrtc->hi2c, DS3231_REG_SECONDS, raw, 7);
 800380c:	6828      	ldr	r0, [r5, #0]
    raw[6] = DEC2BCD(dt->year);
 800380e:	719c      	strb	r4, [r3, #6]
    return DS3231_WriteRegs(hrtc->hi2c, DS3231_REG_SECONDS, raw, 7);
 8003810:	466a      	mov	r2, sp
 8003812:	2307      	movs	r3, #7
 8003814:	2100      	movs	r1, #0
 8003816:	f7ff ff6b 	bl	80036f0 <DS3231_WriteRegs>
}
 800381a:	bdfe      	pop	{r1, r2, r3, r4, r5, r6, r7, pc}

0800381c <RTC_SetFromUnix>:

/* Convert unix timestamp to RTC_DateTime_t and write to DS3231.
 * No atoi / string parsing — receives uint32_t directly from BLE packet.
 */
HAL_StatusTypeDef RTC_SetFromUnix(RTC_Handle_t *hrtc, uint32_t unix_time)
{
 800381c:	b5f0      	push	{r4, r5, r6, r7, lr}
 800381e:	000e      	movs	r6, r1
 8003820:	b085      	sub	sp, #20

    uint32_t remaining = unix_time;
    uint32_t total_days = remaining / 86400UL;
 8003822:	493c      	ldr	r1, [pc, #240]	@ (8003914 <RTC_SetFromUnix+0xf8>)
{
 8003824:	9001      	str	r0, [sp, #4]
    uint32_t total_days = remaining / 86400UL;
 8003826:	0030      	movs	r0, r6
 8003828:	f7fc fc8a 	bl	8000140 <__udivsi3>
 800382c:	4939      	ldr	r1, [pc, #228]	@ (8003914 <RTC_SetFromUnix+0xf8>)
 800382e:	0004      	movs	r4, r0
    remaining -= total_days * 86400UL;
 8003830:	0030      	movs	r0, r6
 8003832:	f7fc fd0b 	bl	800024c <__aeabi_uidivmod>
 8003836:	000e      	movs	r6, r1

    RTC_DateTime_t dt = {0};
    dt.hours   = (uint8_t)(remaining / 3600UL);
 8003838:	21e1      	movs	r1, #225	@ 0xe1
 800383a:	0030      	movs	r0, r6
 800383c:	0109      	lsls	r1, r1, #4
 800383e:	f7fc fc7f 	bl	8000140 <__udivsi3>
 8003842:	21e1      	movs	r1, #225	@ 0xe1
 8003844:	ab02      	add	r3, sp, #8
 8003846:	7098      	strb	r0, [r3, #2]
    remaining -= (uint32_t)dt.hours * 3600UL;
 8003848:	0109      	lsls	r1, r1, #4
 800384a:	0030      	movs	r0, r6
 800384c:	f7fc fcfe 	bl	800024c <__aeabi_uidivmod>
 8003850:	000e      	movs	r6, r1
    dt.minutes = (uint8_t)(remaining / 60U);
 8003852:	213c      	movs	r1, #60	@ 0x3c
 8003854:	0030      	movs	r0, r6
 8003856:	f7fc fc73 	bl	8000140 <__udivsi3>
 800385a:	ab02      	add	r3, sp, #8
 800385c:	7058      	strb	r0, [r3, #1]
    dt.seconds = (uint8_t)(remaining % 60U);
 800385e:	213c      	movs	r1, #60	@ 0x3c
 8003860:	0030      	movs	r0, r6
 8003862:	f7fc fcf3 	bl	800024c <__aeabi_uidivmod>

    /* Walk years from 1970 */
    uint32_t year = 1970;
    while (1) {
        uint32_t days_this_year = ((year % 4 == 0) && (year % 100 != 0 || year % 400 == 0)) ? 366UL : 365UL;
 8003866:	2603      	movs	r6, #3
 8003868:	2502      	movs	r5, #2
    dt.seconds = (uint8_t)(remaining % 60U);
 800386a:	ab02      	add	r3, sp, #8
    uint32_t year = 1970;
 800386c:	4a2a      	ldr	r2, [pc, #168]	@ (8003918 <RTC_SetFromUnix+0xfc>)
    dt.seconds = (uint8_t)(remaining % 60U);
 800386e:	7019      	strb	r1, [r3, #0]
        uint32_t days_this_year = ((year % 4 == 0) && (year % 100 != 0 || year % 400 == 0)) ? 366UL : 365UL;
 8003870:	0013      	movs	r3, r2
 8003872:	4033      	ands	r3, r6
 8003874:	4232      	tst	r2, r6
 8003876:	d118      	bne.n	80038aa <RTC_SetFromUnix+0x8e>
 8003878:	4828      	ldr	r0, [pc, #160]	@ (800391c <RTC_SetFromUnix+0x100>)
 800387a:	4f29      	ldr	r7, [pc, #164]	@ (8003920 <RTC_SetFromUnix+0x104>)
 800387c:	4350      	muls	r0, r2
 800387e:	0001      	movs	r1, r0
 8003880:	41e9      	rors	r1, r5
 8003882:	468c      	mov	ip, r1
 8003884:	21b7      	movs	r1, #183	@ 0xb7
 8003886:	0049      	lsls	r1, r1, #1
 8003888:	45bc      	cmp	ip, r7
 800388a:	d809      	bhi.n	80038a0 <RTC_SetFromUnix+0x84>
 800388c:	396b      	subs	r1, #107	@ 0x6b
 800388e:	39ff      	subs	r1, #255	@ 0xff
 8003890:	41c8      	rors	r0, r1
 8003892:	001f      	movs	r7, r3
 8003894:	4923      	ldr	r1, [pc, #140]	@ (8003924 <RTC_SetFromUnix+0x108>)
 8003896:	4281      	cmp	r1, r0
 8003898:	415f      	adcs	r7, r3
 800389a:	0039      	movs	r1, r7
 800389c:	316e      	adds	r1, #110	@ 0x6e
 800389e:	31ff      	adds	r1, #255	@ 0xff
        if (total_days < days_this_year) break;
 80038a0:	428c      	cmp	r4, r1
 80038a2:	d304      	bcc.n	80038ae <RTC_SetFromUnix+0x92>
        total_days -= days_this_year;
 80038a4:	1a64      	subs	r4, r4, r1
        year++;
 80038a6:	3201      	adds	r2, #1
    while (1) {
 80038a8:	e7e2      	b.n	8003870 <RTC_SetFromUnix+0x54>
        uint32_t days_this_year = ((year % 4 == 0) && (year % 100 != 0 || year % 400 == 0)) ? 366UL : 365UL;
 80038aa:	216e      	movs	r1, #110	@ 0x6e
 80038ac:	e7f7      	b.n	800389e <RTC_SetFromUnix+0x82>
    }
    dt.year = (uint8_t)(year - 2000);  /* DS3231 stores 0-99 */
 80038ae:	0011      	movs	r1, r2
 80038b0:	a802      	add	r0, sp, #8
 80038b2:	3130      	adds	r1, #48	@ 0x30
 80038b4:	7181      	strb	r1, [r0, #6]

    /* Walk months */
    uint8_t leap = ((year % 4 == 0) && (year % 100 != 0 || year % 400 == 0)) ? 1U : 0U;
 80038b6:	2100      	movs	r1, #0
 80038b8:	428b      	cmp	r3, r1
 80038ba:	d10e      	bne.n	80038da <RTC_SetFromUnix+0xbe>
 80038bc:	4917      	ldr	r1, [pc, #92]	@ (800391c <RTC_SetFromUnix+0x100>)
 80038be:	4818      	ldr	r0, [pc, #96]	@ (8003920 <RTC_SetFromUnix+0x104>)
 80038c0:	434a      	muls	r2, r1
 80038c2:	2102      	movs	r1, #2
 80038c4:	0016      	movs	r6, r2
 80038c6:	41ce      	rors	r6, r1
 80038c8:	3901      	subs	r1, #1
 80038ca:	4286      	cmp	r6, r0
 80038cc:	d805      	bhi.n	80038da <RTC_SetFromUnix+0xbe>
 80038ce:	3103      	adds	r1, #3
 80038d0:	41ca      	rors	r2, r1
 80038d2:	4914      	ldr	r1, [pc, #80]	@ (8003924 <RTC_SetFromUnix+0x108>)
 80038d4:	4291      	cmp	r1, r2
 80038d6:	415b      	adcs	r3, r3
 80038d8:	b2d9      	uxtb	r1, r3
    uint8_t month = 1;
 80038da:	2201      	movs	r2, #1
 80038dc:	4b12      	ldr	r3, [pc, #72]	@ (8003928 <RTC_SetFromUnix+0x10c>)
    while (month <= 12) {
        uint8_t dim = s_days_in_month[month - 1];
 80038de:	7818      	ldrb	r0, [r3, #0]
        if (month == 2 && leap) dim = 29;
 80038e0:	2a02      	cmp	r2, #2
 80038e2:	d102      	bne.n	80038ea <RTC_SetFromUnix+0xce>
 80038e4:	2900      	cmp	r1, #0
 80038e6:	d000      	beq.n	80038ea <RTC_SetFromUnix+0xce>
 80038e8:	201d      	movs	r0, #29
        if (total_days < (uint32_t)dim) break;
 80038ea:	4284      	cmp	r4, r0
 80038ec:	d305      	bcc.n	80038fa <RTC_SetFromUnix+0xde>
        total_days -= dim;
        month++;
 80038ee:	3201      	adds	r2, #1
 80038f0:	b2d2      	uxtb	r2, r2
        total_days -= dim;
 80038f2:	1a24      	subs	r4, r4, r0
    while (month <= 12) {
 80038f4:	3301      	adds	r3, #1
 80038f6:	2a0d      	cmp	r2, #13
 80038f8:	d1f1      	bne.n	80038de <RTC_SetFromUnix+0xc2>
    }
    dt.month = month;
 80038fa:	ab02      	add	r3, sp, #8
    dt.date  = (uint8_t)(total_days + 1U);
 80038fc:	3401      	adds	r4, #1
    dt.month = month;
 80038fe:	715a      	strb	r2, [r3, #5]
    dt.date  = (uint8_t)(total_days + 1U);
 8003900:	711c      	strb	r4, [r3, #4]
    dt.day   = 1;  /* day-of-week: not critical for function */
 8003902:	2301      	movs	r3, #1
 8003904:	aa02      	add	r2, sp, #8

    return RTC_Write(hrtc, &dt);
 8003906:	0011      	movs	r1, r2
 8003908:	9801      	ldr	r0, [sp, #4]
    dt.day   = 1;  /* day-of-week: not critical for function */
 800390a:	70d3      	strb	r3, [r2, #3]
    return RTC_Write(hrtc, &dt);
 800390c:	f7ff ff21 	bl	8003752 <RTC_Write>
}
 8003910:	b005      	add	sp, #20
 8003912:	bdf0      	pop	{r4, r5, r6, r7, pc}
 8003914:	00015180 	.word	0x00015180
 8003918:	000007b2 	.word	0x000007b2
 800391c:	c28f5c29 	.word	0xc28f5c29
 8003920:	028f5c28 	.word	0x028f5c28
 8003924:	00a3d70a 	.word	0x00a3d70a
 8003928:	08007ae0 	.word	0x08007ae0

0800392c <RTC_TickISR>:

void RTC_TickISR(RTC_Handle_t *hrtc)
{
    hrtc->tick_flag = 1;
 800392c:	2301      	movs	r3, #1
 800392e:	7403      	strb	r3, [r0, #16]
}
 8003930:	4770      	bx	lr
	...

08003934 <RTC_ToUnix>:

/* Simplified unix epoch (approximation; adequate for hydration log timestamps) */
uint32_t RTC_ToUnix(const RTC_DateTime_t *dt)
{
    static const uint16_t days_in_month[] = {0,31,59,90,120,151,181,212,243,273,304,334};
    uint32_t year  = 2000UL + dt->year;
 8003934:	21fa      	movs	r1, #250	@ 0xfa
{
 8003936:	b530      	push	{r4, r5, lr}
    uint32_t days  = (year - 1970UL) * 365UL
                   + (year - 1969UL) / 4UL
 8003938:	246e      	movs	r4, #110	@ 0x6e
{
 800393a:	0002      	movs	r2, r0
    uint32_t year  = 2000UL + dt->year;
 800393c:	7983      	ldrb	r3, [r0, #6]
 800393e:	00c9      	lsls	r1, r1, #3
 8003940:	1859      	adds	r1, r3, r1
                   + (year - 1969UL) / 4UL
 8003942:	34ff      	adds	r4, #255	@ 0xff
 8003944:	434c      	muls	r4, r1
 8003946:	331f      	adds	r3, #31
 8003948:	089b      	lsrs	r3, r3, #2
 800394a:	191b      	adds	r3, r3, r4
                   + days_in_month[dt->month - 1U]
 800394c:	7940      	ldrb	r0, [r0, #5]
                   + dt->date - 1UL;
 800394e:	7914      	ldrb	r4, [r2, #4]
                   + days_in_month[dt->month - 1U]
 8003950:	1e45      	subs	r5, r0, #1
                   + dt->date - 1UL;
 8003952:	191b      	adds	r3, r3, r4
                   + days_in_month[dt->month - 1U]
 8003954:	4c0c      	ldr	r4, [pc, #48]	@ (8003988 <RTC_ToUnix+0x54>)
 8003956:	006d      	lsls	r5, r5, #1
 8003958:	5b2c      	ldrh	r4, [r5, r4]
                   + dt->date - 1UL;
 800395a:	191b      	adds	r3, r3, r4
    uint32_t days  = (year - 1970UL) * 365UL
 800395c:	4c0b      	ldr	r4, [pc, #44]	@ (800398c <RTC_ToUnix+0x58>)
 800395e:	191c      	adds	r4, r3, r4
    if (dt->month > 2U && (year % 4UL == 0UL)) days++;
 8003960:	2802      	cmp	r0, #2
 8003962:	d903      	bls.n	800396c <RTC_ToUnix+0x38>
 8003964:	0789      	lsls	r1, r1, #30
 8003966:	d101      	bne.n	800396c <RTC_ToUnix+0x38>
 8003968:	4909      	ldr	r1, [pc, #36]	@ (8003990 <RTC_ToUnix+0x5c>)
 800396a:	185c      	adds	r4, r3, r1
    return days  * 86400UL
         + (uint32_t)dt->hours   * 3600UL
 800396c:	20e1      	movs	r0, #225	@ 0xe1
 800396e:	7893      	ldrb	r3, [r2, #2]
 8003970:	0100      	lsls	r0, r0, #4
 8003972:	4358      	muls	r0, r3
         + (uint32_t)dt->minutes * 60UL
 8003974:	233c      	movs	r3, #60	@ 0x3c
 8003976:	7851      	ldrb	r1, [r2, #1]
 8003978:	434b      	muls	r3, r1
         + dt->seconds;
 800397a:	18c0      	adds	r0, r0, r3
 800397c:	7813      	ldrb	r3, [r2, #0]
 800397e:	18c0      	adds	r0, r0, r3
    return days  * 86400UL
 8003980:	4b04      	ldr	r3, [pc, #16]	@ (8003994 <RTC_ToUnix+0x60>)
 8003982:	4363      	muls	r3, r4
         + dt->seconds;
 8003984:	18c0      	adds	r0, r0, r3
}
 8003986:	bd30      	pop	{r4, r5, pc}
 8003988:	08007ac8 	.word	0x08007ac8
 800398c:	fff50735 	.word	0xfff50735
 8003990:	fff50736 	.word	0xfff50736
 8003994:	00015180 	.word	0x00015180

08003998 <RTC_Read>:
{
 8003998:	b5f7      	push	{r0, r1, r2, r4, r5, r6, r7, lr}
    if (DS3231_ReadRegs(hrtc->hi2c, DS3231_REG_SECONDS, raw, 7) != HAL_OK) return HAL_ERROR;
 800399a:	2307      	movs	r3, #7
{
 800399c:	0004      	movs	r4, r0
    if (DS3231_ReadRegs(hrtc->hi2c, DS3231_REG_SECONDS, raw, 7) != HAL_OK) return HAL_ERROR;
 800399e:	466a      	mov	r2, sp
 80039a0:	2100      	movs	r1, #0
 80039a2:	6800      	ldr	r0, [r0, #0]
 80039a4:	f7ff febc 	bl	8003720 <DS3231_ReadRegs>
 80039a8:	1e05      	subs	r5, r0, #0
 80039aa:	d13c      	bne.n	8003a26 <RTC_Read+0x8e>
    hrtc->now.seconds = BCD2DEC(raw[0] & 0x7FU);
 80039ac:	466b      	mov	r3, sp
static uint8_t BCD2DEC(uint8_t b) { return (uint8_t)((b >> 4) * 10U + (b & 0x0FU)); }
 80039ae:	2607      	movs	r6, #7
    hrtc->now.seconds = BCD2DEC(raw[0] & 0x7FU);
 80039b0:	7818      	ldrb	r0, [r3, #0]
static uint8_t BCD2DEC(uint8_t b) { return (uint8_t)((b >> 4) * 10U + (b & 0x0FU)); }
 80039b2:	230a      	movs	r3, #10
 80039b4:	210f      	movs	r1, #15
 80039b6:	0902      	lsrs	r2, r0, #4
 80039b8:	4032      	ands	r2, r6
 80039ba:	435a      	muls	r2, r3
 80039bc:	4008      	ands	r0, r1
 80039be:	1812      	adds	r2, r2, r0
    hrtc->now.seconds = BCD2DEC(raw[0] & 0x7FU);
 80039c0:	7122      	strb	r2, [r4, #4]
    hrtc->now.minutes = BCD2DEC(raw[1] & 0x7FU);
 80039c2:	466a      	mov	r2, sp
 80039c4:	7850      	ldrb	r0, [r2, #1]
static uint8_t BCD2DEC(uint8_t b) { return (uint8_t)((b >> 4) * 10U + (b & 0x0FU)); }
 80039c6:	0902      	lsrs	r2, r0, #4
 80039c8:	4032      	ands	r2, r6
 80039ca:	435a      	muls	r2, r3
 80039cc:	4008      	ands	r0, r1
 80039ce:	1812      	adds	r2, r2, r0
    hrtc->now.minutes = BCD2DEC(raw[1] & 0x7FU);
 80039d0:	7162      	strb	r2, [r4, #5]
    hrtc->now.hours   = BCD2DEC(raw[2] & 0x3FU);
 80039d2:	466a      	mov	r2, sp
static uint8_t BCD2DEC(uint8_t b) { return (uint8_t)((b >> 4) * 10U + (b & 0x0FU)); }
 80039d4:	2003      	movs	r0, #3
    hrtc->now.hours   = BCD2DEC(raw[2] & 0x3FU);
 80039d6:	7897      	ldrb	r7, [r2, #2]
static uint8_t BCD2DEC(uint8_t b) { return (uint8_t)((b >> 4) * 10U + (b & 0x0FU)); }
 80039d8:	093a      	lsrs	r2, r7, #4
 80039da:	4002      	ands	r2, r0
 80039dc:	435a      	muls	r2, r3
 80039de:	400f      	ands	r7, r1
 80039e0:	19d2      	adds	r2, r2, r7
    hrtc->now.hours   = BCD2DEC(raw[2] & 0x3FU);
 80039e2:	71a2      	strb	r2, [r4, #6]
    hrtc->now.day     = BCD2DEC(raw[3] & 0x07U);
 80039e4:	466a      	mov	r2, sp
 80039e6:	78d2      	ldrb	r2, [r2, #3]
 80039e8:	4032      	ands	r2, r6
 80039ea:	71e2      	strb	r2, [r4, #7]
    hrtc->now.date    = BCD2DEC(raw[4] & 0x3FU);
 80039ec:	466a      	mov	r2, sp
 80039ee:	7916      	ldrb	r6, [r2, #4]
static uint8_t BCD2DEC(uint8_t b) { return (uint8_t)((b >> 4) * 10U + (b & 0x0FU)); }
 80039f0:	0932      	lsrs	r2, r6, #4
 80039f2:	4002      	ands	r2, r0
 80039f4:	435a      	muls	r2, r3
 80039f6:	400e      	ands	r6, r1
 80039f8:	1992      	adds	r2, r2, r6
    hrtc->now.date    = BCD2DEC(raw[4] & 0x3FU);
 80039fa:	7222      	strb	r2, [r4, #8]
    hrtc->now.month   = BCD2DEC(raw[5] & 0x1FU);
 80039fc:	466a      	mov	r2, sp
 80039fe:	7950      	ldrb	r0, [r2, #5]
static uint8_t BCD2DEC(uint8_t b) { return (uint8_t)((b >> 4) * 10U + (b & 0x0FU)); }
 8003a00:	06c2      	lsls	r2, r0, #27
 8003a02:	17d2      	asrs	r2, r2, #31
 8003a04:	4008      	ands	r0, r1
 8003a06:	401a      	ands	r2, r3
 8003a08:	1812      	adds	r2, r2, r0
    hrtc->now.month   = BCD2DEC(raw[5] & 0x1FU);
 8003a0a:	7262      	strb	r2, [r4, #9]
    hrtc->now.year    = BCD2DEC(raw[6]);
 8003a0c:	466a      	mov	r2, sp
 8003a0e:	7992      	ldrb	r2, [r2, #6]
static uint8_t BCD2DEC(uint8_t b) { return (uint8_t)((b >> 4) * 10U + (b & 0x0FU)); }
 8003a10:	0910      	lsrs	r0, r2, #4
 8003a12:	4343      	muls	r3, r0
 8003a14:	400a      	ands	r2, r1
 8003a16:	189b      	adds	r3, r3, r2
    hrtc->now.year    = BCD2DEC(raw[6]);
 8003a18:	72a3      	strb	r3, [r4, #10]
    hrtc->unix_approx = RTC_ToUnix(&hrtc->now);
 8003a1a:	1d20      	adds	r0, r4, #4
 8003a1c:	f7ff ff8a 	bl	8003934 <RTC_ToUnix>
 8003a20:	60e0      	str	r0, [r4, #12]
}
 8003a22:	0028      	movs	r0, r5
 8003a24:	bdfe      	pop	{r1, r2, r3, r4, r5, r6, r7, pc}
    if (DS3231_ReadRegs(hrtc->hi2c, DS3231_REG_SECONDS, raw, 7) != HAL_OK) return HAL_ERROR;
 8003a26:	2501      	movs	r5, #1
 8003a28:	e7fb      	b.n	8003a22 <RTC_Read+0x8a>

08003a2a <RTC_Init>:
{
 8003a2a:	b5f7      	push	{r0, r1, r2, r4, r5, r6, r7, lr}
    hrtc->unix_approx = 0;
 8003a2c:	2500      	movs	r5, #0
    memset(&hrtc->now, 0, sizeof(hrtc->now));
 8003a2e:	2207      	movs	r2, #7
    hrtc->hi2c        = hi2c;
 8003a30:	6001      	str	r1, [r0, #0]
    hrtc->unix_approx = 0;
 8003a32:	60c5      	str	r5, [r0, #12]
    hrtc->tick_flag   = 0;
 8003a34:	8205      	strh	r5, [r0, #16]
{
 8003a36:	000e      	movs	r6, r1
 8003a38:	0004      	movs	r4, r0
    memset(&hrtc->now, 0, sizeof(hrtc->now));
 8003a3a:	0029      	movs	r1, r5
 8003a3c:	3004      	adds	r0, #4
 8003a3e:	f003 fe9b 	bl	8007778 <memset>
    uint8_t ctrl = 0x00U;
 8003a42:	466b      	mov	r3, sp
    if (DS3231_WriteRegs(hi2c, DS3231_REG_CONTROL, &ctrl, 1) != HAL_OK) return HAL_ERROR;
 8003a44:	210e      	movs	r1, #14
    uint8_t ctrl = 0x00U;
 8003a46:	1d9a      	adds	r2, r3, #6
    if (DS3231_WriteRegs(hi2c, DS3231_REG_CONTROL, &ctrl, 1) != HAL_OK) return HAL_ERROR;
 8003a48:	0030      	movs	r0, r6
 8003a4a:	2301      	movs	r3, #1
    uint8_t ctrl = 0x00U;
 8003a4c:	7015      	strb	r5, [r2, #0]
    if (DS3231_WriteRegs(hi2c, DS3231_REG_CONTROL, &ctrl, 1) != HAL_OK) return HAL_ERROR;
 8003a4e:	f7ff fe4f 	bl	80036f0 <DS3231_WriteRegs>
 8003a52:	3501      	adds	r5, #1
 8003a54:	2800      	cmp	r0, #0
 8003a56:	d117      	bne.n	8003a88 <RTC_Init+0x5e>
    uint8_t status = 0;
 8003a58:	466b      	mov	r3, sp
 8003a5a:	1ddf      	adds	r7, r3, #7
 8003a5c:	71d8      	strb	r0, [r3, #7]
    DS3231_ReadRegs(hi2c, DS3231_REG_STATUS, &status, 1);
 8003a5e:	003a      	movs	r2, r7
 8003a60:	002b      	movs	r3, r5
 8003a62:	210f      	movs	r1, #15
 8003a64:	0030      	movs	r0, r6
 8003a66:	f7ff fe5b 	bl	8003720 <DS3231_ReadRegs>
    status &= ~0x80U;
 8003a6a:	227f      	movs	r2, #127	@ 0x7f
 8003a6c:	783b      	ldrb	r3, [r7, #0]
    DS3231_WriteRegs(hi2c, DS3231_REG_STATUS, &status, 1);
 8003a6e:	210f      	movs	r1, #15
    status &= ~0x80U;
 8003a70:	4013      	ands	r3, r2
 8003a72:	703b      	strb	r3, [r7, #0]
    DS3231_WriteRegs(hi2c, DS3231_REG_STATUS, &status, 1);
 8003a74:	003a      	movs	r2, r7
 8003a76:	002b      	movs	r3, r5
 8003a78:	0030      	movs	r0, r6
 8003a7a:	f7ff fe39 	bl	80036f0 <DS3231_WriteRegs>
    hrtc->initialized = 1;
 8003a7e:	7465      	strb	r5, [r4, #17]
    return RTC_Read(hrtc);
 8003a80:	0020      	movs	r0, r4
 8003a82:	f7ff ff89 	bl	8003998 <RTC_Read>
 8003a86:	0005      	movs	r5, r0
}
 8003a88:	0028      	movs	r0, r5
 8003a8a:	bdfe      	pop	{r1, r2, r3, r4, r5, r6, r7, pc}

08003a8c <RTC_IsInWindow>:

/* Reminder window check using integer h/m — no atoi */
uint8_t RTC_IsInWindow(const RTC_DateTime_t *dt,
                        uint8_t h_start, uint8_t m_start,
                        uint8_t h_end,   uint8_t m_end)
{
 8003a8c:	b5f0      	push	{r4, r5, r6, r7, lr}
 8003a8e:	ac05      	add	r4, sp, #20
 8003a90:	7826      	ldrb	r6, [r4, #0]
    uint16_t now_min   = (uint16_t)dt->hours   * 60U + dt->minutes;
 8003a92:	243c      	movs	r4, #60	@ 0x3c
 8003a94:	7887      	ldrb	r7, [r0, #2]
    uint16_t start_min = (uint16_t)h_start * 60U + m_start;
 8003a96:	4361      	muls	r1, r4
    uint16_t now_min   = (uint16_t)dt->hours   * 60U + dt->minutes;
 8003a98:	4367      	muls	r7, r4
 8003a9a:	7845      	ldrb	r5, [r0, #1]
    uint16_t end_min   = (uint16_t)h_end   * 60U + m_end;
    return (now_min >= start_min && now_min <= end_min) ? 1U : 0U;
 8003a9c:	1852      	adds	r2, r2, r1
    uint16_t now_min   = (uint16_t)dt->hours   * 60U + dt->minutes;
 8003a9e:	19ed      	adds	r5, r5, r7
    return (now_min >= start_min && now_min <= end_min) ? 1U : 0U;
 8003aa0:	2000      	movs	r0, #0
 8003aa2:	4295      	cmp	r5, r2
 8003aa4:	d304      	bcc.n	8003ab0 <RTC_IsInWindow+0x24>
    uint16_t end_min   = (uint16_t)h_end   * 60U + m_end;
 8003aa6:	435c      	muls	r4, r3
    return (now_min >= start_min && now_min <= end_min) ? 1U : 0U;
 8003aa8:	1936      	adds	r6, r6, r4
 8003aaa:	42ae      	cmp	r6, r5
 8003aac:	4140      	adcs	r0, r0
 8003aae:	b2c0      	uxtb	r0, r0
}
 8003ab0:	bdf0      	pop	{r4, r5, r6, r7, pc}
	...

08003ab4 <HAL_MspInit>:

  /* USER CODE BEGIN MspInit 0 */

  /* USER CODE END MspInit 0 */

  __HAL_RCC_SYSCFG_CLK_ENABLE();
 8003ab4:	2101      	movs	r1, #1
 8003ab6:	4b0a      	ldr	r3, [pc, #40]	@ (8003ae0 <HAL_MspInit+0x2c>)
{
 8003ab8:	b082      	sub	sp, #8
  __HAL_RCC_SYSCFG_CLK_ENABLE();
 8003aba:	699a      	ldr	r2, [r3, #24]
 8003abc:	430a      	orrs	r2, r1
 8003abe:	619a      	str	r2, [r3, #24]
 8003ac0:	699a      	ldr	r2, [r3, #24]
 8003ac2:	400a      	ands	r2, r1
  __HAL_RCC_PWR_CLK_ENABLE();
 8003ac4:	2180      	movs	r1, #128	@ 0x80
  __HAL_RCC_SYSCFG_CLK_ENABLE();
 8003ac6:	9200      	str	r2, [sp, #0]
 8003ac8:	9a00      	ldr	r2, [sp, #0]
  __HAL_RCC_PWR_CLK_ENABLE();
 8003aca:	69da      	ldr	r2, [r3, #28]
 8003acc:	0549      	lsls	r1, r1, #21
 8003ace:	430a      	orrs	r2, r1
 8003ad0:	61da      	str	r2, [r3, #28]
 8003ad2:	69db      	ldr	r3, [r3, #28]
 8003ad4:	400b      	ands	r3, r1
 8003ad6:	9301      	str	r3, [sp, #4]
 8003ad8:	9b01      	ldr	r3, [sp, #4]
  /* System interrupt init*/

  /* USER CODE BEGIN MspInit 1 */

  /* USER CODE END MspInit 1 */
}
 8003ada:	b002      	add	sp, #8
 8003adc:	4770      	bx	lr
 8003ade:	46c0      	nop			@ (mov r8, r8)
 8003ae0:	40021000 	.word	0x40021000

08003ae4 <HAL_ADC_MspInit>:
  * This function configures the hardware resources used in this example
  * @param hadc: ADC handle pointer
  * @retval None
  */
void HAL_ADC_MspInit(ADC_HandleTypeDef* hadc)
{
 8003ae4:	b510      	push	{r4, lr}
 8003ae6:	0004      	movs	r4, r0
 8003ae8:	b088      	sub	sp, #32
  GPIO_InitTypeDef GPIO_InitStruct = {0};
 8003aea:	2214      	movs	r2, #20
 8003aec:	2100      	movs	r1, #0
 8003aee:	a803      	add	r0, sp, #12
 8003af0:	f003 fe42 	bl	8007778 <memset>
  if(hadc->Instance==ADC1)
 8003af4:	4b14      	ldr	r3, [pc, #80]	@ (8003b48 <HAL_ADC_MspInit+0x64>)
 8003af6:	6822      	ldr	r2, [r4, #0]
 8003af8:	429a      	cmp	r2, r3
 8003afa:	d123      	bne.n	8003b44 <HAL_ADC_MspInit+0x60>
  {
    /* USER CODE BEGIN ADC1_MspInit 0 */

    /* USER CODE END ADC1_MspInit 0 */
    /* Peripheral clock enable */
    __HAL_RCC_ADC1_CLK_ENABLE();
 8003afc:	2180      	movs	r1, #128	@ 0x80
 8003afe:	4b13      	ldr	r3, [pc, #76]	@ (8003b4c <HAL_ADC_MspInit+0x68>)
 8003b00:	0089      	lsls	r1, r1, #2
 8003b02:	699a      	ldr	r2, [r3, #24]
    PA7     ------> ADC_IN7
    */
    GPIO_InitStruct.Pin = TDS_MCU_Pin|NTC_TEMP_Pin|BAT__Pin;
    GPIO_InitStruct.Mode = GPIO_MODE_ANALOG;
    GPIO_InitStruct.Pull = GPIO_NOPULL;
    HAL_GPIO_Init(GPIOA, &GPIO_InitStruct);
 8003b04:	2090      	movs	r0, #144	@ 0x90
    __HAL_RCC_ADC1_CLK_ENABLE();
 8003b06:	430a      	orrs	r2, r1
 8003b08:	619a      	str	r2, [r3, #24]
 8003b0a:	699a      	ldr	r2, [r3, #24]
    HAL_GPIO_Init(GPIOA, &GPIO_InitStruct);
 8003b0c:	05c0      	lsls	r0, r0, #23
    __HAL_RCC_ADC1_CLK_ENABLE();
 8003b0e:	400a      	ands	r2, r1
    __HAL_RCC_GPIOA_CLK_ENABLE();
 8003b10:	2180      	movs	r1, #128	@ 0x80
    __HAL_RCC_ADC1_CLK_ENABLE();
 8003b12:	9201      	str	r2, [sp, #4]
 8003b14:	9a01      	ldr	r2, [sp, #4]
    __HAL_RCC_GPIOA_CLK_ENABLE();
 8003b16:	695a      	ldr	r2, [r3, #20]
 8003b18:	0289      	lsls	r1, r1, #10
 8003b1a:	430a      	orrs	r2, r1
 8003b1c:	615a      	str	r2, [r3, #20]
 8003b1e:	695b      	ldr	r3, [r3, #20]
 8003b20:	400b      	ands	r3, r1
 8003b22:	9302      	str	r3, [sp, #8]
 8003b24:	9b02      	ldr	r3, [sp, #8]
    GPIO_InitStruct.Pin = TDS_MCU_Pin|NTC_TEMP_Pin|BAT__Pin;
 8003b26:	238c      	movs	r3, #140	@ 0x8c
    HAL_GPIO_Init(GPIOA, &GPIO_InitStruct);
 8003b28:	a903      	add	r1, sp, #12
    GPIO_InitStruct.Pin = TDS_MCU_Pin|NTC_TEMP_Pin|BAT__Pin;
 8003b2a:	9303      	str	r3, [sp, #12]
    GPIO_InitStruct.Mode = GPIO_MODE_ANALOG;
 8003b2c:	3b89      	subs	r3, #137	@ 0x89
 8003b2e:	9304      	str	r3, [sp, #16]
    HAL_GPIO_Init(GPIOA, &GPIO_InitStruct);
 8003b30:	f001 fbae 	bl	8005290 <HAL_GPIO_Init>

    /* ADC1 interrupt Init */
    HAL_NVIC_SetPriority(ADC1_IRQn, 0, 0);
 8003b34:	2200      	movs	r2, #0
 8003b36:	200c      	movs	r0, #12
 8003b38:	0011      	movs	r1, r2
 8003b3a:	f001 f93b 	bl	8004db4 <HAL_NVIC_SetPriority>
    HAL_NVIC_EnableIRQ(ADC1_IRQn);
 8003b3e:	200c      	movs	r0, #12
 8003b40:	f001 f962 	bl	8004e08 <HAL_NVIC_EnableIRQ>

    /* USER CODE END ADC1_MspInit 1 */

  }

}
 8003b44:	b008      	add	sp, #32
 8003b46:	bd10      	pop	{r4, pc}
 8003b48:	40012400 	.word	0x40012400
 8003b4c:	40021000 	.word	0x40021000

08003b50 <HAL_I2C_MspInit>:
  * This function configures the hardware resources used in this example
  * @param hi2c: I2C handle pointer
  * @retval None
  */
void HAL_I2C_MspInit(I2C_HandleTypeDef* hi2c)
{
 8003b50:	b510      	push	{r4, lr}
 8003b52:	0004      	movs	r4, r0
 8003b54:	b088      	sub	sp, #32
  GPIO_InitTypeDef GPIO_InitStruct = {0};
 8003b56:	2214      	movs	r2, #20
 8003b58:	2100      	movs	r1, #0
 8003b5a:	a803      	add	r0, sp, #12
 8003b5c:	f003 fe0c 	bl	8007778 <memset>
  if(hi2c->Instance==I2C1)
 8003b60:	4b12      	ldr	r3, [pc, #72]	@ (8003bac <HAL_I2C_MspInit+0x5c>)
 8003b62:	6822      	ldr	r2, [r4, #0]
 8003b64:	429a      	cmp	r2, r3
 8003b66:	d11e      	bne.n	8003ba6 <HAL_I2C_MspInit+0x56>
  {
    /* USER CODE BEGIN I2C1_MspInit 0 */

    /* USER CODE END I2C1_MspInit 0 */

    __HAL_RCC_GPIOB_CLK_ENABLE();
 8003b68:	2280      	movs	r2, #128	@ 0x80
 8003b6a:	4c11      	ldr	r4, [pc, #68]	@ (8003bb0 <HAL_I2C_MspInit+0x60>)
 8003b6c:	02d2      	lsls	r2, r2, #11
 8003b6e:	6963      	ldr	r3, [r4, #20]
    GPIO_InitStruct.Pin = GPIO_PIN_6|GPIO_PIN_7;
    GPIO_InitStruct.Mode = GPIO_MODE_AF_OD;
    GPIO_InitStruct.Pull = GPIO_NOPULL;
    GPIO_InitStruct.Speed = GPIO_SPEED_FREQ_HIGH;
    GPIO_InitStruct.Alternate = GPIO_AF1_I2C1;
    HAL_GPIO_Init(GPIOB, &GPIO_InitStruct);
 8003b70:	4810      	ldr	r0, [pc, #64]	@ (8003bb4 <HAL_I2C_MspInit+0x64>)
    __HAL_RCC_GPIOB_CLK_ENABLE();
 8003b72:	4313      	orrs	r3, r2
 8003b74:	6163      	str	r3, [r4, #20]
 8003b76:	6963      	ldr	r3, [r4, #20]
    HAL_GPIO_Init(GPIOB, &GPIO_InitStruct);
 8003b78:	a903      	add	r1, sp, #12
    __HAL_RCC_GPIOB_CLK_ENABLE();
 8003b7a:	4013      	ands	r3, r2
 8003b7c:	9301      	str	r3, [sp, #4]
 8003b7e:	9b01      	ldr	r3, [sp, #4]
    GPIO_InitStruct.Pin = GPIO_PIN_6|GPIO_PIN_7;
 8003b80:	23c0      	movs	r3, #192	@ 0xc0
 8003b82:	9303      	str	r3, [sp, #12]
    GPIO_InitStruct.Mode = GPIO_MODE_AF_OD;
 8003b84:	3bae      	subs	r3, #174	@ 0xae
 8003b86:	9304      	str	r3, [sp, #16]
    GPIO_InitStruct.Speed = GPIO_SPEED_FREQ_HIGH;
 8003b88:	3b0f      	subs	r3, #15
 8003b8a:	9306      	str	r3, [sp, #24]
    GPIO_InitStruct.Alternate = GPIO_AF1_I2C1;
 8003b8c:	3b02      	subs	r3, #2
 8003b8e:	9307      	str	r3, [sp, #28]
    HAL_GPIO_Init(GPIOB, &GPIO_InitStruct);
 8003b90:	f001 fb7e 	bl	8005290 <HAL_GPIO_Init>

    /* Peripheral clock enable */
    __HAL_RCC_I2C1_CLK_ENABLE();
 8003b94:	2280      	movs	r2, #128	@ 0x80
 8003b96:	69e3      	ldr	r3, [r4, #28]
 8003b98:	0392      	lsls	r2, r2, #14
 8003b9a:	4313      	orrs	r3, r2
 8003b9c:	61e3      	str	r3, [r4, #28]
 8003b9e:	69e3      	ldr	r3, [r4, #28]
 8003ba0:	4013      	ands	r3, r2
 8003ba2:	9302      	str	r3, [sp, #8]
 8003ba4:	9b02      	ldr	r3, [sp, #8]

    /* USER CODE END I2C1_MspInit 1 */

  }

}
 8003ba6:	b008      	add	sp, #32
 8003ba8:	bd10      	pop	{r4, pc}
 8003baa:	46c0      	nop			@ (mov r8, r8)
 8003bac:	40005400 	.word	0x40005400
 8003bb0:	40021000 	.word	0x40021000
 8003bb4:	48000400 	.word	0x48000400

08003bb8 <HAL_TIM_Base_MspInit>:
  * This function configures the hardware resources used in this example
  * @param htim_base: TIM_Base handle pointer
  * @retval None
  */
void HAL_TIM_Base_MspInit(TIM_HandleTypeDef* htim_base)
{
 8003bb8:	b537      	push	{r0, r1, r2, r4, r5, lr}
  if(htim_base->Instance==TIM1)
 8003bba:	6803      	ldr	r3, [r0, #0]
 8003bbc:	4a19      	ldr	r2, [pc, #100]	@ (8003c24 <HAL_TIM_Base_MspInit+0x6c>)
{
 8003bbe:	0005      	movs	r5, r0
  if(htim_base->Instance==TIM1)
 8003bc0:	4293      	cmp	r3, r2
 8003bc2:	d122      	bne.n	8003c0a <HAL_TIM_Base_MspInit+0x52>
  {
    /* USER CODE BEGIN TIM1_MspInit 0 */

    /* USER CODE END TIM1_MspInit 0 */
    /* Peripheral clock enable */
    __HAL_RCC_TIM1_CLK_ENABLE();
 8003bc4:	2180      	movs	r1, #128	@ 0x80
 8003bc6:	4b18      	ldr	r3, [pc, #96]	@ (8003c28 <HAL_TIM_Base_MspInit+0x70>)
 8003bc8:	0109      	lsls	r1, r1, #4
 8003bca:	699a      	ldr	r2, [r3, #24]

    /* TIM1 DMA Init */
    /* TIM1_CH1 Init */
    hdma_tim1_ch1.Instance = DMA1_Channel2;
 8003bcc:	4c17      	ldr	r4, [pc, #92]	@ (8003c2c <HAL_TIM_Base_MspInit+0x74>)
    __HAL_RCC_TIM1_CLK_ENABLE();
 8003bce:	430a      	orrs	r2, r1
 8003bd0:	619a      	str	r2, [r3, #24]
    hdma_tim1_ch1.Init.Direction = DMA_PERIPH_TO_MEMORY;
    hdma_tim1_ch1.Init.PeriphInc = DMA_PINC_DISABLE;
    hdma_tim1_ch1.Init.MemInc = DMA_MINC_ENABLE;
 8003bd2:	2280      	movs	r2, #128	@ 0x80
    __HAL_RCC_TIM1_CLK_ENABLE();
 8003bd4:	699b      	ldr	r3, [r3, #24]
    hdma_tim1_ch1.Init.MemInc = DMA_MINC_ENABLE;
 8003bd6:	60e2      	str	r2, [r4, #12]
    __HAL_RCC_TIM1_CLK_ENABLE();
 8003bd8:	400b      	ands	r3, r1
 8003bda:	9300      	str	r3, [sp, #0]
    hdma_tim1_ch1.Init.PeriphDataAlignment = DMA_PDATAALIGN_HALFWORD;
 8003bdc:	1892      	adds	r2, r2, r2
    __HAL_RCC_TIM1_CLK_ENABLE();
 8003bde:	9b00      	ldr	r3, [sp, #0]
    hdma_tim1_ch1.Instance = DMA1_Channel2;
 8003be0:	4b13      	ldr	r3, [pc, #76]	@ (8003c30 <HAL_TIM_Base_MspInit+0x78>)
    hdma_tim1_ch1.Init.PeriphDataAlignment = DMA_PDATAALIGN_HALFWORD;
 8003be2:	6122      	str	r2, [r4, #16]
    hdma_tim1_ch1.Init.MemDataAlignment = DMA_MDATAALIGN_HALFWORD;
 8003be4:	2280      	movs	r2, #128	@ 0x80
    hdma_tim1_ch1.Instance = DMA1_Channel2;
 8003be6:	6023      	str	r3, [r4, #0]
    hdma_tim1_ch1.Init.Direction = DMA_PERIPH_TO_MEMORY;
 8003be8:	2300      	movs	r3, #0
    hdma_tim1_ch1.Init.MemDataAlignment = DMA_MDATAALIGN_HALFWORD;
 8003bea:	00d2      	lsls	r2, r2, #3
    hdma_tim1_ch1.Init.Mode = DMA_NORMAL;
    hdma_tim1_ch1.Init.Priority = DMA_PRIORITY_LOW;
    if (HAL_DMA_Init(&hdma_tim1_ch1) != HAL_OK)
 8003bec:	0020      	movs	r0, r4
    hdma_tim1_ch1.Init.Direction = DMA_PERIPH_TO_MEMORY;
 8003bee:	6063      	str	r3, [r4, #4]
    hdma_tim1_ch1.Init.PeriphInc = DMA_PINC_DISABLE;
 8003bf0:	60a3      	str	r3, [r4, #8]
    hdma_tim1_ch1.Init.MemDataAlignment = DMA_MDATAALIGN_HALFWORD;
 8003bf2:	6162      	str	r2, [r4, #20]
    hdma_tim1_ch1.Init.Mode = DMA_NORMAL;
 8003bf4:	61a3      	str	r3, [r4, #24]
    hdma_tim1_ch1.Init.Priority = DMA_PRIORITY_LOW;
 8003bf6:	61e3      	str	r3, [r4, #28]
    if (HAL_DMA_Init(&hdma_tim1_ch1) != HAL_OK)
 8003bf8:	f001 f93a 	bl	8004e70 <HAL_DMA_Init>
 8003bfc:	2800      	cmp	r0, #0
 8003bfe:	d001      	beq.n	8003c04 <HAL_TIM_Base_MspInit+0x4c>
    {
      Error_Handler();
 8003c00:	f7ff fcae 	bl	8003560 <Error_Handler>
    }

    __HAL_LINKDMA(htim_base,hdma[TIM_DMA_ID_CC1],hdma_tim1_ch1);
 8003c04:	626c      	str	r4, [r5, #36]	@ 0x24
 8003c06:	6265      	str	r5, [r4, #36]	@ 0x24
    /* USER CODE BEGIN TIM3_MspInit 1 */

    /* USER CODE END TIM3_MspInit 1 */
  }

}
 8003c08:	bd37      	pop	{r0, r1, r2, r4, r5, pc}
  else if(htim_base->Instance==TIM3)
 8003c0a:	4a0a      	ldr	r2, [pc, #40]	@ (8003c34 <HAL_TIM_Base_MspInit+0x7c>)
 8003c0c:	4293      	cmp	r3, r2
 8003c0e:	d1fb      	bne.n	8003c08 <HAL_TIM_Base_MspInit+0x50>
    __HAL_RCC_TIM3_CLK_ENABLE();
 8003c10:	2102      	movs	r1, #2
 8003c12:	4b05      	ldr	r3, [pc, #20]	@ (8003c28 <HAL_TIM_Base_MspInit+0x70>)
 8003c14:	69da      	ldr	r2, [r3, #28]
 8003c16:	430a      	orrs	r2, r1
 8003c18:	61da      	str	r2, [r3, #28]
 8003c1a:	69db      	ldr	r3, [r3, #28]
 8003c1c:	400b      	ands	r3, r1
 8003c1e:	9301      	str	r3, [sp, #4]
 8003c20:	9b01      	ldr	r3, [sp, #4]
}
 8003c22:	e7f1      	b.n	8003c08 <HAL_TIM_Base_MspInit+0x50>
 8003c24:	40012c00 	.word	0x40012c00
 8003c28:	40021000 	.word	0x40021000
 8003c2c:	200003c8 	.word	0x200003c8
 8003c30:	4002001c 	.word	0x4002001c
 8003c34:	40000400 	.word	0x40000400

08003c38 <HAL_TIM_MspPostInit>:

void HAL_TIM_MspPostInit(TIM_HandleTypeDef* htim)
{
 8003c38:	b510      	push	{r4, lr}
 8003c3a:	0004      	movs	r4, r0
 8003c3c:	b088      	sub	sp, #32
  GPIO_InitTypeDef GPIO_InitStruct = {0};
 8003c3e:	2214      	movs	r2, #20
 8003c40:	2100      	movs	r1, #0
 8003c42:	a803      	add	r0, sp, #12
 8003c44:	f003 fd98 	bl	8007778 <memset>
  if(htim->Instance==TIM1)
 8003c48:	6823      	ldr	r3, [r4, #0]
 8003c4a:	4a18      	ldr	r2, [pc, #96]	@ (8003cac <HAL_TIM_MspPostInit+0x74>)
 8003c4c:	4293      	cmp	r3, r2
 8003c4e:	d116      	bne.n	8003c7e <HAL_TIM_MspPostInit+0x46>
  {
    /* USER CODE BEGIN TIM1_MspPostInit 0 */

    /* USER CODE END TIM1_MspPostInit 0 */
    __HAL_RCC_GPIOA_CLK_ENABLE();
 8003c50:	2180      	movs	r1, #128	@ 0x80
 8003c52:	4b17      	ldr	r3, [pc, #92]	@ (8003cb0 <HAL_TIM_MspPostInit+0x78>)
 8003c54:	0289      	lsls	r1, r1, #10
 8003c56:	695a      	ldr	r2, [r3, #20]
    GPIO_InitStruct.Pin = RGB_D_Pin;
    GPIO_InitStruct.Mode = GPIO_MODE_AF_PP;
    GPIO_InitStruct.Pull = GPIO_NOPULL;
    GPIO_InitStruct.Speed = GPIO_SPEED_FREQ_LOW;
    GPIO_InitStruct.Alternate = GPIO_AF2_TIM1;
    HAL_GPIO_Init(RGB_D_GPIO_Port, &GPIO_InitStruct);
 8003c58:	2090      	movs	r0, #144	@ 0x90
    __HAL_RCC_GPIOA_CLK_ENABLE();
 8003c5a:	430a      	orrs	r2, r1
 8003c5c:	615a      	str	r2, [r3, #20]
 8003c5e:	695b      	ldr	r3, [r3, #20]
    HAL_GPIO_Init(RGB_D_GPIO_Port, &GPIO_InitStruct);
 8003c60:	05c0      	lsls	r0, r0, #23
    __HAL_RCC_GPIOA_CLK_ENABLE();
 8003c62:	400b      	ands	r3, r1
 8003c64:	9301      	str	r3, [sp, #4]
 8003c66:	9b01      	ldr	r3, [sp, #4]
    GPIO_InitStruct.Pin = RGB_D_Pin;
 8003c68:	2380      	movs	r3, #128	@ 0x80
 8003c6a:	005b      	lsls	r3, r3, #1
 8003c6c:	9303      	str	r3, [sp, #12]
    GPIO_InitStruct.Mode = GPIO_MODE_AF_PP;
 8003c6e:	3bfe      	subs	r3, #254	@ 0xfe
 8003c70:	9304      	str	r3, [sp, #16]
    GPIO_InitStruct.Alternate = GPIO_AF2_TIM1;
 8003c72:	9307      	str	r3, [sp, #28]
    HAL_GPIO_Init(RGB_D_GPIO_Port, &GPIO_InitStruct);
 8003c74:	a903      	add	r1, sp, #12
    GPIO_InitStruct.Pin = BUZZER_Pin;
    GPIO_InitStruct.Mode = GPIO_MODE_AF_PP;
    GPIO_InitStruct.Pull = GPIO_NOPULL;
    GPIO_InitStruct.Speed = GPIO_SPEED_FREQ_LOW;
    GPIO_InitStruct.Alternate = GPIO_AF1_TIM3;
    HAL_GPIO_Init(BUZZER_GPIO_Port, &GPIO_InitStruct);
 8003c76:	f001 fb0b 	bl	8005290 <HAL_GPIO_Init>
    /* USER CODE BEGIN TIM3_MspPostInit 1 */

    /* USER CODE END TIM3_MspPostInit 1 */
  }

}
 8003c7a:	b008      	add	sp, #32
 8003c7c:	bd10      	pop	{r4, pc}
  else if(htim->Instance==TIM3)
 8003c7e:	4a0d      	ldr	r2, [pc, #52]	@ (8003cb4 <HAL_TIM_MspPostInit+0x7c>)
 8003c80:	4293      	cmp	r3, r2
 8003c82:	d1fa      	bne.n	8003c7a <HAL_TIM_MspPostInit+0x42>
    __HAL_RCC_GPIOB_CLK_ENABLE();
 8003c84:	2180      	movs	r1, #128	@ 0x80
 8003c86:	4b0a      	ldr	r3, [pc, #40]	@ (8003cb0 <HAL_TIM_MspPostInit+0x78>)
 8003c88:	02c9      	lsls	r1, r1, #11
 8003c8a:	695a      	ldr	r2, [r3, #20]
    HAL_GPIO_Init(BUZZER_GPIO_Port, &GPIO_InitStruct);
 8003c8c:	480a      	ldr	r0, [pc, #40]	@ (8003cb8 <HAL_TIM_MspPostInit+0x80>)
    __HAL_RCC_GPIOB_CLK_ENABLE();
 8003c8e:	430a      	orrs	r2, r1
 8003c90:	615a      	str	r2, [r3, #20]
 8003c92:	695b      	ldr	r3, [r3, #20]
 8003c94:	400b      	ands	r3, r1
 8003c96:	9302      	str	r3, [sp, #8]
 8003c98:	9b02      	ldr	r3, [sp, #8]
    GPIO_InitStruct.Pin = BUZZER_Pin;
 8003c9a:	2320      	movs	r3, #32
 8003c9c:	9303      	str	r3, [sp, #12]
    GPIO_InitStruct.Mode = GPIO_MODE_AF_PP;
 8003c9e:	3b1e      	subs	r3, #30
 8003ca0:	9304      	str	r3, [sp, #16]
    GPIO_InitStruct.Alternate = GPIO_AF1_TIM3;
 8003ca2:	3b01      	subs	r3, #1
 8003ca4:	9307      	str	r3, [sp, #28]
    HAL_GPIO_Init(BUZZER_GPIO_Port, &GPIO_InitStruct);
 8003ca6:	a903      	add	r1, sp, #12
 8003ca8:	e7e5      	b.n	8003c76 <HAL_TIM_MspPostInit+0x3e>
 8003caa:	46c0      	nop			@ (mov r8, r8)
 8003cac:	40012c00 	.word	0x40012c00
 8003cb0:	40021000 	.word	0x40021000
 8003cb4:	40000400 	.word	0x40000400
 8003cb8:	48000400 	.word	0x48000400

08003cbc <HAL_UART_MspInit>:
  * This function configures the hardware resources used in this example
  * @param huart: UART handle pointer
  * @retval None
  */
void HAL_UART_MspInit(UART_HandleTypeDef* huart)
{
 8003cbc:	b510      	push	{r4, lr}
 8003cbe:	0004      	movs	r4, r0
 8003cc0:	b088      	sub	sp, #32
  GPIO_InitTypeDef GPIO_InitStruct = {0};
 8003cc2:	2214      	movs	r2, #20
 8003cc4:	2100      	movs	r1, #0
 8003cc6:	a803      	add	r0, sp, #12
 8003cc8:	f003 fd56 	bl	8007778 <memset>
  if(huart->Instance==USART1)
 8003ccc:	4b17      	ldr	r3, [pc, #92]	@ (8003d2c <HAL_UART_MspInit+0x70>)
 8003cce:	6822      	ldr	r2, [r4, #0]
 8003cd0:	429a      	cmp	r2, r3
 8003cd2:	d128      	bne.n	8003d26 <HAL_UART_MspInit+0x6a>
  {
    /* USER CODE BEGIN USART1_MspInit 0 */

    /* USER CODE END USART1_MspInit 0 */
    /* Peripheral clock enable */
    __HAL_RCC_USART1_CLK_ENABLE();
 8003cd4:	2180      	movs	r1, #128	@ 0x80
 8003cd6:	4b16      	ldr	r3, [pc, #88]	@ (8003d30 <HAL_UART_MspInit+0x74>)
 8003cd8:	01c9      	lsls	r1, r1, #7
 8003cda:	699a      	ldr	r2, [r3, #24]
    GPIO_InitStruct.Pin = GPIO_PIN_9|GPIO_PIN_10;
    GPIO_InitStruct.Mode = GPIO_MODE_AF_PP;
    GPIO_InitStruct.Pull = GPIO_NOPULL;
    GPIO_InitStruct.Speed = GPIO_SPEED_FREQ_HIGH;
    GPIO_InitStruct.Alternate = GPIO_AF1_USART1;
    HAL_GPIO_Init(GPIOA, &GPIO_InitStruct);
 8003cdc:	2090      	movs	r0, #144	@ 0x90
    __HAL_RCC_USART1_CLK_ENABLE();
 8003cde:	430a      	orrs	r2, r1
 8003ce0:	619a      	str	r2, [r3, #24]
 8003ce2:	699a      	ldr	r2, [r3, #24]
    HAL_GPIO_Init(GPIOA, &GPIO_InitStruct);
 8003ce4:	05c0      	lsls	r0, r0, #23
    __HAL_RCC_USART1_CLK_ENABLE();
 8003ce6:	400a      	ands	r2, r1
    __HAL_RCC_GPIOA_CLK_ENABLE();
 8003ce8:	2180      	movs	r1, #128	@ 0x80
    __HAL_RCC_USART1_CLK_ENABLE();
 8003cea:	9201      	str	r2, [sp, #4]
 8003cec:	9a01      	ldr	r2, [sp, #4]
    __HAL_RCC_GPIOA_CLK_ENABLE();
 8003cee:	695a      	ldr	r2, [r3, #20]
 8003cf0:	0289      	lsls	r1, r1, #10
 8003cf2:	430a      	orrs	r2, r1
 8003cf4:	615a      	str	r2, [r3, #20]
 8003cf6:	695b      	ldr	r3, [r3, #20]
 8003cf8:	400b      	ands	r3, r1
 8003cfa:	9302      	str	r3, [sp, #8]
 8003cfc:	9b02      	ldr	r3, [sp, #8]
    GPIO_InitStruct.Pin = GPIO_PIN_9|GPIO_PIN_10;
 8003cfe:	23c0      	movs	r3, #192	@ 0xc0
 8003d00:	00db      	lsls	r3, r3, #3
 8003d02:	9303      	str	r3, [sp, #12]
    GPIO_InitStruct.Mode = GPIO_MODE_AF_PP;
 8003d04:	2302      	movs	r3, #2
 8003d06:	9304      	str	r3, [sp, #16]
    GPIO_InitStruct.Speed = GPIO_SPEED_FREQ_HIGH;
 8003d08:	3301      	adds	r3, #1
 8003d0a:	9306      	str	r3, [sp, #24]
    HAL_GPIO_Init(GPIOA, &GPIO_InitStruct);
 8003d0c:	a903      	add	r1, sp, #12
    GPIO_InitStruct.Alternate = GPIO_AF1_USART1;
 8003d0e:	3b02      	subs	r3, #2
 8003d10:	9307      	str	r3, [sp, #28]
    HAL_GPIO_Init(GPIOA, &GPIO_InitStruct);
 8003d12:	f001 fabd 	bl	8005290 <HAL_GPIO_Init>

    /* USART1 interrupt Init */
    HAL_NVIC_SetPriority(USART1_IRQn, 0, 0);
 8003d16:	2200      	movs	r2, #0
 8003d18:	201b      	movs	r0, #27
 8003d1a:	0011      	movs	r1, r2
 8003d1c:	f001 f84a 	bl	8004db4 <HAL_NVIC_SetPriority>
    HAL_NVIC_EnableIRQ(USART1_IRQn);
 8003d20:	201b      	movs	r0, #27
 8003d22:	f001 f871 	bl	8004e08 <HAL_NVIC_EnableIRQ>

    /* USER CODE END USART1_MspInit 1 */

  }

}
 8003d26:	b008      	add	sp, #32
 8003d28:	bd10      	pop	{r4, pc}
 8003d2a:	46c0      	nop			@ (mov r8, r8)
 8003d2c:	40013800 	.word	0x40013800
 8003d30:	40021000 	.word	0x40021000

08003d34 <NMI_Handler>:
{
  /* USER CODE BEGIN NonMaskableInt_IRQn 0 */

  /* USER CODE END NonMaskableInt_IRQn 0 */
  /* USER CODE BEGIN NonMaskableInt_IRQn 1 */
   while (1)
 8003d34:	e7fe      	b.n	8003d34 <NMI_Handler>

08003d36 <HardFault_Handler>:
void HardFault_Handler(void)
{
  /* USER CODE BEGIN HardFault_IRQn 0 */

  /* USER CODE END HardFault_IRQn 0 */
  while (1)
 8003d36:	e7fe      	b.n	8003d36 <HardFault_Handler>

08003d38 <SVC_Handler>:

  /* USER CODE END SVC_IRQn 0 */
  /* USER CODE BEGIN SVC_IRQn 1 */

  /* USER CODE END SVC_IRQn 1 */
}
 8003d38:	4770      	bx	lr

08003d3a <PendSV_Handler>:

/**
  * @brief This function handles Pendable request for system service.
  */
void PendSV_Handler(void)
 8003d3a:	4770      	bx	lr

08003d3c <SysTick_Handler>:

/**
  * @brief This function handles System tick timer.
  */
void SysTick_Handler(void)
{
 8003d3c:	b510      	push	{r4, lr}
  /* USER CODE BEGIN SysTick_IRQn 0 */

  /* USER CODE END SysTick_IRQn 0 */
  HAL_IncTick();
 8003d3e:	f000 fccf 	bl	80046e0 <HAL_IncTick>
  /* USER CODE BEGIN SysTick_IRQn 1 */

  /* USER CODE END SysTick_IRQn 1 */
}
 8003d42:	bd10      	pop	{r4, pc}

08003d44 <EXTI0_1_IRQHandler>:

/**
  * @brief This function handles EXTI line 0 and 1 interrupts.
  */
void EXTI0_1_IRQHandler(void)
{
 8003d44:	b510      	push	{r4, lr}
  /* USER CODE BEGIN EXTI0_1_IRQn 0 */

  /* USER CODE END EXTI0_1_IRQn 0 */
  HAL_GPIO_EXTI_IRQHandler(MOTION_INT_Pin);
 8003d46:	2001      	movs	r0, #1
 8003d48:	f001 fb66 	bl	8005418 <HAL_GPIO_EXTI_IRQHandler>
  /* USER CODE BEGIN EXTI0_1_IRQn 1 */

  /* USER CODE END EXTI0_1_IRQn 1 */
}
 8003d4c:	bd10      	pop	{r4, pc}

08003d4e <EXTI4_15_IRQHandler>:
void EXTI4_15_IRQHandler(void)
{
  /* USER CODE BEGIN EXTI4_15_IRQn 0 */

  /* USER CODE END EXTI4_15_IRQn 0 */
  HAL_GPIO_EXTI_IRQHandler(RTC_INT_Pin);
 8003d4e:	2080      	movs	r0, #128	@ 0x80
{
 8003d50:	b510      	push	{r4, lr}
  HAL_GPIO_EXTI_IRQHandler(RTC_INT_Pin);
 8003d52:	0100      	lsls	r0, r0, #4
 8003d54:	f001 fb60 	bl	8005418 <HAL_GPIO_EXTI_IRQHandler>
  /* USER CODE BEGIN EXTI4_15_IRQn 1 */

  /* USER CODE END EXTI4_15_IRQn 1 */
}
 8003d58:	bd10      	pop	{r4, pc}
	...

08003d5c <DMA1_Channel2_3_IRQHandler>:

/**
  * @brief This function handles DMA1 channel 2 and 3 interrupts.
  */
void DMA1_Channel2_3_IRQHandler(void)
{
 8003d5c:	b510      	push	{r4, lr}
  /* USER CODE BEGIN DMA1_Channel2_3_IRQn 0 */

  /* USER CODE END DMA1_Channel2_3_IRQn 0 */
  HAL_DMA_IRQHandler(&hdma_tim1_ch1);
 8003d5e:	4802      	ldr	r0, [pc, #8]	@ (8003d68 <DMA1_Channel2_3_IRQHandler+0xc>)
 8003d60:	f001 f933 	bl	8004fca <HAL_DMA_IRQHandler>
  /* USER CODE BEGIN DMA1_Channel2_3_IRQn 1 */

  /* USER CODE END DMA1_Channel2_3_IRQn 1 */
}
 8003d64:	bd10      	pop	{r4, pc}
 8003d66:	46c0      	nop			@ (mov r8, r8)
 8003d68:	200003c8 	.word	0x200003c8

08003d6c <ADC1_IRQHandler>:

/**
  * @brief This function handles ADC interrupt.
  */
void ADC1_IRQHandler(void)
{
 8003d6c:	b510      	push	{r4, lr}
  /* USER CODE BEGIN ADC1_IRQn 0 */

  /* USER CODE END ADC1_IRQn 0 */
  HAL_ADC_IRQHandler(&hadc);
 8003d6e:	4802      	ldr	r0, [pc, #8]	@ (8003d78 <ADC1_IRQHandler+0xc>)
 8003d70:	f000 feea 	bl	8004b48 <HAL_ADC_IRQHandler>
  /* USER CODE BEGIN ADC1_IRQn 1 */

  /* USER CODE END ADC1_IRQn 1 */
}
 8003d74:	bd10      	pop	{r4, pc}
 8003d76:	46c0      	nop			@ (mov r8, r8)
 8003d78:	200004f0 	.word	0x200004f0

08003d7c <USART1_IRQHandler>:

/**
  * @brief This function handles USART1 global interrupt.
  */
void USART1_IRQHandler(void)
{
 8003d7c:	b510      	push	{r4, lr}
  /* USER CODE BEGIN USART1_IRQn 0 */

  /* USER CODE END USART1_IRQn 0 */
  HAL_UART_IRQHandler(&huart1);
 8003d7e:	4802      	ldr	r0, [pc, #8]	@ (8003d88 <USART1_IRQHandler+0xc>)
 8003d80:	f003 f808 	bl	8006d94 <HAL_UART_IRQHandler>
  /* USER CODE BEGIN USART1_IRQn 1 */

  /* USER CODE END USART1_IRQn 1 */
}
 8003d84:	bd10      	pop	{r4, pc}
 8003d86:	46c0      	nop			@ (mov r8, r8)
 8003d88:	20000340 	.word	0x20000340

08003d8c <SystemInit>:
                         before branch to main program. This call is made inside
                         the "startup_stm32f0xx.s" file.
                         User can setups the default system clock (System clock source, PLL Multiplier
                         and Divider factors, AHB/APBx prescalers and Flash settings).
   */
}
 8003d8c:	4770      	bx	lr

08003d8e <TDS_Init>:
}

void TDS_Init(TDS_Handle_t *htds, ADC_HandleTypeDef *hadc)
{
    htds->hadc     = hadc;
    htds->last_ppm = 0;
 8003d8e:	2200      	movs	r2, #0
{
 8003d90:	b510      	push	{r4, lr}
    htds->hadc     = hadc;
 8003d92:	6001      	str	r1, [r0, #0]
    htds->last_ppm = 0;
 8003d94:	8082      	strh	r2, [r0, #4]
    htds->valid    = 0;
 8003d96:	7182      	strb	r2, [r0, #6]
    HAL_GPIO_WritePin(TDS_DRIVE_GPIO_Port, TDS_DRIVE_Pin, GPIO_PIN_RESET);
 8003d98:	2090      	movs	r0, #144	@ 0x90
 8003d9a:	2140      	movs	r1, #64	@ 0x40
 8003d9c:	05c0      	lsls	r0, r0, #23
 8003d9e:	f001 fb35 	bl	800540c <HAL_GPIO_WritePin>
}
 8003da2:	bd10      	pop	{r4, pc}

08003da4 <TDS_ReadPPM>:

uint16_t TDS_ReadPPM(TDS_Handle_t *htds, int16_t temp_x10)
{
 8003da4:	b5f0      	push	{r4, r5, r6, r7, lr}
    /* AC-drive: 10 toggle cycles before sample */
    for (uint8_t i = 0; i < 10; i++) {
        HAL_GPIO_WritePin(TDS_DRIVE_GPIO_Port, TDS_DRIVE_Pin, GPIO_PIN_SET);
 8003da6:	2790      	movs	r7, #144	@ 0x90
{
 8003da8:	0004      	movs	r4, r0
 8003daa:	250a      	movs	r5, #10
        HAL_GPIO_WritePin(TDS_DRIVE_GPIO_Port, TDS_DRIVE_Pin, GPIO_PIN_SET);
 8003dac:	2601      	movs	r6, #1
{
 8003dae:	b087      	sub	sp, #28
 8003db0:	9101      	str	r1, [sp, #4]
        HAL_GPIO_WritePin(TDS_DRIVE_GPIO_Port, TDS_DRIVE_Pin, GPIO_PIN_SET);
 8003db2:	05ff      	lsls	r7, r7, #23
 8003db4:	0032      	movs	r2, r6
 8003db6:	2140      	movs	r1, #64	@ 0x40
 8003db8:	0038      	movs	r0, r7
 8003dba:	f001 fb27 	bl	800540c <HAL_GPIO_WritePin>
        HAL_Delay(1);
 8003dbe:	0030      	movs	r0, r6
 8003dc0:	f000 fca0 	bl	8004704 <HAL_Delay>
    for (uint8_t i = 0; i < 10; i++) {
 8003dc4:	3d01      	subs	r5, #1
        HAL_GPIO_WritePin(TDS_DRIVE_GPIO_Port, TDS_DRIVE_Pin, GPIO_PIN_RESET);
 8003dc6:	2200      	movs	r2, #0
 8003dc8:	2140      	movs	r1, #64	@ 0x40
 8003dca:	0038      	movs	r0, r7
 8003dcc:	f001 fb1e 	bl	800540c <HAL_GPIO_WritePin>
    for (uint8_t i = 0; i < 10; i++) {
 8003dd0:	b2ed      	uxtb	r5, r5
        HAL_Delay(1);
 8003dd2:	0030      	movs	r0, r6
 8003dd4:	f000 fc96 	bl	8004704 <HAL_Delay>
    for (uint8_t i = 0; i < 10; i++) {
 8003dd8:	2d00      	cmp	r5, #0
 8003dda:	d1eb      	bne.n	8003db4 <TDS_ReadPPM+0x10>
    }

    HAL_GPIO_WritePin(TDS_DRIVE_GPIO_Port, TDS_DRIVE_Pin, GPIO_PIN_SET);
 8003ddc:	2090      	movs	r0, #144	@ 0x90
 8003dde:	2201      	movs	r2, #1
 8003de0:	2140      	movs	r1, #64	@ 0x40
 8003de2:	05c0      	lsls	r0, r0, #23
 8003de4:	f001 fb12 	bl	800540c <HAL_GPIO_WritePin>
    HAL_Delay(1);
 8003de8:	2001      	movs	r0, #1
 8003dea:	f000 fc8b 	bl	8004704 <HAL_Delay>
    htds->hadc->Instance->CHSELR = 0U;
 8003dee:	6820      	ldr	r0, [r4, #0]
    HAL_ADC_ConfigChannel(htds->hadc, &sConfig);
 8003df0:	a903      	add	r1, sp, #12
    htds->hadc->Instance->CHSELR = 0U;
 8003df2:	6803      	ldr	r3, [r0, #0]
 8003df4:	629d      	str	r5, [r3, #40]	@ 0x28
    sConfig.Channel      = ADC_CHANNEL_2;
 8003df6:	2302      	movs	r3, #2
 8003df8:	9303      	str	r3, [sp, #12]
    sConfig.Rank         = ADC_RANK_CHANNEL_NUMBER;
 8003dfa:	2380      	movs	r3, #128	@ 0x80
 8003dfc:	015b      	lsls	r3, r3, #5
 8003dfe:	9304      	str	r3, [sp, #16]
    sConfig.SamplingTime = ADC_SAMPLETIME_71CYCLES_5;
 8003e00:	2306      	movs	r3, #6
 8003e02:	9305      	str	r3, [sp, #20]
    HAL_ADC_ConfigChannel(htds->hadc, &sConfig);
 8003e04:	f000 ff08 	bl	8004c18 <HAL_ADC_ConfigChannel>
    HAL_ADC_Start(htds->hadc);
 8003e08:	6820      	ldr	r0, [r4, #0]
 8003e0a:	f000 fde9 	bl	80049e0 <HAL_ADC_Start>
    HAL_ADC_PollForConversion(htds->hadc, 100);
 8003e0e:	2164      	movs	r1, #100	@ 0x64
 8003e10:	6820      	ldr	r0, [r4, #0]
 8003e12:	f000 fe2f 	bl	8004a74 <HAL_ADC_PollForConversion>
    uint16_t val = (uint16_t)HAL_ADC_GetValue(htds->hadc);
 8003e16:	6820      	ldr	r0, [r4, #0]
 8003e18:	f000 fe90 	bl	8004b3c <HAL_ADC_GetValue>
 8003e1c:	0006      	movs	r6, r0
    HAL_ADC_Stop(htds->hadc);
 8003e1e:	6820      	ldr	r0, [r4, #0]
 8003e20:	f000 fe0a 	bl	8004a38 <HAL_ADC_Stop>
    uint16_t adc_raw = TDS_ReadADC(htds);
    HAL_GPIO_WritePin(TDS_DRIVE_GPIO_Port, TDS_DRIVE_Pin, GPIO_PIN_RESET);
 8003e24:	2090      	movs	r0, #144	@ 0x90
 8003e26:	2140      	movs	r1, #64	@ 0x40
 8003e28:	05c0      	lsls	r0, r0, #23
 8003e2a:	002a      	movs	r2, r5
 8003e2c:	f001 faee 	bl	800540c <HAL_GPIO_WritePin>
    int32_t temp_c10 = (int32_t)temp_x10;
    int32_t coeff_x1000 = 1000 + (temp_c10 - 250) * 2; /* = 1000*(1 + 0.02*(T-25)) */
    if (coeff_x1000 <= 0) coeff_x1000 = 1;

    /* Compensated voltage in mV × 1000 / coeff → keep in mV */
    uint32_t comp_mv = (voltage_mv * 1000U) / (uint32_t)coeff_x1000;
 8003e30:	20fa      	movs	r0, #250	@ 0xfa
    uint32_t voltage_mv = (uint32_t)adc_raw * TDS_ADC_VREF_MV / TDS_ADC_RESOLUTION;
 8003e32:	4b27      	ldr	r3, [pc, #156]	@ (8003ed0 <TDS_ReadPPM+0x12c>)
 8003e34:	b2b6      	uxth	r6, r6
 8003e36:	4373      	muls	r3, r6
    int32_t coeff_x1000 = 1000 + (temp_c10 - 250) * 2; /* = 1000*(1 + 0.02*(T-25)) */
 8003e38:	9901      	ldr	r1, [sp, #4]
    uint32_t voltage_mv = (uint32_t)adc_raw * TDS_ADC_VREF_MV / TDS_ADC_RESOLUTION;
 8003e3a:	0b1b      	lsrs	r3, r3, #12
    uint32_t comp_mv = (voltage_mv * 1000U) / (uint32_t)coeff_x1000;
 8003e3c:	0080      	lsls	r0, r0, #2
    int32_t coeff_x1000 = 1000 + (temp_c10 - 250) * 2; /* = 1000*(1 + 0.02*(T-25)) */
 8003e3e:	31fa      	adds	r1, #250	@ 0xfa
    uint32_t comp_mv = (voltage_mv * 1000U) / (uint32_t)coeff_x1000;
 8003e40:	4358      	muls	r0, r3
    int32_t coeff_x1000 = 1000 + (temp_c10 - 250) * 2; /* = 1000*(1 + 0.02*(T-25)) */
 8003e42:	0049      	lsls	r1, r1, #1
    if (coeff_x1000 <= 0) coeff_x1000 = 1;
 8003e44:	2900      	cmp	r1, #0
 8003e46:	dc00      	bgt.n	8003e4a <TDS_ReadPPM+0xa6>
 8003e48:	2101      	movs	r1, #1
    uint32_t comp_mv = (voltage_mv * 1000U) / (uint32_t)coeff_x1000;
 8003e4a:	f7fc f979 	bl	8000140 <__udivsi3>
     * Scale everything ×1000 to keep integer, then divide at end.
     *
     * Use float soft-fp here — this does NOT pull in printf/scanf/sscanf,
     * only the soft-float multiply/add runtime (~300 B, already present).
     */
    float v   = (float)comp_mv / 1000.0f;
 8003e4e:	f7fd fb39 	bl	80014c4 <__aeabi_ui2f>
 8003e52:	4920      	ldr	r1, [pc, #128]	@ (8003ed4 <TDS_ReadPPM+0x130>)
 8003e54:	f7fc fd3a 	bl	80008cc <__aeabi_fdiv>
    float ppm = (133.42f * v * v * v
 8003e58:	491f      	ldr	r1, [pc, #124]	@ (8003ed8 <TDS_ReadPPM+0x134>)
    float v   = (float)comp_mv / 1000.0f;
 8003e5a:	1c05      	adds	r5, r0, #0
    float ppm = (133.42f * v * v * v
 8003e5c:	f7fc ff04 	bl	8000c68 <__aeabi_fmul>
 8003e60:	1c29      	adds	r1, r5, #0
 8003e62:	f7fc ff01 	bl	8000c68 <__aeabi_fmul>
 8003e66:	1c29      	adds	r1, r5, #0
 8003e68:	f7fc fefe 	bl	8000c68 <__aeabi_fmul>
               - 255.86f * v * v
 8003e6c:	491b      	ldr	r1, [pc, #108]	@ (8003edc <TDS_ReadPPM+0x138>)
    float ppm = (133.42f * v * v * v
 8003e6e:	1c06      	adds	r6, r0, #0
               - 255.86f * v * v
 8003e70:	1c28      	adds	r0, r5, #0
 8003e72:	f7fc fef9 	bl	8000c68 <__aeabi_fmul>
 8003e76:	1c29      	adds	r1, r5, #0
 8003e78:	f7fc fef6 	bl	8000c68 <__aeabi_fmul>
 8003e7c:	1c01      	adds	r1, r0, #0
 8003e7e:	1c30      	adds	r0, r6, #0
 8003e80:	f7fd f84c 	bl	8000f1c <__aeabi_fsub>
               + 857.39f * v) * 0.5f;
 8003e84:	4916      	ldr	r1, [pc, #88]	@ (8003ee0 <TDS_ReadPPM+0x13c>)
               - 255.86f * v * v
 8003e86:	1c06      	adds	r6, r0, #0
               + 857.39f * v) * 0.5f;
 8003e88:	1c28      	adds	r0, r5, #0
 8003e8a:	f7fc feed 	bl	8000c68 <__aeabi_fmul>
 8003e8e:	1c01      	adds	r1, r0, #0
 8003e90:	1c30      	adds	r0, r6, #0
 8003e92:	f7fc fb29 	bl	80004e8 <__aeabi_fadd>
    float ppm = (133.42f * v * v * v
 8003e96:	21fc      	movs	r1, #252	@ 0xfc
 8003e98:	0589      	lsls	r1, r1, #22
 8003e9a:	f7fc fee5 	bl	8000c68 <__aeabi_fmul>

    if (ppm < 0.0f) ppm = 0.0f;
 8003e9e:	2100      	movs	r1, #0
    float ppm = (133.42f * v * v * v
 8003ea0:	1c05      	adds	r5, r0, #0
    if (ppm < 0.0f) ppm = 0.0f;
 8003ea2:	f7fc fae1 	bl	8000468 <__aeabi_fcmplt>
 8003ea6:	2800      	cmp	r0, #0
 8003ea8:	d10e      	bne.n	8003ec8 <TDS_ReadPPM+0x124>
    if (ppm > 65535.0f) ppm = 65535.0f;
 8003eaa:	490e      	ldr	r1, [pc, #56]	@ (8003ee4 <TDS_ReadPPM+0x140>)
 8003eac:	1c28      	adds	r0, r5, #0
 8003eae:	f7fc faef 	bl	8000490 <__aeabi_fcmpgt>
 8003eb2:	2800      	cmp	r0, #0
 8003eb4:	d10a      	bne.n	8003ecc <TDS_ReadPPM+0x128>

    htds->last_ppm = (uint16_t)ppm;
 8003eb6:	1c28      	adds	r0, r5, #0
 8003eb8:	f7fc fafe 	bl	80004b8 <__aeabi_f2uiz>
    htds->valid    = 1;
 8003ebc:	2301      	movs	r3, #1
    htds->last_ppm = (uint16_t)ppm;
 8003ebe:	b280      	uxth	r0, r0
 8003ec0:	80a0      	strh	r0, [r4, #4]
    htds->valid    = 1;
 8003ec2:	71a3      	strb	r3, [r4, #6]
    return htds->last_ppm;
}
 8003ec4:	b007      	add	sp, #28
 8003ec6:	bdf0      	pop	{r4, r5, r6, r7, pc}
    if (ppm < 0.0f) ppm = 0.0f;
 8003ec8:	2500      	movs	r5, #0
 8003eca:	e7f4      	b.n	8003eb6 <TDS_ReadPPM+0x112>
    if (ppm > 65535.0f) ppm = 65535.0f;
 8003ecc:	4d05      	ldr	r5, [pc, #20]	@ (8003ee4 <TDS_ReadPPM+0x140>)
 8003ece:	e7f2      	b.n	8003eb6 <TDS_ReadPPM+0x112>
 8003ed0:	00000ce4 	.word	0x00000ce4
 8003ed4:	447a0000 	.word	0x447a0000
 8003ed8:	43056b85 	.word	0x43056b85
 8003edc:	437fdc29 	.word	0x437fdc29
 8003ee0:	445658f6 	.word	0x445658f6
 8003ee4:	477fff00 	.word	0x477fff00

08003ee8 <ScaleBright>:
 * Internal helpers
 * =========================================================================
 */

static RGB_t ScaleBright(RGB_t c, uint8_t b)
{
 8003ee8:	b5f0      	push	{r4, r5, r6, r7, lr}
 8003eea:	0a03      	lsrs	r3, r0, #8
 8003eec:	0c04      	lsrs	r4, r0, #16
 8003eee:	1c07      	adds	r7, r0, #0
    return RGB((uint8_t)((uint16_t)c.r * b / 255U),
 8003ef0:	b2d8      	uxtb	r0, r3
{
 8003ef2:	b085      	sub	sp, #20
 8003ef4:	000e      	movs	r6, r1
    return RGB((uint8_t)((uint16_t)c.r * b / 255U),
 8003ef6:	4348      	muls	r0, r1
 8003ef8:	21ff      	movs	r1, #255	@ 0xff
 8003efa:	f7fc f921 	bl	8000140 <__udivsi3>
 8003efe:	b2c5      	uxtb	r5, r0
 8003f00:	b2e0      	uxtb	r0, r4
 8003f02:	21ff      	movs	r1, #255	@ 0xff
 8003f04:	4370      	muls	r0, r6
 8003f06:	f7fc f91b 	bl	8000140 <__udivsi3>
 8003f0a:	b2c4      	uxtb	r4, r0
 8003f0c:	b2f8      	uxtb	r0, r7
 8003f0e:	21ff      	movs	r1, #255	@ 0xff
 8003f10:	4370      	muls	r0, r6
 8003f12:	f7fc f915 	bl	8000140 <__udivsi3>
 8003f16:	23ff      	movs	r3, #255	@ 0xff
 8003f18:	401d      	ands	r5, r3
 8003f1a:	4018      	ands	r0, r3
 8003f1c:	022d      	lsls	r5, r5, #8
 8003f1e:	401c      	ands	r4, r3
 8003f20:	0424      	lsls	r4, r4, #16
 8003f22:	4328      	orrs	r0, r5
 8003f24:	4320      	orrs	r0, r4
               (uint8_t)((uint16_t)c.g * b / 255U),
               (uint8_t)((uint16_t)c.b * b / 255U));
}
 8003f26:	b005      	add	sp, #20
 8003f28:	bdf0      	pop	{r4, r5, r6, r7, pc}
	...

08003f2c <WS2812B_Init>:
{
 8003f2c:	b5f7      	push	{r0, r1, r2, r4, r5, r6, r7, lr}
    s_htim = htim;
 8003f2e:	4c19      	ldr	r4, [pc, #100]	@ (8003f94 <WS2812B_Init+0x68>)
    HAL_TIM_PWM_Stop_DMA(s_htim, TIM_CHANNEL_1);
 8003f30:	2100      	movs	r1, #0
    s_htim->Instance->EGR = TIM_EGR_UG;
 8003f32:	2601      	movs	r6, #1
    s_htim = htim;
 8003f34:	6020      	str	r0, [r4, #0]
    HAL_TIM_PWM_Stop_DMA(s_htim, TIM_CHANNEL_1);
 8003f36:	f002 fe93 	bl	8006c60 <HAL_TIM_PWM_Stop_DMA>
    s_htim->Instance->SMCR = 0U;
 8003f3a:	6827      	ldr	r7, [r4, #0]
    s_htim->Instance->ARR = 59U;
 8003f3c:	223b      	movs	r2, #59	@ 0x3b
    s_htim->Instance->SMCR = 0U;
 8003f3e:	2400      	movs	r4, #0
 8003f40:	683b      	ldr	r3, [r7, #0]
    memset(s_leds,          0,    sizeof(s_leds));
 8003f42:	0021      	movs	r1, r4
    s_htim->Instance->SMCR = 0U;
 8003f44:	609c      	str	r4, [r3, #8]
    memset(s_leds,          0,    sizeof(s_leds));
 8003f46:	4814      	ldr	r0, [pc, #80]	@ (8003f98 <WS2812B_Init+0x6c>)
    s_htim->Instance->PSC = 0U;
 8003f48:	629c      	str	r4, [r3, #40]	@ 0x28
    s_htim->Instance->ARR = 59U;
 8003f4a:	62da      	str	r2, [r3, #44]	@ 0x2c
    s_htim->Instance->EGR = TIM_EGR_UG;
 8003f4c:	615e      	str	r6, [r3, #20]
    memset(s_leds,          0,    sizeof(s_leds));
 8003f4e:	3a1d      	subs	r2, #29
 8003f50:	f003 fc12 	bl	8007778 <memset>
    memset(s_leds_shadow,   0xFF, sizeof(s_leds_shadow)); /* != s_leds → dirty */
 8003f54:	221e      	movs	r2, #30
 8003f56:	21ff      	movs	r1, #255	@ 0xff
 8003f58:	4810      	ldr	r0, [pc, #64]	@ (8003f9c <WS2812B_Init+0x70>)
 8003f5a:	f003 fc0d 	bl	8007778 <memset>
    memset(ws2812b_dma_buf, 0,    sizeof(ws2812b_dma_buf));
 8003f5e:	2296      	movs	r2, #150	@ 0x96
 8003f60:	4d0f      	ldr	r5, [pc, #60]	@ (8003fa0 <WS2812B_Init+0x74>)
 8003f62:	0021      	movs	r1, r4
 8003f64:	0028      	movs	r0, r5
 8003f66:	0092      	lsls	r2, r2, #2
 8003f68:	9501      	str	r5, [sp, #4]
 8003f6a:	f003 fc05 	bl	8007778 <memset>
    s_dirty = 1;
 8003f6e:	4b0d      	ldr	r3, [pc, #52]	@ (8003fa4 <WS2812B_Init+0x78>)
    ws2812b_busy = 1;   /* FIX 5: set BEFORE starting DMA */
 8003f70:	4d0d      	ldr	r5, [pc, #52]	@ (8003fa8 <WS2812B_Init+0x7c>)
    s_dirty = 1;
 8003f72:	701e      	strb	r6, [r3, #0]
    HAL_TIM_PWM_Start_DMA(s_htim, TIM_CHANNEL_1,
 8003f74:	2396      	movs	r3, #150	@ 0x96
 8003f76:	0021      	movs	r1, r4
 8003f78:	0038      	movs	r0, r7
 8003f7a:	9a01      	ldr	r2, [sp, #4]
 8003f7c:	005b      	lsls	r3, r3, #1
    ws2812b_busy = 1;   /* FIX 5: set BEFORE starting DMA */
 8003f7e:	702e      	strb	r6, [r5, #0]
    HAL_TIM_PWM_Start_DMA(s_htim, TIM_CHANNEL_1,
 8003f80:	f002 fdf4 	bl	8006b6c <HAL_TIM_PWM_Start_DMA>
    while (ws2812b_busy) { /* wait for callback to clear busy */ }
 8003f84:	782b      	ldrb	r3, [r5, #0]
 8003f86:	2b00      	cmp	r3, #0
 8003f88:	d1fc      	bne.n	8003f84 <WS2812B_Init+0x58>
    HAL_Delay(1);   /* 1 ms extra on top of the 75 µs reset in buffer */
 8003f8a:	2001      	movs	r0, #1
 8003f8c:	f000 fbba 	bl	8004704 <HAL_Delay>
}
 8003f90:	bdf7      	pop	{r0, r1, r2, r4, r5, r6, r7, pc}
 8003f92:	46c0      	nop			@ (mov r8, r8)
 8003f94:	20000560 	.word	0x20000560
 8003f98:	20000582 	.word	0x20000582
 8003f9c:	20000564 	.word	0x20000564
 8003fa0:	200005a0 	.word	0x200005a0
 8003fa4:	20000004 	.word	0x20000004
 8003fa8:	2000055c 	.word	0x2000055c

08003fac <WS2812B_Send>:
{
 8003fac:	b5f8      	push	{r3, r4, r5, r6, r7, lr}
    if (ws2812b_busy) return;
 8003fae:	4d21      	ldr	r5, [pc, #132]	@ (8004034 <WS2812B_Send+0x88>)
 8003fb0:	782a      	ldrb	r2, [r5, #0]
 8003fb2:	b2d3      	uxtb	r3, r2
 8003fb4:	2a00      	cmp	r2, #0
 8003fb6:	d13c      	bne.n	8004032 <WS2812B_Send+0x86>
 8003fb8:	491f      	ldr	r1, [pc, #124]	@ (8004038 <WS2812B_Send+0x8c>)
        uint32_t grb = ((uint32_t)s_leds[led].g << 16)
 8003fba:	7848      	ldrb	r0, [r1, #1]
                     | ((uint32_t)s_leds[led].r <<  8)
 8003fbc:	780a      	ldrb	r2, [r1, #0]
        uint32_t grb = ((uint32_t)s_leds[led].g << 16)
 8003fbe:	0400      	lsls	r0, r0, #16
                     | ((uint32_t)s_leds[led].r <<  8)
 8003fc0:	0212      	lsls	r2, r2, #8
 8003fc2:	4302      	orrs	r2, r0
                     |  (uint32_t)s_leds[led].b;
 8003fc4:	7888      	ldrb	r0, [r1, #2]
        uint32_t grb = ((uint32_t)s_leds[led].g << 16)
 8003fc6:	4302      	orrs	r2, r0
 8003fc8:	2000      	movs	r0, #0
                                     ? WS2812B_T1H : WS2812B_T0H;
 8003fca:	2417      	movs	r4, #23
 8003fcc:	0016      	movs	r6, r2
 8003fce:	1a24      	subs	r4, r4, r0
 8003fd0:	40e6      	lsrs	r6, r4
 8003fd2:	0034      	movs	r4, r6
            ws2812b_dma_buf[idx++] = (grb & (1UL << bit))
 8003fd4:	2612      	movs	r6, #18
 8003fd6:	181f      	adds	r7, r3, r0
 8003fd8:	46b4      	mov	ip, r6
 8003fda:	3e11      	subs	r6, #17
 8003fdc:	b2bf      	uxth	r7, r7
 8003fde:	4234      	tst	r4, r6
 8003fe0:	d001      	beq.n	8003fe6 <WS2812B_Send+0x3a>
 8003fe2:	2424      	movs	r4, #36	@ 0x24
 8003fe4:	46a4      	mov	ip, r4
 8003fe6:	4666      	mov	r6, ip
 8003fe8:	4c14      	ldr	r4, [pc, #80]	@ (800403c <WS2812B_Send+0x90>)
 8003fea:	007f      	lsls	r7, r7, #1
        for (int8_t bit = 23; bit >= 0; bit--) {
 8003fec:	3001      	adds	r0, #1
            ws2812b_dma_buf[idx++] = (grb & (1UL << bit))
 8003fee:	533e      	strh	r6, [r7, r4]
        for (int8_t bit = 23; bit >= 0; bit--) {
 8003ff0:	2818      	cmp	r0, #24
 8003ff2:	d1ea      	bne.n	8003fca <WS2812B_Send+0x1e>
 8003ff4:	3318      	adds	r3, #24
 8003ff6:	b29b      	uxth	r3, r3
    for (uint8_t led = 0; led < WS2812B_NUM_LEDS; led++) {
 8003ff8:	3103      	adds	r1, #3
 8003ffa:	2bf0      	cmp	r3, #240	@ 0xf0
 8003ffc:	d1dd      	bne.n	8003fba <WS2812B_Send+0xe>
        ws2812b_dma_buf[idx++] = 0U;
 8003ffe:	2278      	movs	r2, #120	@ 0x78
 8004000:	2100      	movs	r1, #0
 8004002:	480f      	ldr	r0, [pc, #60]	@ (8004040 <WS2812B_Send+0x94>)
 8004004:	f003 fbb8 	bl	8007778 <memset>
    memcpy(s_leds_shadow, s_leds, sizeof(s_leds_shadow));
 8004008:	221e      	movs	r2, #30
 800400a:	490b      	ldr	r1, [pc, #44]	@ (8004038 <WS2812B_Send+0x8c>)
 800400c:	480d      	ldr	r0, [pc, #52]	@ (8004044 <WS2812B_Send+0x98>)
 800400e:	f003 fbdf 	bl	80077d0 <memcpy>
    s_dirty = 0;
 8004012:	2100      	movs	r1, #0
 8004014:	4b0c      	ldr	r3, [pc, #48]	@ (8004048 <WS2812B_Send+0x9c>)
    ws2812b_send_count++;
 8004016:	4a0d      	ldr	r2, [pc, #52]	@ (800404c <WS2812B_Send+0xa0>)
    s_dirty = 0;
 8004018:	7019      	strb	r1, [r3, #0]
    ws2812b_busy = 1;   /* FIX 5: set BEFORE starting DMA */
 800401a:	2301      	movs	r3, #1
 800401c:	702b      	strb	r3, [r5, #0]
    ws2812b_send_count++;
 800401e:	6813      	ldr	r3, [r2, #0]
    HAL_TIM_PWM_Start_DMA(s_htim, TIM_CHANNEL_1,
 8004020:	480b      	ldr	r0, [pc, #44]	@ (8004050 <WS2812B_Send+0xa4>)
    ws2812b_send_count++;
 8004022:	3301      	adds	r3, #1
 8004024:	6013      	str	r3, [r2, #0]
    HAL_TIM_PWM_Start_DMA(s_htim, TIM_CHANNEL_1,
 8004026:	2396      	movs	r3, #150	@ 0x96
 8004028:	0022      	movs	r2, r4
 800402a:	6800      	ldr	r0, [r0, #0]
 800402c:	005b      	lsls	r3, r3, #1
 800402e:	f002 fd9d 	bl	8006b6c <HAL_TIM_PWM_Start_DMA>
}
 8004032:	bdf8      	pop	{r3, r4, r5, r6, r7, pc}
 8004034:	2000055c 	.word	0x2000055c
 8004038:	20000582 	.word	0x20000582
 800403c:	200005a0 	.word	0x200005a0
 8004040:	20000780 	.word	0x20000780
 8004044:	20000564 	.word	0x20000564
 8004048:	20000004 	.word	0x20000004
 800404c:	20000558 	.word	0x20000558
 8004050:	20000560 	.word	0x20000560

08004054 <SendIfDirty>:

static void SendIfDirty(void)
{
 8004054:	b510      	push	{r4, lr}
    if (s_dirty && !ws2812b_busy) WS2812B_Send();
 8004056:	4b05      	ldr	r3, [pc, #20]	@ (800406c <SendIfDirty+0x18>)
 8004058:	781b      	ldrb	r3, [r3, #0]
 800405a:	2b00      	cmp	r3, #0
 800405c:	d005      	beq.n	800406a <SendIfDirty+0x16>
 800405e:	4b04      	ldr	r3, [pc, #16]	@ (8004070 <SendIfDirty+0x1c>)
 8004060:	781b      	ldrb	r3, [r3, #0]
 8004062:	2b00      	cmp	r3, #0
 8004064:	d101      	bne.n	800406a <SendIfDirty+0x16>
 8004066:	f7ff ffa1 	bl	8003fac <WS2812B_Send>
}
 800406a:	bd10      	pop	{r4, pc}
 800406c:	20000004 	.word	0x20000004
 8004070:	2000055c 	.word	0x2000055c

08004074 <WS2812B_DMAComplete_Callback>:
    HAL_TIM_PWM_Stop_DMA(s_htim, TIM_CHANNEL_1);
 8004074:	4b04      	ldr	r3, [pc, #16]	@ (8004088 <WS2812B_DMAComplete_Callback+0x14>)
{
 8004076:	b510      	push	{r4, lr}
    HAL_TIM_PWM_Stop_DMA(s_htim, TIM_CHANNEL_1);
 8004078:	6818      	ldr	r0, [r3, #0]
 800407a:	2100      	movs	r1, #0
 800407c:	f002 fdf0 	bl	8006c60 <HAL_TIM_PWM_Stop_DMA>
    ws2812b_busy = 0;
 8004080:	2200      	movs	r2, #0
 8004082:	4b02      	ldr	r3, [pc, #8]	@ (800408c <WS2812B_DMAComplete_Callback+0x18>)
 8004084:	701a      	strb	r2, [r3, #0]
}
 8004086:	bd10      	pop	{r4, pc}
 8004088:	20000560 	.word	0x20000560
 800408c:	2000055c 	.word	0x2000055c

08004090 <HAL_TIM_PWM_PulseFinishedCallback>:
    if (htim->Instance == TIM1) {
 8004090:	4b03      	ldr	r3, [pc, #12]	@ (80040a0 <HAL_TIM_PWM_PulseFinishedCallback+0x10>)
 8004092:	6802      	ldr	r2, [r0, #0]
{
 8004094:	b510      	push	{r4, lr}
    if (htim->Instance == TIM1) {
 8004096:	429a      	cmp	r2, r3
 8004098:	d101      	bne.n	800409e <HAL_TIM_PWM_PulseFinishedCallback+0xe>
        WS2812B_DMAComplete_Callback();
 800409a:	f7ff ffeb 	bl	8004074 <WS2812B_DMAComplete_Callback>
}
 800409e:	bd10      	pop	{r4, pc}
 80040a0:	40012c00 	.word	0x40012c00

080040a4 <HAL_TIM_PWM_PulseFinishedHalfCpltCallback>:
}
 80040a4:	4770      	bx	lr
	...

080040a8 <WS2812B_SetAll>:
{
 80040a8:	b5f0      	push	{r4, r5, r6, r7, lr}
            s_leds[i].b != color.b) {
 80040aa:	2600      	movs	r6, #0
 80040ac:	2701      	movs	r7, #1
{
 80040ae:	0a03      	lsrs	r3, r0, #8
 80040b0:	b085      	sub	sp, #20
        if (s_leds[i].r != color.r || s_leds[i].g != color.g ||
 80040b2:	b2db      	uxtb	r3, r3
 80040b4:	9301      	str	r3, [sp, #4]
 80040b6:	4b13      	ldr	r3, [pc, #76]	@ (8004104 <WS2812B_SetAll+0x5c>)
{
 80040b8:	0c05      	lsrs	r5, r0, #16
        if (s_leds[i].r != color.r || s_leds[i].g != color.g ||
 80040ba:	b2c2      	uxtb	r2, r0
 80040bc:	4c12      	ldr	r4, [pc, #72]	@ (8004108 <WS2812B_SetAll+0x60>)
{
 80040be:	9003      	str	r0, [sp, #12]
        if (s_leds[i].r != color.r || s_leds[i].g != color.g ||
 80040c0:	9200      	str	r2, [sp, #0]
            s_leds[i].b != color.b) {
 80040c2:	b2ed      	uxtb	r5, r5
 80040c4:	9302      	str	r3, [sp, #8]
        if (s_leds[i].r != color.r || s_leds[i].g != color.g ||
 80040c6:	7823      	ldrb	r3, [r4, #0]
 80040c8:	9a00      	ldr	r2, [sp, #0]
 80040ca:	4293      	cmp	r3, r2
 80040cc:	d116      	bne.n	80040fc <WS2812B_SetAll+0x54>
 80040ce:	7863      	ldrb	r3, [r4, #1]
 80040d0:	9a01      	ldr	r2, [sp, #4]
 80040d2:	4293      	cmp	r3, r2
 80040d4:	d112      	bne.n	80040fc <WS2812B_SetAll+0x54>
 80040d6:	78a3      	ldrb	r3, [r4, #2]
 80040d8:	42ab      	cmp	r3, r5
 80040da:	d111      	bne.n	8004100 <WS2812B_SetAll+0x58>
        s_leds[i] = color;
 80040dc:	0020      	movs	r0, r4
 80040de:	2203      	movs	r2, #3
 80040e0:	a903      	add	r1, sp, #12
 80040e2:	f003 fb75 	bl	80077d0 <memcpy>
    for (uint8_t i = 0; i < WS2812B_NUM_LEDS; i++) {
 80040e6:	9b02      	ldr	r3, [sp, #8]
 80040e8:	3403      	adds	r4, #3
 80040ea:	429c      	cmp	r4, r3
 80040ec:	d1eb      	bne.n	80040c6 <WS2812B_SetAll+0x1e>
 80040ee:	2e00      	cmp	r6, #0
 80040f0:	d002      	beq.n	80040f8 <WS2812B_SetAll+0x50>
 80040f2:	2201      	movs	r2, #1
 80040f4:	4b05      	ldr	r3, [pc, #20]	@ (800410c <WS2812B_SetAll+0x64>)
 80040f6:	701a      	strb	r2, [r3, #0]
}
 80040f8:	b005      	add	sp, #20
 80040fa:	bdf0      	pop	{r4, r5, r6, r7, pc}
 80040fc:	003e      	movs	r6, r7
 80040fe:	e7ed      	b.n	80040dc <WS2812B_SetAll+0x34>
 8004100:	2601      	movs	r6, #1
 8004102:	e7eb      	b.n	80040dc <WS2812B_SetAll+0x34>
 8004104:	200005a0 	.word	0x200005a0
 8004108:	20000582 	.word	0x20000582
 800410c:	20000004 	.word	0x20000004

08004110 <WS2812B_SetPixel>:
{
 8004110:	b537      	push	{r0, r1, r2, r4, r5, lr}
 8004112:	ac01      	add	r4, sp, #4
 8004114:	9101      	str	r1, [sp, #4]
    if (idx >= WS2812B_NUM_LEDS) return;
 8004116:	2809      	cmp	r0, #9
 8004118:	d818      	bhi.n	800414c <WS2812B_SetPixel+0x3c>
    if (s_leds[idx].r != color.r || s_leds[idx].g != color.g ||
 800411a:	2303      	movs	r3, #3
 800411c:	4343      	muls	r3, r0
 800411e:	490c      	ldr	r1, [pc, #48]	@ (8004150 <WS2812B_SetPixel+0x40>)
 8004120:	7822      	ldrb	r2, [r4, #0]
 8004122:	5c5d      	ldrb	r5, [r3, r1]
 8004124:	4295      	cmp	r5, r2
 8004126:	d108      	bne.n	800413a <WS2812B_SetPixel+0x2a>
 8004128:	18cb      	adds	r3, r1, r3
 800412a:	785d      	ldrb	r5, [r3, #1]
 800412c:	7862      	ldrb	r2, [r4, #1]
 800412e:	4295      	cmp	r5, r2
 8004130:	d103      	bne.n	800413a <WS2812B_SetPixel+0x2a>
 8004132:	789a      	ldrb	r2, [r3, #2]
 8004134:	78a3      	ldrb	r3, [r4, #2]
 8004136:	429a      	cmp	r2, r3
 8004138:	d002      	beq.n	8004140 <WS2812B_SetPixel+0x30>
        s_dirty = 1;
 800413a:	2201      	movs	r2, #1
 800413c:	4b05      	ldr	r3, [pc, #20]	@ (8004154 <WS2812B_SetPixel+0x44>)
 800413e:	701a      	strb	r2, [r3, #0]
    s_leds[idx] = color;
 8004140:	2203      	movs	r2, #3
 8004142:	4350      	muls	r0, r2
 8004144:	1808      	adds	r0, r1, r0
 8004146:	0021      	movs	r1, r4
 8004148:	f003 fb42 	bl	80077d0 <memcpy>
}
 800414c:	bd37      	pop	{r0, r1, r2, r4, r5, pc}
 800414e:	46c0      	nop			@ (mov r8, r8)
 8004150:	20000582 	.word	0x20000582
 8004154:	20000004 	.word	0x20000004

08004158 <WS2812B_SetPattern>:
{
 8004158:	b510      	push	{r4, lr}
    if (s_pattern == pattern) return;
 800415a:	4b0b      	ldr	r3, [pc, #44]	@ (8004188 <WS2812B_SetPattern+0x30>)
 800415c:	781a      	ldrb	r2, [r3, #0]
 800415e:	4282      	cmp	r2, r0
 8004160:	d010      	beq.n	8004184 <WS2812B_SetPattern+0x2c>
    s_pattern      = pattern;
 8004162:	7018      	strb	r0, [r3, #0]
    s_pattern_tick = HAL_GetTick();
 8004164:	f000 fac8 	bl	80046f8 <HAL_GetTick>
 8004168:	4b08      	ldr	r3, [pc, #32]	@ (800418c <WS2812B_SetPattern+0x34>)
 800416a:	6018      	str	r0, [r3, #0]
    s_blink_tick   = HAL_GetTick();
 800416c:	f000 fac4 	bl	80046f8 <HAL_GetTick>
    s_sweep_pos    = 0;
 8004170:	2200      	movs	r2, #0
    s_blink_tick   = HAL_GetTick();
 8004172:	4b07      	ldr	r3, [pc, #28]	@ (8004190 <WS2812B_SetPattern+0x38>)
 8004174:	6018      	str	r0, [r3, #0]
    s_sweep_pos    = 0;
 8004176:	4b07      	ldr	r3, [pc, #28]	@ (8004194 <WS2812B_SetPattern+0x3c>)
 8004178:	701a      	strb	r2, [r3, #0]
    s_wave_pos     = 0;
 800417a:	4b07      	ldr	r3, [pc, #28]	@ (8004198 <WS2812B_SetPattern+0x40>)
 800417c:	701a      	strb	r2, [r3, #0]
    s_dirty        = 1;
 800417e:	4b07      	ldr	r3, [pc, #28]	@ (800419c <WS2812B_SetPattern+0x44>)
 8004180:	3201      	adds	r2, #1
 8004182:	701a      	strb	r2, [r3, #0]
}
 8004184:	bd10      	pop	{r4, pc}
 8004186:	46c0      	nop			@ (mov r8, r8)
 8004188:	20000554 	.word	0x20000554
 800418c:	20000550 	.word	0x20000550
 8004190:	2000054c 	.word	0x2000054c
 8004194:	2000054b 	.word	0x2000054b
 8004198:	2000054a 	.word	0x2000054a
 800419c:	20000004 	.word	0x20000004

080041a0 <WS2812B_SetLampColor>:
void WS2812B_SetLampColor(RGB_t color)         { s_lamp_color    = color; }
 80041a0:	b507      	push	{r0, r1, r2, lr}
 80041a2:	2203      	movs	r2, #3
 80041a4:	9001      	str	r0, [sp, #4]
 80041a6:	a901      	add	r1, sp, #4
 80041a8:	4801      	ldr	r0, [pc, #4]	@ (80041b0 <WS2812B_SetLampColor+0x10>)
 80041aa:	f003 fb11 	bl	80077d0 <memcpy>
 80041ae:	bd07      	pop	{r0, r1, r2, pc}
 80041b0:	20000008 	.word	0x20000008

080041b4 <WS2812B_SetSolidColor>:
{
 80041b4:	b507      	push	{r0, r1, r2, lr}
    s_solid_color = color;
 80041b6:	2203      	movs	r2, #3
{
 80041b8:	9001      	str	r0, [sp, #4]
    s_solid_color = color;
 80041ba:	a901      	add	r1, sp, #4
 80041bc:	4805      	ldr	r0, [pc, #20]	@ (80041d4 <WS2812B_SetSolidColor+0x20>)
 80041be:	f003 fb07 	bl	80077d0 <memcpy>
    s_pattern     = LED_PATTERN_SOLID;   /* hold steady until next command */
 80041c2:	220c      	movs	r2, #12
 80041c4:	4b04      	ldr	r3, [pc, #16]	@ (80041d8 <WS2812B_SetSolidColor+0x24>)
 80041c6:	701a      	strb	r2, [r3, #0]
    s_pattern_tick = HAL_GetTick();
 80041c8:	f000 fa96 	bl	80046f8 <HAL_GetTick>
 80041cc:	4b03      	ldr	r3, [pc, #12]	@ (80041dc <WS2812B_SetSolidColor+0x28>)
 80041ce:	6018      	str	r0, [r3, #0]
}
 80041d0:	bd07      	pop	{r0, r1, r2, pc}
 80041d2:	46c0      	nop			@ (mov r8, r8)
 80041d4:	20000547 	.word	0x20000547
 80041d8:	20000554 	.word	0x20000554
 80041dc:	20000550 	.word	0x20000550

080041e0 <WS2812B_SetCustomReminderColor>:
void WS2812B_SetCustomReminderColor(RGB_t c)    { s_custom_remind = c;    }
 80041e0:	b507      	push	{r0, r1, r2, lr}
 80041e2:	2203      	movs	r2, #3
 80041e4:	9001      	str	r0, [sp, #4]
 80041e6:	a901      	add	r1, sp, #4
 80041e8:	4801      	ldr	r0, [pc, #4]	@ (80041f0 <WS2812B_SetCustomReminderColor+0x10>)
 80041ea:	f003 faf1 	bl	80077d0 <memcpy>
 80041ee:	bd07      	pop	{r0, r1, r2, pc}
 80041f0:	20000005 	.word	0x20000005

080041f4 <WS2812B_SetChargingLevel>:
    if (pct != s_charge_pct) s_dirty = 1;
 80041f4:	4a04      	ldr	r2, [pc, #16]	@ (8004208 <WS2812B_SetChargingLevel+0x14>)
 80041f6:	7813      	ldrb	r3, [r2, #0]
 80041f8:	4283      	cmp	r3, r0
 80041fa:	d002      	beq.n	8004202 <WS2812B_SetChargingLevel+0xe>
 80041fc:	2101      	movs	r1, #1
 80041fe:	4b03      	ldr	r3, [pc, #12]	@ (800420c <WS2812B_SetChargingLevel+0x18>)
 8004200:	7019      	strb	r1, [r3, #0]
    s_charge_pct = pct;
 8004202:	7010      	strb	r0, [r2, #0]
}
 8004204:	4770      	bx	lr
 8004206:	46c0      	nop			@ (mov r8, r8)
 8004208:	20000546 	.word	0x20000546
 800420c:	20000004 	.word	0x20000004

08004210 <WS2812B_Update>:
 * =========================================================================
 * Non-blocking: returns immediately if DMA is running. All timing uses
 * HAL_GetTick() deltas; never calls HAL_Delay().
 */
void WS2812B_Update(void)
{
 8004210:	b5f0      	push	{r4, r5, r6, r7, lr}
    if (ws2812b_busy) return;
 8004212:	4bb0      	ldr	r3, [pc, #704]	@ (80044d4 <WS2812B_Update+0x2c4>)
{
 8004214:	b08d      	sub	sp, #52	@ 0x34
    if (ws2812b_busy) return;
 8004216:	781b      	ldrb	r3, [r3, #0]
 8004218:	b2dc      	uxtb	r4, r3
 800421a:	2b00      	cmp	r3, #0
 800421c:	d000      	beq.n	8004220 <WS2812B_Update+0x10>
 800421e:	e0a7      	b.n	8004370 <WS2812B_Update+0x160>

    uint32_t now = HAL_GetTick();
 8004220:	f000 fa6a 	bl	80046f8 <HAL_GetTick>
    uint32_t dt  = now - s_blink_tick;
 8004224:	49ac      	ldr	r1, [pc, #688]	@ (80044d8 <WS2812B_Update+0x2c8>)

    switch (s_pattern) {
 8004226:	4bad      	ldr	r3, [pc, #692]	@ (80044dc <WS2812B_Update+0x2cc>)
    uint32_t dt  = now - s_blink_tick;
 8004228:	680a      	ldr	r2, [r1, #0]
    switch (s_pattern) {
 800422a:	781e      	ldrb	r6, [r3, #0]
    uint32_t now = HAL_GetTick();
 800422c:	0005      	movs	r5, r0
    uint32_t dt  = now - s_blink_tick;
 800422e:	1a82      	subs	r2, r0, r2
    switch (s_pattern) {
 8004230:	2e10      	cmp	r6, #16
 8004232:	d900      	bls.n	8004236 <WS2812B_Update+0x26>
 8004234:	e09a      	b.n	800436c <WS2812B_Update+0x15c>
 8004236:	0030      	movs	r0, r6
 8004238:	f7fb ff78 	bl	800012c <__gnu_thumb1_case_uhi>
 800423c:	00110027 	.word	0x00110027
 8004240:	00110011 	.word	0x00110011
 8004244:	00420042 	.word	0x00420042
 8004248:	009c0062 	.word	0x009c0062
 800424c:	00eb00cc 	.word	0x00eb00cc
 8004250:	016a011e 	.word	0x016a011e
 8004254:	01a10198 	.word	0x01a10198
 8004258:	01c901c9 	.word	0x01c901c9
 800425c:	0027      	.short	0x0027
        return;

    case LED_PATTERN_HYDRATION_HIGH:
    case LED_PATTERN_HYDRATION_MID:
    case LED_PATTERN_HYDRATION_LOW: {
        RGB_t col = (s_pattern == LED_PATTERN_HYDRATION_HIGH) ? s_custom_remind :
 800425e:	2e01      	cmp	r6, #1
 8004260:	d006      	beq.n	8004270 <WS2812B_Update+0x60>
 8004262:	2700      	movs	r7, #0
                    (s_pattern == LED_PATTERN_HYDRATION_MID)  ? RGB_AMBER : RGB_RED;
 8004264:	2e02      	cmp	r6, #2
 8004266:	d116      	bne.n	8004296 <WS2812B_Update+0x86>
        RGB_t col = (s_pattern == LED_PATTERN_HYDRATION_HIGH) ? s_custom_remind :
 8004268:	2264      	movs	r2, #100	@ 0x64
 800426a:	9201      	str	r2, [sp, #4]
 800426c:	26ff      	movs	r6, #255	@ 0xff
 800426e:	e004      	b.n	800427a <WS2812B_Update+0x6a>
 8004270:	4a9b      	ldr	r2, [pc, #620]	@ (80044e0 <WS2812B_Update+0x2d0>)
 8004272:	7851      	ldrb	r1, [r2, #1]
 8004274:	7816      	ldrb	r6, [r2, #0]
 8004276:	9101      	str	r1, [sp, #4]
 8004278:	7897      	ldrb	r7, [r2, #2]
        if (now - s_pattern_tick > 3000U) {
 800427a:	4a9a      	ldr	r2, [pc, #616]	@ (80044e4 <WS2812B_Update+0x2d4>)
 800427c:	6810      	ldr	r0, [r2, #0]
 800427e:	4a9a      	ldr	r2, [pc, #616]	@ (80044e8 <WS2812B_Update+0x2d8>)
 8004280:	1a28      	subs	r0, r5, r0
 8004282:	4290      	cmp	r0, r2
 8004284:	d909      	bls.n	800429a <WS2812B_Update+0x8a>
    }

    case LED_PATTERN_SYNC_SUCCESS: {
        if (dt > 60U) { s_blink_tick = now; s_sweep_pos++; }
        if (s_sweep_pos >= WS2812B_NUM_LEDS + 3U) {
            s_pattern = LED_PATTERN_ALL_OFF;
 8004286:	2210      	movs	r2, #16
 8004288:	701a      	strb	r2, [r3, #0]
            WS2812B_SetAll(RGB_OFF); SendIfDirty(); return;
 800428a:	2200      	movs	r2, #0
 800428c:	ab0b      	add	r3, sp, #44	@ 0x2c
 800428e:	801a      	strh	r2, [r3, #0]
 8004290:	709a      	strb	r2, [r3, #2]
            s_pattern = LED_PATTERN_ALL_OFF;
            WS2812B_SetAll(RGB_OFF); SendIfDirty(); return;
        }
        uint8_t on  = (uint8_t)((p / 250U) % 2U == 0U);
        RGB_t   col = (s_pattern == LED_PATTERN_FACTORY_RESET_WARN) ? RGB_RED : RGB_WHITE;
        WS2812B_SetAll(on ? col : RGB_OFF);
 8004292:	980b      	ldr	r0, [sp, #44]	@ 0x2c
 8004294:	e00e      	b.n	80042b4 <WS2812B_Update+0xa4>
        RGB_t col = (s_pattern == LED_PATTERN_HYDRATION_HIGH) ? s_custom_remind :
 8004296:	9701      	str	r7, [sp, #4]
 8004298:	e7e8      	b.n	800426c <WS2812B_Update+0x5c>
        uint8_t on = (uint8_t)(((now - s_pattern_tick) / 300U) % 2U == 0U);
 800429a:	2196      	movs	r1, #150	@ 0x96
 800429c:	0049      	lsls	r1, r1, #1
 800429e:	f7fb ff4f 	bl	8000140 <__udivsi3>
        WS2812B_SetAll(on ? col : RGB_OFF);
 80042a2:	07c0      	lsls	r0, r0, #31
 80042a4:	d409      	bmi.n	80042ba <WS2812B_Update+0xaa>
 80042a6:	003c      	movs	r4, r7
 80042a8:	9a01      	ldr	r2, [sp, #4]
 80042aa:	ab02      	add	r3, sp, #8
 80042ac:	701e      	strb	r6, [r3, #0]
 80042ae:	705a      	strb	r2, [r3, #1]
 80042b0:	709c      	strb	r4, [r3, #2]
 80042b2:	9802      	ldr	r0, [sp, #8]
        WS2812B_SetAll(on ? col : RGB_OFF);
 80042b4:	f7ff fef8 	bl	80040a8 <WS2812B_SetAll>
        break;
 80042b8:	e058      	b.n	800436c <WS2812B_Update+0x15c>
 80042ba:	2600      	movs	r6, #0
 80042bc:	9601      	str	r6, [sp, #4]
 80042be:	e7f3      	b.n	80042a8 <WS2812B_Update+0x98>
        RGB_t    col   = (s_pattern == LED_PATTERN_PURITY_ALERT) ? RGB_PURPLE : RGB_ORANGE;
 80042c0:	2e04      	cmp	r6, #4
 80042c2:	d115      	bne.n	80042f0 <WS2812B_Update+0xe0>
 80042c4:	2480      	movs	r4, #128	@ 0x80
 80042c6:	2100      	movs	r1, #0
 80042c8:	0020      	movs	r0, r4
        uint32_t phase = now - s_pattern_tick;
 80042ca:	4a86      	ldr	r2, [pc, #536]	@ (80044e4 <WS2812B_Update+0x2d4>)
 80042cc:	6812      	ldr	r2, [r2, #0]
 80042ce:	1aaa      	subs	r2, r5, r2
        uint8_t  on    = (uint8_t)((phase < 80U) || (phase >= 200U && phase < 280U));
 80042d0:	2a4f      	cmp	r2, #79	@ 0x4f
 80042d2:	d910      	bls.n	80042f6 <WS2812B_Update+0xe6>
 80042d4:	0015      	movs	r5, r2
 80042d6:	3dc8      	subs	r5, #200	@ 0xc8
 80042d8:	2d4f      	cmp	r5, #79	@ 0x4f
 80042da:	d90c      	bls.n	80042f6 <WS2812B_Update+0xe6>
        if (phase > 400U) {
 80042dc:	21c8      	movs	r1, #200	@ 0xc8
 80042de:	0049      	lsls	r1, r1, #1
 80042e0:	428a      	cmp	r2, r1
 80042e2:	d8d0      	bhi.n	8004286 <WS2812B_Update+0x76>
        WS2812B_SetAll(on ? col : RGB_OFF);
 80042e4:	2200      	movs	r2, #0
 80042e6:	ab03      	add	r3, sp, #12
 80042e8:	801a      	strh	r2, [r3, #0]
 80042ea:	709a      	strb	r2, [r3, #2]
 80042ec:	9803      	ldr	r0, [sp, #12]
 80042ee:	e7e1      	b.n	80042b4 <WS2812B_Update+0xa4>
        RGB_t    col   = (s_pattern == LED_PATTERN_PURITY_ALERT) ? RGB_PURPLE : RGB_ORANGE;
 80042f0:	2132      	movs	r1, #50	@ 0x32
 80042f2:	20ff      	movs	r0, #255	@ 0xff
 80042f4:	e7e9      	b.n	80042ca <WS2812B_Update+0xba>
        WS2812B_SetAll(on ? col : RGB_OFF);
 80042f6:	ab03      	add	r3, sp, #12
 80042f8:	7018      	strb	r0, [r3, #0]
 80042fa:	7059      	strb	r1, [r3, #1]
 80042fc:	709c      	strb	r4, [r3, #2]
 80042fe:	e7f5      	b.n	80042ec <WS2812B_Update+0xdc>
        if (dt > 120U) {
 8004300:	4e7a      	ldr	r6, [pc, #488]	@ (80044ec <WS2812B_Update+0x2dc>)
 8004302:	2a78      	cmp	r2, #120	@ 0x78
 8004304:	d906      	bls.n	8004314 <WS2812B_Update+0x104>
            s_wave_pos   = (uint8_t)((s_wave_pos + 1U) % WS2812B_NUM_LEDS);
 8004306:	7830      	ldrb	r0, [r6, #0]
            s_blink_tick = now;
 8004308:	600d      	str	r5, [r1, #0]
            s_wave_pos   = (uint8_t)((s_wave_pos + 1U) % WS2812B_NUM_LEDS);
 800430a:	3001      	adds	r0, #1
 800430c:	210a      	movs	r1, #10
 800430e:	f7fb ff9d 	bl	800024c <__aeabi_uidivmod>
 8004312:	7031      	strb	r1, [r6, #0]
        RGB_t    col   = (s_pattern == LED_PATTERN_PURITY_ALERT) ? RGB_PURPLE : RGB_ORANGE;
 8004314:	2400      	movs	r4, #0
            uint8_t dist = (uint8_t)((WS2812B_NUM_LEDS + i - s_wave_pos) % WS2812B_NUM_LEDS);
 8004316:	250a      	movs	r5, #10
            uint8_t b    = (dist == 0U) ? 255U
 8004318:	27ff      	movs	r7, #255	@ 0xff
            uint8_t dist = (uint8_t)((WS2812B_NUM_LEDS + i - s_wave_pos) % WS2812B_NUM_LEDS);
 800431a:	7830      	ldrb	r0, [r6, #0]
 800431c:	b2e3      	uxtb	r3, r4
 800431e:	1a28      	subs	r0, r5, r0
 8004320:	210a      	movs	r1, #10
 8004322:	1900      	adds	r0, r0, r4
 8004324:	9301      	str	r3, [sp, #4]
 8004326:	f7fb ff91 	bl	800024c <__aeabi_uidivmod>
 800432a:	000b      	movs	r3, r1
            uint8_t b    = (dist == 0U) ? 255U
 800432c:	0039      	movs	r1, r7
 800432e:	2b00      	cmp	r3, #0
 8004330:	d005      	beq.n	800433e <WS2812B_Update+0x12e>
 8004332:	2208      	movs	r2, #8
 8004334:	2164      	movs	r1, #100	@ 0x64
 8004336:	4393      	bics	r3, r2
 8004338:	2b01      	cmp	r3, #1
 800433a:	d000      	beq.n	800433e <WS2812B_Update+0x12e>
 800433c:	3950      	subs	r1, #80	@ 0x50
            WS2812B_SetPixel(i, ScaleBright(RGB_AMBER, b));
 800433e:	4a6c      	ldr	r2, [pc, #432]	@ (80044f0 <WS2812B_Update+0x2e0>)
 8004340:	ab0b      	add	r3, sp, #44	@ 0x2c
 8004342:	801a      	strh	r2, [r3, #0]
 8004344:	2200      	movs	r2, #0
 8004346:	709a      	strb	r2, [r3, #2]
 8004348:	980b      	ldr	r0, [sp, #44]	@ 0x2c
 800434a:	f7ff fdcd 	bl	8003ee8 <ScaleBright>
 800434e:	ab04      	add	r3, sp, #16
 8004350:	7018      	strb	r0, [r3, #0]
 8004352:	0402      	lsls	r2, r0, #16
 8004354:	0200      	lsls	r0, r0, #8
 8004356:	0e12      	lsrs	r2, r2, #24
 8004358:	0e00      	lsrs	r0, r0, #24
 800435a:	7098      	strb	r0, [r3, #2]
 800435c:	705a      	strb	r2, [r3, #1]
 800435e:	b2e0      	uxtb	r0, r4
 8004360:	9904      	ldr	r1, [sp, #16]
        for (uint8_t i = 0; i < WS2812B_NUM_LEDS; i++) {
 8004362:	3401      	adds	r4, #1
            WS2812B_SetPixel(i, ScaleBright(RGB_AMBER, b));
 8004364:	f7ff fed4 	bl	8004110 <WS2812B_SetPixel>
        for (uint8_t i = 0; i < WS2812B_NUM_LEDS; i++) {
 8004368:	2c0a      	cmp	r4, #10
 800436a:	d1d6      	bne.n	800431a <WS2812B_Update+0x10a>
    }

    default: break;
    }

    SendIfDirty();
 800436c:	f7ff fe72 	bl	8004054 <SendIfDirty>
}
 8004370:	b00d      	add	sp, #52	@ 0x34
 8004372:	bdf0      	pop	{r4, r5, r6, r7, pc}
        uint32_t p = now - s_pattern_tick;
 8004374:	4a5b      	ldr	r2, [pc, #364]	@ (80044e4 <WS2812B_Update+0x2d4>)
 8004376:	ac0b      	add	r4, sp, #44	@ 0x2c
 8004378:	6810      	ldr	r0, [r2, #0]
        if (p > 1000U) {
 800437a:	22fa      	movs	r2, #250	@ 0xfa
        uint32_t p = now - s_pattern_tick;
 800437c:	1a28      	subs	r0, r5, r0
        if (p > 1000U) {
 800437e:	0092      	lsls	r2, r2, #2
 8004380:	4290      	cmp	r0, r2
 8004382:	d905      	bls.n	8004390 <WS2812B_Update+0x180>
            s_pattern = LED_PATTERN_ALL_OFF;
 8004384:	2210      	movs	r2, #16
 8004386:	701a      	strb	r2, [r3, #0]
            WS2812B_SetAll(RGB_OFF); SendIfDirty(); return;
 8004388:	2300      	movs	r3, #0
 800438a:	8023      	strh	r3, [r4, #0]
 800438c:	70a3      	strb	r3, [r4, #2]
 800438e:	e780      	b.n	8004292 <WS2812B_Update+0x82>
        uint32_t phase = p % 500U;
 8004390:	21fa      	movs	r1, #250	@ 0xfa
 8004392:	0049      	lsls	r1, r1, #1
 8004394:	f7fb ff5a 	bl	800024c <__aeabi_uidivmod>
        uint8_t  b     = (phase < 250U) ? (uint8_t)(phase * 255U / 250U)
 8004398:	29f9      	cmp	r1, #249	@ 0xf9
 800439a:	d816      	bhi.n	80043ca <WS2812B_Update+0x1ba>
 800439c:	20ff      	movs	r0, #255	@ 0xff
 800439e:	4348      	muls	r0, r1
                                        : (uint8_t)((500U - phase) * 255U / 250U);
 80043a0:	21fa      	movs	r1, #250	@ 0xfa
 80043a2:	f7fb fecd 	bl	8000140 <__udivsi3>
        WS2812B_SetAll(ScaleBright(RGB_GREEN, b));
 80043a6:	4b53      	ldr	r3, [pc, #332]	@ (80044f4 <WS2812B_Update+0x2e4>)
        uint8_t  b     = (phase < 250U) ? (uint8_t)(phase * 255U / 250U)
 80043a8:	b2c1      	uxtb	r1, r0
        WS2812B_SetAll(ScaleBright(RGB_GREEN, b));
 80043aa:	8023      	strh	r3, [r4, #0]
 80043ac:	2300      	movs	r3, #0
 80043ae:	70a3      	strb	r3, [r4, #2]
 80043b0:	980b      	ldr	r0, [sp, #44]	@ 0x2c
 80043b2:	f7ff fd99 	bl	8003ee8 <ScaleBright>
 80043b6:	ab05      	add	r3, sp, #20
 80043b8:	7018      	strb	r0, [r3, #0]
 80043ba:	0402      	lsls	r2, r0, #16
 80043bc:	0200      	lsls	r0, r0, #8
 80043be:	0e00      	lsrs	r0, r0, #24
 80043c0:	0e12      	lsrs	r2, r2, #24
 80043c2:	705a      	strb	r2, [r3, #1]
 80043c4:	7098      	strb	r0, [r3, #2]
 80043c6:	9805      	ldr	r0, [sp, #20]
 80043c8:	e774      	b.n	80042b4 <WS2812B_Update+0xa4>
                                        : (uint8_t)((500U - phase) * 255U / 250U);
 80043ca:	020b      	lsls	r3, r1, #8
 80043cc:	1ac9      	subs	r1, r1, r3
 80043ce:	4b4a      	ldr	r3, [pc, #296]	@ (80044f8 <WS2812B_Update+0x2e8>)
 80043d0:	18c8      	adds	r0, r1, r3
 80043d2:	e7e5      	b.n	80043a0 <WS2812B_Update+0x190>
        if (dt > 60U) { s_blink_tick = now; s_sweep_pos++; }
 80043d4:	4849      	ldr	r0, [pc, #292]	@ (80044fc <WS2812B_Update+0x2ec>)
 80043d6:	2a3c      	cmp	r2, #60	@ 0x3c
 80043d8:	d903      	bls.n	80043e2 <WS2812B_Update+0x1d2>
 80043da:	7802      	ldrb	r2, [r0, #0]
 80043dc:	600d      	str	r5, [r1, #0]
 80043de:	3201      	adds	r2, #1
 80043e0:	7002      	strb	r2, [r0, #0]
        if (s_sweep_pos >= WS2812B_NUM_LEDS + 3U) {
 80043e2:	7805      	ldrb	r5, [r0, #0]
            WS2812B_SetPixel(i, (i == s_sweep_pos) ? RGB_CYAN : RGB_OFF);
 80043e4:	26c8      	movs	r6, #200	@ 0xc8
        if (s_sweep_pos >= WS2812B_NUM_LEDS + 3U) {
 80043e6:	2d0c      	cmp	r5, #12
 80043e8:	d900      	bls.n	80043ec <WS2812B_Update+0x1dc>
 80043ea:	e74c      	b.n	8004286 <WS2812B_Update+0x76>
            WS2812B_SetPixel(i, (i == s_sweep_pos) ? RGB_CYAN : RGB_OFF);
 80043ec:	ab06      	add	r3, sp, #24
 80043ee:	42a5      	cmp	r5, r4
 80043f0:	d10b      	bne.n	800440a <WS2812B_Update+0x1fa>
 80043f2:	4a43      	ldr	r2, [pc, #268]	@ (8004500 <WS2812B_Update+0x2f0>)
 80043f4:	709e      	strb	r6, [r3, #2]
 80043f6:	801a      	strh	r2, [r3, #0]
 80043f8:	0020      	movs	r0, r4
        for (uint8_t i = 0; i < WS2812B_NUM_LEDS; i++) {
 80043fa:	3401      	adds	r4, #1
            WS2812B_SetPixel(i, (i == s_sweep_pos) ? RGB_CYAN : RGB_OFF);
 80043fc:	9906      	ldr	r1, [sp, #24]
        for (uint8_t i = 0; i < WS2812B_NUM_LEDS; i++) {
 80043fe:	b2e4      	uxtb	r4, r4
            WS2812B_SetPixel(i, (i == s_sweep_pos) ? RGB_CYAN : RGB_OFF);
 8004400:	f7ff fe86 	bl	8004110 <WS2812B_SetPixel>
        for (uint8_t i = 0; i < WS2812B_NUM_LEDS; i++) {
 8004404:	2c0a      	cmp	r4, #10
 8004406:	d1f1      	bne.n	80043ec <WS2812B_Update+0x1dc>
 8004408:	e7b0      	b.n	800436c <WS2812B_Update+0x15c>
            WS2812B_SetPixel(i, (i == s_sweep_pos) ? RGB_CYAN : RGB_OFF);
 800440a:	2200      	movs	r2, #0
 800440c:	801a      	strh	r2, [r3, #0]
 800440e:	709a      	strb	r2, [r3, #2]
 8004410:	e7f2      	b.n	80043f8 <WS2812B_Update+0x1e8>
        uint8_t lit = (uint8_t)((uint32_t)s_charge_pct * WS2812B_NUM_LEDS / 100U);
 8004412:	260a      	movs	r6, #10
 8004414:	0030      	movs	r0, r6
 8004416:	4b3b      	ldr	r3, [pc, #236]	@ (8004504 <WS2812B_Update+0x2f4>)
 8004418:	781f      	ldrb	r7, [r3, #0]
        if (lit > WS2812B_NUM_LEDS) lit = WS2812B_NUM_LEDS;
 800441a:	4b3b      	ldr	r3, [pc, #236]	@ (8004508 <WS2812B_Update+0x2f8>)
        uint8_t lit = (uint8_t)((uint32_t)s_charge_pct * WS2812B_NUM_LEDS / 100U);
 800441c:	4378      	muls	r0, r7
        if (lit > WS2812B_NUM_LEDS) lit = WS2812B_NUM_LEDS;
 800441e:	4298      	cmp	r0, r3
 8004420:	d803      	bhi.n	800442a <WS2812B_Update+0x21a>
        uint8_t lit = (uint8_t)((uint32_t)s_charge_pct * WS2812B_NUM_LEDS / 100U);
 8004422:	2164      	movs	r1, #100	@ 0x64
 8004424:	f7fb fe8c 	bl	8000140 <__udivsi3>
 8004428:	b2c6      	uxtb	r6, r0
                uint8_t on = (uint8_t)((now / 600U) % 2U == 0U);
 800442a:	2196      	movs	r1, #150	@ 0x96
 800442c:	0028      	movs	r0, r5
 800442e:	0089      	lsls	r1, r1, #2
 8004430:	f7fb fe86 	bl	8000140 <__udivsi3>
 8004434:	2501      	movs	r5, #1
 8004436:	4385      	bics	r5, r0
 8004438:	426d      	negs	r5, r5
 800443a:	b2ed      	uxtb	r5, r5
            if (i < lit) {
 800443c:	2300      	movs	r3, #0
 800443e:	42a6      	cmp	r6, r4
 8004440:	d906      	bls.n	8004450 <WS2812B_Update+0x240>
                WS2812B_SetPixel(i, RGB_GREEN);
 8004442:	492c      	ldr	r1, [pc, #176]	@ (80044f4 <WS2812B_Update+0x2e4>)
 8004444:	aa0b      	add	r2, sp, #44	@ 0x2c
 8004446:	8011      	strh	r1, [r2, #0]
                WS2812B_SetPixel(i, RGB_OFF);
 8004448:	7093      	strb	r3, [r2, #2]
 800444a:	0020      	movs	r0, r4
 800444c:	990b      	ldr	r1, [sp, #44]	@ 0x2c
 800444e:	e009      	b.n	8004464 <WS2812B_Update+0x254>
            } else if (i == lit && s_charge_pct < 100U) {
 8004450:	42a6      	cmp	r6, r4
 8004452:	d10e      	bne.n	8004472 <WS2812B_Update+0x262>
 8004454:	2f63      	cmp	r7, #99	@ 0x63
 8004456:	d80c      	bhi.n	8004472 <WS2812B_Update+0x262>
                WS2812B_SetPixel(i, on ? RGB_GREEN : RGB_OFF);
 8004458:	0030      	movs	r0, r6
 800445a:	aa07      	add	r2, sp, #28
 800445c:	7013      	strb	r3, [r2, #0]
 800445e:	7055      	strb	r5, [r2, #1]
 8004460:	7093      	strb	r3, [r2, #2]
 8004462:	9907      	ldr	r1, [sp, #28]
        for (uint8_t i = 0; i < WS2812B_NUM_LEDS; i++) {
 8004464:	3401      	adds	r4, #1
 8004466:	b2e4      	uxtb	r4, r4
                WS2812B_SetPixel(i, RGB_OFF);
 8004468:	f7ff fe52 	bl	8004110 <WS2812B_SetPixel>
        for (uint8_t i = 0; i < WS2812B_NUM_LEDS; i++) {
 800446c:	2c0a      	cmp	r4, #10
 800446e:	d1e5      	bne.n	800443c <WS2812B_Update+0x22c>
 8004470:	e77c      	b.n	800436c <WS2812B_Update+0x15c>
                WS2812B_SetPixel(i, RGB_OFF);
 8004472:	aa0b      	add	r2, sp, #44	@ 0x2c
 8004474:	8013      	strh	r3, [r2, #0]
 8004476:	e7e7      	b.n	8004448 <WS2812B_Update+0x238>
        uint32_t p = now - s_pattern_tick;
 8004478:	4a1a      	ldr	r2, [pc, #104]	@ (80044e4 <WS2812B_Update+0x2d4>)
 800447a:	ac0b      	add	r4, sp, #44	@ 0x2c
 800447c:	6810      	ldr	r0, [r2, #0]
        if (p > 2400U) {
 800447e:	2296      	movs	r2, #150	@ 0x96
        uint32_t p = now - s_pattern_tick;
 8004480:	1a28      	subs	r0, r5, r0
        if (p > 2400U) {
 8004482:	0112      	lsls	r2, r2, #4
 8004484:	4290      	cmp	r0, r2
 8004486:	d900      	bls.n	800448a <WS2812B_Update+0x27a>
 8004488:	e77c      	b.n	8004384 <WS2812B_Update+0x174>
        uint32_t phase = p % 800U;
 800448a:	21c8      	movs	r1, #200	@ 0xc8
 800448c:	0089      	lsls	r1, r1, #2
 800448e:	f7fb fedd 	bl	800024c <__aeabi_uidivmod>
 8004492:	000b      	movs	r3, r1
        uint8_t  b     = (phase < 400U) ? (uint8_t)(phase * 200U / 400U)
 8004494:	21c8      	movs	r1, #200	@ 0xc8
 8004496:	20c8      	movs	r0, #200	@ 0xc8
 8004498:	0049      	lsls	r1, r1, #1
 800449a:	428b      	cmp	r3, r1
 800449c:	d214      	bcs.n	80044c8 <WS2812B_Update+0x2b8>
 800449e:	4358      	muls	r0, r3
                                        : (uint8_t)((800U - phase) * 200U / 400U);
 80044a0:	f7fb fe4e 	bl	8000140 <__udivsi3>
        WS2812B_SetAll(ScaleBright(RGB_RED, b));
 80044a4:	23ff      	movs	r3, #255	@ 0xff
 80044a6:	8023      	strh	r3, [r4, #0]
 80044a8:	2300      	movs	r3, #0
 80044aa:	70a3      	strb	r3, [r4, #2]
        uint8_t  b     = (phase < 400U) ? (uint8_t)(phase * 200U / 400U)
 80044ac:	b2c1      	uxtb	r1, r0
        WS2812B_SetAll(ScaleBright(RGB_RED, b));
 80044ae:	980b      	ldr	r0, [sp, #44]	@ 0x2c
 80044b0:	f7ff fd1a 	bl	8003ee8 <ScaleBright>
 80044b4:	ab08      	add	r3, sp, #32
 80044b6:	7018      	strb	r0, [r3, #0]
 80044b8:	0402      	lsls	r2, r0, #16
 80044ba:	0200      	lsls	r0, r0, #8
 80044bc:	0e00      	lsrs	r0, r0, #24
 80044be:	0e12      	lsrs	r2, r2, #24
 80044c0:	705a      	strb	r2, [r3, #1]
 80044c2:	7098      	strb	r0, [r3, #2]
 80044c4:	9808      	ldr	r0, [sp, #32]
 80044c6:	e6f5      	b.n	80042b4 <WS2812B_Update+0xa4>
                                        : (uint8_t)((800U - phase) * 200U / 400U);
 80044c8:	4240      	negs	r0, r0
 80044ca:	4358      	muls	r0, r3
 80044cc:	4b0f      	ldr	r3, [pc, #60]	@ (800450c <WS2812B_Update+0x2fc>)
 80044ce:	18c0      	adds	r0, r0, r3
 80044d0:	e7e6      	b.n	80044a0 <WS2812B_Update+0x290>
 80044d2:	46c0      	nop			@ (mov r8, r8)
 80044d4:	2000055c 	.word	0x2000055c
 80044d8:	2000054c 	.word	0x2000054c
 80044dc:	20000554 	.word	0x20000554
 80044e0:	20000005 	.word	0x20000005
 80044e4:	20000550 	.word	0x20000550
 80044e8:	00000bb8 	.word	0x00000bb8
 80044ec:	2000054a 	.word	0x2000054a
 80044f0:	000064ff 	.word	0x000064ff
 80044f4:	ffffff00 	.word	0xffffff00
 80044f8:	0001f20c 	.word	0x0001f20c
 80044fc:	2000054b 	.word	0x2000054b
 8004500:	ffffc800 	.word	0xffffc800
 8004504:	20000546 	.word	0x20000546
 8004508:	0000044b 	.word	0x0000044b
 800450c:	00027100 	.word	0x00027100
        if (dt > 80U) {
 8004510:	4e3d      	ldr	r6, [pc, #244]	@ (8004608 <WS2812B_Update+0x3f8>)
 8004512:	2a50      	cmp	r2, #80	@ 0x50
 8004514:	d906      	bls.n	8004524 <WS2812B_Update+0x314>
            s_wave_pos   = (uint8_t)((s_wave_pos + 1U) % WS2812B_NUM_LEDS);
 8004516:	7830      	ldrb	r0, [r6, #0]
            s_blink_tick = now;
 8004518:	600d      	str	r5, [r1, #0]
            s_wave_pos   = (uint8_t)((s_wave_pos + 1U) % WS2812B_NUM_LEDS);
 800451a:	3001      	adds	r0, #1
 800451c:	210a      	movs	r1, #10
 800451e:	f7fb fe95 	bl	800024c <__aeabi_uidivmod>
 8004522:	7031      	strb	r1, [r6, #0]
        if (lit > WS2812B_NUM_LEDS) lit = WS2812B_NUM_LEDS;
 8004524:	2400      	movs	r4, #0
            uint8_t dist = (uint8_t)((WS2812B_NUM_LEDS + i - s_wave_pos) % WS2812B_NUM_LEDS);
 8004526:	250a      	movs	r5, #10
 8004528:	7830      	ldrb	r0, [r6, #0]
 800452a:	210a      	movs	r1, #10
 800452c:	1a28      	subs	r0, r5, r0
 800452e:	1900      	adds	r0, r0, r4
 8004530:	f7fb fe8c 	bl	800024c <__aeabi_uidivmod>
            WS2812B_SetPixel(i, ScaleBright(s_lamp_color, wave_lut[dist]));
 8004534:	4a35      	ldr	r2, [pc, #212]	@ (800460c <WS2812B_Update+0x3fc>)
 8004536:	4f36      	ldr	r7, [pc, #216]	@ (8004610 <WS2812B_Update+0x400>)
 8004538:	7853      	ldrb	r3, [r2, #1]
 800453a:	7810      	ldrb	r0, [r2, #0]
 800453c:	021b      	lsls	r3, r3, #8
 800453e:	4303      	orrs	r3, r0
 8004540:	7890      	ldrb	r0, [r2, #2]
 8004542:	5c79      	ldrb	r1, [r7, r1]
 8004544:	0400      	lsls	r0, r0, #16
 8004546:	4318      	orrs	r0, r3
 8004548:	f7ff fcce 	bl	8003ee8 <ScaleBright>
 800454c:	ab09      	add	r3, sp, #36	@ 0x24
 800454e:	7018      	strb	r0, [r3, #0]
 8004550:	0402      	lsls	r2, r0, #16
 8004552:	0200      	lsls	r0, r0, #8
 8004554:	0e12      	lsrs	r2, r2, #24
 8004556:	0e00      	lsrs	r0, r0, #24
 8004558:	7098      	strb	r0, [r3, #2]
 800455a:	705a      	strb	r2, [r3, #1]
 800455c:	b2e0      	uxtb	r0, r4
 800455e:	9909      	ldr	r1, [sp, #36]	@ 0x24
        for (uint8_t i = 0; i < WS2812B_NUM_LEDS; i++) {
 8004560:	3401      	adds	r4, #1
            WS2812B_SetPixel(i, ScaleBright(s_lamp_color, wave_lut[dist]));
 8004562:	f7ff fdd5 	bl	8004110 <WS2812B_SetPixel>
        for (uint8_t i = 0; i < WS2812B_NUM_LEDS; i++) {
 8004566:	2c0a      	cmp	r4, #10
 8004568:	d1de      	bne.n	8004528 <WS2812B_Update+0x318>
 800456a:	e6ff      	b.n	800436c <WS2812B_Update+0x15c>
        WS2812B_SetAll(s_solid_color);
 800456c:	4a29      	ldr	r2, [pc, #164]	@ (8004614 <WS2812B_Update+0x404>)
 800456e:	7853      	ldrb	r3, [r2, #1]
 8004570:	7811      	ldrb	r1, [r2, #0]
 8004572:	7890      	ldrb	r0, [r2, #2]
 8004574:	021b      	lsls	r3, r3, #8
 8004576:	430b      	orrs	r3, r1
 8004578:	0400      	lsls	r0, r0, #16
 800457a:	4318      	orrs	r0, r3
 800457c:	e69a      	b.n	80042b4 <WS2812B_Update+0xa4>
        uint32_t cycle = (now - s_pattern_tick) % 2000U;
 800457e:	21fa      	movs	r1, #250	@ 0xfa
 8004580:	4b25      	ldr	r3, [pc, #148]	@ (8004618 <WS2812B_Update+0x408>)
 8004582:	00c9      	lsls	r1, r1, #3
 8004584:	6818      	ldr	r0, [r3, #0]
 8004586:	1a28      	subs	r0, r5, r0
 8004588:	f7fb fe60 	bl	800024c <__aeabi_uidivmod>
 800458c:	000b      	movs	r3, r1
        uint8_t  b     = (cycle < 1000U) ? (uint8_t)(cycle * 255U / 1000U)
 800458e:	21fa      	movs	r1, #250	@ 0xfa
 8004590:	0089      	lsls	r1, r1, #2
 8004592:	428b      	cmp	r3, r1
 8004594:	d216      	bcs.n	80045c4 <WS2812B_Update+0x3b4>
 8004596:	20ff      	movs	r0, #255	@ 0xff
 8004598:	4358      	muls	r0, r3
                                          : (uint8_t)((2000U - cycle) * 255U / 1000U);
 800459a:	f7fb fdd1 	bl	8000140 <__udivsi3>
        WS2812B_SetAll(ScaleBright(RGB_BLUE, b));
 800459e:	2200      	movs	r2, #0
 80045a0:	ab0b      	add	r3, sp, #44	@ 0x2c
 80045a2:	801a      	strh	r2, [r3, #0]
 80045a4:	32ff      	adds	r2, #255	@ 0xff
 80045a6:	709a      	strb	r2, [r3, #2]
        uint8_t  b     = (cycle < 1000U) ? (uint8_t)(cycle * 255U / 1000U)
 80045a8:	b2c1      	uxtb	r1, r0
        WS2812B_SetAll(ScaleBright(RGB_BLUE, b));
 80045aa:	980b      	ldr	r0, [sp, #44]	@ 0x2c
 80045ac:	f7ff fc9c 	bl	8003ee8 <ScaleBright>
 80045b0:	ab0a      	add	r3, sp, #40	@ 0x28
 80045b2:	7018      	strb	r0, [r3, #0]
 80045b4:	0402      	lsls	r2, r0, #16
 80045b6:	0200      	lsls	r0, r0, #8
 80045b8:	0e00      	lsrs	r0, r0, #24
 80045ba:	0e12      	lsrs	r2, r2, #24
 80045bc:	705a      	strb	r2, [r3, #1]
 80045be:	7098      	strb	r0, [r3, #2]
 80045c0:	980a      	ldr	r0, [sp, #40]	@ 0x28
 80045c2:	e677      	b.n	80042b4 <WS2812B_Update+0xa4>
                                          : (uint8_t)((2000U - cycle) * 255U / 1000U);
 80045c4:	0218      	lsls	r0, r3, #8
 80045c6:	1a18      	subs	r0, r3, r0
 80045c8:	4b14      	ldr	r3, [pc, #80]	@ (800461c <WS2812B_Update+0x40c>)
 80045ca:	18c0      	adds	r0, r0, r3
 80045cc:	e7e5      	b.n	800459a <WS2812B_Update+0x38a>
        uint32_t p   = now - s_pattern_tick;
 80045ce:	4a12      	ldr	r2, [pc, #72]	@ (8004618 <WS2812B_Update+0x408>)
 80045d0:	6810      	ldr	r0, [r2, #0]
        if (p > 2500U) {
 80045d2:	4a13      	ldr	r2, [pc, #76]	@ (8004620 <WS2812B_Update+0x410>)
        uint32_t p   = now - s_pattern_tick;
 80045d4:	1a28      	subs	r0, r5, r0
        if (p > 2500U) {
 80045d6:	ad0b      	add	r5, sp, #44	@ 0x2c
 80045d8:	4290      	cmp	r0, r2
 80045da:	d905      	bls.n	80045e8 <WS2812B_Update+0x3d8>
            s_pattern = LED_PATTERN_ALL_OFF;
 80045dc:	2210      	movs	r2, #16
 80045de:	701a      	strb	r2, [r3, #0]
            WS2812B_SetAll(RGB_OFF); SendIfDirty(); return;
 80045e0:	2300      	movs	r3, #0
 80045e2:	802b      	strh	r3, [r5, #0]
 80045e4:	70ab      	strb	r3, [r5, #2]
 80045e6:	e654      	b.n	8004292 <WS2812B_Update+0x82>
        uint8_t on  = (uint8_t)((p / 250U) % 2U == 0U);
 80045e8:	21fa      	movs	r1, #250	@ 0xfa
 80045ea:	f7fb fda9 	bl	8000140 <__udivsi3>
 80045ee:	2300      	movs	r3, #0
        WS2812B_SetAll(on ? col : RGB_OFF);
 80045f0:	07c0      	lsls	r0, r0, #31
 80045f2:	d405      	bmi.n	8004600 <WS2812B_Update+0x3f0>
        RGB_t   col = (s_pattern == LED_PATTERN_FACTORY_RESET_WARN) ? RGB_RED : RGB_WHITE;
 80045f4:	3e0e      	subs	r6, #14
 80045f6:	1e73      	subs	r3, r6, #1
 80045f8:	419e      	sbcs	r6, r3
 80045fa:	23ff      	movs	r3, #255	@ 0xff
 80045fc:	4276      	negs	r6, r6
 80045fe:	b2f4      	uxtb	r4, r6
        WS2812B_SetAll(on ? col : RGB_OFF);
 8004600:	702b      	strb	r3, [r5, #0]
 8004602:	706c      	strb	r4, [r5, #1]
 8004604:	70ac      	strb	r4, [r5, #2]
 8004606:	e644      	b.n	8004292 <WS2812B_Update+0x82>
 8004608:	2000054a 	.word	0x2000054a
 800460c:	20000008 	.word	0x20000008
 8004610:	08007b04 	.word	0x08007b04
 8004614:	20000547 	.word	0x20000547
 8004618:	20000550 	.word	0x20000550
 800461c:	0007c830 	.word	0x0007c830
 8004620:	000009c4 	.word	0x000009c4

08004624 <Reset_Handler>:

  .section .text.Reset_Handler
  .weak Reset_Handler
  .type Reset_Handler, %function
Reset_Handler:
  ldr   r0, =_estack
 8004624:	480d      	ldr	r0, [pc, #52]	@ (800465c <LoopForever+0x2>)
  mov   sp, r0          /* set stack pointer */
 8004626:	4685      	mov	sp, r0
  
/* Call the clock system initialization function.*/
  bl  SystemInit
 8004628:	f7ff fbb0 	bl	8003d8c <SystemInit>

/* Copy the data segment initializers from flash to SRAM */
  ldr r0, =_sdata
 800462c:	480c      	ldr	r0, [pc, #48]	@ (8004660 <LoopForever+0x6>)
  ldr r1, =_edata
 800462e:	490d      	ldr	r1, [pc, #52]	@ (8004664 <LoopForever+0xa>)
  ldr r2, =_sidata
 8004630:	4a0d      	ldr	r2, [pc, #52]	@ (8004668 <LoopForever+0xe>)
  movs r3, #0
 8004632:	2300      	movs	r3, #0
  b LoopCopyDataInit
 8004634:	e002      	b.n	800463c <LoopCopyDataInit>

08004636 <CopyDataInit>:

CopyDataInit:
  ldr r4, [r2, r3]
 8004636:	58d4      	ldr	r4, [r2, r3]
  str r4, [r0, r3]
 8004638:	50c4      	str	r4, [r0, r3]
  adds r3, r3, #4
 800463a:	3304      	adds	r3, #4

0800463c <LoopCopyDataInit>:

LoopCopyDataInit:
  adds r4, r0, r3
 800463c:	18c4      	adds	r4, r0, r3
  cmp r4, r1
 800463e:	428c      	cmp	r4, r1
  bcc CopyDataInit
 8004640:	d3f9      	bcc.n	8004636 <CopyDataInit>
  
/* Zero fill the bss segment. */
  ldr r2, =_sbss
 8004642:	4a0a      	ldr	r2, [pc, #40]	@ (800466c <LoopForever+0x12>)
  ldr r4, =_ebss
 8004644:	4c0a      	ldr	r4, [pc, #40]	@ (8004670 <LoopForever+0x16>)
  movs r3, #0
 8004646:	2300      	movs	r3, #0
  b LoopFillZerobss
 8004648:	e001      	b.n	800464e <LoopFillZerobss>

0800464a <FillZerobss>:

FillZerobss:
  str  r3, [r2]
 800464a:	6013      	str	r3, [r2, #0]
  adds r2, r2, #4
 800464c:	3204      	adds	r2, #4

0800464e <LoopFillZerobss>:

LoopFillZerobss:
  cmp r2, r4
 800464e:	42a2      	cmp	r2, r4
  bcc FillZerobss
 8004650:	d3fb      	bcc.n	800464a <FillZerobss>

/* Call static constructors */
  bl __libc_init_array
 8004652:	f003 f899 	bl	8007788 <__libc_init_array>
/* Call the application's entry point.*/
  bl main
 8004656:	f7fe fd6b 	bl	8003130 <main>

0800465a <LoopForever>:

LoopForever:
    b LoopForever
 800465a:	e7fe      	b.n	800465a <LoopForever>
  ldr   r0, =_estack
 800465c:	20001000 	.word	0x20001000
  ldr r0, =_sdata
 8004660:	20000000 	.word	0x20000000
  ldr r1, =_edata
 8004664:	20000010 	.word	0x20000010
  ldr r2, =_sidata
 8004668:	08007b3c 	.word	0x08007b3c
  ldr r2, =_sbss
 800466c:	20000010 	.word	0x20000010
  ldr r4, =_ebss
 8004670:	20000820 	.word	0x20000820

08004674 <DMA1_Channel1_IRQHandler>:
 * @retval : None
*/
    .section .text.Default_Handler,"ax",%progbits
Default_Handler:
Infinite_Loop:
  b Infinite_Loop
 8004674:	e7fe      	b.n	8004674 <DMA1_Channel1_IRQHandler>
	...

08004678 <HAL_InitTick>:
  *       implementation  in user file.
  * @param TickPriority Tick interrupt priority.
  * @retval HAL status
  */
__weak HAL_StatusTypeDef HAL_InitTick(uint32_t TickPriority)
{
 8004678:	b570      	push	{r4, r5, r6, lr}
 800467a:	0005      	movs	r5, r0
  /*Configure the SysTick to have interrupt in 1ms time basis*/
  if (HAL_SYSTICK_Config(SystemCoreClock / (1000U / uwTickFreq)) > 0U)
 800467c:	20fa      	movs	r0, #250	@ 0xfa
 800467e:	4b0d      	ldr	r3, [pc, #52]	@ (80046b4 <HAL_InitTick+0x3c>)
 8004680:	0080      	lsls	r0, r0, #2
 8004682:	7819      	ldrb	r1, [r3, #0]
 8004684:	f7fb fd5c 	bl	8000140 <__udivsi3>
 8004688:	4c0b      	ldr	r4, [pc, #44]	@ (80046b8 <HAL_InitTick+0x40>)
 800468a:	0001      	movs	r1, r0
 800468c:	6820      	ldr	r0, [r4, #0]
 800468e:	f7fb fd57 	bl	8000140 <__udivsi3>
 8004692:	f000 fbd3 	bl	8004e3c <HAL_SYSTICK_Config>
 8004696:	0004      	movs	r4, r0
  {
    return HAL_ERROR;
 8004698:	2001      	movs	r0, #1
  if (HAL_SYSTICK_Config(SystemCoreClock / (1000U / uwTickFreq)) > 0U)
 800469a:	2c00      	cmp	r4, #0
 800469c:	d109      	bne.n	80046b2 <HAL_InitTick+0x3a>
  }

  /* Configure the SysTick IRQ priority */
  if (TickPriority < (1UL << __NVIC_PRIO_BITS))
 800469e:	2d03      	cmp	r5, #3
 80046a0:	d807      	bhi.n	80046b2 <HAL_InitTick+0x3a>
  {
    HAL_NVIC_SetPriority(SysTick_IRQn, TickPriority, 0U);
 80046a2:	3802      	subs	r0, #2
 80046a4:	0022      	movs	r2, r4
 80046a6:	0029      	movs	r1, r5
 80046a8:	f000 fb84 	bl	8004db4 <HAL_NVIC_SetPriority>
    uwTickPrio = TickPriority;
 80046ac:	0020      	movs	r0, r4
 80046ae:	4b03      	ldr	r3, [pc, #12]	@ (80046bc <HAL_InitTick+0x44>)
 80046b0:	601d      	str	r5, [r3, #0]
    return HAL_ERROR;
  }

   /* Return function status */
  return HAL_OK;
}
 80046b2:	bd70      	pop	{r4, r5, r6, pc}
 80046b4:	2000000b 	.word	0x2000000b
 80046b8:	20000000 	.word	0x20000000
 80046bc:	2000000c 	.word	0x2000000c

080046c0 <HAL_Init>:
  __HAL_FLASH_PREFETCH_BUFFER_ENABLE();
 80046c0:	2310      	movs	r3, #16
 80046c2:	4a06      	ldr	r2, [pc, #24]	@ (80046dc <HAL_Init+0x1c>)
{
 80046c4:	b510      	push	{r4, lr}
  __HAL_FLASH_PREFETCH_BUFFER_ENABLE();
 80046c6:	6811      	ldr	r1, [r2, #0]
  HAL_InitTick(TICK_INT_PRIORITY);
 80046c8:	2003      	movs	r0, #3
  __HAL_FLASH_PREFETCH_BUFFER_ENABLE();
 80046ca:	430b      	orrs	r3, r1
 80046cc:	6013      	str	r3, [r2, #0]
  HAL_InitTick(TICK_INT_PRIORITY);
 80046ce:	f7ff ffd3 	bl	8004678 <HAL_InitTick>
  HAL_MspInit();
 80046d2:	f7ff f9ef 	bl	8003ab4 <HAL_MspInit>
}
 80046d6:	2000      	movs	r0, #0
 80046d8:	bd10      	pop	{r4, pc}
 80046da:	46c0      	nop			@ (mov r8, r8)
 80046dc:	40022000 	.word	0x40022000

080046e0 <HAL_IncTick>:
  *       implementations in user file.
  * @retval None
  */
__weak void HAL_IncTick(void)
{
  uwTick += uwTickFreq;
 80046e0:	4a03      	ldr	r2, [pc, #12]	@ (80046f0 <HAL_IncTick+0x10>)
 80046e2:	4b04      	ldr	r3, [pc, #16]	@ (80046f4 <HAL_IncTick+0x14>)
 80046e4:	6811      	ldr	r1, [r2, #0]
 80046e6:	781b      	ldrb	r3, [r3, #0]
 80046e8:	185b      	adds	r3, r3, r1
 80046ea:	6013      	str	r3, [r2, #0]
}
 80046ec:	4770      	bx	lr
 80046ee:	46c0      	nop			@ (mov r8, r8)
 80046f0:	200007f8 	.word	0x200007f8
 80046f4:	2000000b 	.word	0x2000000b

080046f8 <HAL_GetTick>:
  *       implementations in user file.
  * @retval tick value
  */
__weak uint32_t HAL_GetTick(void)
{
  return uwTick;
 80046f8:	4b01      	ldr	r3, [pc, #4]	@ (8004700 <HAL_GetTick+0x8>)
 80046fa:	6818      	ldr	r0, [r3, #0]
}
 80046fc:	4770      	bx	lr
 80046fe:	46c0      	nop			@ (mov r8, r8)
 8004700:	200007f8 	.word	0x200007f8

08004704 <HAL_Delay>:
  *       implementations in user file.
  * @param Delay specifies the delay time length, in milliseconds.
  * @retval None
  */
__weak void HAL_Delay(uint32_t Delay)
{
 8004704:	b570      	push	{r4, r5, r6, lr}
 8004706:	0004      	movs	r4, r0
  uint32_t tickstart = HAL_GetTick();
 8004708:	f7ff fff6 	bl	80046f8 <HAL_GetTick>
 800470c:	0005      	movs	r5, r0
  uint32_t wait = Delay;
  
  /* Add a freq to guarantee minimum wait */
  if (wait < HAL_MAX_DELAY)
 800470e:	1c63      	adds	r3, r4, #1
 8004710:	d002      	beq.n	8004718 <HAL_Delay+0x14>
  {
    wait += (uint32_t)(uwTickFreq);
 8004712:	4b04      	ldr	r3, [pc, #16]	@ (8004724 <HAL_Delay+0x20>)
 8004714:	781b      	ldrb	r3, [r3, #0]
 8004716:	18e4      	adds	r4, r4, r3
  }
  
  while((HAL_GetTick() - tickstart) < wait)
 8004718:	f7ff ffee 	bl	80046f8 <HAL_GetTick>
 800471c:	1b40      	subs	r0, r0, r5
 800471e:	42a0      	cmp	r0, r4
 8004720:	d3fa      	bcc.n	8004718 <HAL_Delay+0x14>
  {
  }
}
 8004722:	bd70      	pop	{r4, r5, r6, pc}
 8004724:	2000000b 	.word	0x2000000b

08004728 <ADC_ConversionStop>:
  /* Check the parameters */
  assert_param(IS_ADC_ALL_INSTANCE(hadc->Instance));
    
  /* Verification if ADC is not already stopped on regular group to bypass    */
  /* this function if not needed.                                             */
  if (ADC_IS_CONVERSION_ONGOING_REGULAR(hadc))
 8004728:	2204      	movs	r2, #4
 800472a:	6803      	ldr	r3, [r0, #0]
{
 800472c:	b570      	push	{r4, r5, r6, lr}
  if (ADC_IS_CONVERSION_ONGOING_REGULAR(hadc))
 800472e:	6899      	ldr	r1, [r3, #8]
{
 8004730:	0004      	movs	r4, r0
  if (ADC_IS_CONVERSION_ONGOING_REGULAR(hadc))
 8004732:	4211      	tst	r1, r2
 8004734:	d101      	bne.n	800473a <ADC_ConversionStop+0x12>
      }
    }
  }
   
  /* Return HAL status */
  return HAL_OK;
 8004736:	2000      	movs	r0, #0
}
 8004738:	bd70      	pop	{r4, r5, r6, pc}
    if (HAL_IS_BIT_SET(hadc->Instance->CR, ADC_CR_ADSTART) && 
 800473a:	6899      	ldr	r1, [r3, #8]
 800473c:	4211      	tst	r1, r2
 800473e:	d006      	beq.n	800474e <ADC_ConversionStop+0x26>
        HAL_IS_BIT_CLR(hadc->Instance->CR, ADC_CR_ADDIS)                  )
 8004740:	689a      	ldr	r2, [r3, #8]
    if (HAL_IS_BIT_SET(hadc->Instance->CR, ADC_CR_ADSTART) && 
 8004742:	0792      	lsls	r2, r2, #30
 8004744:	d403      	bmi.n	800474e <ADC_ConversionStop+0x26>
      hadc->Instance->CR |= ADC_CR_ADSTP;
 8004746:	2210      	movs	r2, #16
 8004748:	6899      	ldr	r1, [r3, #8]
 800474a:	430a      	orrs	r2, r1
 800474c:	609a      	str	r2, [r3, #8]
    tickstart = HAL_GetTick();
 800474e:	f7ff ffd3 	bl	80046f8 <HAL_GetTick>
    while((hadc->Instance->CR & ADC_CR_ADSTART) != RESET)
 8004752:	2604      	movs	r6, #4
    tickstart = HAL_GetTick();
 8004754:	0005      	movs	r5, r0
    while((hadc->Instance->CR & ADC_CR_ADSTART) != RESET)
 8004756:	6823      	ldr	r3, [r4, #0]
 8004758:	689b      	ldr	r3, [r3, #8]
 800475a:	4233      	tst	r3, r6
 800475c:	d0eb      	beq.n	8004736 <ADC_ConversionStop+0xe>
      if((HAL_GetTick() - tickstart) > ADC_STOP_CONVERSION_TIMEOUT)
 800475e:	f7ff ffcb 	bl	80046f8 <HAL_GetTick>
 8004762:	1b40      	subs	r0, r0, r5
 8004764:	2802      	cmp	r0, #2
 8004766:	d9f6      	bls.n	8004756 <ADC_ConversionStop+0x2e>
        if((hadc->Instance->CR & ADC_CR_ADSTART) != RESET)
 8004768:	6823      	ldr	r3, [r4, #0]
 800476a:	689b      	ldr	r3, [r3, #8]
 800476c:	4233      	tst	r3, r6
 800476e:	d0f2      	beq.n	8004756 <ADC_ConversionStop+0x2e>
          SET_BIT(hadc->State, HAL_ADC_STATE_ERROR_INTERNAL);
 8004770:	2310      	movs	r3, #16
          SET_BIT(hadc->ErrorCode, HAL_ADC_ERROR_INTERNAL);
 8004772:	2001      	movs	r0, #1
          SET_BIT(hadc->State, HAL_ADC_STATE_ERROR_INTERNAL);
 8004774:	6ba2      	ldr	r2, [r4, #56]	@ 0x38
 8004776:	4313      	orrs	r3, r2
 8004778:	63a3      	str	r3, [r4, #56]	@ 0x38
          SET_BIT(hadc->ErrorCode, HAL_ADC_ERROR_INTERNAL);
 800477a:	6be3      	ldr	r3, [r4, #60]	@ 0x3c
 800477c:	4303      	orrs	r3, r0
 800477e:	63e3      	str	r3, [r4, #60]	@ 0x3c
          return HAL_ERROR;
 8004780:	e7da      	b.n	8004738 <ADC_ConversionStop+0x10>

08004782 <ADC_Disable>:
  if (ADC_IS_ENABLE(hadc) != RESET)
 8004782:	2103      	movs	r1, #3
 8004784:	6803      	ldr	r3, [r0, #0]
{
 8004786:	b570      	push	{r4, r5, r6, lr}
  if (ADC_IS_ENABLE(hadc) != RESET)
 8004788:	689a      	ldr	r2, [r3, #8]
{
 800478a:	0004      	movs	r4, r0
  if (ADC_IS_ENABLE(hadc) != RESET)
 800478c:	400a      	ands	r2, r1
 800478e:	2a01      	cmp	r2, #1
 8004790:	d001      	beq.n	8004796 <ADC_Disable+0x14>
  return HAL_OK;
 8004792:	2000      	movs	r0, #0
}
 8004794:	bd70      	pop	{r4, r5, r6, pc}
  if (ADC_IS_ENABLE(hadc) != RESET)
 8004796:	6819      	ldr	r1, [r3, #0]
 8004798:	4211      	tst	r1, r2
 800479a:	d102      	bne.n	80047a2 <ADC_Disable+0x20>
 800479c:	68da      	ldr	r2, [r3, #12]
 800479e:	0412      	lsls	r2, r2, #16
 80047a0:	d5f7      	bpl.n	8004792 <ADC_Disable+0x10>
    if (ADC_DISABLING_CONDITIONS(hadc) != RESET)
 80047a2:	2205      	movs	r2, #5
 80047a4:	689d      	ldr	r5, [r3, #8]
 80047a6:	4015      	ands	r5, r2
 80047a8:	2d01      	cmp	r5, #1
 80047aa:	d11c      	bne.n	80047e6 <ADC_Disable+0x64>
      __HAL_ADC_DISABLE(hadc);
 80047ac:	6899      	ldr	r1, [r3, #8]
 80047ae:	3a03      	subs	r2, #3
 80047b0:	430a      	orrs	r2, r1
 80047b2:	609a      	str	r2, [r3, #8]
 80047b4:	2203      	movs	r2, #3
 80047b6:	601a      	str	r2, [r3, #0]
    tickstart = HAL_GetTick();
 80047b8:	f7ff ff9e 	bl	80046f8 <HAL_GetTick>
 80047bc:	0006      	movs	r6, r0
    while(HAL_IS_BIT_SET(hadc->Instance->CR, ADC_CR_ADEN))
 80047be:	6823      	ldr	r3, [r4, #0]
 80047c0:	689b      	ldr	r3, [r3, #8]
 80047c2:	422b      	tst	r3, r5
 80047c4:	d0e5      	beq.n	8004792 <ADC_Disable+0x10>
      if((HAL_GetTick() - tickstart) > ADC_DISABLE_TIMEOUT)
 80047c6:	f7ff ff97 	bl	80046f8 <HAL_GetTick>
 80047ca:	1b80      	subs	r0, r0, r6
 80047cc:	2802      	cmp	r0, #2
 80047ce:	d9f6      	bls.n	80047be <ADC_Disable+0x3c>
        if(HAL_IS_BIT_SET(hadc->Instance->CR, ADC_CR_ADEN))
 80047d0:	6823      	ldr	r3, [r4, #0]
 80047d2:	689b      	ldr	r3, [r3, #8]
 80047d4:	422b      	tst	r3, r5
 80047d6:	d0f2      	beq.n	80047be <ADC_Disable+0x3c>
          SET_BIT(hadc->State, HAL_ADC_STATE_ERROR_INTERNAL);
 80047d8:	2310      	movs	r3, #16
 80047da:	6ba2      	ldr	r2, [r4, #56]	@ 0x38
 80047dc:	4313      	orrs	r3, r2
 80047de:	63a3      	str	r3, [r4, #56]	@ 0x38
          SET_BIT(hadc->ErrorCode, HAL_ADC_ERROR_INTERNAL);
 80047e0:	6be3      	ldr	r3, [r4, #60]	@ 0x3c
 80047e2:	432b      	orrs	r3, r5
 80047e4:	e006      	b.n	80047f4 <ADC_Disable+0x72>
      SET_BIT(hadc->State, HAL_ADC_STATE_ERROR_INTERNAL);
 80047e6:	2310      	movs	r3, #16
 80047e8:	6ba2      	ldr	r2, [r4, #56]	@ 0x38
 80047ea:	4313      	orrs	r3, r2
 80047ec:	63a3      	str	r3, [r4, #56]	@ 0x38
      SET_BIT(hadc->ErrorCode, HAL_ADC_ERROR_INTERNAL);
 80047ee:	2301      	movs	r3, #1
 80047f0:	6be2      	ldr	r2, [r4, #60]	@ 0x3c
 80047f2:	4313      	orrs	r3, r2
      return HAL_ERROR;
 80047f4:	2001      	movs	r0, #1
          SET_BIT(hadc->ErrorCode, HAL_ADC_ERROR_INTERNAL);
 80047f6:	63e3      	str	r3, [r4, #60]	@ 0x3c
          return HAL_ERROR;
 80047f8:	e7cc      	b.n	8004794 <ADC_Disable+0x12>
	...

080047fc <ADC_Enable.constprop.0>:
  __IO uint32_t wait_loop_index = 0U;
 80047fc:	2300      	movs	r3, #0
static HAL_StatusTypeDef ADC_Enable(ADC_HandleTypeDef* hadc)
 80047fe:	b573      	push	{r0, r1, r4, r5, r6, lr}
  if (ADC_IS_ENABLE(hadc) == RESET)
 8004800:	2103      	movs	r1, #3
  __IO uint32_t wait_loop_index = 0U;
 8004802:	9301      	str	r3, [sp, #4]
  if (ADC_IS_ENABLE(hadc) == RESET)
 8004804:	6803      	ldr	r3, [r0, #0]
static HAL_StatusTypeDef ADC_Enable(ADC_HandleTypeDef* hadc)
 8004806:	0004      	movs	r4, r0
  if (ADC_IS_ENABLE(hadc) == RESET)
 8004808:	689a      	ldr	r2, [r3, #8]
 800480a:	400a      	ands	r2, r1
 800480c:	2a01      	cmp	r2, #1
 800480e:	d107      	bne.n	8004820 <ADC_Enable.constprop.0+0x24>
 8004810:	6819      	ldr	r1, [r3, #0]
 8004812:	4211      	tst	r1, r2
 8004814:	d001      	beq.n	800481a <ADC_Enable.constprop.0+0x1e>
  return HAL_OK;
 8004816:	2000      	movs	r0, #0
}
 8004818:	bd76      	pop	{r1, r2, r4, r5, r6, pc}
  if (ADC_IS_ENABLE(hadc) == RESET)
 800481a:	68da      	ldr	r2, [r3, #12]
 800481c:	0412      	lsls	r2, r2, #16
 800481e:	d4fa      	bmi.n	8004816 <ADC_Enable.constprop.0+0x1a>
    if (ADC_ENABLING_CONDITIONS(hadc) == RESET)
 8004820:	6899      	ldr	r1, [r3, #8]
 8004822:	4a1b      	ldr	r2, [pc, #108]	@ (8004890 <ADC_Enable.constprop.0+0x94>)
 8004824:	4211      	tst	r1, r2
 8004826:	d009      	beq.n	800483c <ADC_Enable.constprop.0+0x40>
      SET_BIT(hadc->State, HAL_ADC_STATE_ERROR_INTERNAL);
 8004828:	2310      	movs	r3, #16
 800482a:	6ba2      	ldr	r2, [r4, #56]	@ 0x38
 800482c:	4313      	orrs	r3, r2
 800482e:	63a3      	str	r3, [r4, #56]	@ 0x38
      SET_BIT(hadc->ErrorCode, HAL_ADC_ERROR_INTERNAL);
 8004830:	2301      	movs	r3, #1
 8004832:	6be2      	ldr	r2, [r4, #60]	@ 0x3c
 8004834:	4313      	orrs	r3, r2
      return HAL_ERROR;
 8004836:	2001      	movs	r0, #1
          SET_BIT(hadc->ErrorCode, HAL_ADC_ERROR_INTERNAL);
 8004838:	63e3      	str	r3, [r4, #60]	@ 0x3c
          return HAL_ERROR;
 800483a:	e7ed      	b.n	8004818 <ADC_Enable.constprop.0+0x1c>
    __HAL_ADC_ENABLE(hadc);
 800483c:	2201      	movs	r2, #1
 800483e:	6899      	ldr	r1, [r3, #8]
 8004840:	430a      	orrs	r2, r1
 8004842:	609a      	str	r2, [r3, #8]
    wait_loop_index = (ADC_STAB_DELAY_US * (SystemCoreClock / 1000000U));
 8004844:	4b13      	ldr	r3, [pc, #76]	@ (8004894 <ADC_Enable.constprop.0+0x98>)
 8004846:	4914      	ldr	r1, [pc, #80]	@ (8004898 <ADC_Enable.constprop.0+0x9c>)
 8004848:	6818      	ldr	r0, [r3, #0]
 800484a:	f7fb fc79 	bl	8000140 <__udivsi3>
 800484e:	9001      	str	r0, [sp, #4]
    while(wait_loop_index != 0U)
 8004850:	9b01      	ldr	r3, [sp, #4]
 8004852:	2b00      	cmp	r3, #0
 8004854:	d117      	bne.n	8004886 <ADC_Enable.constprop.0+0x8a>
    tickstart = HAL_GetTick();
 8004856:	f7ff ff4f 	bl	80046f8 <HAL_GetTick>
    while(__HAL_ADC_GET_FLAG(hadc, ADC_FLAG_RDY) == RESET)
 800485a:	2501      	movs	r5, #1
    tickstart = HAL_GetTick();
 800485c:	0006      	movs	r6, r0
    while(__HAL_ADC_GET_FLAG(hadc, ADC_FLAG_RDY) == RESET)
 800485e:	6823      	ldr	r3, [r4, #0]
 8004860:	681b      	ldr	r3, [r3, #0]
 8004862:	422b      	tst	r3, r5
 8004864:	d1d7      	bne.n	8004816 <ADC_Enable.constprop.0+0x1a>
      if((HAL_GetTick() - tickstart) > ADC_ENABLE_TIMEOUT)
 8004866:	f7ff ff47 	bl	80046f8 <HAL_GetTick>
 800486a:	1b80      	subs	r0, r0, r6
 800486c:	2802      	cmp	r0, #2
 800486e:	d9f6      	bls.n	800485e <ADC_Enable.constprop.0+0x62>
        if(__HAL_ADC_GET_FLAG(hadc, ADC_FLAG_RDY) == RESET)
 8004870:	6823      	ldr	r3, [r4, #0]
 8004872:	681b      	ldr	r3, [r3, #0]
 8004874:	422b      	tst	r3, r5
 8004876:	d1f2      	bne.n	800485e <ADC_Enable.constprop.0+0x62>
          SET_BIT(hadc->State, HAL_ADC_STATE_ERROR_INTERNAL);
 8004878:	2310      	movs	r3, #16
 800487a:	6ba2      	ldr	r2, [r4, #56]	@ 0x38
 800487c:	4313      	orrs	r3, r2
 800487e:	63a3      	str	r3, [r4, #56]	@ 0x38
          SET_BIT(hadc->ErrorCode, HAL_ADC_ERROR_INTERNAL);
 8004880:	6be3      	ldr	r3, [r4, #60]	@ 0x3c
 8004882:	432b      	orrs	r3, r5
 8004884:	e7d7      	b.n	8004836 <ADC_Enable.constprop.0+0x3a>
      wait_loop_index--;
 8004886:	9b01      	ldr	r3, [sp, #4]
 8004888:	3b01      	subs	r3, #1
 800488a:	9301      	str	r3, [sp, #4]
 800488c:	e7e0      	b.n	8004850 <ADC_Enable.constprop.0+0x54>
 800488e:	46c0      	nop			@ (mov r8, r8)
 8004890:	80000017 	.word	0x80000017
 8004894:	20000000 	.word	0x20000000
 8004898:	000f4240 	.word	0x000f4240

0800489c <HAL_ADC_Init>:
{
 800489c:	b570      	push	{r4, r5, r6, lr}
 800489e:	1e04      	subs	r4, r0, #0
  if(hadc == NULL)
 80048a0:	d100      	bne.n	80048a4 <HAL_ADC_Init+0x8>
 80048a2:	e090      	b.n	80049c6 <HAL_ADC_Init+0x12a>
  if (hadc->State == HAL_ADC_STATE_RESET)
 80048a4:	6b83      	ldr	r3, [r0, #56]	@ 0x38
 80048a6:	2b00      	cmp	r3, #0
 80048a8:	d105      	bne.n	80048b6 <HAL_ADC_Init+0x1a>
    hadc->Lock = HAL_UNLOCKED;
 80048aa:	0002      	movs	r2, r0
 80048ac:	3234      	adds	r2, #52	@ 0x34
    ADC_CLEAR_ERRORCODE(hadc);
 80048ae:	63c3      	str	r3, [r0, #60]	@ 0x3c
    hadc->Lock = HAL_UNLOCKED;
 80048b0:	7013      	strb	r3, [r2, #0]
    HAL_ADC_MspInit(hadc);
 80048b2:	f7ff f917 	bl	8003ae4 <HAL_ADC_MspInit>
  if (HAL_IS_BIT_CLR(hadc->State, HAL_ADC_STATE_ERROR_INTERNAL) &&
 80048b6:	6ba3      	ldr	r3, [r4, #56]	@ 0x38
 80048b8:	06db      	lsls	r3, r3, #27
 80048ba:	d500      	bpl.n	80048be <HAL_ADC_Init+0x22>
 80048bc:	e085      	b.n	80049ca <HAL_ADC_Init+0x12e>
      (ADC_IS_CONVERSION_ONGOING_REGULAR(hadc) == RESET)          )
 80048be:	6822      	ldr	r2, [r4, #0]
 80048c0:	6893      	ldr	r3, [r2, #8]
      (tmp_hal_status == HAL_OK)                                &&
 80048c2:	075b      	lsls	r3, r3, #29
 80048c4:	d500      	bpl.n	80048c8 <HAL_ADC_Init+0x2c>
 80048c6:	e080      	b.n	80049ca <HAL_ADC_Init+0x12e>
    ADC_STATE_CLR_SET(hadc->State,
 80048c8:	6ba1      	ldr	r1, [r4, #56]	@ 0x38
 80048ca:	4b42      	ldr	r3, [pc, #264]	@ (80049d4 <HAL_ADC_Init+0x138>)
 80048cc:	4019      	ands	r1, r3
 80048ce:	3306      	adds	r3, #6
 80048d0:	33ff      	adds	r3, #255	@ 0xff
 80048d2:	430b      	orrs	r3, r1
    if (ADC_IS_ENABLE(hadc) == RESET)
 80048d4:	2103      	movs	r1, #3
    ADC_STATE_CLR_SET(hadc->State,
 80048d6:	63a3      	str	r3, [r4, #56]	@ 0x38
    if (ADC_IS_ENABLE(hadc) == RESET)
 80048d8:	6893      	ldr	r3, [r2, #8]
 80048da:	400b      	ands	r3, r1
 80048dc:	2b01      	cmp	r3, #1
 80048de:	d105      	bne.n	80048ec <HAL_ADC_Init+0x50>
 80048e0:	6811      	ldr	r1, [r2, #0]
 80048e2:	4219      	tst	r1, r3
 80048e4:	d10e      	bne.n	8004904 <HAL_ADC_Init+0x68>
 80048e6:	68d3      	ldr	r3, [r2, #12]
 80048e8:	041b      	lsls	r3, r3, #16
 80048ea:	d40b      	bmi.n	8004904 <HAL_ADC_Init+0x68>
      MODIFY_REG(hadc->Instance->CFGR1,
 80048ec:	2118      	movs	r1, #24
 80048ee:	68d3      	ldr	r3, [r2, #12]
 80048f0:	438b      	bics	r3, r1
 80048f2:	68a1      	ldr	r1, [r4, #8]
 80048f4:	430b      	orrs	r3, r1
 80048f6:	60d3      	str	r3, [r2, #12]
      MODIFY_REG(hadc->Instance->CFGR2    ,
 80048f8:	6913      	ldr	r3, [r2, #16]
 80048fa:	6861      	ldr	r1, [r4, #4]
 80048fc:	009b      	lsls	r3, r3, #2
 80048fe:	089b      	lsrs	r3, r3, #2
 8004900:	430b      	orrs	r3, r1
 8004902:	6113      	str	r3, [r2, #16]
    hadc->Instance->CFGR1 &= ~( ADC_CFGR1_DISCEN  |
 8004904:	68d3      	ldr	r3, [r2, #12]
 8004906:	4934      	ldr	r1, [pc, #208]	@ (80049d8 <HAL_ADC_Init+0x13c>)
 8004908:	400b      	ands	r3, r1
 800490a:	60d3      	str	r3, [r2, #12]
    tmpCFGR1 |= (ADC_CFGR1_AUTOWAIT((uint32_t)hadc->Init.LowPowerAutoWait)        |
 800490c:	7e23      	ldrb	r3, [r4, #24]
                 ADC_CFGR1_AUTOOFF((uint32_t)hadc->Init.LowPowerAutoPowerOff)     |
 800490e:	7e60      	ldrb	r0, [r4, #25]
    tmpCFGR1 |= (ADC_CFGR1_AUTOWAIT((uint32_t)hadc->Init.LowPowerAutoWait)        |
 8004910:	039b      	lsls	r3, r3, #14
                 ADC_CFGR1_AUTOOFF((uint32_t)hadc->Init.LowPowerAutoPowerOff)     |
 8004912:	03c0      	lsls	r0, r0, #15
    tmpCFGR1 |= (ADC_CFGR1_AUTOWAIT((uint32_t)hadc->Init.LowPowerAutoWait)        |
 8004914:	4303      	orrs	r3, r0
                 ADC_CFGR1_CONTINUOUS((uint32_t)hadc->Init.ContinuousConvMode)    |
 8004916:	7ea1      	ldrb	r1, [r4, #26]
                 ADC_SCANDIR(hadc->Init.ScanConvMode)                             |
 8004918:	68e0      	ldr	r0, [r4, #12]
 800491a:	4303      	orrs	r3, r0
                 ADC_CFGR1_CONTINUOUS((uint32_t)hadc->Init.ContinuousConvMode)    |
 800491c:	0348      	lsls	r0, r1, #13
                 ADC_SCANDIR(hadc->Init.ScanConvMode)                             |
 800491e:	4303      	orrs	r3, r0
                 ADC_CFGR1_DMACONTREQ((uint32_t)hadc->Init.DMAContinuousRequests)  );
 8004920:	1d60      	adds	r0, r4, #5
 8004922:	7fc0      	ldrb	r0, [r0, #31]
 8004924:	0040      	lsls	r0, r0, #1
                 ADC_SCANDIR(hadc->Init.ScanConvMode)                             |
 8004926:	4303      	orrs	r3, r0
                 ADC_CFGR1_OVERRUN(hadc->Init.Overrun)                            |
 8004928:	6aa0      	ldr	r0, [r4, #40]	@ 0x28
 800492a:	3801      	subs	r0, #1
 800492c:	1e45      	subs	r5, r0, #1
 800492e:	41a8      	sbcs	r0, r5
 8004930:	0300      	lsls	r0, r0, #12
                 ADC_SCANDIR(hadc->Init.ScanConvMode)                             |
 8004932:	4303      	orrs	r3, r0
 8004934:	6920      	ldr	r0, [r4, #16]
 8004936:	3802      	subs	r0, #2
 8004938:	4245      	negs	r5, r0
 800493a:	4168      	adcs	r0, r5
 800493c:	0080      	lsls	r0, r0, #2
 800493e:	4303      	orrs	r3, r0
    if (hadc->Init.DiscontinuousConvMode == ENABLE)
 8004940:	7ee0      	ldrb	r0, [r4, #27]
 8004942:	2801      	cmp	r0, #1
 8004944:	d104      	bne.n	8004950 <HAL_ADC_Init+0xb4>
      if (hadc->Init.ContinuousConvMode == DISABLE)
 8004946:	2900      	cmp	r1, #0
 8004948:	d12b      	bne.n	80049a2 <HAL_ADC_Init+0x106>
        tmpCFGR1 |= ADC_CFGR1_DISCEN;
 800494a:	2180      	movs	r1, #128	@ 0x80
 800494c:	0249      	lsls	r1, r1, #9
 800494e:	430b      	orrs	r3, r1
    if (hadc->Init.ExternalTrigConv != ADC_SOFTWARE_START)
 8004950:	20c2      	movs	r0, #194	@ 0xc2
 8004952:	69e1      	ldr	r1, [r4, #28]
 8004954:	30ff      	adds	r0, #255	@ 0xff
 8004956:	4281      	cmp	r1, r0
 8004958:	d002      	beq.n	8004960 <HAL_ADC_Init+0xc4>
      tmpCFGR1 |= ( hadc->Init.ExternalTrigConv    |
 800495a:	6a20      	ldr	r0, [r4, #32]
 800495c:	4301      	orrs	r1, r0
 800495e:	430b      	orrs	r3, r1
    if (IS_ADC_SAMPLE_TIME(hadc->Init.SamplingTimeCommon))
 8004960:	2080      	movs	r0, #128	@ 0x80
    hadc->Instance->CFGR1 |= tmpCFGR1;
 8004962:	68d1      	ldr	r1, [r2, #12]
    if (IS_ADC_SAMPLE_TIME(hadc->Init.SamplingTimeCommon))
 8004964:	0540      	lsls	r0, r0, #21
    hadc->Instance->CFGR1 |= tmpCFGR1;
 8004966:	4319      	orrs	r1, r3
 8004968:	60d1      	str	r1, [r2, #12]
    if (IS_ADC_SAMPLE_TIME(hadc->Init.SamplingTimeCommon))
 800496a:	6ae1      	ldr	r1, [r4, #44]	@ 0x2c
 800496c:	4281      	cmp	r1, r0
 800496e:	d002      	beq.n	8004976 <HAL_ADC_Init+0xda>
 8004970:	1e48      	subs	r0, r1, #1
 8004972:	2806      	cmp	r0, #6
 8004974:	d807      	bhi.n	8004986 <HAL_ADC_Init+0xea>
      hadc->Instance->SMPR &= ~(ADC_SMPR_SMP);
 8004976:	2507      	movs	r5, #7
 8004978:	6950      	ldr	r0, [r2, #20]
      hadc->Instance->SMPR |= ADC_SMPR_SET(hadc->Init.SamplingTimeCommon);
 800497a:	4029      	ands	r1, r5
      hadc->Instance->SMPR &= ~(ADC_SMPR_SMP);
 800497c:	43a8      	bics	r0, r5
 800497e:	6150      	str	r0, [r2, #20]
      hadc->Instance->SMPR |= ADC_SMPR_SET(hadc->Init.SamplingTimeCommon);
 8004980:	6950      	ldr	r0, [r2, #20]
 8004982:	4301      	orrs	r1, r0
 8004984:	6151      	str	r1, [r2, #20]
    if ((hadc->Instance->CFGR1 & ~(ADC_CFGR1_AWDCH | ADC_CFGR1_AWDEN | ADC_CFGR1_AWDSGL | ADC_CFGR1_RES))
 8004986:	68d2      	ldr	r2, [r2, #12]
 8004988:	4914      	ldr	r1, [pc, #80]	@ (80049dc <HAL_ADC_Init+0x140>)
 800498a:	400a      	ands	r2, r1
 800498c:	429a      	cmp	r2, r3
 800498e:	d110      	bne.n	80049b2 <HAL_ADC_Init+0x116>
      ADC_CLEAR_ERRORCODE(hadc);
 8004990:	2000      	movs	r0, #0
      ADC_STATE_CLR_SET(hadc->State,
 8004992:	2303      	movs	r3, #3
      ADC_CLEAR_ERRORCODE(hadc);
 8004994:	63e0      	str	r0, [r4, #60]	@ 0x3c
      ADC_STATE_CLR_SET(hadc->State,
 8004996:	6ba2      	ldr	r2, [r4, #56]	@ 0x38
 8004998:	439a      	bics	r2, r3
 800499a:	3b02      	subs	r3, #2
 800499c:	4313      	orrs	r3, r2
 800499e:	63a3      	str	r3, [r4, #56]	@ 0x38
}
 80049a0:	bd70      	pop	{r4, r5, r6, pc}
        SET_BIT(hadc->State, HAL_ADC_STATE_ERROR_CONFIG);
 80049a2:	2120      	movs	r1, #32
 80049a4:	6ba5      	ldr	r5, [r4, #56]	@ 0x38
 80049a6:	4329      	orrs	r1, r5
 80049a8:	63a1      	str	r1, [r4, #56]	@ 0x38
        SET_BIT(hadc->ErrorCode, HAL_ADC_ERROR_INTERNAL);
 80049aa:	6be1      	ldr	r1, [r4, #60]	@ 0x3c
 80049ac:	4308      	orrs	r0, r1
 80049ae:	63e0      	str	r0, [r4, #60]	@ 0x3c
 80049b0:	e7ce      	b.n	8004950 <HAL_ADC_Init+0xb4>
      ADC_STATE_CLR_SET(hadc->State,
 80049b2:	2312      	movs	r3, #18
 80049b4:	6ba2      	ldr	r2, [r4, #56]	@ 0x38
 80049b6:	439a      	bics	r2, r3
 80049b8:	3b02      	subs	r3, #2
 80049ba:	4313      	orrs	r3, r2
 80049bc:	63a3      	str	r3, [r4, #56]	@ 0x38
      SET_BIT(hadc->ErrorCode, HAL_ADC_ERROR_INTERNAL);
 80049be:	2301      	movs	r3, #1
 80049c0:	6be2      	ldr	r2, [r4, #60]	@ 0x3c
 80049c2:	4313      	orrs	r3, r2
 80049c4:	63e3      	str	r3, [r4, #60]	@ 0x3c
    return HAL_ERROR;
 80049c6:	2001      	movs	r0, #1
 80049c8:	e7ea      	b.n	80049a0 <HAL_ADC_Init+0x104>
    SET_BIT(hadc->State, HAL_ADC_STATE_ERROR_INTERNAL);
 80049ca:	2310      	movs	r3, #16
 80049cc:	6ba2      	ldr	r2, [r4, #56]	@ 0x38
 80049ce:	4313      	orrs	r3, r2
 80049d0:	63a3      	str	r3, [r4, #56]	@ 0x38
    tmp_hal_status = HAL_ERROR;
 80049d2:	e7f8      	b.n	80049c6 <HAL_ADC_Init+0x12a>
 80049d4:	fffffefd 	.word	0xfffffefd
 80049d8:	fffe0219 	.word	0xfffe0219
 80049dc:	833fffe7 	.word	0x833fffe7

080049e0 <HAL_ADC_Start>:
  if (ADC_IS_CONVERSION_ONGOING_REGULAR(hadc) == RESET)
 80049e0:	6803      	ldr	r3, [r0, #0]
{
 80049e2:	b570      	push	{r4, r5, r6, lr}
  if (ADC_IS_CONVERSION_ONGOING_REGULAR(hadc) == RESET)
 80049e4:	689b      	ldr	r3, [r3, #8]
{
 80049e6:	0004      	movs	r4, r0
    __HAL_LOCK(hadc);
 80049e8:	2002      	movs	r0, #2
  if (ADC_IS_CONVERSION_ONGOING_REGULAR(hadc) == RESET)
 80049ea:	075b      	lsls	r3, r3, #29
 80049ec:	d41a      	bmi.n	8004a24 <HAL_ADC_Start+0x44>
    __HAL_LOCK(hadc);
 80049ee:	0025      	movs	r5, r4
 80049f0:	3534      	adds	r5, #52	@ 0x34
 80049f2:	782b      	ldrb	r3, [r5, #0]
 80049f4:	2b01      	cmp	r3, #1
 80049f6:	d015      	beq.n	8004a24 <HAL_ADC_Start+0x44>
 80049f8:	2301      	movs	r3, #1
 80049fa:	702b      	strb	r3, [r5, #0]
    if (hadc->Init.LowPowerAutoPowerOff != ENABLE)
 80049fc:	7e63      	ldrb	r3, [r4, #25]
 80049fe:	2b01      	cmp	r3, #1
 8004a00:	d111      	bne.n	8004a26 <HAL_ADC_Start+0x46>
      ADC_STATE_CLR_SET(hadc->State,
 8004a02:	6ba2      	ldr	r2, [r4, #56]	@ 0x38
 8004a04:	4b0b      	ldr	r3, [pc, #44]	@ (8004a34 <HAL_ADC_Start+0x54>)
      ADC_CLEAR_ERRORCODE(hadc);
 8004a06:	2000      	movs	r0, #0
      ADC_STATE_CLR_SET(hadc->State,
 8004a08:	401a      	ands	r2, r3
 8004a0a:	2380      	movs	r3, #128	@ 0x80
 8004a0c:	005b      	lsls	r3, r3, #1
 8004a0e:	4313      	orrs	r3, r2
      __HAL_ADC_CLEAR_FLAG(hadc, (ADC_FLAG_EOC | ADC_FLAG_EOS | ADC_FLAG_OVR));
 8004a10:	221c      	movs	r2, #28
      ADC_STATE_CLR_SET(hadc->State,
 8004a12:	63a3      	str	r3, [r4, #56]	@ 0x38
      ADC_CLEAR_ERRORCODE(hadc);
 8004a14:	63e0      	str	r0, [r4, #60]	@ 0x3c
      __HAL_UNLOCK(hadc);
 8004a16:	7028      	strb	r0, [r5, #0]
      __HAL_ADC_CLEAR_FLAG(hadc, (ADC_FLAG_EOC | ADC_FLAG_EOS | ADC_FLAG_OVR));
 8004a18:	6823      	ldr	r3, [r4, #0]
 8004a1a:	601a      	str	r2, [r3, #0]
      hadc->Instance->CR |= ADC_CR_ADSTART;
 8004a1c:	6899      	ldr	r1, [r3, #8]
 8004a1e:	3a18      	subs	r2, #24
 8004a20:	430a      	orrs	r2, r1
 8004a22:	609a      	str	r2, [r3, #8]
}
 8004a24:	bd70      	pop	{r4, r5, r6, pc}
      tmp_hal_status = ADC_Enable(hadc);
 8004a26:	0020      	movs	r0, r4
 8004a28:	f7ff fee8 	bl	80047fc <ADC_Enable.constprop.0>
    if (tmp_hal_status == HAL_OK)
 8004a2c:	2800      	cmp	r0, #0
 8004a2e:	d0e8      	beq.n	8004a02 <HAL_ADC_Start+0x22>
 8004a30:	e7f8      	b.n	8004a24 <HAL_ADC_Start+0x44>
 8004a32:	46c0      	nop			@ (mov r8, r8)
 8004a34:	fffff0fe 	.word	0xfffff0fe

08004a38 <HAL_ADC_Stop>:
{ 
 8004a38:	b570      	push	{r4, r5, r6, lr}
  __HAL_LOCK(hadc);
 8004a3a:	0006      	movs	r6, r0
 8004a3c:	3634      	adds	r6, #52	@ 0x34
 8004a3e:	7833      	ldrb	r3, [r6, #0]
{ 
 8004a40:	0004      	movs	r4, r0
  __HAL_LOCK(hadc);
 8004a42:	2002      	movs	r0, #2
 8004a44:	2b01      	cmp	r3, #1
 8004a46:	d012      	beq.n	8004a6e <HAL_ADC_Stop+0x36>
 8004a48:	2501      	movs	r5, #1
  tmp_hal_status = ADC_ConversionStop(hadc);
 8004a4a:	0020      	movs	r0, r4
  __HAL_LOCK(hadc);
 8004a4c:	7035      	strb	r5, [r6, #0]
  tmp_hal_status = ADC_ConversionStop(hadc);
 8004a4e:	f7ff fe6b 	bl	8004728 <ADC_ConversionStop>
  if (tmp_hal_status == HAL_OK)
 8004a52:	2800      	cmp	r0, #0
 8004a54:	d109      	bne.n	8004a6a <HAL_ADC_Stop+0x32>
    tmp_hal_status = ADC_Disable(hadc);
 8004a56:	0020      	movs	r0, r4
 8004a58:	f7ff fe93 	bl	8004782 <ADC_Disable>
    if (tmp_hal_status == HAL_OK)
 8004a5c:	2800      	cmp	r0, #0
 8004a5e:	d104      	bne.n	8004a6a <HAL_ADC_Stop+0x32>
      ADC_STATE_CLR_SET(hadc->State,
 8004a60:	6ba3      	ldr	r3, [r4, #56]	@ 0x38
 8004a62:	4a03      	ldr	r2, [pc, #12]	@ (8004a70 <HAL_ADC_Stop+0x38>)
 8004a64:	4013      	ands	r3, r2
 8004a66:	431d      	orrs	r5, r3
 8004a68:	63a5      	str	r5, [r4, #56]	@ 0x38
  __HAL_UNLOCK(hadc);
 8004a6a:	2300      	movs	r3, #0
 8004a6c:	7033      	strb	r3, [r6, #0]
}
 8004a6e:	bd70      	pop	{r4, r5, r6, pc}
 8004a70:	fffffefe 	.word	0xfffffefe

08004a74 <HAL_ADC_PollForConversion>:
{
 8004a74:	b5f8      	push	{r3, r4, r5, r6, r7, lr}
  if (hadc->Init.EOCSelection == ADC_EOC_SEQ_CONV)
 8004a76:	6945      	ldr	r5, [r0, #20]
{
 8004a78:	0004      	movs	r4, r0
 8004a7a:	000e      	movs	r6, r1
  if (hadc->Init.EOCSelection == ADC_EOC_SEQ_CONV)
 8004a7c:	2d08      	cmp	r5, #8
 8004a7e:	d00d      	beq.n	8004a9c <HAL_ADC_PollForConversion+0x28>
    if (HAL_IS_BIT_SET(hadc->Instance->CFGR1, ADC_CFGR1_DMAEN))
 8004a80:	6803      	ldr	r3, [r0, #0]
 8004a82:	2001      	movs	r0, #1
 8004a84:	68db      	ldr	r3, [r3, #12]
      tmp_Flag_EOC = (ADC_FLAG_EOC | ADC_FLAG_EOS);
 8004a86:	250c      	movs	r5, #12
    if (HAL_IS_BIT_SET(hadc->Instance->CFGR1, ADC_CFGR1_DMAEN))
 8004a88:	4203      	tst	r3, r0
 8004a8a:	d007      	beq.n	8004a9c <HAL_ADC_PollForConversion+0x28>
      SET_BIT(hadc->State, HAL_ADC_STATE_ERROR_CONFIG);
 8004a8c:	2320      	movs	r3, #32
 8004a8e:	6ba2      	ldr	r2, [r4, #56]	@ 0x38
      __HAL_UNLOCK(hadc);
 8004a90:	3434      	adds	r4, #52	@ 0x34
      SET_BIT(hadc->State, HAL_ADC_STATE_ERROR_CONFIG);
 8004a92:	4313      	orrs	r3, r2
 8004a94:	6063      	str	r3, [r4, #4]
      __HAL_UNLOCK(hadc);
 8004a96:	2300      	movs	r3, #0
 8004a98:	7023      	strb	r3, [r4, #0]
}
 8004a9a:	bdf8      	pop	{r3, r4, r5, r6, r7, pc}
  tickstart = HAL_GetTick();
 8004a9c:	f7ff fe2c 	bl	80046f8 <HAL_GetTick>
 8004aa0:	0007      	movs	r7, r0
  while(HAL_IS_BIT_CLR(hadc->Instance->ISR, tmp_Flag_EOC))
 8004aa2:	6823      	ldr	r3, [r4, #0]
 8004aa4:	681a      	ldr	r2, [r3, #0]
 8004aa6:	4215      	tst	r5, r2
 8004aa8:	d022      	beq.n	8004af0 <HAL_ADC_PollForConversion+0x7c>
  SET_BIT(hadc->State, HAL_ADC_STATE_REG_EOC);
 8004aaa:	2280      	movs	r2, #128	@ 0x80
 8004aac:	6ba1      	ldr	r1, [r4, #56]	@ 0x38
 8004aae:	0092      	lsls	r2, r2, #2
 8004ab0:	430a      	orrs	r2, r1
 8004ab2:	63a2      	str	r2, [r4, #56]	@ 0x38
  if(ADC_IS_SOFTWARE_START_REGULAR(hadc)        && 
 8004ab4:	22c0      	movs	r2, #192	@ 0xc0
 8004ab6:	68d9      	ldr	r1, [r3, #12]
 8004ab8:	0112      	lsls	r2, r2, #4
 8004aba:	4211      	tst	r1, r2
 8004abc:	d113      	bne.n	8004ae6 <HAL_ADC_PollForConversion+0x72>
 8004abe:	7ea2      	ldrb	r2, [r4, #26]
 8004ac0:	2a00      	cmp	r2, #0
 8004ac2:	d110      	bne.n	8004ae6 <HAL_ADC_PollForConversion+0x72>
    if( __HAL_ADC_GET_FLAG(hadc, ADC_FLAG_EOS) )
 8004ac4:	681a      	ldr	r2, [r3, #0]
 8004ac6:	0712      	lsls	r2, r2, #28
 8004ac8:	d50d      	bpl.n	8004ae6 <HAL_ADC_PollForConversion+0x72>
      if (ADC_IS_CONVERSION_ONGOING_REGULAR(hadc) == RESET)
 8004aca:	689a      	ldr	r2, [r3, #8]
 8004acc:	0752      	lsls	r2, r2, #29
 8004ace:	d427      	bmi.n	8004b20 <HAL_ADC_PollForConversion+0xac>
        __HAL_ADC_DISABLE_IT(hadc, ADC_IT_EOC | ADC_IT_EOS);
 8004ad0:	210c      	movs	r1, #12
 8004ad2:	685a      	ldr	r2, [r3, #4]
 8004ad4:	438a      	bics	r2, r1
 8004ad6:	605a      	str	r2, [r3, #4]
        ADC_STATE_CLR_SET(hadc->State,
 8004ad8:	6ba1      	ldr	r1, [r4, #56]	@ 0x38
 8004ada:	4a17      	ldr	r2, [pc, #92]	@ (8004b38 <HAL_ADC_PollForConversion+0xc4>)
 8004adc:	4011      	ands	r1, r2
 8004ade:	3204      	adds	r2, #4
 8004ae0:	32ff      	adds	r2, #255	@ 0xff
 8004ae2:	430a      	orrs	r2, r1
 8004ae4:	63a2      	str	r2, [r4, #56]	@ 0x38
  if (hadc->Init.LowPowerAutoWait == DISABLE)
 8004ae6:	7e22      	ldrb	r2, [r4, #24]
 8004ae8:	2a00      	cmp	r2, #0
 8004aea:	d022      	beq.n	8004b32 <HAL_ADC_PollForConversion+0xbe>
  return HAL_OK;
 8004aec:	2000      	movs	r0, #0
 8004aee:	e7d4      	b.n	8004a9a <HAL_ADC_PollForConversion+0x26>
    if(Timeout != HAL_MAX_DELAY)
 8004af0:	1c72      	adds	r2, r6, #1
 8004af2:	d0d7      	beq.n	8004aa4 <HAL_ADC_PollForConversion+0x30>
      if((Timeout == 0) || ((HAL_GetTick()-tickstart) > Timeout))
 8004af4:	2e00      	cmp	r6, #0
 8004af6:	d10d      	bne.n	8004b14 <HAL_ADC_PollForConversion+0xa0>
        if(HAL_IS_BIT_CLR(hadc->Instance->ISR, tmp_Flag_EOC))
 8004af8:	002a      	movs	r2, r5
 8004afa:	6823      	ldr	r3, [r4, #0]
 8004afc:	681b      	ldr	r3, [r3, #0]
 8004afe:	401a      	ands	r2, r3
 8004b00:	421d      	tst	r5, r3
 8004b02:	d1ce      	bne.n	8004aa2 <HAL_ADC_PollForConversion+0x2e>
          SET_BIT(hadc->State, HAL_ADC_STATE_TIMEOUT);
 8004b04:	2304      	movs	r3, #4
 8004b06:	6ba1      	ldr	r1, [r4, #56]	@ 0x38
          __HAL_UNLOCK(hadc);
 8004b08:	3434      	adds	r4, #52	@ 0x34
          SET_BIT(hadc->State, HAL_ADC_STATE_TIMEOUT);
 8004b0a:	430b      	orrs	r3, r1
 8004b0c:	6063      	str	r3, [r4, #4]
          return HAL_TIMEOUT;
 8004b0e:	2003      	movs	r0, #3
          __HAL_UNLOCK(hadc);
 8004b10:	7022      	strb	r2, [r4, #0]
          return HAL_TIMEOUT;
 8004b12:	e7c2      	b.n	8004a9a <HAL_ADC_PollForConversion+0x26>
      if((Timeout == 0) || ((HAL_GetTick()-tickstart) > Timeout))
 8004b14:	f7ff fdf0 	bl	80046f8 <HAL_GetTick>
 8004b18:	1bc0      	subs	r0, r0, r7
 8004b1a:	42b0      	cmp	r0, r6
 8004b1c:	d8ec      	bhi.n	8004af8 <HAL_ADC_PollForConversion+0x84>
 8004b1e:	e7c0      	b.n	8004aa2 <HAL_ADC_PollForConversion+0x2e>
        SET_BIT(hadc->State, HAL_ADC_STATE_ERROR_CONFIG);
 8004b20:	2220      	movs	r2, #32
 8004b22:	6ba1      	ldr	r1, [r4, #56]	@ 0x38
 8004b24:	430a      	orrs	r2, r1
 8004b26:	63a2      	str	r2, [r4, #56]	@ 0x38
        SET_BIT(hadc->ErrorCode, HAL_ADC_ERROR_INTERNAL);
 8004b28:	2201      	movs	r2, #1
 8004b2a:	6be1      	ldr	r1, [r4, #60]	@ 0x3c
 8004b2c:	430a      	orrs	r2, r1
 8004b2e:	63e2      	str	r2, [r4, #60]	@ 0x3c
 8004b30:	e7d9      	b.n	8004ae6 <HAL_ADC_PollForConversion+0x72>
    __HAL_ADC_CLEAR_FLAG(hadc, (ADC_FLAG_EOC | ADC_FLAG_EOS));
 8004b32:	220c      	movs	r2, #12
 8004b34:	601a      	str	r2, [r3, #0]
 8004b36:	e7d9      	b.n	8004aec <HAL_ADC_PollForConversion+0x78>
 8004b38:	fffffefe 	.word	0xfffffefe

08004b3c <HAL_ADC_GetValue>:
  return hadc->Instance->DR;
 8004b3c:	6803      	ldr	r3, [r0, #0]
 8004b3e:	6c18      	ldr	r0, [r3, #64]	@ 0x40
}
 8004b40:	4770      	bx	lr

08004b42 <HAL_ADC_ConvCpltCallback>:
__weak void HAL_ADC_ConvCpltCallback(ADC_HandleTypeDef* hadc)
 8004b42:	4770      	bx	lr

08004b44 <HAL_ADC_LevelOutOfWindowCallback>:
__weak void HAL_ADC_LevelOutOfWindowCallback(ADC_HandleTypeDef* hadc)
 8004b44:	4770      	bx	lr

08004b46 <HAL_ADC_ErrorCallback>:
__weak void HAL_ADC_ErrorCallback(ADC_HandleTypeDef *hadc)
 8004b46:	4770      	bx	lr

08004b48 <HAL_ADC_IRQHandler>:
  if( (((tmp_isr & ADC_FLAG_EOC) == ADC_FLAG_EOC) && ((tmp_ier & ADC_IT_EOC) == ADC_IT_EOC)) ||
 8004b48:	2204      	movs	r2, #4
{
 8004b4a:	b5f8      	push	{r3, r4, r5, r6, r7, lr}
  uint32_t tmp_isr = hadc->Instance->ISR;
 8004b4c:	6803      	ldr	r3, [r0, #0]
{
 8004b4e:	0004      	movs	r4, r0
  uint32_t tmp_isr = hadc->Instance->ISR;
 8004b50:	681d      	ldr	r5, [r3, #0]
  uint32_t tmp_ier = hadc->Instance->IER;
 8004b52:	685e      	ldr	r6, [r3, #4]
  if( (((tmp_isr & ADC_FLAG_EOC) == ADC_FLAG_EOC) && ((tmp_ier & ADC_IT_EOC) == ADC_IT_EOC)) ||
 8004b54:	4215      	tst	r5, r2
 8004b56:	d001      	beq.n	8004b5c <HAL_ADC_IRQHandler+0x14>
 8004b58:	4216      	tst	r6, r2
 8004b5a:	d104      	bne.n	8004b66 <HAL_ADC_IRQHandler+0x1e>
      (((tmp_isr & ADC_FLAG_EOS) == ADC_FLAG_EOS) && ((tmp_ier & ADC_IT_EOS) == ADC_IT_EOS))   )
 8004b5c:	2208      	movs	r2, #8
  if( (((tmp_isr & ADC_FLAG_EOC) == ADC_FLAG_EOC) && ((tmp_ier & ADC_IT_EOC) == ADC_IT_EOC)) ||
 8004b5e:	4215      	tst	r5, r2
 8004b60:	d027      	beq.n	8004bb2 <HAL_ADC_IRQHandler+0x6a>
      (((tmp_isr & ADC_FLAG_EOS) == ADC_FLAG_EOS) && ((tmp_ier & ADC_IT_EOS) == ADC_IT_EOS))   )
 8004b62:	4216      	tst	r6, r2
 8004b64:	d025      	beq.n	8004bb2 <HAL_ADC_IRQHandler+0x6a>
    if (HAL_IS_BIT_CLR(hadc->State, HAL_ADC_STATE_ERROR_INTERNAL))
 8004b66:	6ba2      	ldr	r2, [r4, #56]	@ 0x38
 8004b68:	06d2      	lsls	r2, r2, #27
 8004b6a:	d404      	bmi.n	8004b76 <HAL_ADC_IRQHandler+0x2e>
      SET_BIT(hadc->State, HAL_ADC_STATE_REG_EOC); 
 8004b6c:	2280      	movs	r2, #128	@ 0x80
 8004b6e:	6ba1      	ldr	r1, [r4, #56]	@ 0x38
 8004b70:	0092      	lsls	r2, r2, #2
 8004b72:	430a      	orrs	r2, r1
 8004b74:	63a2      	str	r2, [r4, #56]	@ 0x38
    if(ADC_IS_SOFTWARE_START_REGULAR(hadc)        && 
 8004b76:	22c0      	movs	r2, #192	@ 0xc0
 8004b78:	68d9      	ldr	r1, [r3, #12]
 8004b7a:	0112      	lsls	r2, r2, #4
 8004b7c:	4211      	tst	r1, r2
 8004b7e:	d112      	bne.n	8004ba6 <HAL_ADC_IRQHandler+0x5e>
 8004b80:	7ea2      	ldrb	r2, [r4, #26]
 8004b82:	2a00      	cmp	r2, #0
 8004b84:	d10f      	bne.n	8004ba6 <HAL_ADC_IRQHandler+0x5e>
      if((tmp_isr & ADC_FLAG_EOS) == ADC_FLAG_EOS)
 8004b86:	072a      	lsls	r2, r5, #28
 8004b88:	d50d      	bpl.n	8004ba6 <HAL_ADC_IRQHandler+0x5e>
        if (ADC_IS_CONVERSION_ONGOING_REGULAR(hadc) == RESET)
 8004b8a:	689a      	ldr	r2, [r3, #8]
 8004b8c:	0752      	lsls	r2, r2, #29
 8004b8e:	d438      	bmi.n	8004c02 <HAL_ADC_IRQHandler+0xba>
          __HAL_ADC_DISABLE_IT(hadc, ADC_IT_EOC | ADC_IT_EOS);
 8004b90:	210c      	movs	r1, #12
 8004b92:	685a      	ldr	r2, [r3, #4]
 8004b94:	438a      	bics	r2, r1
 8004b96:	605a      	str	r2, [r3, #4]
          ADC_STATE_CLR_SET(hadc->State,
 8004b98:	6ba2      	ldr	r2, [r4, #56]	@ 0x38
 8004b9a:	4b1e      	ldr	r3, [pc, #120]	@ (8004c14 <HAL_ADC_IRQHandler+0xcc>)
 8004b9c:	401a      	ands	r2, r3
 8004b9e:	3304      	adds	r3, #4
 8004ba0:	33ff      	adds	r3, #255	@ 0xff
 8004ba2:	4313      	orrs	r3, r2
 8004ba4:	63a3      	str	r3, [r4, #56]	@ 0x38
    HAL_ADC_ConvCpltCallback(hadc);
 8004ba6:	0020      	movs	r0, r4
 8004ba8:	f7ff ffcb 	bl	8004b42 <HAL_ADC_ConvCpltCallback>
    __HAL_ADC_CLEAR_FLAG(hadc, (ADC_FLAG_EOC | ADC_FLAG_EOS) );
 8004bac:	220c      	movs	r2, #12
 8004bae:	6823      	ldr	r3, [r4, #0]
 8004bb0:	601a      	str	r2, [r3, #0]
  if(((tmp_isr & ADC_FLAG_AWD) == ADC_FLAG_AWD) && ((tmp_ier & ADC_IT_AWD) == ADC_IT_AWD))
 8004bb2:	2780      	movs	r7, #128	@ 0x80
 8004bb4:	423d      	tst	r5, r7
 8004bb6:	d00b      	beq.n	8004bd0 <HAL_ADC_IRQHandler+0x88>
 8004bb8:	423e      	tst	r6, r7
 8004bba:	d009      	beq.n	8004bd0 <HAL_ADC_IRQHandler+0x88>
      SET_BIT(hadc->State, HAL_ADC_STATE_AWD1);
 8004bbc:	2380      	movs	r3, #128	@ 0x80
 8004bbe:	6ba2      	ldr	r2, [r4, #56]	@ 0x38
 8004bc0:	025b      	lsls	r3, r3, #9
 8004bc2:	4313      	orrs	r3, r2
 8004bc4:	63a3      	str	r3, [r4, #56]	@ 0x38
    HAL_ADC_LevelOutOfWindowCallback(hadc);
 8004bc6:	0020      	movs	r0, r4
 8004bc8:	f7ff ffbc 	bl	8004b44 <HAL_ADC_LevelOutOfWindowCallback>
    __HAL_ADC_CLEAR_FLAG(hadc, ADC_FLAG_AWD);
 8004bcc:	6823      	ldr	r3, [r4, #0]
 8004bce:	601f      	str	r7, [r3, #0]
  if(((tmp_isr & ADC_FLAG_OVR) == ADC_FLAG_OVR) && ((tmp_ier & ADC_IT_OVR) == ADC_IT_OVR))
 8004bd0:	2310      	movs	r3, #16
 8004bd2:	421d      	tst	r5, r3
 8004bd4:	d014      	beq.n	8004c00 <HAL_ADC_IRQHandler+0xb8>
 8004bd6:	421e      	tst	r6, r3
 8004bd8:	d012      	beq.n	8004c00 <HAL_ADC_IRQHandler+0xb8>
    if ((hadc->Init.Overrun == ADC_OVR_DATA_PRESERVED)            ||
 8004bda:	6aa3      	ldr	r3, [r4, #40]	@ 0x28
        HAL_IS_BIT_SET(hadc->Instance->CFGR1, ADC_CFGR1_DMAEN)  )
 8004bdc:	6822      	ldr	r2, [r4, #0]
    if ((hadc->Init.Overrun == ADC_OVR_DATA_PRESERVED)            ||
 8004bde:	2b01      	cmp	r3, #1
 8004be0:	d002      	beq.n	8004be8 <HAL_ADC_IRQHandler+0xa0>
        HAL_IS_BIT_SET(hadc->Instance->CFGR1, ADC_CFGR1_DMAEN)  )
 8004be2:	68d3      	ldr	r3, [r2, #12]
    if ((hadc->Init.Overrun == ADC_OVR_DATA_PRESERVED)            ||
 8004be4:	07db      	lsls	r3, r3, #31
 8004be6:	d508      	bpl.n	8004bfa <HAL_ADC_IRQHandler+0xb2>
      SET_BIT(hadc->ErrorCode, HAL_ADC_ERROR_OVR);
 8004be8:	2302      	movs	r3, #2
 8004bea:	6be1      	ldr	r1, [r4, #60]	@ 0x3c
      HAL_ADC_ErrorCallback(hadc);
 8004bec:	0020      	movs	r0, r4
      SET_BIT(hadc->ErrorCode, HAL_ADC_ERROR_OVR);
 8004bee:	430b      	orrs	r3, r1
 8004bf0:	63e3      	str	r3, [r4, #60]	@ 0x3c
      __HAL_ADC_CLEAR_FLAG(hadc, ADC_FLAG_OVR);
 8004bf2:	2310      	movs	r3, #16
 8004bf4:	6013      	str	r3, [r2, #0]
      HAL_ADC_ErrorCallback(hadc);
 8004bf6:	f7ff ffa6 	bl	8004b46 <HAL_ADC_ErrorCallback>
    __HAL_ADC_CLEAR_FLAG(hadc, ADC_FLAG_OVR);
 8004bfa:	2210      	movs	r2, #16
 8004bfc:	6823      	ldr	r3, [r4, #0]
 8004bfe:	601a      	str	r2, [r3, #0]
}
 8004c00:	bdf8      	pop	{r3, r4, r5, r6, r7, pc}
          SET_BIT(hadc->State, HAL_ADC_STATE_ERROR_CONFIG);
 8004c02:	2320      	movs	r3, #32
 8004c04:	6ba2      	ldr	r2, [r4, #56]	@ 0x38
 8004c06:	4313      	orrs	r3, r2
 8004c08:	63a3      	str	r3, [r4, #56]	@ 0x38
          SET_BIT(hadc->ErrorCode, HAL_ADC_ERROR_INTERNAL);
 8004c0a:	2301      	movs	r3, #1
 8004c0c:	6be2      	ldr	r2, [r4, #60]	@ 0x3c
 8004c0e:	4313      	orrs	r3, r2
 8004c10:	63e3      	str	r3, [r4, #60]	@ 0x3c
 8004c12:	e7c8      	b.n	8004ba6 <HAL_ADC_IRQHandler+0x5e>
 8004c14:	fffffefe 	.word	0xfffffefe

08004c18 <HAL_ADC_ConfigChannel>:
{
 8004c18:	b5f7      	push	{r0, r1, r2, r4, r5, r6, r7, lr}
  __IO uint32_t wait_loop_index = 0U;
 8004c1a:	2200      	movs	r2, #0
  __HAL_LOCK(hadc);
 8004c1c:	0004      	movs	r4, r0
  __IO uint32_t wait_loop_index = 0U;
 8004c1e:	9201      	str	r2, [sp, #4]
  __HAL_LOCK(hadc);
 8004c20:	3434      	adds	r4, #52	@ 0x34
 8004c22:	7822      	ldrb	r2, [r4, #0]
{
 8004c24:	0003      	movs	r3, r0
  if (! IS_ADC_SAMPLE_TIME(hadc->Init.SamplingTimeCommon))
 8004c26:	6ac6      	ldr	r6, [r0, #44]	@ 0x2c
  __HAL_LOCK(hadc);
 8004c28:	2002      	movs	r0, #2
 8004c2a:	2a01      	cmp	r2, #1
 8004c2c:	d02c      	beq.n	8004c88 <HAL_ADC_ConfigChannel+0x70>
 8004c2e:	3801      	subs	r0, #1
 8004c30:	7020      	strb	r0, [r4, #0]
  if (ADC_IS_CONVERSION_ONGOING_REGULAR(hadc) == RESET)
 8004c32:	681d      	ldr	r5, [r3, #0]
 8004c34:	68aa      	ldr	r2, [r5, #8]
 8004c36:	0752      	lsls	r2, r2, #29
 8004c38:	d454      	bmi.n	8004ce4 <HAL_ADC_ConfigChannel+0xcc>
      hadc->Instance->CHSELR |= ADC_CHSELR_CHANNEL(sConfig->Channel);
 8004c3a:	680a      	ldr	r2, [r1, #0]
    if (sConfig->Rank != ADC_RANK_NONE)
 8004c3c:	684f      	ldr	r7, [r1, #4]
      if(ADC_IS_CHANNEL_INTERNAL(sConfig->Channel))
 8004c3e:	0013      	movs	r3, r2
    if (sConfig->Rank != ADC_RANK_NONE)
 8004c40:	46bc      	mov	ip, r7
 8004c42:	4f2b      	ldr	r7, [pc, #172]	@ (8004cf0 <HAL_ADC_ConfigChannel+0xd8>)
      hadc->Instance->CHSELR |= ADC_CHSELR_CHANNEL(sConfig->Channel);
 8004c44:	4090      	lsls	r0, r2
      if(ADC_IS_CHANNEL_INTERNAL(sConfig->Channel))
 8004c46:	3b10      	subs	r3, #16
    if (sConfig->Rank != ADC_RANK_NONE)
 8004c48:	45bc      	cmp	ip, r7
 8004c4a:	d03c      	beq.n	8004cc6 <HAL_ADC_ConfigChannel+0xae>
      hadc->Instance->CHSELR |= ADC_CHSELR_CHANNEL(sConfig->Channel);
 8004c4c:	6aaf      	ldr	r7, [r5, #40]	@ 0x28
 8004c4e:	4338      	orrs	r0, r7
 8004c50:	62a8      	str	r0, [r5, #40]	@ 0x28
      if (! IS_ADC_SAMPLE_TIME(hadc->Init.SamplingTimeCommon))
 8004c52:	2e07      	cmp	r6, #7
 8004c54:	d80f      	bhi.n	8004c76 <HAL_ADC_ConfigChannel+0x5e>
 8004c56:	2e00      	cmp	r6, #0
 8004c58:	d111      	bne.n	8004c7e <HAL_ADC_ConfigChannel+0x66>
        if (sConfig->SamplingTime != ADC_GET_SAMPLINGTIME(hadc))
 8004c5a:	2007      	movs	r0, #7
 8004c5c:	696e      	ldr	r6, [r5, #20]
 8004c5e:	6889      	ldr	r1, [r1, #8]
 8004c60:	4006      	ands	r6, r0
 8004c62:	42b1      	cmp	r1, r6
 8004c64:	d00b      	beq.n	8004c7e <HAL_ADC_ConfigChannel+0x66>
          hadc->Instance->SMPR &= ~(ADC_SMPR_SMP);
 8004c66:	696e      	ldr	r6, [r5, #20]
          hadc->Instance->SMPR |= ADC_SMPR_SET(sConfig->SamplingTime);
 8004c68:	4001      	ands	r1, r0
          hadc->Instance->SMPR &= ~(ADC_SMPR_SMP);
 8004c6a:	4386      	bics	r6, r0
 8004c6c:	616e      	str	r6, [r5, #20]
          hadc->Instance->SMPR |= ADC_SMPR_SET(sConfig->SamplingTime);
 8004c6e:	696e      	ldr	r6, [r5, #20]
 8004c70:	4331      	orrs	r1, r6
 8004c72:	6169      	str	r1, [r5, #20]
 8004c74:	e003      	b.n	8004c7e <HAL_ADC_ConfigChannel+0x66>
 8004c76:	2080      	movs	r0, #128	@ 0x80
 8004c78:	0540      	lsls	r0, r0, #21
 8004c7a:	4286      	cmp	r6, r0
 8004c7c:	d1ed      	bne.n	8004c5a <HAL_ADC_ConfigChannel+0x42>
      if(ADC_IS_CHANNEL_INTERNAL(sConfig->Channel))
 8004c7e:	2b01      	cmp	r3, #1
 8004c80:	d903      	bls.n	8004c8a <HAL_ADC_ConfigChannel+0x72>
  HAL_StatusTypeDef tmp_hal_status = HAL_OK;
 8004c82:	2000      	movs	r0, #0
  __HAL_UNLOCK(hadc);
 8004c84:	2300      	movs	r3, #0
 8004c86:	7023      	strb	r3, [r4, #0]
}
 8004c88:	bdfe      	pop	{r1, r2, r3, r4, r5, r6, r7, pc}
        ADC->CCR |= ADC_CHANNEL_INTERNAL_PATH(sConfig->Channel);
 8004c8a:	0013      	movs	r3, r2
 8004c8c:	3b10      	subs	r3, #16
 8004c8e:	1e5d      	subs	r5, r3, #1
 8004c90:	41ab      	sbcs	r3, r5
 8004c92:	2580      	movs	r5, #128	@ 0x80
 8004c94:	4917      	ldr	r1, [pc, #92]	@ (8004cf4 <HAL_ADC_ConfigChannel+0xdc>)
 8004c96:	425b      	negs	r3, r3
 8004c98:	0d9b      	lsrs	r3, r3, #22
 8004c9a:	6808      	ldr	r0, [r1, #0]
 8004c9c:	059b      	lsls	r3, r3, #22
 8004c9e:	042d      	lsls	r5, r5, #16
 8004ca0:	195b      	adds	r3, r3, r5
 8004ca2:	4303      	orrs	r3, r0
 8004ca4:	600b      	str	r3, [r1, #0]
        if (sConfig->Channel == ADC_CHANNEL_TEMPSENSOR)
 8004ca6:	2a10      	cmp	r2, #16
 8004ca8:	d1eb      	bne.n	8004c82 <HAL_ADC_ConfigChannel+0x6a>
          wait_loop_index = (ADC_TEMPSENSOR_DELAY_US * (SystemCoreClock / 1000000U));
 8004caa:	4b13      	ldr	r3, [pc, #76]	@ (8004cf8 <HAL_ADC_ConfigChannel+0xe0>)
 8004cac:	4913      	ldr	r1, [pc, #76]	@ (8004cfc <HAL_ADC_ConfigChannel+0xe4>)
 8004cae:	6818      	ldr	r0, [r3, #0]
 8004cb0:	f7fb fa46 	bl	8000140 <__udivsi3>
 8004cb4:	230a      	movs	r3, #10
 8004cb6:	4343      	muls	r3, r0
            wait_loop_index--;
 8004cb8:	9301      	str	r3, [sp, #4]
          while(wait_loop_index != 0U)
 8004cba:	9b01      	ldr	r3, [sp, #4]
 8004cbc:	2b00      	cmp	r3, #0
 8004cbe:	d0e0      	beq.n	8004c82 <HAL_ADC_ConfigChannel+0x6a>
            wait_loop_index--;
 8004cc0:	9b01      	ldr	r3, [sp, #4]
 8004cc2:	3b01      	subs	r3, #1
 8004cc4:	e7f8      	b.n	8004cb8 <HAL_ADC_ConfigChannel+0xa0>
      hadc->Instance->CHSELR &= ~ADC_CHSELR_CHANNEL(sConfig->Channel);
 8004cc6:	6aaa      	ldr	r2, [r5, #40]	@ 0x28
 8004cc8:	4382      	bics	r2, r0
 8004cca:	62aa      	str	r2, [r5, #40]	@ 0x28
      if(ADC_IS_CHANNEL_INTERNAL(sConfig->Channel))
 8004ccc:	2b01      	cmp	r3, #1
 8004cce:	d8d8      	bhi.n	8004c82 <HAL_ADC_ConfigChannel+0x6a>
        ADC->CCR &= ~ADC_CHANNEL_INTERNAL_PATH(sConfig->Channel);
 8004cd0:	1e58      	subs	r0, r3, #1
 8004cd2:	4183      	sbcs	r3, r0
 8004cd4:	4a07      	ldr	r2, [pc, #28]	@ (8004cf4 <HAL_ADC_ConfigChannel+0xdc>)
 8004cd6:	480a      	ldr	r0, [pc, #40]	@ (8004d00 <HAL_ADC_ConfigChannel+0xe8>)
 8004cd8:	6811      	ldr	r1, [r2, #0]
 8004cda:	059b      	lsls	r3, r3, #22
 8004cdc:	181b      	adds	r3, r3, r0
 8004cde:	400b      	ands	r3, r1
 8004ce0:	6013      	str	r3, [r2, #0]
 8004ce2:	e7ce      	b.n	8004c82 <HAL_ADC_ConfigChannel+0x6a>
    SET_BIT(hadc->State, HAL_ADC_STATE_ERROR_CONFIG);
 8004ce4:	2220      	movs	r2, #32
 8004ce6:	6b99      	ldr	r1, [r3, #56]	@ 0x38
 8004ce8:	430a      	orrs	r2, r1
 8004cea:	639a      	str	r2, [r3, #56]	@ 0x38
    tmp_hal_status = HAL_ERROR;
 8004cec:	e7ca      	b.n	8004c84 <HAL_ADC_ConfigChannel+0x6c>
 8004cee:	46c0      	nop			@ (mov r8, r8)
 8004cf0:	00001001 	.word	0x00001001
 8004cf4:	40012708 	.word	0x40012708
 8004cf8:	20000000 	.word	0x20000000
 8004cfc:	000f4240 	.word	0x000f4240
 8004d00:	ff7fffff 	.word	0xff7fffff

08004d04 <HAL_ADCEx_Calibration_Start>:
  *         HAL_ADC_GetValue() (value on 7 bits: from DR[6;0]).
  * @param  hadc ADC handle
  * @retval HAL status
  */
HAL_StatusTypeDef HAL_ADCEx_Calibration_Start(ADC_HandleTypeDef* hadc)
{
 8004d04:	b5f8      	push	{r3, r4, r5, r6, r7, lr}
  
  /* Check the parameters */
  assert_param(IS_ADC_ALL_INSTANCE(hadc->Instance));

  /* Process locked */
  __HAL_LOCK(hadc);
 8004d06:	0006      	movs	r6, r0
 8004d08:	3634      	adds	r6, #52	@ 0x34
 8004d0a:	7833      	ldrb	r3, [r6, #0]
{
 8004d0c:	0004      	movs	r4, r0
  __HAL_LOCK(hadc);
 8004d0e:	2002      	movs	r0, #2
 8004d10:	2b01      	cmp	r3, #1
 8004d12:	d045      	beq.n	8004da0 <HAL_ADCEx_Calibration_Start+0x9c>
 8004d14:	2301      	movs	r3, #1
  
  /* Calibration prerequisite: ADC must be disabled. */
  if (ADC_IS_ENABLE(hadc) == RESET)
 8004d16:	2103      	movs	r1, #3
  __HAL_LOCK(hadc);
 8004d18:	7033      	strb	r3, [r6, #0]
  if (ADC_IS_ENABLE(hadc) == RESET)
 8004d1a:	6823      	ldr	r3, [r4, #0]
 8004d1c:	689a      	ldr	r2, [r3, #8]
 8004d1e:	400a      	ands	r2, r1
 8004d20:	2a01      	cmp	r2, #1
 8004d22:	d105      	bne.n	8004d30 <HAL_ADCEx_Calibration_Start+0x2c>
 8004d24:	6819      	ldr	r1, [r3, #0]
 8004d26:	4211      	tst	r1, r2
 8004d28:	d13b      	bne.n	8004da2 <HAL_ADCEx_Calibration_Start+0x9e>
 8004d2a:	68da      	ldr	r2, [r3, #12]
 8004d2c:	0412      	lsls	r2, r2, #16
 8004d2e:	d438      	bmi.n	8004da2 <HAL_ADCEx_Calibration_Start+0x9e>
  {
    /* Set ADC state */
    ADC_STATE_CLR_SET(hadc->State, 
 8004d30:	6ba1      	ldr	r1, [r4, #56]	@ 0x38
 8004d32:	4a1f      	ldr	r2, [pc, #124]	@ (8004db0 <HAL_ADCEx_Calibration_Start+0xac>)
 8004d34:	4011      	ands	r1, r2
 8004d36:	3206      	adds	r2, #6
 8004d38:	32ff      	adds	r2, #255	@ 0xff
 8004d3a:	430a      	orrs	r2, r1
    /*       available in data register and also transferred by DMA.           */
    /*       To not insert ADC calibration factor among ADC conversion data   */
    /*       in array variable, DMA transfer must be disabled during          */
    /*       calibration.                                                     */
    backup_setting_adc_dma_transfer = READ_BIT(hadc->Instance->CFGR1, ADC_CFGR1_DMAEN | ADC_CFGR1_DMACFG);
    CLEAR_BIT(hadc->Instance->CFGR1, ADC_CFGR1_DMAEN | ADC_CFGR1_DMACFG);
 8004d3c:	2103      	movs	r1, #3
    ADC_STATE_CLR_SET(hadc->State, 
 8004d3e:	63a2      	str	r2, [r4, #56]	@ 0x38
    backup_setting_adc_dma_transfer = READ_BIT(hadc->Instance->CFGR1, ADC_CFGR1_DMAEN | ADC_CFGR1_DMACFG);
 8004d40:	68dd      	ldr	r5, [r3, #12]
    CLEAR_BIT(hadc->Instance->CFGR1, ADC_CFGR1_DMAEN | ADC_CFGR1_DMACFG);
 8004d42:	68da      	ldr	r2, [r3, #12]
 8004d44:	438a      	bics	r2, r1
 8004d46:	60da      	str	r2, [r3, #12]

    /* Start ADC calibration */
    hadc->Instance->CR |= ADC_CR_ADCAL;
 8004d48:	2280      	movs	r2, #128	@ 0x80
 8004d4a:	6899      	ldr	r1, [r3, #8]
 8004d4c:	0612      	lsls	r2, r2, #24
 8004d4e:	430a      	orrs	r2, r1
 8004d50:	609a      	str	r2, [r3, #8]

    tickstart = HAL_GetTick();  
 8004d52:	f7ff fcd1 	bl	80046f8 <HAL_GetTick>
 8004d56:	0007      	movs	r7, r0

    /* Wait for calibration completion */
    while(HAL_IS_BIT_SET(hadc->Instance->CR, ADC_CR_ADCAL))
 8004d58:	6823      	ldr	r3, [r4, #0]
 8004d5a:	689a      	ldr	r2, [r3, #8]
 8004d5c:	2a00      	cmp	r2, #0
 8004d5e:	db0d      	blt.n	8004d7c <HAL_ADCEx_Calibration_Start+0x78>
    backup_setting_adc_dma_transfer = READ_BIT(hadc->Instance->CFGR1, ADC_CFGR1_DMAEN | ADC_CFGR1_DMACFG);
 8004d60:	2103      	movs	r1, #3
        }
      }
    }
    
    /* Restore ADC DMA transfer request after calibration */
    SET_BIT(hadc->Instance->CFGR1, backup_setting_adc_dma_transfer);
 8004d62:	68da      	ldr	r2, [r3, #12]
    backup_setting_adc_dma_transfer = READ_BIT(hadc->Instance->CFGR1, ADC_CFGR1_DMAEN | ADC_CFGR1_DMACFG);
 8004d64:	400d      	ands	r5, r1
    SET_BIT(hadc->Instance->CFGR1, backup_setting_adc_dma_transfer);
 8004d66:	4315      	orrs	r5, r2
 8004d68:	60dd      	str	r5, [r3, #12]

    /* Set ADC state */
    ADC_STATE_CLR_SET(hadc->State,
 8004d6a:	2301      	movs	r3, #1
  HAL_StatusTypeDef tmp_hal_status = HAL_OK;
 8004d6c:	2000      	movs	r0, #0
    ADC_STATE_CLR_SET(hadc->State,
 8004d6e:	6ba2      	ldr	r2, [r4, #56]	@ 0x38
 8004d70:	438a      	bics	r2, r1
 8004d72:	4313      	orrs	r3, r2
 8004d74:	63a3      	str	r3, [r4, #56]	@ 0x38
    
    tmp_hal_status = HAL_ERROR;
  }
  
  /* Process unlocked */
  __HAL_UNLOCK(hadc);
 8004d76:	2300      	movs	r3, #0
 8004d78:	7033      	strb	r3, [r6, #0]
  
  /* Return function status */
  return tmp_hal_status;
 8004d7a:	e011      	b.n	8004da0 <HAL_ADCEx_Calibration_Start+0x9c>
      if((HAL_GetTick() - tickstart) > ADC_CALIBRATION_TIMEOUT)
 8004d7c:	f7ff fcbc 	bl	80046f8 <HAL_GetTick>
 8004d80:	1bc0      	subs	r0, r0, r7
 8004d82:	2802      	cmp	r0, #2
 8004d84:	d9e8      	bls.n	8004d58 <HAL_ADCEx_Calibration_Start+0x54>
        if(HAL_IS_BIT_SET(hadc->Instance->CR, ADC_CR_ADCAL))
 8004d86:	6823      	ldr	r3, [r4, #0]
 8004d88:	689b      	ldr	r3, [r3, #8]
 8004d8a:	2b00      	cmp	r3, #0
 8004d8c:	dae4      	bge.n	8004d58 <HAL_ADCEx_Calibration_Start+0x54>
          ADC_STATE_CLR_SET(hadc->State,
 8004d8e:	2312      	movs	r3, #18
 8004d90:	6ba2      	ldr	r2, [r4, #56]	@ 0x38
          return HAL_ERROR;
 8004d92:	2001      	movs	r0, #1
          ADC_STATE_CLR_SET(hadc->State,
 8004d94:	439a      	bics	r2, r3
 8004d96:	3b02      	subs	r3, #2
 8004d98:	4313      	orrs	r3, r2
 8004d9a:	63a3      	str	r3, [r4, #56]	@ 0x38
          __HAL_UNLOCK(hadc);
 8004d9c:	2300      	movs	r3, #0
 8004d9e:	7033      	strb	r3, [r6, #0]
}
 8004da0:	bdf8      	pop	{r3, r4, r5, r6, r7, pc}
    SET_BIT(hadc->State, HAL_ADC_STATE_ERROR_CONFIG);
 8004da2:	2320      	movs	r3, #32
 8004da4:	6ba2      	ldr	r2, [r4, #56]	@ 0x38
    tmp_hal_status = HAL_ERROR;
 8004da6:	2001      	movs	r0, #1
    SET_BIT(hadc->State, HAL_ADC_STATE_ERROR_CONFIG);
 8004da8:	4313      	orrs	r3, r2
 8004daa:	63a3      	str	r3, [r4, #56]	@ 0x38
    tmp_hal_status = HAL_ERROR;
 8004dac:	e7e3      	b.n	8004d76 <HAL_ADCEx_Calibration_Start+0x72>
 8004dae:	46c0      	nop			@ (mov r8, r8)
 8004db0:	fffffefd 	.word	0xfffffefd

08004db4 <HAL_NVIC_SetPriority>:
  *         with stm32f0xx devices, this parameter is a dummy value and it is ignored, because 
  *         no subpriority supported in Cortex M0 based products.   
  * @retval None
  */
void HAL_NVIC_SetPriority(IRQn_Type IRQn, uint32_t PreemptPriority, uint32_t SubPriority)
{
 8004db4:	b510      	push	{r4, lr}
 */
__STATIC_INLINE void __NVIC_SetPriority(IRQn_Type IRQn, uint32_t priority)
{
  if ((int32_t)(IRQn) >= 0)
  {
    NVIC->IP[_IP_IDX(IRQn)]  = ((uint32_t)(NVIC->IP[_IP_IDX(IRQn)]  & ~(0xFFUL << _BIT_SHIFT(IRQn))) |
 8004db6:	24ff      	movs	r4, #255	@ 0xff
 8004db8:	2203      	movs	r2, #3
 8004dba:	000b      	movs	r3, r1
 8004dbc:	0021      	movs	r1, r4
 8004dbe:	4002      	ands	r2, r0
 8004dc0:	00d2      	lsls	r2, r2, #3
 8004dc2:	4091      	lsls	r1, r2
       (((priority << (8U - __NVIC_PRIO_BITS)) & (uint32_t)0xFFUL) << _BIT_SHIFT(IRQn)));
 8004dc4:	019b      	lsls	r3, r3, #6
 8004dc6:	4023      	ands	r3, r4
    NVIC->IP[_IP_IDX(IRQn)]  = ((uint32_t)(NVIC->IP[_IP_IDX(IRQn)]  & ~(0xFFUL << _BIT_SHIFT(IRQn))) |
 8004dc8:	43c9      	mvns	r1, r1
       (((priority << (8U - __NVIC_PRIO_BITS)) & (uint32_t)0xFFUL) << _BIT_SHIFT(IRQn)));
 8004dca:	4093      	lsls	r3, r2
  if ((int32_t)(IRQn) >= 0)
 8004dcc:	2800      	cmp	r0, #0
 8004dce:	db0a      	blt.n	8004de6 <HAL_NVIC_SetPriority+0x32>
    NVIC->IP[_IP_IDX(IRQn)]  = ((uint32_t)(NVIC->IP[_IP_IDX(IRQn)]  & ~(0xFFUL << _BIT_SHIFT(IRQn))) |
 8004dd0:	24c0      	movs	r4, #192	@ 0xc0
 8004dd2:	4a0b      	ldr	r2, [pc, #44]	@ (8004e00 <HAL_NVIC_SetPriority+0x4c>)
 8004dd4:	0880      	lsrs	r0, r0, #2
 8004dd6:	0080      	lsls	r0, r0, #2
 8004dd8:	1880      	adds	r0, r0, r2
 8004dda:	00a4      	lsls	r4, r4, #2
 8004ddc:	5902      	ldr	r2, [r0, r4]
 8004dde:	400a      	ands	r2, r1
 8004de0:	4313      	orrs	r3, r2
 8004de2:	5103      	str	r3, [r0, r4]
  assert_param(IS_NVIC_PREEMPTION_PRIORITY(PreemptPriority));
  NVIC_SetPriority(IRQn,PreemptPriority);

  /* Prevent unused argument(s) compilation warning */
  UNUSED(SubPriority);
}
 8004de4:	bd10      	pop	{r4, pc}
  }
  else
  {
    SCB->SHP[_SHP_IDX(IRQn)] = ((uint32_t)(SCB->SHP[_SHP_IDX(IRQn)] & ~(0xFFUL << _BIT_SHIFT(IRQn))) |
 8004de6:	220f      	movs	r2, #15
 8004de8:	4010      	ands	r0, r2
 8004dea:	3808      	subs	r0, #8
 8004dec:	4a05      	ldr	r2, [pc, #20]	@ (8004e04 <HAL_NVIC_SetPriority+0x50>)
 8004dee:	0880      	lsrs	r0, r0, #2
 8004df0:	0080      	lsls	r0, r0, #2
 8004df2:	1880      	adds	r0, r0, r2
 8004df4:	69c2      	ldr	r2, [r0, #28]
 8004df6:	4011      	ands	r1, r2
 8004df8:	4319      	orrs	r1, r3
 8004dfa:	61c1      	str	r1, [r0, #28]
 8004dfc:	e7f2      	b.n	8004de4 <HAL_NVIC_SetPriority+0x30>
 8004dfe:	46c0      	nop			@ (mov r8, r8)
 8004e00:	e000e100 	.word	0xe000e100
 8004e04:	e000ed00 	.word	0xe000ed00

08004e08 <HAL_NVIC_EnableIRQ>:
  if ((int32_t)(IRQn) >= 0)
 8004e08:	2800      	cmp	r0, #0
 8004e0a:	db05      	blt.n	8004e18 <HAL_NVIC_EnableIRQ+0x10>
    NVIC->ISER[0U] = (uint32_t)(1UL << (((uint32_t)IRQn) & 0x1FUL));
 8004e0c:	231f      	movs	r3, #31
 8004e0e:	4018      	ands	r0, r3
 8004e10:	3b1e      	subs	r3, #30
 8004e12:	4083      	lsls	r3, r0
 8004e14:	4a01      	ldr	r2, [pc, #4]	@ (8004e1c <HAL_NVIC_EnableIRQ+0x14>)
 8004e16:	6013      	str	r3, [r2, #0]
  /* Check the parameters */
  assert_param(IS_NVIC_DEVICE_IRQ(IRQn));
  
  /* Enable interrupt */
  NVIC_EnableIRQ(IRQn);
}
 8004e18:	4770      	bx	lr
 8004e1a:	46c0      	nop			@ (mov r8, r8)
 8004e1c:	e000e100 	.word	0xe000e100

08004e20 <HAL_NVIC_SystemReset>:
  \details Acts as a special kind of Data Memory Barrier.
           It completes when all explicit memory accesses before this instruction complete.
 */
__STATIC_FORCEINLINE void __DSB(void)
{
  __ASM volatile ("dsb 0xF":::"memory");
 8004e20:	f3bf 8f4f 	dsb	sy
 */
__NO_RETURN __STATIC_INLINE void __NVIC_SystemReset(void)
{
  __DSB();                                                          /* Ensure all outstanding memory accesses included
                                                                       buffered write are completed before reset */
  SCB->AIRCR  = ((0x5FAUL << SCB_AIRCR_VECTKEY_Pos) |
 8004e24:	4b03      	ldr	r3, [pc, #12]	@ (8004e34 <HAL_NVIC_SystemReset+0x14>)
 8004e26:	4a04      	ldr	r2, [pc, #16]	@ (8004e38 <HAL_NVIC_SystemReset+0x18>)
 8004e28:	60da      	str	r2, [r3, #12]
 8004e2a:	f3bf 8f4f 	dsb	sy
                 SCB_AIRCR_SYSRESETREQ_Msk);
  __DSB();                                                          /* Ensure completion of memory access */

  for(;;)                                                           /* wait until reset */
  {
    __NOP();
 8004e2e:	46c0      	nop			@ (mov r8, r8)
  for(;;)                                                           /* wait until reset */
 8004e30:	e7fd      	b.n	8004e2e <HAL_NVIC_SystemReset+0xe>
 8004e32:	46c0      	nop			@ (mov r8, r8)
 8004e34:	e000ed00 	.word	0xe000ed00
 8004e38:	05fa0004 	.word	0x05fa0004

08004e3c <HAL_SYSTICK_Config>:
           function <b>SysTick_Config</b> is not included. In this case, the file <b><i>device</i>.h</b>
           must contain a vendor-specific implementation of this function.
 */
__STATIC_INLINE uint32_t SysTick_Config(uint32_t ticks)
{
  if ((ticks - 1UL) > SysTick_LOAD_RELOAD_Msk)
 8004e3c:	2280      	movs	r2, #128	@ 0x80
 8004e3e:	1e43      	subs	r3, r0, #1
 8004e40:	0452      	lsls	r2, r2, #17
  {
    return (1UL);                                                   /* Reload value impossible */
 8004e42:	2001      	movs	r0, #1
  if ((ticks - 1UL) > SysTick_LOAD_RELOAD_Msk)
 8004e44:	4293      	cmp	r3, r2
 8004e46:	d20d      	bcs.n	8004e64 <HAL_SYSTICK_Config+0x28>
    SCB->SHP[_SHP_IDX(IRQn)] = ((uint32_t)(SCB->SHP[_SHP_IDX(IRQn)] & ~(0xFFUL << _BIT_SHIFT(IRQn))) |
 8004e48:	21c0      	movs	r1, #192	@ 0xc0
  }

  SysTick->LOAD  = (uint32_t)(ticks - 1UL);                         /* set reload register */
 8004e4a:	4a07      	ldr	r2, [pc, #28]	@ (8004e68 <HAL_SYSTICK_Config+0x2c>)
    SCB->SHP[_SHP_IDX(IRQn)] = ((uint32_t)(SCB->SHP[_SHP_IDX(IRQn)] & ~(0xFFUL << _BIT_SHIFT(IRQn))) |
 8004e4c:	4807      	ldr	r0, [pc, #28]	@ (8004e6c <HAL_SYSTICK_Config+0x30>)
  SysTick->LOAD  = (uint32_t)(ticks - 1UL);                         /* set reload register */
 8004e4e:	6053      	str	r3, [r2, #4]
    SCB->SHP[_SHP_IDX(IRQn)] = ((uint32_t)(SCB->SHP[_SHP_IDX(IRQn)] & ~(0xFFUL << _BIT_SHIFT(IRQn))) |
 8004e50:	6a03      	ldr	r3, [r0, #32]
 8004e52:	0609      	lsls	r1, r1, #24
 8004e54:	021b      	lsls	r3, r3, #8
 8004e56:	0a1b      	lsrs	r3, r3, #8
 8004e58:	430b      	orrs	r3, r1
 8004e5a:	6203      	str	r3, [r0, #32]
  NVIC_SetPriority (SysTick_IRQn, (1UL << __NVIC_PRIO_BITS) - 1UL); /* set Priority for Systick Interrupt */
  SysTick->VAL   = 0UL;                                             /* Load the SysTick Counter Value */
 8004e5c:	2000      	movs	r0, #0
  SysTick->CTRL  = SysTick_CTRL_CLKSOURCE_Msk |
 8004e5e:	2307      	movs	r3, #7
  SysTick->VAL   = 0UL;                                             /* Load the SysTick Counter Value */
 8004e60:	6090      	str	r0, [r2, #8]
  SysTick->CTRL  = SysTick_CTRL_CLKSOURCE_Msk |
 8004e62:	6013      	str	r3, [r2, #0]
  *                  - 1  Function failed.
  */
uint32_t HAL_SYSTICK_Config(uint32_t TicksNumb)
{
   return SysTick_Config(TicksNumb);
}
 8004e64:	4770      	bx	lr
 8004e66:	46c0      	nop			@ (mov r8, r8)
 8004e68:	e000e010 	.word	0xe000e010
 8004e6c:	e000ed00 	.word	0xe000ed00

08004e70 <HAL_DMA_Init>:
  * @param  hdma Pointer to a DMA_HandleTypeDef structure that contains
  *               the configuration information for the specified DMA Channel.
  * @retval HAL status
  */
HAL_StatusTypeDef HAL_DMA_Init(DMA_HandleTypeDef *hdma)
{
 8004e70:	b570      	push	{r4, r5, r6, lr}
 8004e72:	0004      	movs	r4, r0
  uint32_t tmp = 0U;

  /* Check the DMA handle allocation */
  if (NULL == hdma)
  {
    return HAL_ERROR;
 8004e74:	2001      	movs	r0, #1
  if (NULL == hdma)
 8004e76:	2c00      	cmp	r4, #0
 8004e78:	d024      	beq.n	8004ec4 <HAL_DMA_Init+0x54>
  assert_param(IS_DMA_MEMORY_DATA_SIZE(hdma->Init.MemDataAlignment));
  assert_param(IS_DMA_MODE(hdma->Init.Mode));
  assert_param(IS_DMA_PRIORITY(hdma->Init.Priority));

  /* Change DMA peripheral state */
  hdma->State = HAL_DMA_STATE_BUSY;
 8004e7a:	2302      	movs	r3, #2
 8004e7c:	1ca5      	adds	r5, r4, #2
 8004e7e:	77eb      	strb	r3, [r5, #31]

  /* Get the CR register value */
  tmp = hdma->Instance->CCR;
 8004e80:	6820      	ldr	r0, [r4, #0]

  /* Clear PL, MSIZE, PSIZE, MINC, PINC, CIRC, DIR bits */
  tmp &= ((uint32_t)~(DMA_CCR_PL    | DMA_CCR_MSIZE  | DMA_CCR_PSIZE  | \
 8004e82:	4b11      	ldr	r3, [pc, #68]	@ (8004ec8 <HAL_DMA_Init+0x58>)
  tmp = hdma->Instance->CCR;
 8004e84:	6802      	ldr	r2, [r0, #0]
                      DMA_CCR_MINC  | DMA_CCR_PINC   | DMA_CCR_CIRC   | \
                      DMA_CCR_DIR));

  /* Prepare the DMA Channel configuration */
  tmp |=  hdma->Init.Direction        |
 8004e86:	68a1      	ldr	r1, [r4, #8]
  tmp &= ((uint32_t)~(DMA_CCR_PL    | DMA_CCR_MSIZE  | DMA_CCR_PSIZE  | \
 8004e88:	401a      	ands	r2, r3
  tmp |=  hdma->Init.Direction        |
 8004e8a:	6863      	ldr	r3, [r4, #4]
 8004e8c:	430b      	orrs	r3, r1
          hdma->Init.PeriphInc           | hdma->Init.MemInc           |
 8004e8e:	68e1      	ldr	r1, [r4, #12]
 8004e90:	430b      	orrs	r3, r1
 8004e92:	6921      	ldr	r1, [r4, #16]
 8004e94:	430b      	orrs	r3, r1
          hdma->Init.PeriphDataAlignment | hdma->Init.MemDataAlignment |
 8004e96:	6961      	ldr	r1, [r4, #20]
 8004e98:	430b      	orrs	r3, r1
 8004e9a:	69a1      	ldr	r1, [r4, #24]
 8004e9c:	430b      	orrs	r3, r1
          hdma->Init.Mode                | hdma->Init.Priority;
 8004e9e:	69e1      	ldr	r1, [r4, #28]
 8004ea0:	430b      	orrs	r3, r1
  tmp |=  hdma->Init.Direction        |
 8004ea2:	4313      	orrs	r3, r2

  /* Write to DMA Channel CR register */
  hdma->Instance->CCR = tmp;
 8004ea4:	6003      	str	r3, [r0, #0]
    hdma->DmaBaseAddress = DMA2;
  }
#else
  /* calculation of the channel index */
  /* DMA1 */
  hdma->ChannelIndex = (((uint32_t)hdma->Instance - (uint32_t)DMA1_Channel1) / ((uint32_t)DMA1_Channel2 - (uint32_t)DMA1_Channel1)) << 2U;
 8004ea6:	4b09      	ldr	r3, [pc, #36]	@ (8004ecc <HAL_DMA_Init+0x5c>)
 8004ea8:	2114      	movs	r1, #20
 8004eaa:	18c0      	adds	r0, r0, r3
 8004eac:	f7fb f948 	bl	8000140 <__udivsi3>
  hdma->DmaBaseAddress = DMA1;
 8004eb0:	4b07      	ldr	r3, [pc, #28]	@ (8004ed0 <HAL_DMA_Init+0x60>)
  hdma->ChannelIndex = (((uint32_t)hdma->Instance - (uint32_t)DMA1_Channel1) / ((uint32_t)DMA1_Channel2 - (uint32_t)DMA1_Channel1)) << 2U;
 8004eb2:	0080      	lsls	r0, r0, #2
 8004eb4:	6420      	str	r0, [r4, #64]	@ 0x40
  hdma->DmaBaseAddress = DMA1;
 8004eb6:	63e3      	str	r3, [r4, #60]	@ 0x3c
  hdma->ErrorCode = HAL_DMA_ERROR_NONE;
 8004eb8:	2000      	movs	r0, #0
  hdma->State = HAL_DMA_STATE_READY;
 8004eba:	2301      	movs	r3, #1
  hdma->ErrorCode = HAL_DMA_ERROR_NONE;
 8004ebc:	63a0      	str	r0, [r4, #56]	@ 0x38
  hdma->Lock = HAL_UNLOCKED;
 8004ebe:	18e4      	adds	r4, r4, r3
  hdma->State = HAL_DMA_STATE_READY;
 8004ec0:	77eb      	strb	r3, [r5, #31]
  hdma->Lock = HAL_UNLOCKED;
 8004ec2:	77e0      	strb	r0, [r4, #31]
}
 8004ec4:	bd70      	pop	{r4, r5, r6, pc}
 8004ec6:	46c0      	nop			@ (mov r8, r8)
 8004ec8:	ffffc00f 	.word	0xffffc00f
 8004ecc:	bffdfff8 	.word	0xbffdfff8
 8004ed0:	40020000 	.word	0x40020000

08004ed4 <HAL_DMA_Start_IT>:
{
 8004ed4:	b5f7      	push	{r0, r1, r2, r4, r5, r6, r7, lr}
  __HAL_LOCK(hdma);
 8004ed6:	1c44      	adds	r4, r0, #1
{
 8004ed8:	9301      	str	r3, [sp, #4]
  __HAL_LOCK(hdma);
 8004eda:	7fe5      	ldrb	r5, [r4, #31]
 8004edc:	2d01      	cmp	r5, #1
 8004ede:	d033      	beq.n	8004f48 <HAL_DMA_Start_IT+0x74>
 8004ee0:	2501      	movs	r5, #1
  if (HAL_DMA_STATE_READY == hdma->State)
 8004ee2:	1c87      	adds	r7, r0, #2
  __HAL_LOCK(hdma);
 8004ee4:	77e5      	strb	r5, [r4, #31]
  if (HAL_DMA_STATE_READY == hdma->State)
 8004ee6:	7ffd      	ldrb	r5, [r7, #31]
 8004ee8:	2600      	movs	r6, #0
 8004eea:	46ac      	mov	ip, r5
 8004eec:	4663      	mov	r3, ip
 8004eee:	b2ed      	uxtb	r5, r5
 8004ef0:	2b01      	cmp	r3, #1
 8004ef2:	d128      	bne.n	8004f46 <HAL_DMA_Start_IT+0x72>
    hdma->State = HAL_DMA_STATE_BUSY;
 8004ef4:	2402      	movs	r4, #2
 8004ef6:	77fc      	strb	r4, [r7, #31]
    hdma->Instance->CCR &= ~DMA_CCR_EN;
 8004ef8:	6804      	ldr	r4, [r0, #0]
    hdma->ErrorCode = HAL_DMA_ERROR_NONE;
 8004efa:	6386      	str	r6, [r0, #56]	@ 0x38
    hdma->Instance->CCR &= ~DMA_CCR_EN;
 8004efc:	6826      	ldr	r6, [r4, #0]
  hdma->DmaBaseAddress->IFCR  = (DMA_FLAG_GL1 << hdma->ChannelIndex);
 8004efe:	6c07      	ldr	r7, [r0, #64]	@ 0x40
    hdma->Instance->CCR &= ~DMA_CCR_EN;
 8004f00:	43ae      	bics	r6, r5
  hdma->DmaBaseAddress->IFCR  = (DMA_FLAG_GL1 << hdma->ChannelIndex);
 8004f02:	40bd      	lsls	r5, r7
    hdma->Instance->CCR &= ~DMA_CCR_EN;
 8004f04:	6026      	str	r6, [r4, #0]
  hdma->Instance->CNDTR = DataLength;
 8004f06:	9b01      	ldr	r3, [sp, #4]
  hdma->DmaBaseAddress->IFCR  = (DMA_FLAG_GL1 << hdma->ChannelIndex);
 8004f08:	6bc6      	ldr	r6, [r0, #60]	@ 0x3c
 8004f0a:	6075      	str	r5, [r6, #4]
  hdma->Instance->CNDTR = DataLength;
 8004f0c:	6063      	str	r3, [r4, #4]
  if ((hdma->Init.Direction) == DMA_MEMORY_TO_PERIPH)
 8004f0e:	6843      	ldr	r3, [r0, #4]
 8004f10:	2b10      	cmp	r3, #16
 8004f12:	d10e      	bne.n	8004f32 <HAL_DMA_Start_IT+0x5e>
    hdma->Instance->CPAR = DstAddress;
 8004f14:	60a2      	str	r2, [r4, #8]
    hdma->Instance->CMAR = SrcAddress;
 8004f16:	60e1      	str	r1, [r4, #12]
    if (NULL != hdma->XferHalfCpltCallback)
 8004f18:	6ac3      	ldr	r3, [r0, #44]	@ 0x2c
      hdma->Instance->CCR |= (DMA_IT_TC | DMA_IT_HT | DMA_IT_TE);
 8004f1a:	6822      	ldr	r2, [r4, #0]
    if (NULL != hdma->XferHalfCpltCallback)
 8004f1c:	2b00      	cmp	r3, #0
 8004f1e:	d00b      	beq.n	8004f38 <HAL_DMA_Start_IT+0x64>
      hdma->Instance->CCR |= (DMA_IT_TC | DMA_IT_HT | DMA_IT_TE);
 8004f20:	230e      	movs	r3, #14
 8004f22:	4313      	orrs	r3, r2
      hdma->Instance->CCR &= ~DMA_IT_HT;
 8004f24:	6023      	str	r3, [r4, #0]
    hdma->Instance->CCR |= DMA_CCR_EN;
 8004f26:	2301      	movs	r3, #1
  HAL_StatusTypeDef status = HAL_OK;
 8004f28:	2000      	movs	r0, #0
    hdma->Instance->CCR |= DMA_CCR_EN;
 8004f2a:	6822      	ldr	r2, [r4, #0]
 8004f2c:	4313      	orrs	r3, r2
 8004f2e:	6023      	str	r3, [r4, #0]
}
 8004f30:	bdfe      	pop	{r1, r2, r3, r4, r5, r6, r7, pc}
    hdma->Instance->CPAR = SrcAddress;
 8004f32:	60a1      	str	r1, [r4, #8]
    hdma->Instance->CMAR = DstAddress;
 8004f34:	60e2      	str	r2, [r4, #12]
 8004f36:	e7ef      	b.n	8004f18 <HAL_DMA_Start_IT+0x44>
      hdma->Instance->CCR |= (DMA_IT_TC | DMA_IT_TE);
 8004f38:	230a      	movs	r3, #10
 8004f3a:	4313      	orrs	r3, r2
      hdma->Instance->CCR &= ~DMA_IT_HT;
 8004f3c:	2204      	movs	r2, #4
      hdma->Instance->CCR |= (DMA_IT_TC | DMA_IT_TE);
 8004f3e:	6023      	str	r3, [r4, #0]
      hdma->Instance->CCR &= ~DMA_IT_HT;
 8004f40:	6823      	ldr	r3, [r4, #0]
 8004f42:	4393      	bics	r3, r2
 8004f44:	e7ee      	b.n	8004f24 <HAL_DMA_Start_IT+0x50>
    __HAL_UNLOCK(hdma);
 8004f46:	77e6      	strb	r6, [r4, #31]
  __HAL_LOCK(hdma);
 8004f48:	2002      	movs	r0, #2
 8004f4a:	e7f1      	b.n	8004f30 <HAL_DMA_Start_IT+0x5c>

08004f4c <HAL_DMA_Abort>:
{
 8004f4c:	b530      	push	{r4, r5, lr}
  if (hdma->State != HAL_DMA_STATE_BUSY)
 8004f4e:	1c84      	adds	r4, r0, #2
 8004f50:	7fe2      	ldrb	r2, [r4, #31]
{
 8004f52:	0003      	movs	r3, r0
  if (hdma->State != HAL_DMA_STATE_BUSY)
 8004f54:	2a02      	cmp	r2, #2
 8004f56:	d006      	beq.n	8004f66 <HAL_DMA_Abort+0x1a>
    hdma->ErrorCode = HAL_DMA_ERROR_NO_XFER;
 8004f58:	2204      	movs	r2, #4
 8004f5a:	6382      	str	r2, [r0, #56]	@ 0x38
    return HAL_ERROR;
 8004f5c:	2001      	movs	r0, #1
    __HAL_UNLOCK(hdma);
 8004f5e:	2200      	movs	r2, #0
 8004f60:	3301      	adds	r3, #1
 8004f62:	77da      	strb	r2, [r3, #31]
}
 8004f64:	bd30      	pop	{r4, r5, pc}
    hdma->Instance->CCR &= ~(DMA_IT_TC | DMA_IT_HT | DMA_IT_TE);
 8004f66:	6802      	ldr	r2, [r0, #0]
 8004f68:	200e      	movs	r0, #14
 8004f6a:	6811      	ldr	r1, [r2, #0]
 8004f6c:	4381      	bics	r1, r0
 8004f6e:	6011      	str	r1, [r2, #0]
    hdma->Instance->CCR &= ~DMA_CCR_EN;
 8004f70:	2101      	movs	r1, #1
    hdma->DmaBaseAddress->IFCR = (DMA_FLAG_GL1 << hdma->ChannelIndex);
 8004f72:	000d      	movs	r5, r1
    hdma->Instance->CCR &= ~DMA_CCR_EN;
 8004f74:	6810      	ldr	r0, [r2, #0]
 8004f76:	4388      	bics	r0, r1
 8004f78:	6010      	str	r0, [r2, #0]
    hdma->DmaBaseAddress->IFCR = (DMA_FLAG_GL1 << hdma->ChannelIndex);
 8004f7a:	6c18      	ldr	r0, [r3, #64]	@ 0x40
 8004f7c:	6bda      	ldr	r2, [r3, #60]	@ 0x3c
 8004f7e:	4085      	lsls	r5, r0
  return HAL_OK;
 8004f80:	2000      	movs	r0, #0
    hdma->DmaBaseAddress->IFCR = (DMA_FLAG_GL1 << hdma->ChannelIndex);
 8004f82:	6055      	str	r5, [r2, #4]
  hdma->State = HAL_DMA_STATE_READY;
 8004f84:	77e1      	strb	r1, [r4, #31]
  return HAL_OK;
 8004f86:	e7ea      	b.n	8004f5e <HAL_DMA_Abort+0x12>

08004f88 <HAL_DMA_Abort_IT>:
{
 8004f88:	b570      	push	{r4, r5, r6, lr}
  if (HAL_DMA_STATE_BUSY != hdma->State)
 8004f8a:	1c84      	adds	r4, r0, #2
 8004f8c:	7fe3      	ldrb	r3, [r4, #31]
 8004f8e:	2b02      	cmp	r3, #2
 8004f90:	d003      	beq.n	8004f9a <HAL_DMA_Abort_IT+0x12>
    hdma->ErrorCode = HAL_DMA_ERROR_NO_XFER;
 8004f92:	2304      	movs	r3, #4
 8004f94:	6383      	str	r3, [r0, #56]	@ 0x38
    status = HAL_ERROR;
 8004f96:	2001      	movs	r0, #1
}
 8004f98:	bd70      	pop	{r4, r5, r6, pc}
    hdma->Instance->CCR &= ~(DMA_IT_TC | DMA_IT_HT | DMA_IT_TE);
 8004f9a:	210e      	movs	r1, #14
 8004f9c:	6803      	ldr	r3, [r0, #0]
 8004f9e:	681a      	ldr	r2, [r3, #0]
 8004fa0:	438a      	bics	r2, r1
 8004fa2:	601a      	str	r2, [r3, #0]
    hdma->Instance->CCR &= ~DMA_CCR_EN;
 8004fa4:	2201      	movs	r2, #1
    hdma->DmaBaseAddress->IFCR = DMA_FLAG_GL1 << hdma->ChannelIndex;
 8004fa6:	0015      	movs	r5, r2
    hdma->Instance->CCR &= ~DMA_CCR_EN;
 8004fa8:	6819      	ldr	r1, [r3, #0]
 8004faa:	4391      	bics	r1, r2
 8004fac:	6019      	str	r1, [r3, #0]
    hdma->DmaBaseAddress->IFCR = DMA_FLAG_GL1 << hdma->ChannelIndex;
 8004fae:	6c01      	ldr	r1, [r0, #64]	@ 0x40
 8004fb0:	6bc3      	ldr	r3, [r0, #60]	@ 0x3c
 8004fb2:	408d      	lsls	r5, r1
 8004fb4:	605d      	str	r5, [r3, #4]
    hdma->State = HAL_DMA_STATE_READY;
 8004fb6:	77e2      	strb	r2, [r4, #31]
    __HAL_UNLOCK(hdma);
 8004fb8:	1883      	adds	r3, r0, r2
 8004fba:	2200      	movs	r2, #0
 8004fbc:	77da      	strb	r2, [r3, #31]
    if (hdma->XferAbortCallback != NULL)
 8004fbe:	6b43      	ldr	r3, [r0, #52]	@ 0x34
 8004fc0:	4293      	cmp	r3, r2
 8004fc2:	d000      	beq.n	8004fc6 <HAL_DMA_Abort_IT+0x3e>
      hdma->XferAbortCallback(hdma);
 8004fc4:	4798      	blx	r3
  HAL_StatusTypeDef status = HAL_OK;
 8004fc6:	2000      	movs	r0, #0
 8004fc8:	e7e6      	b.n	8004f98 <HAL_DMA_Abort_IT+0x10>

08004fca <HAL_DMA_IRQHandler>:
{
 8004fca:	b5f8      	push	{r3, r4, r5, r6, r7, lr}
  if ((RESET != (flag_it & (DMA_FLAG_HT1 << hdma->ChannelIndex))) && (RESET != (source_it & DMA_IT_HT)))
 8004fcc:	2704      	movs	r7, #4
 8004fce:	003e      	movs	r6, r7
 8004fd0:	6c01      	ldr	r1, [r0, #64]	@ 0x40
  uint32_t flag_it = hdma->DmaBaseAddress->ISR;
 8004fd2:	6bc2      	ldr	r2, [r0, #60]	@ 0x3c
  if ((RESET != (flag_it & (DMA_FLAG_HT1 << hdma->ChannelIndex))) && (RESET != (source_it & DMA_IT_HT)))
 8004fd4:	408e      	lsls	r6, r1
  uint32_t flag_it = hdma->DmaBaseAddress->ISR;
 8004fd6:	6815      	ldr	r5, [r2, #0]
  uint32_t source_it = hdma->Instance->CCR;
 8004fd8:	6803      	ldr	r3, [r0, #0]
 8004fda:	681c      	ldr	r4, [r3, #0]
  if ((RESET != (flag_it & (DMA_FLAG_HT1 << hdma->ChannelIndex))) && (RESET != (source_it & DMA_IT_HT)))
 8004fdc:	4235      	tst	r5, r6
 8004fde:	d00d      	beq.n	8004ffc <HAL_DMA_IRQHandler+0x32>
 8004fe0:	423c      	tst	r4, r7
 8004fe2:	d00b      	beq.n	8004ffc <HAL_DMA_IRQHandler+0x32>
    if ((hdma->Instance->CCR & DMA_CCR_CIRC) == 0U)
 8004fe4:	6819      	ldr	r1, [r3, #0]
 8004fe6:	0689      	lsls	r1, r1, #26
 8004fe8:	d402      	bmi.n	8004ff0 <HAL_DMA_IRQHandler+0x26>
      hdma->Instance->CCR &= ~DMA_IT_HT;
 8004fea:	6819      	ldr	r1, [r3, #0]
 8004fec:	43b9      	bics	r1, r7
 8004fee:	6019      	str	r1, [r3, #0]
    if (hdma->XferHalfCpltCallback != NULL)
 8004ff0:	6ac3      	ldr	r3, [r0, #44]	@ 0x2c
    hdma->DmaBaseAddress->IFCR = DMA_FLAG_HT1 << hdma->ChannelIndex;
 8004ff2:	6056      	str	r6, [r2, #4]
    if (hdma->XferHalfCpltCallback != NULL)
 8004ff4:	2b00      	cmp	r3, #0
 8004ff6:	d019      	beq.n	800502c <HAL_DMA_IRQHandler+0x62>
      hdma->XferErrorCallback(hdma);
 8004ff8:	4798      	blx	r3
}
 8004ffa:	e017      	b.n	800502c <HAL_DMA_IRQHandler+0x62>
  else if ((RESET != (flag_it & (DMA_FLAG_TC1 << hdma->ChannelIndex))) && (RESET != (source_it & DMA_IT_TC)))
 8004ffc:	2702      	movs	r7, #2
 8004ffe:	003e      	movs	r6, r7
 8005000:	408e      	lsls	r6, r1
 8005002:	4235      	tst	r5, r6
 8005004:	d013      	beq.n	800502e <HAL_DMA_IRQHandler+0x64>
 8005006:	423c      	tst	r4, r7
 8005008:	d011      	beq.n	800502e <HAL_DMA_IRQHandler+0x64>
    if ((hdma->Instance->CCR & DMA_CCR_CIRC) == 0U)
 800500a:	6819      	ldr	r1, [r3, #0]
 800500c:	0689      	lsls	r1, r1, #26
 800500e:	d406      	bmi.n	800501e <HAL_DMA_IRQHandler+0x54>
      hdma->Instance->CCR &= ~(DMA_IT_TC | DMA_IT_TE);
 8005010:	240a      	movs	r4, #10
 8005012:	6819      	ldr	r1, [r3, #0]
 8005014:	43a1      	bics	r1, r4
 8005016:	6019      	str	r1, [r3, #0]
      hdma->State = HAL_DMA_STATE_READY;
 8005018:	2101      	movs	r1, #1
 800501a:	19c3      	adds	r3, r0, r7
 800501c:	77d9      	strb	r1, [r3, #31]
    hdma->DmaBaseAddress->IFCR = DMA_FLAG_TC1 << hdma->ChannelIndex;
 800501e:	6056      	str	r6, [r2, #4]
    __HAL_UNLOCK(hdma);
 8005020:	2200      	movs	r2, #0
 8005022:	1c43      	adds	r3, r0, #1
 8005024:	77da      	strb	r2, [r3, #31]
    if (hdma->XferCpltCallback != NULL)
 8005026:	6a83      	ldr	r3, [r0, #40]	@ 0x28
    if (hdma->XferErrorCallback != NULL)
 8005028:	4293      	cmp	r3, r2
 800502a:	d1e5      	bne.n	8004ff8 <HAL_DMA_IRQHandler+0x2e>
}
 800502c:	bdf8      	pop	{r3, r4, r5, r6, r7, pc}
  else if ((RESET != (flag_it & (DMA_FLAG_TE1 << hdma->ChannelIndex))) && (RESET != (source_it & DMA_IT_TE)))
 800502e:	2608      	movs	r6, #8
 8005030:	0037      	movs	r7, r6
 8005032:	408f      	lsls	r7, r1
 8005034:	423d      	tst	r5, r7
 8005036:	d0f9      	beq.n	800502c <HAL_DMA_IRQHandler+0x62>
 8005038:	4234      	tst	r4, r6
 800503a:	d0f7      	beq.n	800502c <HAL_DMA_IRQHandler+0x62>
    hdma->Instance->CCR &= ~(DMA_IT_TC | DMA_IT_HT | DMA_IT_TE);
 800503c:	250e      	movs	r5, #14
 800503e:	681c      	ldr	r4, [r3, #0]
 8005040:	43ac      	bics	r4, r5
 8005042:	601c      	str	r4, [r3, #0]
    hdma->DmaBaseAddress->IFCR = DMA_FLAG_GL1 << hdma->ChannelIndex;
 8005044:	2301      	movs	r3, #1
 8005046:	001c      	movs	r4, r3
 8005048:	408c      	lsls	r4, r1
 800504a:	6054      	str	r4, [r2, #4]
    hdma->State = HAL_DMA_STATE_READY;
 800504c:	1c82      	adds	r2, r0, #2
    hdma->ErrorCode = HAL_DMA_ERROR_TE;
 800504e:	6383      	str	r3, [r0, #56]	@ 0x38
    hdma->State = HAL_DMA_STATE_READY;
 8005050:	77d3      	strb	r3, [r2, #31]
    __HAL_UNLOCK(hdma);
 8005052:	2200      	movs	r2, #0
 8005054:	18c3      	adds	r3, r0, r3
 8005056:	77da      	strb	r2, [r3, #31]
    if (hdma->XferErrorCallback != NULL)
 8005058:	6b03      	ldr	r3, [r0, #48]	@ 0x30
 800505a:	e7e5      	b.n	8005028 <HAL_DMA_IRQHandler+0x5e>

0800505c <FLASH_SetErrorCode>:
  */
static void FLASH_SetErrorCode(void)
{
  uint32_t flags = 0U;
  
  if(__HAL_FLASH_GET_FLAG(FLASH_FLAG_WRPERR))
 800505c:	4a0c      	ldr	r2, [pc, #48]	@ (8005090 <FLASH_SetErrorCode+0x34>)
 800505e:	2110      	movs	r1, #16
 8005060:	68d0      	ldr	r0, [r2, #12]
{
 8005062:	b530      	push	{r4, r5, lr}
  if(__HAL_FLASH_GET_FLAG(FLASH_FLAG_WRPERR))
 8005064:	0003      	movs	r3, r0
 8005066:	400b      	ands	r3, r1
 8005068:	4208      	tst	r0, r1
 800506a:	d005      	beq.n	8005078 <FLASH_SetErrorCode+0x1c>
  {
    pFlash.ErrorCode |= HAL_FLASH_ERROR_WRP;
 800506c:	2302      	movs	r3, #2
 800506e:	4809      	ldr	r0, [pc, #36]	@ (8005094 <FLASH_SetErrorCode+0x38>)
 8005070:	69c4      	ldr	r4, [r0, #28]
 8005072:	4323      	orrs	r3, r4
 8005074:	61c3      	str	r3, [r0, #28]
    flags |= FLASH_FLAG_WRPERR;
 8005076:	000b      	movs	r3, r1
  }
  if(__HAL_FLASH_GET_FLAG(FLASH_FLAG_PGERR))
 8005078:	2004      	movs	r0, #4
 800507a:	68d1      	ldr	r1, [r2, #12]
 800507c:	4201      	tst	r1, r0
 800507e:	d005      	beq.n	800508c <FLASH_SetErrorCode+0x30>
  {
    pFlash.ErrorCode |= HAL_FLASH_ERROR_PROG;
 8005080:	2101      	movs	r1, #1
 8005082:	4c04      	ldr	r4, [pc, #16]	@ (8005094 <FLASH_SetErrorCode+0x38>)
    flags |= FLASH_FLAG_PGERR;
 8005084:	4303      	orrs	r3, r0
    pFlash.ErrorCode |= HAL_FLASH_ERROR_PROG;
 8005086:	69e5      	ldr	r5, [r4, #28]
 8005088:	4329      	orrs	r1, r5
 800508a:	61e1      	str	r1, [r4, #28]
  }
  /* Clear FLASH error pending bits */
  __HAL_FLASH_CLEAR_FLAG(flags);
 800508c:	60d3      	str	r3, [r2, #12]
}  
 800508e:	bd30      	pop	{r4, r5, pc}
 8005090:	40022000 	.word	0x40022000
 8005094:	20000800 	.word	0x20000800

08005098 <HAL_FLASH_Unlock>:
  if(READ_BIT(FLASH->CR, FLASH_CR_LOCK) != RESET)
 8005098:	4b06      	ldr	r3, [pc, #24]	@ (80050b4 <HAL_FLASH_Unlock+0x1c>)
  HAL_StatusTypeDef status = HAL_OK;
 800509a:	2000      	movs	r0, #0
  if(READ_BIT(FLASH->CR, FLASH_CR_LOCK) != RESET)
 800509c:	691a      	ldr	r2, [r3, #16]
 800509e:	0612      	lsls	r2, r2, #24
 80050a0:	d506      	bpl.n	80050b0 <HAL_FLASH_Unlock+0x18>
    WRITE_REG(FLASH->KEYR, FLASH_KEY1);
 80050a2:	4a05      	ldr	r2, [pc, #20]	@ (80050b8 <HAL_FLASH_Unlock+0x20>)
 80050a4:	605a      	str	r2, [r3, #4]
    WRITE_REG(FLASH->KEYR, FLASH_KEY2);
 80050a6:	4a05      	ldr	r2, [pc, #20]	@ (80050bc <HAL_FLASH_Unlock+0x24>)
 80050a8:	605a      	str	r2, [r3, #4]
    if(READ_BIT(FLASH->CR, FLASH_CR_LOCK) != RESET)
 80050aa:	6918      	ldr	r0, [r3, #16]
 80050ac:	0600      	lsls	r0, r0, #24
 80050ae:	0fc0      	lsrs	r0, r0, #31
}
 80050b0:	4770      	bx	lr
 80050b2:	46c0      	nop			@ (mov r8, r8)
 80050b4:	40022000 	.word	0x40022000
 80050b8:	45670123 	.word	0x45670123
 80050bc:	cdef89ab 	.word	0xcdef89ab

080050c0 <HAL_FLASH_Lock>:
  SET_BIT(FLASH->CR, FLASH_CR_LOCK);
 80050c0:	2380      	movs	r3, #128	@ 0x80
 80050c2:	4a03      	ldr	r2, [pc, #12]	@ (80050d0 <HAL_FLASH_Lock+0x10>)
}
 80050c4:	2000      	movs	r0, #0
  SET_BIT(FLASH->CR, FLASH_CR_LOCK);
 80050c6:	6911      	ldr	r1, [r2, #16]
 80050c8:	430b      	orrs	r3, r1
 80050ca:	6113      	str	r3, [r2, #16]
}
 80050cc:	4770      	bx	lr
 80050ce:	46c0      	nop			@ (mov r8, r8)
 80050d0:	40022000 	.word	0x40022000

080050d4 <FLASH_WaitForLastOperation>:
{
 80050d4:	b570      	push	{r4, r5, r6, lr}
 80050d6:	0004      	movs	r4, r0
  uint32_t tickstart = HAL_GetTick();
 80050d8:	f7ff fb0e 	bl	80046f8 <HAL_GetTick>
  while(__HAL_FLASH_GET_FLAG(FLASH_FLAG_BSY)) 
 80050dc:	2601      	movs	r6, #1
  uint32_t tickstart = HAL_GetTick();
 80050de:	0005      	movs	r5, r0
  while(__HAL_FLASH_GET_FLAG(FLASH_FLAG_BSY)) 
 80050e0:	4b10      	ldr	r3, [pc, #64]	@ (8005124 <FLASH_WaitForLastOperation+0x50>)
 80050e2:	68da      	ldr	r2, [r3, #12]
 80050e4:	4232      	tst	r2, r6
 80050e6:	d111      	bne.n	800510c <FLASH_WaitForLastOperation+0x38>
  if (__HAL_FLASH_GET_FLAG(FLASH_FLAG_EOP))
 80050e8:	2220      	movs	r2, #32
 80050ea:	68d9      	ldr	r1, [r3, #12]
 80050ec:	4211      	tst	r1, r2
 80050ee:	d000      	beq.n	80050f2 <FLASH_WaitForLastOperation+0x1e>
    __HAL_FLASH_CLEAR_FLAG(FLASH_FLAG_EOP);
 80050f0:	60da      	str	r2, [r3, #12]
  if(__HAL_FLASH_GET_FLAG(FLASH_FLAG_WRPERR)  || 
 80050f2:	68d9      	ldr	r1, [r3, #12]
 80050f4:	2210      	movs	r2, #16
 80050f6:	0008      	movs	r0, r1
 80050f8:	4010      	ands	r0, r2
 80050fa:	4211      	tst	r1, r2
 80050fc:	d102      	bne.n	8005104 <FLASH_WaitForLastOperation+0x30>
     __HAL_FLASH_GET_FLAG(FLASH_FLAG_PGERR))
 80050fe:	68db      	ldr	r3, [r3, #12]
  if(__HAL_FLASH_GET_FLAG(FLASH_FLAG_WRPERR)  || 
 8005100:	075b      	lsls	r3, r3, #29
 8005102:	d508      	bpl.n	8005116 <FLASH_WaitForLastOperation+0x42>
    FLASH_SetErrorCode();
 8005104:	f7ff ffaa 	bl	800505c <FLASH_SetErrorCode>
    return HAL_ERROR;
 8005108:	2001      	movs	r0, #1
 800510a:	e004      	b.n	8005116 <FLASH_WaitForLastOperation+0x42>
    if (Timeout != HAL_MAX_DELAY)
 800510c:	1c62      	adds	r2, r4, #1
 800510e:	d0e8      	beq.n	80050e2 <FLASH_WaitForLastOperation+0xe>
      if((Timeout == 0U) || ((HAL_GetTick()-tickstart) > Timeout))
 8005110:	2c00      	cmp	r4, #0
 8005112:	d101      	bne.n	8005118 <FLASH_WaitForLastOperation+0x44>
        return HAL_TIMEOUT;
 8005114:	2003      	movs	r0, #3
}
 8005116:	bd70      	pop	{r4, r5, r6, pc}
      if((Timeout == 0U) || ((HAL_GetTick()-tickstart) > Timeout))
 8005118:	f7ff faee 	bl	80046f8 <HAL_GetTick>
 800511c:	1b40      	subs	r0, r0, r5
 800511e:	42a0      	cmp	r0, r4
 8005120:	d9de      	bls.n	80050e0 <FLASH_WaitForLastOperation+0xc>
 8005122:	e7f7      	b.n	8005114 <FLASH_WaitForLastOperation+0x40>
 8005124:	40022000 	.word	0x40022000

08005128 <HAL_FLASH_Program>:
{
 8005128:	b5f0      	push	{r4, r5, r6, r7, lr}
 800512a:	b085      	sub	sp, #20
 800512c:	9303      	str	r3, [sp, #12]
  __HAL_LOCK(&pFlash);
 800512e:	4b1e      	ldr	r3, [pc, #120]	@ (80051a8 <HAL_FLASH_Program+0x80>)
{
 8005130:	9100      	str	r1, [sp, #0]
 8005132:	9202      	str	r2, [sp, #8]
  __HAL_LOCK(&pFlash);
 8005134:	7e1a      	ldrb	r2, [r3, #24]
{
 8005136:	0004      	movs	r4, r0
  __HAL_LOCK(&pFlash);
 8005138:	2002      	movs	r0, #2
 800513a:	2a01      	cmp	r2, #1
 800513c:	d031      	beq.n	80051a2 <HAL_FLASH_Program+0x7a>
 800513e:	2201      	movs	r2, #1
    status = FLASH_WaitForLastOperation(FLASH_TIMEOUT_VALUE);
 8005140:	481a      	ldr	r0, [pc, #104]	@ (80051ac <HAL_FLASH_Program+0x84>)
  __HAL_LOCK(&pFlash);
 8005142:	761a      	strb	r2, [r3, #24]
    status = FLASH_WaitForLastOperation(FLASH_TIMEOUT_VALUE);
 8005144:	f7ff ffc6 	bl	80050d4 <FLASH_WaitForLastOperation>
  if(status == HAL_OK)
 8005148:	2800      	cmp	r0, #0
 800514a:	d127      	bne.n	800519c <HAL_FLASH_Program+0x74>
      nbiterations = 1U;
 800514c:	0026      	movs	r6, r4
    if(TypeProgram == FLASH_TYPEPROGRAM_HALFWORD)
 800514e:	2c01      	cmp	r4, #1
 8005150:	d003      	beq.n	800515a <HAL_FLASH_Program+0x32>
      nbiterations = 4U;
 8005152:	2604      	movs	r6, #4
    else if(TypeProgram == FLASH_TYPEPROGRAM_WORD)
 8005154:	2c02      	cmp	r4, #2
 8005156:	d100      	bne.n	800515a <HAL_FLASH_Program+0x32>
      nbiterations = 2U;
 8005158:	0026      	movs	r6, r4
      nbiterations = 4U;
 800515a:	2400      	movs	r4, #0
  pFlash.ErrorCode = HAL_FLASH_ERROR_NONE;
 800515c:	4b12      	ldr	r3, [pc, #72]	@ (80051a8 <HAL_FLASH_Program+0x80>)
 800515e:	9301      	str	r3, [sp, #4]
      FLASH_Program_HalfWord((Address + (2U*index)), (uint16_t)(Data >> (16U*index)));
 8005160:	9802      	ldr	r0, [sp, #8]
 8005162:	9903      	ldr	r1, [sp, #12]
 8005164:	0122      	lsls	r2, r4, #4
 8005166:	f7fb f961 	bl	800042c <__aeabi_llsr>
  pFlash.ErrorCode = HAL_FLASH_ERROR_NONE;
 800516a:	2200      	movs	r2, #0
    SET_BIT(FLASH->CR, FLASH_CR_PG);
 800516c:	2701      	movs	r7, #1
  pFlash.ErrorCode = HAL_FLASH_ERROR_NONE;
 800516e:	9b01      	ldr	r3, [sp, #4]
    SET_BIT(FLASH->CR, FLASH_CR_PG);
 8005170:	4d0f      	ldr	r5, [pc, #60]	@ (80051b0 <HAL_FLASH_Program+0x88>)
  pFlash.ErrorCode = HAL_FLASH_ERROR_NONE;
 8005172:	61da      	str	r2, [r3, #28]
    SET_BIT(FLASH->CR, FLASH_CR_PG);
 8005174:	692b      	ldr	r3, [r5, #16]
  *(__IO uint16_t*)Address = Data;
 8005176:	9a00      	ldr	r2, [sp, #0]
    SET_BIT(FLASH->CR, FLASH_CR_PG);
 8005178:	433b      	orrs	r3, r7
 800517a:	612b      	str	r3, [r5, #16]
  *(__IO uint16_t*)Address = Data;
 800517c:	0063      	lsls	r3, r4, #1
 800517e:	189b      	adds	r3, r3, r2
      FLASH_Program_HalfWord((Address + (2U*index)), (uint16_t)(Data >> (16U*index)));
 8005180:	b280      	uxth	r0, r0
  *(__IO uint16_t*)Address = Data;
 8005182:	8018      	strh	r0, [r3, #0]
        status = FLASH_WaitForLastOperation(FLASH_TIMEOUT_VALUE);
 8005184:	4809      	ldr	r0, [pc, #36]	@ (80051ac <HAL_FLASH_Program+0x84>)
 8005186:	f7ff ffa5 	bl	80050d4 <FLASH_WaitForLastOperation>
        CLEAR_BIT(FLASH->CR, FLASH_CR_PG);
 800518a:	692b      	ldr	r3, [r5, #16]
 800518c:	43bb      	bics	r3, r7
 800518e:	612b      	str	r3, [r5, #16]
      if (status != HAL_OK)
 8005190:	2800      	cmp	r0, #0
 8005192:	d103      	bne.n	800519c <HAL_FLASH_Program+0x74>
    for (index = 0U; index < nbiterations; index++)
 8005194:	19e4      	adds	r4, r4, r7
 8005196:	b2e3      	uxtb	r3, r4
 8005198:	429e      	cmp	r6, r3
 800519a:	d8e1      	bhi.n	8005160 <HAL_FLASH_Program+0x38>
  __HAL_UNLOCK(&pFlash);
 800519c:	2200      	movs	r2, #0
 800519e:	4b02      	ldr	r3, [pc, #8]	@ (80051a8 <HAL_FLASH_Program+0x80>)
 80051a0:	761a      	strb	r2, [r3, #24]
}
 80051a2:	b005      	add	sp, #20
 80051a4:	bdf0      	pop	{r4, r5, r6, r7, pc}
 80051a6:	46c0      	nop			@ (mov r8, r8)
 80051a8:	20000800 	.word	0x20000800
 80051ac:	0000c350 	.word	0x0000c350
 80051b0:	40022000 	.word	0x40022000

080051b4 <FLASH_MassErase>:
  * @retval None
  */
static void FLASH_MassErase(void)
{
  /* Clean the error context */
  pFlash.ErrorCode = HAL_FLASH_ERROR_NONE;
 80051b4:	2200      	movs	r2, #0
 80051b6:	4b06      	ldr	r3, [pc, #24]	@ (80051d0 <FLASH_MassErase+0x1c>)
 80051b8:	61da      	str	r2, [r3, #28]

    /* Only bank1 will be erased*/
    SET_BIT(FLASH->CR, FLASH_CR_MER);
 80051ba:	4b06      	ldr	r3, [pc, #24]	@ (80051d4 <FLASH_MassErase+0x20>)
 80051bc:	3204      	adds	r2, #4
 80051be:	6919      	ldr	r1, [r3, #16]
 80051c0:	430a      	orrs	r2, r1
 80051c2:	611a      	str	r2, [r3, #16]
    SET_BIT(FLASH->CR, FLASH_CR_STRT);
 80051c4:	2240      	movs	r2, #64	@ 0x40
 80051c6:	6919      	ldr	r1, [r3, #16]
 80051c8:	430a      	orrs	r2, r1
 80051ca:	611a      	str	r2, [r3, #16]
}
 80051cc:	4770      	bx	lr
 80051ce:	46c0      	nop			@ (mov r8, r8)
 80051d0:	20000800 	.word	0x20000800
 80051d4:	40022000 	.word	0x40022000

080051d8 <FLASH_PageErase>:
  * @retval None
  */
void FLASH_PageErase(uint32_t PageAddress)
{
  /* Clean the error context */
  pFlash.ErrorCode = HAL_FLASH_ERROR_NONE;
 80051d8:	2200      	movs	r2, #0
 80051da:	4b06      	ldr	r3, [pc, #24]	@ (80051f4 <FLASH_PageErase+0x1c>)
 80051dc:	61da      	str	r2, [r3, #28]

    /* Proceed to erase the page */
    SET_BIT(FLASH->CR, FLASH_CR_PER);
 80051de:	4b06      	ldr	r3, [pc, #24]	@ (80051f8 <FLASH_PageErase+0x20>)
 80051e0:	3202      	adds	r2, #2
 80051e2:	6919      	ldr	r1, [r3, #16]
 80051e4:	430a      	orrs	r2, r1
 80051e6:	611a      	str	r2, [r3, #16]
    WRITE_REG(FLASH->AR, PageAddress);
    SET_BIT(FLASH->CR, FLASH_CR_STRT);
 80051e8:	2240      	movs	r2, #64	@ 0x40
    WRITE_REG(FLASH->AR, PageAddress);
 80051ea:	6158      	str	r0, [r3, #20]
    SET_BIT(FLASH->CR, FLASH_CR_STRT);
 80051ec:	6919      	ldr	r1, [r3, #16]
 80051ee:	430a      	orrs	r2, r1
 80051f0:	611a      	str	r2, [r3, #16]
}
 80051f2:	4770      	bx	lr
 80051f4:	20000800 	.word	0x20000800
 80051f8:	40022000 	.word	0x40022000

080051fc <HAL_FLASHEx_Erase>:
{
 80051fc:	b5f8      	push	{r3, r4, r5, r6, r7, lr}
  __HAL_LOCK(&pFlash);
 80051fe:	4f21      	ldr	r7, [pc, #132]	@ (8005284 <HAL_FLASHEx_Erase+0x88>)
{
 8005200:	0004      	movs	r4, r0
  __HAL_LOCK(&pFlash);
 8005202:	7e3b      	ldrb	r3, [r7, #24]
{
 8005204:	000e      	movs	r6, r1
  __HAL_LOCK(&pFlash);
 8005206:	2002      	movs	r0, #2
 8005208:	2b01      	cmp	r3, #1
 800520a:	d00c      	beq.n	8005226 <HAL_FLASHEx_Erase+0x2a>
 800520c:	2301      	movs	r3, #1
 800520e:	763b      	strb	r3, [r7, #24]
  if (pEraseInit->TypeErase == FLASH_TYPEERASE_MASSERASE)
 8005210:	6823      	ldr	r3, [r4, #0]
      if (FLASH_WaitForLastOperation((uint32_t)FLASH_TIMEOUT_VALUE) == HAL_OK)
 8005212:	481d      	ldr	r0, [pc, #116]	@ (8005288 <HAL_FLASHEx_Erase+0x8c>)
  if (pEraseInit->TypeErase == FLASH_TYPEERASE_MASSERASE)
 8005214:	2b01      	cmp	r3, #1
 8005216:	d112      	bne.n	800523e <HAL_FLASHEx_Erase+0x42>
      if (FLASH_WaitForLastOperation((uint32_t)FLASH_TIMEOUT_VALUE) == HAL_OK)
 8005218:	f7ff ff5c 	bl	80050d4 <FLASH_WaitForLastOperation>
 800521c:	2800      	cmp	r0, #0
 800521e:	d003      	beq.n	8005228 <HAL_FLASHEx_Erase+0x2c>
  HAL_StatusTypeDef status = HAL_ERROR;
 8005220:	2001      	movs	r0, #1
  __HAL_UNLOCK(&pFlash);
 8005222:	2300      	movs	r3, #0
 8005224:	763b      	strb	r3, [r7, #24]
}
 8005226:	bdf8      	pop	{r3, r4, r5, r6, r7, pc}
        FLASH_MassErase();
 8005228:	f7ff ffc4 	bl	80051b4 <FLASH_MassErase>
        status = FLASH_WaitForLastOperation((uint32_t)FLASH_TIMEOUT_VALUE);
 800522c:	4816      	ldr	r0, [pc, #88]	@ (8005288 <HAL_FLASHEx_Erase+0x8c>)
 800522e:	f7ff ff51 	bl	80050d4 <FLASH_WaitForLastOperation>
        CLEAR_BIT(FLASH->CR, FLASH_CR_MER);
 8005232:	2104      	movs	r1, #4
 8005234:	4a15      	ldr	r2, [pc, #84]	@ (800528c <HAL_FLASHEx_Erase+0x90>)
 8005236:	6913      	ldr	r3, [r2, #16]
 8005238:	438b      	bics	r3, r1
 800523a:	6113      	str	r3, [r2, #16]
 800523c:	e7f1      	b.n	8005222 <HAL_FLASHEx_Erase+0x26>
      if (FLASH_WaitForLastOperation((uint32_t)FLASH_TIMEOUT_VALUE) == HAL_OK)
 800523e:	f7ff ff49 	bl	80050d4 <FLASH_WaitForLastOperation>
 8005242:	2800      	cmp	r0, #0
 8005244:	d1ec      	bne.n	8005220 <HAL_FLASHEx_Erase+0x24>
        *PageError = 0xFFFFFFFFU;
 8005246:	2301      	movs	r3, #1
 8005248:	425b      	negs	r3, r3
 800524a:	6033      	str	r3, [r6, #0]
        for(address = pEraseInit->PageAddress;
 800524c:	6865      	ldr	r5, [r4, #4]
  HAL_StatusTypeDef status = HAL_ERROR;
 800524e:	3001      	adds	r0, #1
            address < ((pEraseInit->NbPages * FLASH_PAGE_SIZE) + pEraseInit->PageAddress);
 8005250:	68a3      	ldr	r3, [r4, #8]
 8005252:	6862      	ldr	r2, [r4, #4]
 8005254:	029b      	lsls	r3, r3, #10
 8005256:	189b      	adds	r3, r3, r2
 8005258:	42ab      	cmp	r3, r5
 800525a:	d9e2      	bls.n	8005222 <HAL_FLASHEx_Erase+0x26>
          FLASH_PageErase(address);
 800525c:	0028      	movs	r0, r5
 800525e:	f7ff ffbb 	bl	80051d8 <FLASH_PageErase>
          status = FLASH_WaitForLastOperation((uint32_t)FLASH_TIMEOUT_VALUE);
 8005262:	4809      	ldr	r0, [pc, #36]	@ (8005288 <HAL_FLASHEx_Erase+0x8c>)
 8005264:	f7ff ff36 	bl	80050d4 <FLASH_WaitForLastOperation>
          CLEAR_BIT(FLASH->CR, FLASH_CR_PER);
 8005268:	2102      	movs	r1, #2
 800526a:	4a08      	ldr	r2, [pc, #32]	@ (800528c <HAL_FLASHEx_Erase+0x90>)
 800526c:	6913      	ldr	r3, [r2, #16]
 800526e:	438b      	bics	r3, r1
 8005270:	6113      	str	r3, [r2, #16]
          if (status != HAL_OK)
 8005272:	2800      	cmp	r0, #0
 8005274:	d001      	beq.n	800527a <HAL_FLASHEx_Erase+0x7e>
            *PageError = address;
 8005276:	6035      	str	r5, [r6, #0]
            break;
 8005278:	e7d3      	b.n	8005222 <HAL_FLASHEx_Erase+0x26>
            address += FLASH_PAGE_SIZE)
 800527a:	2380      	movs	r3, #128	@ 0x80
 800527c:	00db      	lsls	r3, r3, #3
 800527e:	18ed      	adds	r5, r5, r3
 8005280:	e7e6      	b.n	8005250 <HAL_FLASHEx_Erase+0x54>
 8005282:	46c0      	nop			@ (mov r8, r8)
 8005284:	20000800 	.word	0x20000800
 8005288:	0000c350 	.word	0x0000c350
 800528c:	40022000 	.word	0x40022000

08005290 <HAL_GPIO_Init>:
  *         the configuration information for the specified GPIO peripheral.
  * @retval None
  */
void HAL_GPIO_Init(GPIO_TypeDef  *GPIOx, GPIO_InitTypeDef *GPIO_Init)
{
  uint32_t position = 0x00u;
 8005290:	2300      	movs	r3, #0
{
 8005292:	b5f0      	push	{r4, r5, r6, r7, lr}
 8005294:	b087      	sub	sp, #28
  assert_param(IS_GPIO_ALL_INSTANCE(GPIOx));
  assert_param(IS_GPIO_PIN(GPIO_Init->Pin));
  assert_param(IS_GPIO_MODE(GPIO_Init->Mode));

  /* Configure the port pins */
  while (((GPIO_Init->Pin) >> position) != 0x00u)
 8005296:	680a      	ldr	r2, [r1, #0]
 8005298:	0014      	movs	r4, r2
 800529a:	40dc      	lsrs	r4, r3
 800529c:	d101      	bne.n	80052a2 <HAL_GPIO_Init+0x12>
      }
    }

    position++;
  } 
}
 800529e:	b007      	add	sp, #28
 80052a0:	bdf0      	pop	{r4, r5, r6, r7, pc}
    iocurrent = (GPIO_Init->Pin) & (1uL << position);
 80052a2:	2501      	movs	r5, #1
 80052a4:	0014      	movs	r4, r2
 80052a6:	409d      	lsls	r5, r3
 80052a8:	402c      	ands	r4, r5
 80052aa:	9400      	str	r4, [sp, #0]
    if (iocurrent != 0x00u)
 80052ac:	422a      	tst	r2, r5
 80052ae:	d100      	bne.n	80052b2 <HAL_GPIO_Init+0x22>
 80052b0:	e098      	b.n	80053e4 <HAL_GPIO_Init+0x154>
      if(((GPIO_Init->Mode & GPIO_MODE) == MODE_OUTPUT) ||
 80052b2:	684a      	ldr	r2, [r1, #4]
 80052b4:	005f      	lsls	r7, r3, #1
 80052b6:	4694      	mov	ip, r2
 80052b8:	2203      	movs	r2, #3
 80052ba:	4664      	mov	r4, ip
 80052bc:	4022      	ands	r2, r4
        temp &= ~(GPIO_OSPEEDER_OSPEEDR0 << (position * 2u));
 80052be:	2403      	movs	r4, #3
 80052c0:	40bc      	lsls	r4, r7
 80052c2:	43e4      	mvns	r4, r4
 80052c4:	9401      	str	r4, [sp, #4]
      if(((GPIO_Init->Mode & GPIO_MODE) == MODE_OUTPUT) ||
 80052c6:	1e54      	subs	r4, r2, #1
 80052c8:	2c01      	cmp	r4, #1
 80052ca:	d82e      	bhi.n	800532a <HAL_GPIO_Init+0x9a>
        temp = GPIOx->OSPEEDR;
 80052cc:	6886      	ldr	r6, [r0, #8]
        temp &= ~(GPIO_OSPEEDER_OSPEEDR0 << (position * 2u));
 80052ce:	9c01      	ldr	r4, [sp, #4]
 80052d0:	4026      	ands	r6, r4
        temp |= (GPIO_Init->Speed << (position * 2u));
 80052d2:	68cc      	ldr	r4, [r1, #12]
 80052d4:	40bc      	lsls	r4, r7
 80052d6:	4334      	orrs	r4, r6
        GPIOx->OSPEEDR = temp;
 80052d8:	6084      	str	r4, [r0, #8]
        temp = GPIOx->OTYPER;
 80052da:	6844      	ldr	r4, [r0, #4]
        temp |= (((GPIO_Init->Mode & OUTPUT_TYPE) >> OUTPUT_TYPE_Pos) << position);
 80052dc:	2601      	movs	r6, #1
        temp &= ~(GPIO_OTYPER_OT_0 << position) ;
 80052de:	43ac      	bics	r4, r5
 80052e0:	0025      	movs	r5, r4
        temp |= (((GPIO_Init->Mode & OUTPUT_TYPE) >> OUTPUT_TYPE_Pos) << position);
 80052e2:	4664      	mov	r4, ip
 80052e4:	0924      	lsrs	r4, r4, #4
 80052e6:	4034      	ands	r4, r6
 80052e8:	409c      	lsls	r4, r3
 80052ea:	432c      	orrs	r4, r5
        GPIOx->OTYPER = temp;
 80052ec:	6044      	str	r4, [r0, #4]
        temp = GPIOx->PUPDR;
 80052ee:	68c5      	ldr	r5, [r0, #12]
        temp &= ~(GPIO_PUPDR_PUPDR0 << (position * 2u));
 80052f0:	9c01      	ldr	r4, [sp, #4]
 80052f2:	4025      	ands	r5, r4
        temp |= ((GPIO_Init->Pull) << (position * 2u));
 80052f4:	688c      	ldr	r4, [r1, #8]
 80052f6:	40bc      	lsls	r4, r7
 80052f8:	432c      	orrs	r4, r5
        GPIOx->PUPDR = temp;
 80052fa:	60c4      	str	r4, [r0, #12]
      if((GPIO_Init->Mode & GPIO_MODE) == MODE_AF)
 80052fc:	2a02      	cmp	r2, #2
 80052fe:	d116      	bne.n	800532e <HAL_GPIO_Init+0x9e>
        temp &= ~(0xFu << ((position & 0x07u) * 4u));
 8005300:	2507      	movs	r5, #7
 8005302:	260f      	movs	r6, #15
 8005304:	401d      	ands	r5, r3
 8005306:	00ad      	lsls	r5, r5, #2
 8005308:	40ae      	lsls	r6, r5
        temp = GPIOx->AFR[position >> 3u];
 800530a:	08dc      	lsrs	r4, r3, #3
 800530c:	00a4      	lsls	r4, r4, #2
 800530e:	1904      	adds	r4, r0, r4
 8005310:	9402      	str	r4, [sp, #8]
 8005312:	6a24      	ldr	r4, [r4, #32]
        temp &= ~(0xFu << ((position & 0x07u) * 4u));
 8005314:	9603      	str	r6, [sp, #12]
 8005316:	0026      	movs	r6, r4
 8005318:	9c03      	ldr	r4, [sp, #12]
 800531a:	43a6      	bics	r6, r4
 800531c:	0034      	movs	r4, r6
        temp |= ((GPIO_Init->Alternate) << ((position & 0x07u) * 4u));
 800531e:	690e      	ldr	r6, [r1, #16]
 8005320:	40ae      	lsls	r6, r5
 8005322:	4326      	orrs	r6, r4
        GPIOx->AFR[position >> 3u] = temp;
 8005324:	9c02      	ldr	r4, [sp, #8]
 8005326:	6226      	str	r6, [r4, #32]
 8005328:	e001      	b.n	800532e <HAL_GPIO_Init+0x9e>
      if((GPIO_Init->Mode & GPIO_MODE) != MODE_ANALOG)
 800532a:	2a03      	cmp	r2, #3
 800532c:	d1df      	bne.n	80052ee <HAL_GPIO_Init+0x5e>
      temp |= ((GPIO_Init->Mode & GPIO_MODE) << (position * 2u));
 800532e:	40ba      	lsls	r2, r7
      temp = GPIOx->MODER;
 8005330:	6804      	ldr	r4, [r0, #0]
      temp &= ~(GPIO_MODER_MODER0 << (position * 2u));
 8005332:	9d01      	ldr	r5, [sp, #4]
 8005334:	4025      	ands	r5, r4
      temp |= ((GPIO_Init->Mode & GPIO_MODE) << (position * 2u));
 8005336:	432a      	orrs	r2, r5
      if((GPIO_Init->Mode & EXTI_MODE) != 0x00u)
 8005338:	24c0      	movs	r4, #192	@ 0xc0
      GPIOx->MODER = temp;
 800533a:	6002      	str	r2, [r0, #0]
      if((GPIO_Init->Mode & EXTI_MODE) != 0x00u)
 800533c:	4662      	mov	r2, ip
 800533e:	02a4      	lsls	r4, r4, #10
 8005340:	4222      	tst	r2, r4
 8005342:	d04f      	beq.n	80053e4 <HAL_GPIO_Init+0x154>
        __HAL_RCC_SYSCFG_CLK_ENABLE();
 8005344:	2501      	movs	r5, #1
 8005346:	4a28      	ldr	r2, [pc, #160]	@ (80053e8 <HAL_GPIO_Init+0x158>)
        temp |= (GPIO_GET_INDEX(GPIOx) << (4u * (position & 0x03u)));
 8005348:	2790      	movs	r7, #144	@ 0x90
        __HAL_RCC_SYSCFG_CLK_ENABLE();
 800534a:	6994      	ldr	r4, [r2, #24]
        temp |= (GPIO_GET_INDEX(GPIOx) << (4u * (position & 0x03u)));
 800534c:	05ff      	lsls	r7, r7, #23
        __HAL_RCC_SYSCFG_CLK_ENABLE();
 800534e:	432c      	orrs	r4, r5
 8005350:	6194      	str	r4, [r2, #24]
 8005352:	6992      	ldr	r2, [r2, #24]
        temp = SYSCFG->EXTICR[position >> 2u];
 8005354:	089c      	lsrs	r4, r3, #2
        __HAL_RCC_SYSCFG_CLK_ENABLE();
 8005356:	402a      	ands	r2, r5
 8005358:	9205      	str	r2, [sp, #20]
 800535a:	9a05      	ldr	r2, [sp, #20]
        temp = SYSCFG->EXTICR[position >> 2u];
 800535c:	4a23      	ldr	r2, [pc, #140]	@ (80053ec <HAL_GPIO_Init+0x15c>)
 800535e:	00a4      	lsls	r4, r4, #2
 8005360:	18a4      	adds	r4, r4, r2
        temp &= ~(0x0FuL << (4u * (position & 0x03u)));
 8005362:	220f      	movs	r2, #15
 8005364:	3502      	adds	r5, #2
 8005366:	401d      	ands	r5, r3
 8005368:	00ad      	lsls	r5, r5, #2
 800536a:	40aa      	lsls	r2, r5
        temp = SYSCFG->EXTICR[position >> 2u];
 800536c:	68a6      	ldr	r6, [r4, #8]
        temp &= ~(0x0FuL << (4u * (position & 0x03u)));
 800536e:	4396      	bics	r6, r2
        temp |= (GPIO_GET_INDEX(GPIOx) << (4u * (position & 0x03u)));
 8005370:	2200      	movs	r2, #0
 8005372:	42b8      	cmp	r0, r7
 8005374:	d00c      	beq.n	8005390 <HAL_GPIO_Init+0x100>
 8005376:	4f1e      	ldr	r7, [pc, #120]	@ (80053f0 <HAL_GPIO_Init+0x160>)
 8005378:	3201      	adds	r2, #1
 800537a:	42b8      	cmp	r0, r7
 800537c:	d008      	beq.n	8005390 <HAL_GPIO_Init+0x100>
 800537e:	4f1d      	ldr	r7, [pc, #116]	@ (80053f4 <HAL_GPIO_Init+0x164>)
 8005380:	3201      	adds	r2, #1
 8005382:	42b8      	cmp	r0, r7
 8005384:	d004      	beq.n	8005390 <HAL_GPIO_Init+0x100>
 8005386:	4f1c      	ldr	r7, [pc, #112]	@ (80053f8 <HAL_GPIO_Init+0x168>)
 8005388:	3203      	adds	r2, #3
 800538a:	42b8      	cmp	r0, r7
 800538c:	d100      	bne.n	8005390 <HAL_GPIO_Init+0x100>
 800538e:	3a02      	subs	r2, #2
 8005390:	40aa      	lsls	r2, r5
        if((GPIO_Init->Mode & TRIGGER_RISING) != 0x00u)
 8005392:	4667      	mov	r7, ip
        temp |= (GPIO_GET_INDEX(GPIOx) << (4u * (position & 0x03u)));
 8005394:	4332      	orrs	r2, r6
        SYSCFG->EXTICR[position >> 2u] = temp;
 8005396:	60a2      	str	r2, [r4, #8]
        temp = EXTI->RTSR;
 8005398:	4a18      	ldr	r2, [pc, #96]	@ (80053fc <HAL_GPIO_Init+0x16c>)
        temp &= ~(iocurrent);
 800539a:	9c00      	ldr	r4, [sp, #0]
        temp = EXTI->RTSR;
 800539c:	6896      	ldr	r6, [r2, #8]
          temp |= iocurrent;
 800539e:	9d00      	ldr	r5, [sp, #0]
        temp &= ~(iocurrent);
 80053a0:	43e4      	mvns	r4, r4
          temp |= iocurrent;
 80053a2:	4335      	orrs	r5, r6
        if((GPIO_Init->Mode & TRIGGER_RISING) != 0x00u)
 80053a4:	02ff      	lsls	r7, r7, #11
 80053a6:	d401      	bmi.n	80053ac <HAL_GPIO_Init+0x11c>
        temp &= ~(iocurrent);
 80053a8:	0035      	movs	r5, r6
 80053aa:	4025      	ands	r5, r4
        if((GPIO_Init->Mode & TRIGGER_FALLING) != 0x00u)
 80053ac:	4667      	mov	r7, ip
        EXTI->RTSR = temp;
 80053ae:	6095      	str	r5, [r2, #8]
        temp = EXTI->FTSR;
 80053b0:	68d6      	ldr	r6, [r2, #12]
          temp |= iocurrent;
 80053b2:	9d00      	ldr	r5, [sp, #0]
 80053b4:	4335      	orrs	r5, r6
        if((GPIO_Init->Mode & TRIGGER_FALLING) != 0x00u)
 80053b6:	02bf      	lsls	r7, r7, #10
 80053b8:	d401      	bmi.n	80053be <HAL_GPIO_Init+0x12e>
        temp &= ~(iocurrent);
 80053ba:	0035      	movs	r5, r6
 80053bc:	4025      	ands	r5, r4
        if((GPIO_Init->Mode & EXTI_EVT) != 0x00u)
 80053be:	4667      	mov	r7, ip
        EXTI->FTSR = temp;
 80053c0:	60d5      	str	r5, [r2, #12]
        temp = EXTI->EMR;
 80053c2:	6856      	ldr	r6, [r2, #4]
          temp |= iocurrent;
 80053c4:	9d00      	ldr	r5, [sp, #0]
 80053c6:	4335      	orrs	r5, r6
        if((GPIO_Init->Mode & EXTI_EVT) != 0x00u)
 80053c8:	03bf      	lsls	r7, r7, #14
 80053ca:	d401      	bmi.n	80053d0 <HAL_GPIO_Init+0x140>
        temp &= ~(iocurrent);
 80053cc:	0035      	movs	r5, r6
 80053ce:	4025      	ands	r5, r4
        if((GPIO_Init->Mode & EXTI_IT) != 0x00u)
 80053d0:	4667      	mov	r7, ip
        EXTI->EMR = temp;
 80053d2:	6055      	str	r5, [r2, #4]
        temp = EXTI->IMR;
 80053d4:	6815      	ldr	r5, [r2, #0]
          temp |= iocurrent;
 80053d6:	9e00      	ldr	r6, [sp, #0]
 80053d8:	432e      	orrs	r6, r5
        if((GPIO_Init->Mode & EXTI_IT) != 0x00u)
 80053da:	03ff      	lsls	r7, r7, #15
 80053dc:	d401      	bmi.n	80053e2 <HAL_GPIO_Init+0x152>
        temp &= ~(iocurrent);
 80053de:	4025      	ands	r5, r4
 80053e0:	002e      	movs	r6, r5
        EXTI->IMR = temp;
 80053e2:	6016      	str	r6, [r2, #0]
    position++;
 80053e4:	3301      	adds	r3, #1
 80053e6:	e756      	b.n	8005296 <HAL_GPIO_Init+0x6>
 80053e8:	40021000 	.word	0x40021000
 80053ec:	40010000 	.word	0x40010000
 80053f0:	48000400 	.word	0x48000400
 80053f4:	48000800 	.word	0x48000800
 80053f8:	48000c00 	.word	0x48000c00
 80053fc:	40010400 	.word	0x40010400

08005400 <HAL_GPIO_ReadPin>:
  GPIO_PinState bitstatus;

  /* Check the parameters */
  assert_param(IS_GPIO_PIN(GPIO_Pin));

  if ((GPIOx->IDR & GPIO_Pin) != (uint32_t)GPIO_PIN_RESET)
 8005400:	6900      	ldr	r0, [r0, #16]
 8005402:	4008      	ands	r0, r1
 8005404:	1e43      	subs	r3, r0, #1
 8005406:	4198      	sbcs	r0, r3
  }
  else
  {
    bitstatus = GPIO_PIN_RESET;
  }
  return bitstatus;
 8005408:	b2c0      	uxtb	r0, r0
  }
 800540a:	4770      	bx	lr

0800540c <HAL_GPIO_WritePin>:
{
  /* Check the parameters */
  assert_param(IS_GPIO_PIN(GPIO_Pin));
  assert_param(IS_GPIO_PIN_ACTION(PinState));

  if (PinState != GPIO_PIN_RESET)
 800540c:	2a00      	cmp	r2, #0
 800540e:	d001      	beq.n	8005414 <HAL_GPIO_WritePin+0x8>
  {
    GPIOx->BSRR = (uint32_t)GPIO_Pin;
 8005410:	6181      	str	r1, [r0, #24]
  }
  else
  {
    GPIOx->BRR = (uint32_t)GPIO_Pin;
  }
}
 8005412:	4770      	bx	lr
    GPIOx->BRR = (uint32_t)GPIO_Pin;
 8005414:	6281      	str	r1, [r0, #40]	@ 0x28
}
 8005416:	e7fc      	b.n	8005412 <HAL_GPIO_WritePin+0x6>

08005418 <HAL_GPIO_EXTI_IRQHandler>:
  * @retval None
  */
void HAL_GPIO_EXTI_IRQHandler(uint16_t GPIO_Pin)
{
  /* EXTI line interrupt detected */
  if(__HAL_GPIO_EXTI_GET_IT(GPIO_Pin) != 0x00u)
 8005418:	4b04      	ldr	r3, [pc, #16]	@ (800542c <HAL_GPIO_EXTI_IRQHandler+0x14>)
{
 800541a:	b510      	push	{r4, lr}
  if(__HAL_GPIO_EXTI_GET_IT(GPIO_Pin) != 0x00u)
 800541c:	695a      	ldr	r2, [r3, #20]
 800541e:	4210      	tst	r0, r2
 8005420:	d002      	beq.n	8005428 <HAL_GPIO_EXTI_IRQHandler+0x10>
  { 
    __HAL_GPIO_EXTI_CLEAR_IT(GPIO_Pin);
 8005422:	6158      	str	r0, [r3, #20]
    HAL_GPIO_EXTI_Callback(GPIO_Pin);
 8005424:	f7fe f86c 	bl	8003500 <HAL_GPIO_EXTI_Callback>
  }
}
 8005428:	bd10      	pop	{r4, pc}
 800542a:	46c0      	nop			@ (mov r8, r8)
 800542c:	40010400 	.word	0x40010400

08005430 <I2C_Flush_TXDR>:
  */
static void I2C_Flush_TXDR(I2C_HandleTypeDef *hi2c)
{
  /* If a pending TXIS flag is set */
  /* Write a dummy data in TXDR to clear it */
  if (__HAL_I2C_GET_FLAG(hi2c, I2C_FLAG_TXIS) != RESET)
 8005430:	6803      	ldr	r3, [r0, #0]
 8005432:	699a      	ldr	r2, [r3, #24]
 8005434:	0792      	lsls	r2, r2, #30
 8005436:	d501      	bpl.n	800543c <I2C_Flush_TXDR+0xc>
  {
    hi2c->Instance->TXDR = 0x00U;
 8005438:	2200      	movs	r2, #0
 800543a:	629a      	str	r2, [r3, #40]	@ 0x28
  }

  /* Flush TX register if not empty */
  if (__HAL_I2C_GET_FLAG(hi2c, I2C_FLAG_TXE) == RESET)
 800543c:	2201      	movs	r2, #1
 800543e:	6999      	ldr	r1, [r3, #24]
 8005440:	4211      	tst	r1, r2
 8005442:	d102      	bne.n	800544a <I2C_Flush_TXDR+0x1a>
  {
    __HAL_I2C_CLEAR_FLAG(hi2c, I2C_FLAG_TXE);
 8005444:	6999      	ldr	r1, [r3, #24]
 8005446:	430a      	orrs	r2, r1
 8005448:	619a      	str	r2, [r3, #24]
  }
}
 800544a:	4770      	bx	lr

0800544c <I2C_TransferConfig>:
  *     @arg @ref I2C_GENERATE_START_WRITE Generate Restart for write request.
  * @retval None
  */
static void I2C_TransferConfig(I2C_HandleTypeDef *hi2c, uint16_t DevAddress, uint8_t Size, uint32_t Mode,
                               uint32_t Request)
{
 800544c:	b530      	push	{r4, r5, lr}
 800544e:	9c03      	ldr	r4, [sp, #12]
  uint32_t tmp = ((uint32_t)(((uint32_t)DevAddress & I2C_CR2_SADD) | \
                             (((uint32_t)Size << I2C_CR2_NBYTES_Pos) & I2C_CR2_NBYTES) | \
                             (uint32_t)Mode | (uint32_t)Request) & (~0x80000000U));

  /* update CR2 register */
  MODIFY_REG(hi2c->Instance->CR2, \
 8005450:	6800      	ldr	r0, [r0, #0]
  uint32_t tmp = ((uint32_t)(((uint32_t)DevAddress & I2C_CR2_SADD) | \
 8005452:	4323      	orrs	r3, r4
                             (((uint32_t)Size << I2C_CR2_NBYTES_Pos) & I2C_CR2_NBYTES) | \
 8005454:	0412      	lsls	r2, r2, #16
  uint32_t tmp = ((uint32_t)(((uint32_t)DevAddress & I2C_CR2_SADD) | \
 8005456:	0589      	lsls	r1, r1, #22
 8005458:	431a      	orrs	r2, r3
 800545a:	0d89      	lsrs	r1, r1, #22
  MODIFY_REG(hi2c->Instance->CR2, \
 800545c:	4b05      	ldr	r3, [pc, #20]	@ (8005474 <I2C_TransferConfig+0x28>)
 800545e:	6845      	ldr	r5, [r0, #4]
  uint32_t tmp = ((uint32_t)(((uint32_t)DevAddress & I2C_CR2_SADD) | \
 8005460:	430a      	orrs	r2, r1
  MODIFY_REG(hi2c->Instance->CR2, \
 8005462:	0d64      	lsrs	r4, r4, #21
 8005464:	4323      	orrs	r3, r4
  uint32_t tmp = ((uint32_t)(((uint32_t)DevAddress & I2C_CR2_SADD) | \
 8005466:	0052      	lsls	r2, r2, #1
  MODIFY_REG(hi2c->Instance->CR2, \
 8005468:	439d      	bics	r5, r3
  uint32_t tmp = ((uint32_t)(((uint32_t)DevAddress & I2C_CR2_SADD) | \
 800546a:	0852      	lsrs	r2, r2, #1
  MODIFY_REG(hi2c->Instance->CR2, \
 800546c:	432a      	orrs	r2, r5
 800546e:	6042      	str	r2, [r0, #4]
             ((I2C_CR2_SADD | I2C_CR2_NBYTES | I2C_CR2_RELOAD | I2C_CR2_AUTOEND | \
               (I2C_CR2_RD_WRN & (uint32_t)(Request >> (31U - I2C_CR2_RD_WRN_Pos))) | \
               I2C_CR2_START | I2C_CR2_STOP)), tmp);
}
 8005470:	bd30      	pop	{r4, r5, pc}
 8005472:	46c0      	nop			@ (mov r8, r8)
 8005474:	03ff63ff 	.word	0x03ff63ff

08005478 <I2C_IsErrorOccurred>:
{
 8005478:	b5f7      	push	{r0, r1, r2, r4, r5, r6, r7, lr}
 800547a:	0015      	movs	r5, r2
  uint32_t itflag   = hi2c->Instance->ISR;
 800547c:	6802      	ldr	r2, [r0, #0]
{
 800547e:	000e      	movs	r6, r1
  uint32_t itflag   = hi2c->Instance->ISR;
 8005480:	6991      	ldr	r1, [r2, #24]
  if (HAL_IS_BIT_SET(itflag, I2C_FLAG_AF))
 8005482:	2310      	movs	r3, #16
 8005484:	000f      	movs	r7, r1
{
 8005486:	0004      	movs	r4, r0
  if (HAL_IS_BIT_SET(itflag, I2C_FLAG_AF))
 8005488:	401f      	ands	r7, r3
  HAL_StatusTypeDef status = HAL_OK;
 800548a:	2000      	movs	r0, #0
  if (HAL_IS_BIT_SET(itflag, I2C_FLAG_AF))
 800548c:	4219      	tst	r1, r3
 800548e:	d00d      	beq.n	80054ac <I2C_IsErrorOccurred+0x34>
  HAL_StatusTypeDef status = HAL_OK;
 8005490:	0007      	movs	r7, r0
    __HAL_I2C_CLEAR_FLAG(hi2c, I2C_FLAG_AF);
 8005492:	61d3      	str	r3, [r2, #28]
  uint32_t error_code = 0;
 8005494:	9001      	str	r0, [sp, #4]
    while ((__HAL_I2C_GET_FLAG(hi2c, I2C_FLAG_STOPF) == RESET) && (status == HAL_OK))
 8005496:	6823      	ldr	r3, [r4, #0]
 8005498:	2120      	movs	r1, #32
 800549a:	699a      	ldr	r2, [r3, #24]
 800549c:	420a      	tst	r2, r1
 800549e:	d15f      	bne.n	8005560 <I2C_IsErrorOccurred+0xe8>
 80054a0:	2f00      	cmp	r7, #0
 80054a2:	d031      	beq.n	8005508 <I2C_IsErrorOccurred+0x90>
    error_code |= HAL_I2C_ERROR_AF;
 80054a4:	2704      	movs	r7, #4
    status = HAL_ERROR;
 80054a6:	2001      	movs	r0, #1
    error_code |= HAL_I2C_ERROR_AF;
 80054a8:	9b01      	ldr	r3, [sp, #4]
 80054aa:	431f      	orrs	r7, r3
  if (HAL_IS_BIT_SET(itflag, I2C_FLAG_BERR))
 80054ac:	2280      	movs	r2, #128	@ 0x80
  itflag = hi2c->Instance->ISR;
 80054ae:	6825      	ldr	r5, [r4, #0]
  if (HAL_IS_BIT_SET(itflag, I2C_FLAG_BERR))
 80054b0:	0052      	lsls	r2, r2, #1
  itflag = hi2c->Instance->ISR;
 80054b2:	69ab      	ldr	r3, [r5, #24]
  if (HAL_IS_BIT_SET(itflag, I2C_FLAG_BERR))
 80054b4:	4213      	tst	r3, r2
 80054b6:	d002      	beq.n	80054be <I2C_IsErrorOccurred+0x46>
    error_code |= HAL_I2C_ERROR_BERR;
 80054b8:	2001      	movs	r0, #1
    __HAL_I2C_CLEAR_FLAG(hi2c, I2C_FLAG_BERR);
 80054ba:	61ea      	str	r2, [r5, #28]
    error_code |= HAL_I2C_ERROR_BERR;
 80054bc:	4307      	orrs	r7, r0
  if (HAL_IS_BIT_SET(itflag, I2C_FLAG_OVR))
 80054be:	2280      	movs	r2, #128	@ 0x80
 80054c0:	00d2      	lsls	r2, r2, #3
 80054c2:	4213      	tst	r3, r2
 80054c4:	d003      	beq.n	80054ce <I2C_IsErrorOccurred+0x56>
    error_code |= HAL_I2C_ERROR_OVR;
 80054c6:	2108      	movs	r1, #8
    status = HAL_ERROR;
 80054c8:	2001      	movs	r0, #1
    error_code |= HAL_I2C_ERROR_OVR;
 80054ca:	430f      	orrs	r7, r1
    __HAL_I2C_CLEAR_FLAG(hi2c, I2C_FLAG_OVR);
 80054cc:	61ea      	str	r2, [r5, #28]
  if (HAL_IS_BIT_SET(itflag, I2C_FLAG_ARLO))
 80054ce:	2280      	movs	r2, #128	@ 0x80
 80054d0:	0092      	lsls	r2, r2, #2
 80054d2:	4213      	tst	r3, r2
 80054d4:	d049      	beq.n	800556a <I2C_IsErrorOccurred+0xf2>
    error_code |= HAL_I2C_ERROR_ARLO;
 80054d6:	2302      	movs	r3, #2
    __HAL_I2C_CLEAR_FLAG(hi2c, I2C_FLAG_ARLO);
 80054d8:	61ea      	str	r2, [r5, #28]
    error_code |= HAL_I2C_ERROR_ARLO;
 80054da:	431f      	orrs	r7, r3
    I2C_Flush_TXDR(hi2c);
 80054dc:	0020      	movs	r0, r4
 80054de:	f7ff ffa7 	bl	8005430 <I2C_Flush_TXDR>
    I2C_RESET_CR2(hi2c);
 80054e2:	686b      	ldr	r3, [r5, #4]
 80054e4:	4a22      	ldr	r2, [pc, #136]	@ (8005570 <I2C_IsErrorOccurred+0xf8>)
    __HAL_UNLOCK(hi2c);
 80054e6:	2001      	movs	r0, #1
    I2C_RESET_CR2(hi2c);
 80054e8:	4013      	ands	r3, r2
 80054ea:	606b      	str	r3, [r5, #4]
    hi2c->ErrorCode |= error_code;
 80054ec:	6c63      	ldr	r3, [r4, #68]	@ 0x44
    hi2c->State = HAL_I2C_STATE_READY;
 80054ee:	2220      	movs	r2, #32
    hi2c->ErrorCode |= error_code;
 80054f0:	433b      	orrs	r3, r7
 80054f2:	6463      	str	r3, [r4, #68]	@ 0x44
    hi2c->State = HAL_I2C_STATE_READY;
 80054f4:	0023      	movs	r3, r4
 80054f6:	3341      	adds	r3, #65	@ 0x41
 80054f8:	701a      	strb	r2, [r3, #0]
    hi2c->Mode = HAL_I2C_MODE_NONE;
 80054fa:	0022      	movs	r2, r4
 80054fc:	2300      	movs	r3, #0
 80054fe:	3242      	adds	r2, #66	@ 0x42
    __HAL_UNLOCK(hi2c);
 8005500:	3440      	adds	r4, #64	@ 0x40
    hi2c->Mode = HAL_I2C_MODE_NONE;
 8005502:	7013      	strb	r3, [r2, #0]
    __HAL_UNLOCK(hi2c);
 8005504:	7023      	strb	r3, [r4, #0]
 8005506:	e032      	b.n	800556e <I2C_IsErrorOccurred+0xf6>
      if (Timeout != HAL_MAX_DELAY)
 8005508:	1c72      	adds	r2, r6, #1
 800550a:	d0c5      	beq.n	8005498 <I2C_IsErrorOccurred+0x20>
        if (((HAL_GetTick() - tickstart) > Timeout) || (Timeout == 0U))
 800550c:	f7ff f8f4 	bl	80046f8 <HAL_GetTick>
 8005510:	1b40      	subs	r0, r0, r5
 8005512:	42b0      	cmp	r0, r6
 8005514:	d801      	bhi.n	800551a <I2C_IsErrorOccurred+0xa2>
 8005516:	2e00      	cmp	r6, #0
 8005518:	d1bd      	bne.n	8005496 <I2C_IsErrorOccurred+0x1e>
          tmp2 = hi2c->Mode;
 800551a:	0022      	movs	r2, r4
          tmp1 = (uint32_t)(hi2c->Instance->CR2 & I2C_CR2_STOP);
 800551c:	6823      	ldr	r3, [r4, #0]
          tmp2 = hi2c->Mode;
 800551e:	3242      	adds	r2, #66	@ 0x42
          tmp1 = (uint32_t)(hi2c->Instance->CR2 & I2C_CR2_STOP);
 8005520:	6858      	ldr	r0, [r3, #4]
          tmp2 = hi2c->Mode;
 8005522:	7811      	ldrb	r1, [r2, #0]
          if ((__HAL_I2C_GET_FLAG(hi2c, I2C_FLAG_BUSY) != RESET) && \
 8005524:	699a      	ldr	r2, [r3, #24]
          tmp2 = hi2c->Mode;
 8005526:	b2c9      	uxtb	r1, r1
          if ((__HAL_I2C_GET_FLAG(hi2c, I2C_FLAG_BUSY) != RESET) && \
 8005528:	0412      	lsls	r2, r2, #16
 800552a:	d50b      	bpl.n	8005544 <I2C_IsErrorOccurred+0xcc>
          tmp1 = (uint32_t)(hi2c->Instance->CR2 & I2C_CR2_STOP);
 800552c:	2280      	movs	r2, #128	@ 0x80
 800552e:	01d2      	lsls	r2, r2, #7
          if ((__HAL_I2C_GET_FLAG(hi2c, I2C_FLAG_BUSY) != RESET) && \
 8005530:	4210      	tst	r0, r2
 8005532:	d107      	bne.n	8005544 <I2C_IsErrorOccurred+0xcc>
              (tmp1 != I2C_CR2_STOP) && \
 8005534:	2920      	cmp	r1, #32
 8005536:	d005      	beq.n	8005544 <I2C_IsErrorOccurred+0xcc>
            hi2c->Instance->CR2 |= I2C_CR2_STOP;
 8005538:	6859      	ldr	r1, [r3, #4]
 800553a:	430a      	orrs	r2, r1
 800553c:	605a      	str	r2, [r3, #4]
            tickstart = HAL_GetTick();
 800553e:	f7ff f8db 	bl	80046f8 <HAL_GetTick>
 8005542:	0005      	movs	r5, r0
          while (__HAL_I2C_GET_FLAG(hi2c, I2C_FLAG_STOPF) == RESET)
 8005544:	2220      	movs	r2, #32
 8005546:	6823      	ldr	r3, [r4, #0]
 8005548:	699b      	ldr	r3, [r3, #24]
 800554a:	4213      	tst	r3, r2
 800554c:	d1a3      	bne.n	8005496 <I2C_IsErrorOccurred+0x1e>
            if ((HAL_GetTick() - tickstart) > I2C_TIMEOUT_STOPF)
 800554e:	f7ff f8d3 	bl	80046f8 <HAL_GetTick>
 8005552:	1b40      	subs	r0, r0, r5
 8005554:	2819      	cmp	r0, #25
 8005556:	d9f5      	bls.n	8005544 <I2C_IsErrorOccurred+0xcc>
              error_code |= HAL_I2C_ERROR_TIMEOUT;
 8005558:	2320      	movs	r3, #32
              status = HAL_ERROR;
 800555a:	2701      	movs	r7, #1
              error_code |= HAL_I2C_ERROR_TIMEOUT;
 800555c:	9301      	str	r3, [sp, #4]
 800555e:	e79a      	b.n	8005496 <I2C_IsErrorOccurred+0x1e>
    if (status == HAL_OK)
 8005560:	2f00      	cmp	r7, #0
 8005562:	d19f      	bne.n	80054a4 <I2C_IsErrorOccurred+0x2c>
      __HAL_I2C_CLEAR_FLAG(hi2c, I2C_FLAG_STOPF);
 8005564:	2220      	movs	r2, #32
 8005566:	61da      	str	r2, [r3, #28]
 8005568:	e79c      	b.n	80054a4 <I2C_IsErrorOccurred+0x2c>
  if (status != HAL_OK)
 800556a:	2800      	cmp	r0, #0
 800556c:	d1b6      	bne.n	80054dc <I2C_IsErrorOccurred+0x64>
}
 800556e:	bdfe      	pop	{r1, r2, r3, r4, r5, r6, r7, pc}
 8005570:	fe00e800 	.word	0xfe00e800

08005574 <I2C_WaitOnTXISFlagUntilTimeout>:
{
 8005574:	b5f8      	push	{r3, r4, r5, r6, r7, lr}
 8005576:	0004      	movs	r4, r0
 8005578:	000d      	movs	r5, r1
 800557a:	0016      	movs	r6, r2
  while (__HAL_I2C_GET_FLAG(hi2c, I2C_FLAG_TXIS) == RESET)
 800557c:	2702      	movs	r7, #2
 800557e:	6823      	ldr	r3, [r4, #0]
 8005580:	699b      	ldr	r3, [r3, #24]
 8005582:	423b      	tst	r3, r7
 8005584:	d001      	beq.n	800558a <I2C_WaitOnTXISFlagUntilTimeout+0x16>
  return HAL_OK;
 8005586:	2000      	movs	r0, #0
 8005588:	e021      	b.n	80055ce <I2C_WaitOnTXISFlagUntilTimeout+0x5a>
    if (I2C_IsErrorOccurred(hi2c, Timeout, Tickstart) != HAL_OK)
 800558a:	0032      	movs	r2, r6
 800558c:	0029      	movs	r1, r5
 800558e:	0020      	movs	r0, r4
 8005590:	f7ff ff72 	bl	8005478 <I2C_IsErrorOccurred>
 8005594:	2800      	cmp	r0, #0
 8005596:	d119      	bne.n	80055cc <I2C_WaitOnTXISFlagUntilTimeout+0x58>
    if (Timeout != HAL_MAX_DELAY)
 8005598:	1c6b      	adds	r3, r5, #1
 800559a:	d0f0      	beq.n	800557e <I2C_WaitOnTXISFlagUntilTimeout+0xa>
      if (((HAL_GetTick() - Tickstart) > Timeout) || (Timeout == 0U))
 800559c:	f7ff f8ac 	bl	80046f8 <HAL_GetTick>
 80055a0:	1b80      	subs	r0, r0, r6
 80055a2:	42a8      	cmp	r0, r5
 80055a4:	d801      	bhi.n	80055aa <I2C_WaitOnTXISFlagUntilTimeout+0x36>
 80055a6:	2d00      	cmp	r5, #0
 80055a8:	d1e9      	bne.n	800557e <I2C_WaitOnTXISFlagUntilTimeout+0xa>
        if ((__HAL_I2C_GET_FLAG(hi2c, I2C_FLAG_TXIS) == RESET))
 80055aa:	6823      	ldr	r3, [r4, #0]
 80055ac:	6999      	ldr	r1, [r3, #24]
 80055ae:	2302      	movs	r3, #2
 80055b0:	000a      	movs	r2, r1
 80055b2:	401a      	ands	r2, r3
 80055b4:	4219      	tst	r1, r3
 80055b6:	d1e2      	bne.n	800557e <I2C_WaitOnTXISFlagUntilTimeout+0xa>
          hi2c->ErrorCode |= HAL_I2C_ERROR_TIMEOUT;
 80055b8:	2120      	movs	r1, #32
 80055ba:	6c63      	ldr	r3, [r4, #68]	@ 0x44
 80055bc:	430b      	orrs	r3, r1
 80055be:	6463      	str	r3, [r4, #68]	@ 0x44
          hi2c->State = HAL_I2C_STATE_READY;
 80055c0:	0023      	movs	r3, r4
          __HAL_UNLOCK(hi2c);
 80055c2:	3440      	adds	r4, #64	@ 0x40
          hi2c->State = HAL_I2C_STATE_READY;
 80055c4:	3341      	adds	r3, #65	@ 0x41
 80055c6:	7019      	strb	r1, [r3, #0]
          hi2c->Mode = HAL_I2C_MODE_NONE;
 80055c8:	705a      	strb	r2, [r3, #1]
          __HAL_UNLOCK(hi2c);
 80055ca:	7022      	strb	r2, [r4, #0]
      return HAL_ERROR;
 80055cc:	2001      	movs	r0, #1
}
 80055ce:	bdf8      	pop	{r3, r4, r5, r6, r7, pc}

080055d0 <I2C_WaitOnFlagUntilTimeout>:
{
 80055d0:	b5f8      	push	{r3, r4, r5, r6, r7, lr}
 80055d2:	0004      	movs	r4, r0
 80055d4:	000d      	movs	r5, r1
 80055d6:	0017      	movs	r7, r2
 80055d8:	001e      	movs	r6, r3
  while (__HAL_I2C_GET_FLAG(hi2c, Flag) == Status)
 80055da:	6823      	ldr	r3, [r4, #0]
 80055dc:	699b      	ldr	r3, [r3, #24]
 80055de:	402b      	ands	r3, r5
 80055e0:	1b5b      	subs	r3, r3, r5
 80055e2:	425a      	negs	r2, r3
 80055e4:	4153      	adcs	r3, r2
 80055e6:	42bb      	cmp	r3, r7
 80055e8:	d001      	beq.n	80055ee <I2C_WaitOnFlagUntilTimeout+0x1e>
  return HAL_OK;
 80055ea:	2000      	movs	r0, #0
 80055ec:	e026      	b.n	800563c <I2C_WaitOnFlagUntilTimeout+0x6c>
    if (I2C_IsErrorOccurred(hi2c, Timeout, Tickstart) != HAL_OK)
 80055ee:	0031      	movs	r1, r6
 80055f0:	0020      	movs	r0, r4
 80055f2:	9a06      	ldr	r2, [sp, #24]
 80055f4:	f7ff ff40 	bl	8005478 <I2C_IsErrorOccurred>
 80055f8:	2800      	cmp	r0, #0
 80055fa:	d11e      	bne.n	800563a <I2C_WaitOnFlagUntilTimeout+0x6a>
    if (Timeout != HAL_MAX_DELAY)
 80055fc:	1c73      	adds	r3, r6, #1
 80055fe:	d0ec      	beq.n	80055da <I2C_WaitOnFlagUntilTimeout+0xa>
      if (((HAL_GetTick() - Tickstart) > Timeout) || (Timeout == 0U))
 8005600:	f7ff f87a 	bl	80046f8 <HAL_GetTick>
 8005604:	9b06      	ldr	r3, [sp, #24]
 8005606:	1ac0      	subs	r0, r0, r3
 8005608:	42b0      	cmp	r0, r6
 800560a:	d801      	bhi.n	8005610 <I2C_WaitOnFlagUntilTimeout+0x40>
 800560c:	2e00      	cmp	r6, #0
 800560e:	d1e4      	bne.n	80055da <I2C_WaitOnFlagUntilTimeout+0xa>
        if ((__HAL_I2C_GET_FLAG(hi2c, Flag) == Status))
 8005610:	6823      	ldr	r3, [r4, #0]
 8005612:	699b      	ldr	r3, [r3, #24]
 8005614:	402b      	ands	r3, r5
 8005616:	1b5b      	subs	r3, r3, r5
 8005618:	425a      	negs	r2, r3
 800561a:	4153      	adcs	r3, r2
 800561c:	42bb      	cmp	r3, r7
 800561e:	d1dc      	bne.n	80055da <I2C_WaitOnFlagUntilTimeout+0xa>
          hi2c->ErrorCode |= HAL_I2C_ERROR_TIMEOUT;
 8005620:	2220      	movs	r2, #32
 8005622:	6c63      	ldr	r3, [r4, #68]	@ 0x44
 8005624:	4313      	orrs	r3, r2
 8005626:	6463      	str	r3, [r4, #68]	@ 0x44
          hi2c->State = HAL_I2C_STATE_READY;
 8005628:	0023      	movs	r3, r4
 800562a:	3341      	adds	r3, #65	@ 0x41
 800562c:	701a      	strb	r2, [r3, #0]
          hi2c->Mode = HAL_I2C_MODE_NONE;
 800562e:	0022      	movs	r2, r4
 8005630:	2300      	movs	r3, #0
 8005632:	3242      	adds	r2, #66	@ 0x42
          __HAL_UNLOCK(hi2c);
 8005634:	3440      	adds	r4, #64	@ 0x40
          hi2c->Mode = HAL_I2C_MODE_NONE;
 8005636:	7013      	strb	r3, [r2, #0]
          __HAL_UNLOCK(hi2c);
 8005638:	7023      	strb	r3, [r4, #0]
      return HAL_ERROR;
 800563a:	2001      	movs	r0, #1
}
 800563c:	bdf8      	pop	{r3, r4, r5, r6, r7, pc}

0800563e <I2C_WaitOnSTOPFlagUntilTimeout>:
{
 800563e:	b5f8      	push	{r3, r4, r5, r6, r7, lr}
 8005640:	0004      	movs	r4, r0
 8005642:	000e      	movs	r6, r1
 8005644:	0017      	movs	r7, r2
  while (__HAL_I2C_GET_FLAG(hi2c, I2C_FLAG_STOPF) == RESET)
 8005646:	2520      	movs	r5, #32
 8005648:	6823      	ldr	r3, [r4, #0]
 800564a:	699b      	ldr	r3, [r3, #24]
 800564c:	422b      	tst	r3, r5
 800564e:	d001      	beq.n	8005654 <I2C_WaitOnSTOPFlagUntilTimeout+0x16>
  return HAL_OK;
 8005650:	2000      	movs	r0, #0
 8005652:	e01d      	b.n	8005690 <I2C_WaitOnSTOPFlagUntilTimeout+0x52>
    if (I2C_IsErrorOccurred(hi2c, Timeout, Tickstart) != HAL_OK)
 8005654:	003a      	movs	r2, r7
 8005656:	0031      	movs	r1, r6
 8005658:	0020      	movs	r0, r4
 800565a:	f7ff ff0d 	bl	8005478 <I2C_IsErrorOccurred>
 800565e:	2800      	cmp	r0, #0
 8005660:	d115      	bne.n	800568e <I2C_WaitOnSTOPFlagUntilTimeout+0x50>
    if (((HAL_GetTick() - Tickstart) > Timeout) || (Timeout == 0U))
 8005662:	f7ff f849 	bl	80046f8 <HAL_GetTick>
 8005666:	1bc0      	subs	r0, r0, r7
 8005668:	42b0      	cmp	r0, r6
 800566a:	d801      	bhi.n	8005670 <I2C_WaitOnSTOPFlagUntilTimeout+0x32>
 800566c:	2e00      	cmp	r6, #0
 800566e:	d1eb      	bne.n	8005648 <I2C_WaitOnSTOPFlagUntilTimeout+0xa>
      if ((__HAL_I2C_GET_FLAG(hi2c, I2C_FLAG_STOPF) == RESET))
 8005670:	6823      	ldr	r3, [r4, #0]
 8005672:	699b      	ldr	r3, [r3, #24]
 8005674:	001a      	movs	r2, r3
 8005676:	402a      	ands	r2, r5
 8005678:	422b      	tst	r3, r5
 800567a:	d1e5      	bne.n	8005648 <I2C_WaitOnSTOPFlagUntilTimeout+0xa>
        hi2c->ErrorCode |= HAL_I2C_ERROR_TIMEOUT;
 800567c:	6c63      	ldr	r3, [r4, #68]	@ 0x44
 800567e:	432b      	orrs	r3, r5
 8005680:	6463      	str	r3, [r4, #68]	@ 0x44
        hi2c->State = HAL_I2C_STATE_READY;
 8005682:	0023      	movs	r3, r4
        __HAL_UNLOCK(hi2c);
 8005684:	3440      	adds	r4, #64	@ 0x40
        hi2c->State = HAL_I2C_STATE_READY;
 8005686:	3341      	adds	r3, #65	@ 0x41
 8005688:	701d      	strb	r5, [r3, #0]
        hi2c->Mode = HAL_I2C_MODE_NONE;
 800568a:	705a      	strb	r2, [r3, #1]
        __HAL_UNLOCK(hi2c);
 800568c:	7022      	strb	r2, [r4, #0]
      return HAL_ERROR;
 800568e:	2001      	movs	r0, #1
}
 8005690:	bdf8      	pop	{r3, r4, r5, r6, r7, pc}
	...

08005694 <I2C_WaitOnRXNEFlagUntilTimeout>:
{
 8005694:	b5f7      	push	{r0, r1, r2, r4, r5, r6, r7, lr}
 8005696:	0005      	movs	r5, r0
  HAL_StatusTypeDef status = HAL_OK;
 8005698:	2400      	movs	r4, #0
  while ((__HAL_I2C_GET_FLAG(hi2c, I2C_FLAG_RXNE) == RESET) && (status == HAL_OK))
 800569a:	2704      	movs	r7, #4
    if ((__HAL_I2C_GET_FLAG(hi2c, I2C_FLAG_STOPF) == SET) && (status == HAL_OK))
 800569c:	2620      	movs	r6, #32
{
 800569e:	9100      	str	r1, [sp, #0]
 80056a0:	9201      	str	r2, [sp, #4]
  while ((__HAL_I2C_GET_FLAG(hi2c, I2C_FLAG_RXNE) == RESET) && (status == HAL_OK))
 80056a2:	682b      	ldr	r3, [r5, #0]
 80056a4:	699b      	ldr	r3, [r3, #24]
 80056a6:	423b      	tst	r3, r7
 80056a8:	d101      	bne.n	80056ae <I2C_WaitOnRXNEFlagUntilTimeout+0x1a>
 80056aa:	2c00      	cmp	r4, #0
 80056ac:	d001      	beq.n	80056b2 <I2C_WaitOnRXNEFlagUntilTimeout+0x1e>
}
 80056ae:	0020      	movs	r0, r4
 80056b0:	bdfe      	pop	{r1, r2, r3, r4, r5, r6, r7, pc}
    if (I2C_IsErrorOccurred(hi2c, Timeout, Tickstart) != HAL_OK)
 80056b2:	9a01      	ldr	r2, [sp, #4]
 80056b4:	0028      	movs	r0, r5
 80056b6:	9900      	ldr	r1, [sp, #0]
 80056b8:	f7ff fede 	bl	8005478 <I2C_IsErrorOccurred>
    if ((__HAL_I2C_GET_FLAG(hi2c, I2C_FLAG_STOPF) == SET) && (status == HAL_OK))
 80056bc:	682b      	ldr	r3, [r5, #0]
    if (I2C_IsErrorOccurred(hi2c, Timeout, Tickstart) != HAL_OK)
 80056be:	0004      	movs	r4, r0
    if ((__HAL_I2C_GET_FLAG(hi2c, I2C_FLAG_STOPF) == SET) && (status == HAL_OK))
 80056c0:	699a      	ldr	r2, [r3, #24]
 80056c2:	4232      	tst	r2, r6
 80056c4:	d10f      	bne.n	80056e6 <I2C_WaitOnRXNEFlagUntilTimeout+0x52>
    if (I2C_IsErrorOccurred(hi2c, Timeout, Tickstart) != HAL_OK)
 80056c6:	1e63      	subs	r3, r4, #1
 80056c8:	419c      	sbcs	r4, r3
 80056ca:	b2e4      	uxtb	r4, r4
    if ((((HAL_GetTick() - Tickstart) > Timeout) || (Timeout == 0U)) && (status == HAL_OK))
 80056cc:	f7ff f814 	bl	80046f8 <HAL_GetTick>
 80056d0:	9b01      	ldr	r3, [sp, #4]
 80056d2:	1ac0      	subs	r0, r0, r3
 80056d4:	9b00      	ldr	r3, [sp, #0]
 80056d6:	4298      	cmp	r0, r3
 80056d8:	d801      	bhi.n	80056de <I2C_WaitOnRXNEFlagUntilTimeout+0x4a>
 80056da:	2b00      	cmp	r3, #0
 80056dc:	d1e1      	bne.n	80056a2 <I2C_WaitOnRXNEFlagUntilTimeout+0xe>
 80056de:	2c00      	cmp	r4, #0
 80056e0:	d019      	beq.n	8005716 <I2C_WaitOnRXNEFlagUntilTimeout+0x82>
{
 80056e2:	2401      	movs	r4, #1
 80056e4:	e7dd      	b.n	80056a2 <I2C_WaitOnRXNEFlagUntilTimeout+0xe>
    if ((__HAL_I2C_GET_FLAG(hi2c, I2C_FLAG_STOPF) == SET) && (status == HAL_OK))
 80056e6:	2800      	cmp	r0, #0
 80056e8:	d111      	bne.n	800570e <I2C_WaitOnRXNEFlagUntilTimeout+0x7a>
      if ((__HAL_I2C_GET_FLAG(hi2c, I2C_FLAG_RXNE) == SET) && (hi2c->XferSize > 0U))
 80056ea:	699a      	ldr	r2, [r3, #24]
      if (__HAL_I2C_GET_FLAG(hi2c, I2C_FLAG_AF) == SET)
 80056ec:	2210      	movs	r2, #16
 80056ee:	6999      	ldr	r1, [r3, #24]
 80056f0:	4211      	tst	r1, r2
 80056f2:	d00e      	beq.n	8005712 <I2C_WaitOnRXNEFlagUntilTimeout+0x7e>
        __HAL_I2C_CLEAR_FLAG(hi2c, I2C_FLAG_AF);
 80056f4:	61da      	str	r2, [r3, #28]
        hi2c->ErrorCode = HAL_I2C_ERROR_AF;
 80056f6:	646f      	str	r7, [r5, #68]	@ 0x44
        __HAL_I2C_CLEAR_FLAG(hi2c, I2C_FLAG_STOPF);
 80056f8:	61de      	str	r6, [r3, #28]
        I2C_RESET_CR2(hi2c);
 80056fa:	685a      	ldr	r2, [r3, #4]
 80056fc:	490c      	ldr	r1, [pc, #48]	@ (8005730 <I2C_WaitOnRXNEFlagUntilTimeout+0x9c>)
 80056fe:	400a      	ands	r2, r1
 8005700:	605a      	str	r2, [r3, #4]
        hi2c->State = HAL_I2C_STATE_READY;
 8005702:	002b      	movs	r3, r5
 8005704:	3341      	adds	r3, #65	@ 0x41
 8005706:	701e      	strb	r6, [r3, #0]
        hi2c->Mode = HAL_I2C_MODE_NONE;
 8005708:	7058      	strb	r0, [r3, #1]
        __HAL_UNLOCK(hi2c);
 800570a:	3b01      	subs	r3, #1
 800570c:	7018      	strb	r0, [r3, #0]
{
 800570e:	2401      	movs	r4, #1
 8005710:	e7dc      	b.n	80056cc <I2C_WaitOnRXNEFlagUntilTimeout+0x38>
        hi2c->ErrorCode = HAL_I2C_ERROR_NONE;
 8005712:	6468      	str	r0, [r5, #68]	@ 0x44
 8005714:	e7da      	b.n	80056cc <I2C_WaitOnRXNEFlagUntilTimeout+0x38>
      if ((__HAL_I2C_GET_FLAG(hi2c, I2C_FLAG_RXNE) == RESET))
 8005716:	682b      	ldr	r3, [r5, #0]
 8005718:	699b      	ldr	r3, [r3, #24]
 800571a:	423b      	tst	r3, r7
 800571c:	d1c1      	bne.n	80056a2 <I2C_WaitOnRXNEFlagUntilTimeout+0xe>
        hi2c->ErrorCode |= HAL_I2C_ERROR_TIMEOUT;
 800571e:	6c6b      	ldr	r3, [r5, #68]	@ 0x44
 8005720:	4333      	orrs	r3, r6
 8005722:	646b      	str	r3, [r5, #68]	@ 0x44
        hi2c->State = HAL_I2C_STATE_READY;
 8005724:	002b      	movs	r3, r5
 8005726:	3341      	adds	r3, #65	@ 0x41
 8005728:	701e      	strb	r6, [r3, #0]
        __HAL_UNLOCK(hi2c);
 800572a:	3b01      	subs	r3, #1
 800572c:	701c      	strb	r4, [r3, #0]
        status = HAL_ERROR;
 800572e:	e7d8      	b.n	80056e2 <I2C_WaitOnRXNEFlagUntilTimeout+0x4e>
 8005730:	fe00e800 	.word	0xfe00e800

08005734 <HAL_I2C_Init>:
{
 8005734:	b570      	push	{r4, r5, r6, lr}
 8005736:	0004      	movs	r4, r0
    return HAL_ERROR;
 8005738:	2001      	movs	r0, #1
  if (hi2c == NULL)
 800573a:	2c00      	cmp	r4, #0
 800573c:	d04e      	beq.n	80057dc <HAL_I2C_Init+0xa8>
  if (hi2c->State == HAL_I2C_STATE_RESET)
 800573e:	0025      	movs	r5, r4
 8005740:	3541      	adds	r5, #65	@ 0x41
 8005742:	782b      	ldrb	r3, [r5, #0]
 8005744:	b2da      	uxtb	r2, r3
 8005746:	2b00      	cmp	r3, #0
 8005748:	d105      	bne.n	8005756 <HAL_I2C_Init+0x22>
    hi2c->Lock = HAL_UNLOCKED;
 800574a:	0023      	movs	r3, r4
 800574c:	3340      	adds	r3, #64	@ 0x40
    HAL_I2C_MspInit(hi2c);
 800574e:	0020      	movs	r0, r4
    hi2c->Lock = HAL_UNLOCKED;
 8005750:	701a      	strb	r2, [r3, #0]
    HAL_I2C_MspInit(hi2c);
 8005752:	f7fe f9fd 	bl	8003b50 <HAL_I2C_MspInit>
  hi2c->State = HAL_I2C_STATE_BUSY;
 8005756:	2324      	movs	r3, #36	@ 0x24
  __HAL_I2C_DISABLE(hi2c);
 8005758:	2101      	movs	r1, #1
  hi2c->State = HAL_I2C_STATE_BUSY;
 800575a:	702b      	strb	r3, [r5, #0]
  __HAL_I2C_DISABLE(hi2c);
 800575c:	6823      	ldr	r3, [r4, #0]
  if (hi2c->Init.AddressingMode == I2C_ADDRESSINGMODE_7BIT)
 800575e:	68e0      	ldr	r0, [r4, #12]
  __HAL_I2C_DISABLE(hi2c);
 8005760:	681a      	ldr	r2, [r3, #0]
    hi2c->Instance->OAR1 = (I2C_OAR1_OA1EN | hi2c->Init.OwnAddress1);
 8005762:	68a6      	ldr	r6, [r4, #8]
  __HAL_I2C_DISABLE(hi2c);
 8005764:	438a      	bics	r2, r1
 8005766:	601a      	str	r2, [r3, #0]
  hi2c->Instance->TIMINGR = hi2c->Init.Timing & TIMING_CLEAR_MASK;
 8005768:	491d      	ldr	r1, [pc, #116]	@ (80057e0 <HAL_I2C_Init+0xac>)
 800576a:	6862      	ldr	r2, [r4, #4]
 800576c:	400a      	ands	r2, r1
 800576e:	611a      	str	r2, [r3, #16]
  hi2c->Instance->OAR1 &= ~I2C_OAR1_OA1EN;
 8005770:	689a      	ldr	r2, [r3, #8]
 8005772:	491c      	ldr	r1, [pc, #112]	@ (80057e4 <HAL_I2C_Init+0xb0>)
 8005774:	400a      	ands	r2, r1
 8005776:	609a      	str	r2, [r3, #8]
  if (hi2c->Init.AddressingMode == I2C_ADDRESSINGMODE_7BIT)
 8005778:	2801      	cmp	r0, #1
 800577a:	d107      	bne.n	800578c <HAL_I2C_Init+0x58>
    hi2c->Instance->OAR1 = (I2C_OAR1_OA1EN | hi2c->Init.OwnAddress1);
 800577c:	2280      	movs	r2, #128	@ 0x80
 800577e:	0212      	lsls	r2, r2, #8
 8005780:	4332      	orrs	r2, r6
 8005782:	609a      	str	r2, [r3, #8]
    CLEAR_BIT(hi2c->Instance->CR2, I2C_CR2_ADD10);
 8005784:	685a      	ldr	r2, [r3, #4]
 8005786:	4818      	ldr	r0, [pc, #96]	@ (80057e8 <HAL_I2C_Init+0xb4>)
 8005788:	4002      	ands	r2, r0
 800578a:	e009      	b.n	80057a0 <HAL_I2C_Init+0x6c>
    hi2c->Instance->OAR1 = (I2C_OAR1_OA1EN | I2C_OAR1_OA1MODE | hi2c->Init.OwnAddress1);
 800578c:	2284      	movs	r2, #132	@ 0x84
 800578e:	0212      	lsls	r2, r2, #8
 8005790:	4332      	orrs	r2, r6
 8005792:	609a      	str	r2, [r3, #8]
  if (hi2c->Init.AddressingMode == I2C_ADDRESSINGMODE_10BIT)
 8005794:	2802      	cmp	r0, #2
 8005796:	d1f5      	bne.n	8005784 <HAL_I2C_Init+0x50>
    SET_BIT(hi2c->Instance->CR2, I2C_CR2_ADD10);
 8005798:	2280      	movs	r2, #128	@ 0x80
 800579a:	6858      	ldr	r0, [r3, #4]
 800579c:	0112      	lsls	r2, r2, #4
 800579e:	4302      	orrs	r2, r0
    CLEAR_BIT(hi2c->Instance->CR2, I2C_CR2_ADD10);
 80057a0:	605a      	str	r2, [r3, #4]
  hi2c->Instance->CR2 |= (I2C_CR2_AUTOEND | I2C_CR2_NACK);
 80057a2:	6858      	ldr	r0, [r3, #4]
 80057a4:	4a11      	ldr	r2, [pc, #68]	@ (80057ec <HAL_I2C_Init+0xb8>)
 80057a6:	4302      	orrs	r2, r0
 80057a8:	605a      	str	r2, [r3, #4]
  hi2c->Instance->OAR2 &= ~I2C_DUALADDRESS_ENABLE;
 80057aa:	68da      	ldr	r2, [r3, #12]
  hi2c->ErrorCode = HAL_I2C_ERROR_NONE;
 80057ac:	2000      	movs	r0, #0
  hi2c->Instance->OAR2 &= ~I2C_DUALADDRESS_ENABLE;
 80057ae:	400a      	ands	r2, r1
 80057b0:	60da      	str	r2, [r3, #12]
  hi2c->Instance->OAR2 = (hi2c->Init.DualAddressMode | hi2c->Init.OwnAddress2 | \
 80057b2:	6961      	ldr	r1, [r4, #20]
 80057b4:	6922      	ldr	r2, [r4, #16]
 80057b6:	430a      	orrs	r2, r1
                          (hi2c->Init.OwnAddress2Masks << 8));
 80057b8:	69a1      	ldr	r1, [r4, #24]
 80057ba:	0209      	lsls	r1, r1, #8
  hi2c->Instance->OAR2 = (hi2c->Init.DualAddressMode | hi2c->Init.OwnAddress2 | \
 80057bc:	430a      	orrs	r2, r1
 80057be:	60da      	str	r2, [r3, #12]
  hi2c->Instance->CR1 = (hi2c->Init.GeneralCallMode | hi2c->Init.NoStretchMode);
 80057c0:	6a21      	ldr	r1, [r4, #32]
 80057c2:	69e2      	ldr	r2, [r4, #28]
 80057c4:	430a      	orrs	r2, r1
 80057c6:	601a      	str	r2, [r3, #0]
  __HAL_I2C_ENABLE(hi2c);
 80057c8:	2201      	movs	r2, #1
 80057ca:	6819      	ldr	r1, [r3, #0]
 80057cc:	430a      	orrs	r2, r1
 80057ce:	601a      	str	r2, [r3, #0]
  hi2c->State = HAL_I2C_STATE_READY;
 80057d0:	2320      	movs	r3, #32
  hi2c->ErrorCode = HAL_I2C_ERROR_NONE;
 80057d2:	6460      	str	r0, [r4, #68]	@ 0x44
  hi2c->State = HAL_I2C_STATE_READY;
 80057d4:	702b      	strb	r3, [r5, #0]
  hi2c->PreviousState = I2C_STATE_NONE;
 80057d6:	6320      	str	r0, [r4, #48]	@ 0x30
  hi2c->Mode = HAL_I2C_MODE_NONE;
 80057d8:	3442      	adds	r4, #66	@ 0x42
 80057da:	7020      	strb	r0, [r4, #0]
}
 80057dc:	bd70      	pop	{r4, r5, r6, pc}
 80057de:	46c0      	nop			@ (mov r8, r8)
 80057e0:	f0ffffff 	.word	0xf0ffffff
 80057e4:	ffff7fff 	.word	0xffff7fff
 80057e8:	fffff7ff 	.word	0xfffff7ff
 80057ec:	02008000 	.word	0x02008000

080057f0 <HAL_I2C_Master_Transmit>:
{
 80057f0:	b5f0      	push	{r4, r5, r6, r7, lr}
  if (hi2c->State == HAL_I2C_STATE_READY)
 80057f2:	0006      	movs	r6, r0
{
 80057f4:	b085      	sub	sp, #20
 80057f6:	9202      	str	r2, [sp, #8]
 80057f8:	9303      	str	r3, [sp, #12]
  if (hi2c->State == HAL_I2C_STATE_READY)
 80057fa:	3641      	adds	r6, #65	@ 0x41
 80057fc:	7833      	ldrb	r3, [r6, #0]
{
 80057fe:	0004      	movs	r4, r0
 8005800:	000f      	movs	r7, r1
    __HAL_LOCK(hi2c);
 8005802:	2002      	movs	r0, #2
  if (hi2c->State == HAL_I2C_STATE_READY)
 8005804:	2b20      	cmp	r3, #32
 8005806:	d114      	bne.n	8005832 <HAL_I2C_Master_Transmit+0x42>
    __HAL_LOCK(hi2c);
 8005808:	0023      	movs	r3, r4
 800580a:	3340      	adds	r3, #64	@ 0x40
 800580c:	781a      	ldrb	r2, [r3, #0]
 800580e:	2a01      	cmp	r2, #1
 8005810:	d00f      	beq.n	8005832 <HAL_I2C_Master_Transmit+0x42>
 8005812:	2201      	movs	r2, #1
 8005814:	701a      	strb	r2, [r3, #0]
    tickstart = HAL_GetTick();
 8005816:	f7fe ff6f 	bl	80046f8 <HAL_GetTick>
    if (I2C_WaitOnFlagUntilTimeout(hi2c, I2C_FLAG_BUSY, SET, I2C_TIMEOUT_BUSY, tickstart) != HAL_OK)
 800581a:	2180      	movs	r1, #128	@ 0x80
    tickstart = HAL_GetTick();
 800581c:	0005      	movs	r5, r0
    if (I2C_WaitOnFlagUntilTimeout(hi2c, I2C_FLAG_BUSY, SET, I2C_TIMEOUT_BUSY, tickstart) != HAL_OK)
 800581e:	9000      	str	r0, [sp, #0]
 8005820:	2319      	movs	r3, #25
 8005822:	2201      	movs	r2, #1
 8005824:	0020      	movs	r0, r4
 8005826:	0209      	lsls	r1, r1, #8
 8005828:	f7ff fed2 	bl	80055d0 <I2C_WaitOnFlagUntilTimeout>
 800582c:	2800      	cmp	r0, #0
 800582e:	d002      	beq.n	8005836 <HAL_I2C_Master_Transmit+0x46>
      return HAL_ERROR;
 8005830:	2001      	movs	r0, #1
}
 8005832:	b005      	add	sp, #20
 8005834:	bdf0      	pop	{r4, r5, r6, r7, pc}
    hi2c->State     = HAL_I2C_STATE_BUSY_TX;
 8005836:	2321      	movs	r3, #33	@ 0x21
 8005838:	7033      	strb	r3, [r6, #0]
    hi2c->Mode      = HAL_I2C_MODE_MASTER;
 800583a:	0023      	movs	r3, r4
 800583c:	2210      	movs	r2, #16
 800583e:	3342      	adds	r3, #66	@ 0x42
 8005840:	701a      	strb	r2, [r3, #0]
    hi2c->pBuffPtr  = pData;
 8005842:	9b02      	ldr	r3, [sp, #8]
    hi2c->ErrorCode = HAL_I2C_ERROR_NONE;
 8005844:	6460      	str	r0, [r4, #68]	@ 0x44
    hi2c->pBuffPtr  = pData;
 8005846:	6263      	str	r3, [r4, #36]	@ 0x24
    hi2c->XferCount = Size;
 8005848:	9b03      	ldr	r3, [sp, #12]
 800584a:	4939      	ldr	r1, [pc, #228]	@ (8005930 <HAL_I2C_Master_Transmit+0x140>)
 800584c:	8563      	strh	r3, [r4, #42]	@ 0x2a
    if (hi2c->XferCount > MAX_NBYTE_SIZE)
 800584e:	8d63      	ldrh	r3, [r4, #42]	@ 0x2a
    hi2c->XferISR   = NULL;
 8005850:	6360      	str	r0, [r4, #52]	@ 0x34
    if (hi2c->XferCount > MAX_NBYTE_SIZE)
 8005852:	2bff      	cmp	r3, #255	@ 0xff
 8005854:	d930      	bls.n	80058b8 <HAL_I2C_Master_Transmit+0xc8>
      xfermode = I2C_RELOAD_MODE;
 8005856:	2380      	movs	r3, #128	@ 0x80
 8005858:	32ef      	adds	r2, #239	@ 0xef
 800585a:	8522      	strh	r2, [r4, #40]	@ 0x28
 800585c:	045b      	lsls	r3, r3, #17
      hi2c->Instance->TXDR = *hi2c->pBuffPtr;
 800585e:	9e02      	ldr	r6, [sp, #8]
 8005860:	6820      	ldr	r0, [r4, #0]
 8005862:	7836      	ldrb	r6, [r6, #0]
      hi2c->XferSize--;
 8005864:	3a01      	subs	r2, #1
      hi2c->Instance->TXDR = *hi2c->pBuffPtr;
 8005866:	6286      	str	r6, [r0, #40]	@ 0x28
      hi2c->pBuffPtr++;
 8005868:	9802      	ldr	r0, [sp, #8]
      hi2c->XferSize--;
 800586a:	b292      	uxth	r2, r2
      hi2c->pBuffPtr++;
 800586c:	3001      	adds	r0, #1
 800586e:	6260      	str	r0, [r4, #36]	@ 0x24
      hi2c->XferCount--;
 8005870:	8d60      	ldrh	r0, [r4, #42]	@ 0x2a
      hi2c->XferSize--;
 8005872:	8522      	strh	r2, [r4, #40]	@ 0x28
      hi2c->XferCount--;
 8005874:	3801      	subs	r0, #1
 8005876:	b280      	uxth	r0, r0
      I2C_TransferConfig(hi2c, DevAddress, (uint8_t)(hi2c->XferSize + 1U), xfermode,
 8005878:	3201      	adds	r2, #1
      hi2c->XferCount--;
 800587a:	8560      	strh	r0, [r4, #42]	@ 0x2a
      I2C_TransferConfig(hi2c, DevAddress, (uint8_t)(hi2c->XferSize + 1U), xfermode,
 800587c:	b2d2      	uxtb	r2, r2
 800587e:	9100      	str	r1, [sp, #0]
          I2C_TransferConfig(hi2c, DevAddress, (uint8_t)hi2c->XferSize, I2C_AUTOEND_MODE,
 8005880:	0039      	movs	r1, r7
 8005882:	0020      	movs	r0, r4
 8005884:	f7ff fde2 	bl	800544c <I2C_TransferConfig>
    while (hi2c->XferCount > 0U)
 8005888:	8d63      	ldrh	r3, [r4, #42]	@ 0x2a
      if (I2C_WaitOnTXISFlagUntilTimeout(hi2c, Timeout, tickstart) != HAL_OK)
 800588a:	002a      	movs	r2, r5
 800588c:	0020      	movs	r0, r4
 800588e:	990a      	ldr	r1, [sp, #40]	@ 0x28
    while (hi2c->XferCount > 0U)
 8005890:	2b00      	cmp	r3, #0
 8005892:	d11d      	bne.n	80058d0 <HAL_I2C_Master_Transmit+0xe0>
    if (I2C_WaitOnSTOPFlagUntilTimeout(hi2c, Timeout, tickstart) != HAL_OK)
 8005894:	f7ff fed3 	bl	800563e <I2C_WaitOnSTOPFlagUntilTimeout>
 8005898:	2800      	cmp	r0, #0
 800589a:	d1c9      	bne.n	8005830 <HAL_I2C_Master_Transmit+0x40>
    __HAL_I2C_CLEAR_FLAG(hi2c, I2C_FLAG_STOPF);
 800589c:	2120      	movs	r1, #32
 800589e:	6823      	ldr	r3, [r4, #0]
    I2C_RESET_CR2(hi2c);
 80058a0:	4d24      	ldr	r5, [pc, #144]	@ (8005934 <HAL_I2C_Master_Transmit+0x144>)
    __HAL_I2C_CLEAR_FLAG(hi2c, I2C_FLAG_STOPF);
 80058a2:	61d9      	str	r1, [r3, #28]
    I2C_RESET_CR2(hi2c);
 80058a4:	685a      	ldr	r2, [r3, #4]
 80058a6:	402a      	ands	r2, r5
 80058a8:	605a      	str	r2, [r3, #4]
    hi2c->State = HAL_I2C_STATE_READY;
 80058aa:	0023      	movs	r3, r4
    __HAL_UNLOCK(hi2c);
 80058ac:	3440      	adds	r4, #64	@ 0x40
    hi2c->State = HAL_I2C_STATE_READY;
 80058ae:	3341      	adds	r3, #65	@ 0x41
 80058b0:	7019      	strb	r1, [r3, #0]
    hi2c->Mode  = HAL_I2C_MODE_NONE;
 80058b2:	7058      	strb	r0, [r3, #1]
    __HAL_UNLOCK(hi2c);
 80058b4:	7020      	strb	r0, [r4, #0]
    return HAL_OK;
 80058b6:	e7bc      	b.n	8005832 <HAL_I2C_Master_Transmit+0x42>
      hi2c->XferSize = hi2c->XferCount;
 80058b8:	8d62      	ldrh	r2, [r4, #42]	@ 0x2a
 80058ba:	b292      	uxth	r2, r2
      xfermode = I2C_AUTOEND_MODE;
 80058bc:	8522      	strh	r2, [r4, #40]	@ 0x28
    if (hi2c->XferSize > 0U)
 80058be:	2a00      	cmp	r2, #0
 80058c0:	d002      	beq.n	80058c8 <HAL_I2C_Master_Transmit+0xd8>
 80058c2:	2380      	movs	r3, #128	@ 0x80
 80058c4:	049b      	lsls	r3, r3, #18
 80058c6:	e7ca      	b.n	800585e <HAL_I2C_Master_Transmit+0x6e>
      I2C_TransferConfig(hi2c, DevAddress, (uint8_t)hi2c->XferSize, xfermode,
 80058c8:	9100      	str	r1, [sp, #0]
          I2C_TransferConfig(hi2c, DevAddress, (uint8_t)hi2c->XferSize, I2C_AUTOEND_MODE,
 80058ca:	2380      	movs	r3, #128	@ 0x80
 80058cc:	049b      	lsls	r3, r3, #18
 80058ce:	e7d7      	b.n	8005880 <HAL_I2C_Master_Transmit+0x90>
      if (I2C_WaitOnTXISFlagUntilTimeout(hi2c, Timeout, tickstart) != HAL_OK)
 80058d0:	f7ff fe50 	bl	8005574 <I2C_WaitOnTXISFlagUntilTimeout>
 80058d4:	2800      	cmp	r0, #0
 80058d6:	d1ab      	bne.n	8005830 <HAL_I2C_Master_Transmit+0x40>
      hi2c->Instance->TXDR = *hi2c->pBuffPtr;
 80058d8:	6a63      	ldr	r3, [r4, #36]	@ 0x24
 80058da:	6822      	ldr	r2, [r4, #0]
 80058dc:	7819      	ldrb	r1, [r3, #0]
      hi2c->pBuffPtr++;
 80058de:	3301      	adds	r3, #1
      hi2c->Instance->TXDR = *hi2c->pBuffPtr;
 80058e0:	6291      	str	r1, [r2, #40]	@ 0x28
      hi2c->pBuffPtr++;
 80058e2:	6263      	str	r3, [r4, #36]	@ 0x24
      hi2c->XferCount--;
 80058e4:	8d63      	ldrh	r3, [r4, #42]	@ 0x2a
      hi2c->XferSize--;
 80058e6:	8d22      	ldrh	r2, [r4, #40]	@ 0x28
      hi2c->XferCount--;
 80058e8:	3b01      	subs	r3, #1
 80058ea:	b29b      	uxth	r3, r3
 80058ec:	8563      	strh	r3, [r4, #42]	@ 0x2a
      hi2c->XferSize--;
 80058ee:	3a01      	subs	r2, #1
      if ((hi2c->XferCount != 0U) && (hi2c->XferSize == 0U))
 80058f0:	8d63      	ldrh	r3, [r4, #42]	@ 0x2a
      hi2c->XferSize--;
 80058f2:	b292      	uxth	r2, r2
 80058f4:	8522      	strh	r2, [r4, #40]	@ 0x28
      if ((hi2c->XferCount != 0U) && (hi2c->XferSize == 0U))
 80058f6:	2b00      	cmp	r3, #0
 80058f8:	d0c6      	beq.n	8005888 <HAL_I2C_Master_Transmit+0x98>
 80058fa:	2a00      	cmp	r2, #0
 80058fc:	d1c4      	bne.n	8005888 <HAL_I2C_Master_Transmit+0x98>
        if (I2C_WaitOnFlagUntilTimeout(hi2c, I2C_FLAG_TCR, RESET, Timeout, tickstart) != HAL_OK)
 80058fe:	2180      	movs	r1, #128	@ 0x80
 8005900:	0020      	movs	r0, r4
 8005902:	9b0a      	ldr	r3, [sp, #40]	@ 0x28
 8005904:	9500      	str	r5, [sp, #0]
 8005906:	f7ff fe63 	bl	80055d0 <I2C_WaitOnFlagUntilTimeout>
 800590a:	2800      	cmp	r0, #0
 800590c:	d000      	beq.n	8005910 <HAL_I2C_Master_Transmit+0x120>
 800590e:	e78f      	b.n	8005830 <HAL_I2C_Master_Transmit+0x40>
        if (hi2c->XferCount > MAX_NBYTE_SIZE)
 8005910:	8d63      	ldrh	r3, [r4, #42]	@ 0x2a
 8005912:	2bff      	cmp	r3, #255	@ 0xff
 8005914:	d905      	bls.n	8005922 <HAL_I2C_Master_Transmit+0x132>
          hi2c->XferSize = MAX_NBYTE_SIZE;
 8005916:	22ff      	movs	r2, #255	@ 0xff
          I2C_TransferConfig(hi2c, DevAddress, (uint8_t)hi2c->XferSize, I2C_RELOAD_MODE,
 8005918:	2380      	movs	r3, #128	@ 0x80
          hi2c->XferSize = MAX_NBYTE_SIZE;
 800591a:	8522      	strh	r2, [r4, #40]	@ 0x28
          I2C_TransferConfig(hi2c, DevAddress, (uint8_t)hi2c->XferSize, I2C_RELOAD_MODE,
 800591c:	045b      	lsls	r3, r3, #17
 800591e:	9000      	str	r0, [sp, #0]
 8005920:	e7ae      	b.n	8005880 <HAL_I2C_Master_Transmit+0x90>
          hi2c->XferSize = hi2c->XferCount;
 8005922:	8d62      	ldrh	r2, [r4, #42]	@ 0x2a
 8005924:	b292      	uxth	r2, r2
 8005926:	8522      	strh	r2, [r4, #40]	@ 0x28
          I2C_TransferConfig(hi2c, DevAddress, (uint8_t)hi2c->XferSize, I2C_AUTOEND_MODE,
 8005928:	b2d2      	uxtb	r2, r2
 800592a:	9000      	str	r0, [sp, #0]
 800592c:	e7cd      	b.n	80058ca <HAL_I2C_Master_Transmit+0xda>
 800592e:	46c0      	nop			@ (mov r8, r8)
 8005930:	80002000 	.word	0x80002000
 8005934:	fe00e800 	.word	0xfe00e800

08005938 <HAL_I2C_Master_Receive>:
{
 8005938:	b5f0      	push	{r4, r5, r6, r7, lr}
  if (hi2c->State == HAL_I2C_STATE_READY)
 800593a:	0007      	movs	r7, r0
{
 800593c:	b087      	sub	sp, #28
 800593e:	9103      	str	r1, [sp, #12]
 8005940:	9204      	str	r2, [sp, #16]
 8005942:	9305      	str	r3, [sp, #20]
  if (hi2c->State == HAL_I2C_STATE_READY)
 8005944:	3741      	adds	r7, #65	@ 0x41
 8005946:	783b      	ldrb	r3, [r7, #0]
{
 8005948:	0004      	movs	r4, r0
    __HAL_LOCK(hi2c);
 800594a:	2002      	movs	r0, #2
  if (hi2c->State == HAL_I2C_STATE_READY)
 800594c:	2b20      	cmp	r3, #32
 800594e:	d114      	bne.n	800597a <HAL_I2C_Master_Receive+0x42>
    __HAL_LOCK(hi2c);
 8005950:	0023      	movs	r3, r4
 8005952:	3340      	adds	r3, #64	@ 0x40
 8005954:	781a      	ldrb	r2, [r3, #0]
 8005956:	2a01      	cmp	r2, #1
 8005958:	d00f      	beq.n	800597a <HAL_I2C_Master_Receive+0x42>
 800595a:	2601      	movs	r6, #1
 800595c:	701e      	strb	r6, [r3, #0]
    tickstart = HAL_GetTick();
 800595e:	f7fe fecb 	bl	80046f8 <HAL_GetTick>
    if (I2C_WaitOnFlagUntilTimeout(hi2c, I2C_FLAG_BUSY, SET, I2C_TIMEOUT_BUSY, tickstart) != HAL_OK)
 8005962:	2180      	movs	r1, #128	@ 0x80
    tickstart = HAL_GetTick();
 8005964:	0005      	movs	r5, r0
    if (I2C_WaitOnFlagUntilTimeout(hi2c, I2C_FLAG_BUSY, SET, I2C_TIMEOUT_BUSY, tickstart) != HAL_OK)
 8005966:	9000      	str	r0, [sp, #0]
 8005968:	2319      	movs	r3, #25
 800596a:	0032      	movs	r2, r6
 800596c:	0020      	movs	r0, r4
 800596e:	0209      	lsls	r1, r1, #8
 8005970:	f7ff fe2e 	bl	80055d0 <I2C_WaitOnFlagUntilTimeout>
 8005974:	2800      	cmp	r0, #0
 8005976:	d002      	beq.n	800597e <HAL_I2C_Master_Receive+0x46>
      return HAL_ERROR;
 8005978:	2001      	movs	r0, #1
}
 800597a:	b007      	add	sp, #28
 800597c:	bdf0      	pop	{r4, r5, r6, r7, pc}
    hi2c->State     = HAL_I2C_STATE_BUSY_RX;
 800597e:	2322      	movs	r3, #34	@ 0x22
 8005980:	703b      	strb	r3, [r7, #0]
    hi2c->Mode      = HAL_I2C_MODE_MASTER;
 8005982:	0027      	movs	r7, r4
 8005984:	3b12      	subs	r3, #18
 8005986:	3742      	adds	r7, #66	@ 0x42
 8005988:	703b      	strb	r3, [r7, #0]
    hi2c->pBuffPtr  = pData;
 800598a:	9b04      	ldr	r3, [sp, #16]
    hi2c->ErrorCode = HAL_I2C_ERROR_NONE;
 800598c:	6460      	str	r0, [r4, #68]	@ 0x44
    hi2c->pBuffPtr  = pData;
 800598e:	6263      	str	r3, [r4, #36]	@ 0x24
    hi2c->XferCount = Size;
 8005990:	9b05      	ldr	r3, [sp, #20]
    hi2c->XferISR   = NULL;
 8005992:	6360      	str	r0, [r4, #52]	@ 0x34
    hi2c->XferCount = Size;
 8005994:	8563      	strh	r3, [r4, #42]	@ 0x2a
    if (hi2c->XferCount > MAX_NBYTE_SIZE)
 8005996:	8d62      	ldrh	r2, [r4, #42]	@ 0x2a
 8005998:	4b2d      	ldr	r3, [pc, #180]	@ (8005a50 <HAL_I2C_Master_Receive+0x118>)
 800599a:	2aff      	cmp	r2, #255	@ 0xff
 800599c:	d920      	bls.n	80059e0 <HAL_I2C_Master_Receive+0xa8>
      hi2c->XferSize = 1U;
 800599e:	8526      	strh	r6, [r4, #40]	@ 0x28
      I2C_TransferConfig(hi2c, DevAddress, (uint8_t)hi2c->XferSize, I2C_RELOAD_MODE,
 80059a0:	9300      	str	r3, [sp, #0]
 80059a2:	2380      	movs	r3, #128	@ 0x80
 80059a4:	0032      	movs	r2, r6
 80059a6:	045b      	lsls	r3, r3, #17
          I2C_TransferConfig(hi2c, DevAddress, (uint8_t)hi2c->XferSize, I2C_AUTOEND_MODE,
 80059a8:	0020      	movs	r0, r4
 80059aa:	9903      	ldr	r1, [sp, #12]
 80059ac:	f7ff fd4e 	bl	800544c <I2C_TransferConfig>
    while (hi2c->XferCount > 0U)
 80059b0:	8d63      	ldrh	r3, [r4, #42]	@ 0x2a
      if (I2C_WaitOnRXNEFlagUntilTimeout(hi2c, Timeout, tickstart) != HAL_OK)
 80059b2:	002a      	movs	r2, r5
 80059b4:	0020      	movs	r0, r4
 80059b6:	990c      	ldr	r1, [sp, #48]	@ 0x30
    while (hi2c->XferCount > 0U)
 80059b8:	2b00      	cmp	r3, #0
 80059ba:	d119      	bne.n	80059f0 <HAL_I2C_Master_Receive+0xb8>
    if (I2C_WaitOnSTOPFlagUntilTimeout(hi2c, Timeout, tickstart) != HAL_OK)
 80059bc:	f7ff fe3f 	bl	800563e <I2C_WaitOnSTOPFlagUntilTimeout>
 80059c0:	2800      	cmp	r0, #0
 80059c2:	d1d9      	bne.n	8005978 <HAL_I2C_Master_Receive+0x40>
    __HAL_I2C_CLEAR_FLAG(hi2c, I2C_FLAG_STOPF);
 80059c4:	2120      	movs	r1, #32
 80059c6:	6823      	ldr	r3, [r4, #0]
    I2C_RESET_CR2(hi2c);
 80059c8:	4d22      	ldr	r5, [pc, #136]	@ (8005a54 <HAL_I2C_Master_Receive+0x11c>)
    __HAL_I2C_CLEAR_FLAG(hi2c, I2C_FLAG_STOPF);
 80059ca:	61d9      	str	r1, [r3, #28]
    I2C_RESET_CR2(hi2c);
 80059cc:	685a      	ldr	r2, [r3, #4]
 80059ce:	402a      	ands	r2, r5
 80059d0:	605a      	str	r2, [r3, #4]
    hi2c->State = HAL_I2C_STATE_READY;
 80059d2:	0023      	movs	r3, r4
    __HAL_UNLOCK(hi2c);
 80059d4:	3440      	adds	r4, #64	@ 0x40
    hi2c->State = HAL_I2C_STATE_READY;
 80059d6:	3341      	adds	r3, #65	@ 0x41
 80059d8:	7019      	strb	r1, [r3, #0]
    hi2c->Mode  = HAL_I2C_MODE_NONE;
 80059da:	7038      	strb	r0, [r7, #0]
    __HAL_UNLOCK(hi2c);
 80059dc:	7020      	strb	r0, [r4, #0]
    return HAL_OK;
 80059de:	e7cc      	b.n	800597a <HAL_I2C_Master_Receive+0x42>
      hi2c->XferSize = hi2c->XferCount;
 80059e0:	8d62      	ldrh	r2, [r4, #42]	@ 0x2a
 80059e2:	b292      	uxth	r2, r2
 80059e4:	8522      	strh	r2, [r4, #40]	@ 0x28
      I2C_TransferConfig(hi2c, DevAddress, (uint8_t)hi2c->XferSize, I2C_AUTOEND_MODE,
 80059e6:	b2d2      	uxtb	r2, r2
 80059e8:	9300      	str	r3, [sp, #0]
          I2C_TransferConfig(hi2c, DevAddress, (uint8_t)hi2c->XferSize, I2C_AUTOEND_MODE,
 80059ea:	2380      	movs	r3, #128	@ 0x80
 80059ec:	049b      	lsls	r3, r3, #18
 80059ee:	e7db      	b.n	80059a8 <HAL_I2C_Master_Receive+0x70>
      if (I2C_WaitOnRXNEFlagUntilTimeout(hi2c, Timeout, tickstart) != HAL_OK)
 80059f0:	f7ff fe50 	bl	8005694 <I2C_WaitOnRXNEFlagUntilTimeout>
 80059f4:	2800      	cmp	r0, #0
 80059f6:	d1bf      	bne.n	8005978 <HAL_I2C_Master_Receive+0x40>
      *hi2c->pBuffPtr = (uint8_t)hi2c->Instance->RXDR;
 80059f8:	6823      	ldr	r3, [r4, #0]
 80059fa:	6a5a      	ldr	r2, [r3, #36]	@ 0x24
 80059fc:	6a63      	ldr	r3, [r4, #36]	@ 0x24
 80059fe:	701a      	strb	r2, [r3, #0]
      hi2c->pBuffPtr++;
 8005a00:	6a63      	ldr	r3, [r4, #36]	@ 0x24
      hi2c->XferSize--;
 8005a02:	8d22      	ldrh	r2, [r4, #40]	@ 0x28
      hi2c->pBuffPtr++;
 8005a04:	3301      	adds	r3, #1
 8005a06:	6263      	str	r3, [r4, #36]	@ 0x24
      hi2c->XferCount--;
 8005a08:	8d63      	ldrh	r3, [r4, #42]	@ 0x2a
      hi2c->XferSize--;
 8005a0a:	3a01      	subs	r2, #1
      hi2c->XferCount--;
 8005a0c:	3b01      	subs	r3, #1
 8005a0e:	b29b      	uxth	r3, r3
 8005a10:	8563      	strh	r3, [r4, #42]	@ 0x2a
      if ((hi2c->XferCount != 0U) && (hi2c->XferSize == 0U))
 8005a12:	8d63      	ldrh	r3, [r4, #42]	@ 0x2a
      hi2c->XferSize--;
 8005a14:	b292      	uxth	r2, r2
 8005a16:	8522      	strh	r2, [r4, #40]	@ 0x28
      if ((hi2c->XferCount != 0U) && (hi2c->XferSize == 0U))
 8005a18:	2b00      	cmp	r3, #0
 8005a1a:	d0c9      	beq.n	80059b0 <HAL_I2C_Master_Receive+0x78>
 8005a1c:	2a00      	cmp	r2, #0
 8005a1e:	d1c7      	bne.n	80059b0 <HAL_I2C_Master_Receive+0x78>
        if (I2C_WaitOnFlagUntilTimeout(hi2c, I2C_FLAG_TCR, RESET, Timeout, tickstart) != HAL_OK)
 8005a20:	2180      	movs	r1, #128	@ 0x80
 8005a22:	0020      	movs	r0, r4
 8005a24:	9b0c      	ldr	r3, [sp, #48]	@ 0x30
 8005a26:	9500      	str	r5, [sp, #0]
 8005a28:	f7ff fdd2 	bl	80055d0 <I2C_WaitOnFlagUntilTimeout>
 8005a2c:	2800      	cmp	r0, #0
 8005a2e:	d1a3      	bne.n	8005978 <HAL_I2C_Master_Receive+0x40>
        if (hi2c->XferCount > MAX_NBYTE_SIZE)
 8005a30:	8d63      	ldrh	r3, [r4, #42]	@ 0x2a
 8005a32:	2bff      	cmp	r3, #255	@ 0xff
 8005a34:	d905      	bls.n	8005a42 <HAL_I2C_Master_Receive+0x10a>
          hi2c->XferSize = MAX_NBYTE_SIZE;
 8005a36:	22ff      	movs	r2, #255	@ 0xff
          I2C_TransferConfig(hi2c, DevAddress, (uint8_t)hi2c->XferSize, I2C_RELOAD_MODE,
 8005a38:	2380      	movs	r3, #128	@ 0x80
          hi2c->XferSize = MAX_NBYTE_SIZE;
 8005a3a:	8522      	strh	r2, [r4, #40]	@ 0x28
          I2C_TransferConfig(hi2c, DevAddress, (uint8_t)hi2c->XferSize, I2C_RELOAD_MODE,
 8005a3c:	045b      	lsls	r3, r3, #17
 8005a3e:	9000      	str	r0, [sp, #0]
 8005a40:	e7b2      	b.n	80059a8 <HAL_I2C_Master_Receive+0x70>
          hi2c->XferSize = hi2c->XferCount;
 8005a42:	8d62      	ldrh	r2, [r4, #42]	@ 0x2a
 8005a44:	b292      	uxth	r2, r2
 8005a46:	8522      	strh	r2, [r4, #40]	@ 0x28
          I2C_TransferConfig(hi2c, DevAddress, (uint8_t)hi2c->XferSize, I2C_AUTOEND_MODE,
 8005a48:	b2d2      	uxtb	r2, r2
 8005a4a:	9000      	str	r0, [sp, #0]
 8005a4c:	e7cd      	b.n	80059ea <HAL_I2C_Master_Receive+0xb2>
 8005a4e:	46c0      	nop			@ (mov r8, r8)
 8005a50:	80002400 	.word	0x80002400
 8005a54:	fe00e800 	.word	0xfe00e800

08005a58 <HAL_I2CEx_ConfigAnalogFilter>:
  *                the configuration information for the specified I2Cx peripheral.
  * @param  AnalogFilter New state of the Analog filter.
  * @retval HAL status
  */
HAL_StatusTypeDef HAL_I2CEx_ConfigAnalogFilter(I2C_HandleTypeDef *hi2c, uint32_t AnalogFilter)
{
 8005a58:	b5f0      	push	{r4, r5, r6, r7, lr}
  /* Check the parameters */
  assert_param(IS_I2C_ALL_INSTANCE(hi2c->Instance));
  assert_param(IS_I2C_ANALOG_FILTER(AnalogFilter));

  if (hi2c->State == HAL_I2C_STATE_READY)
 8005a5a:	0004      	movs	r4, r0
 8005a5c:	3441      	adds	r4, #65	@ 0x41
 8005a5e:	7822      	ldrb	r2, [r4, #0]
{
 8005a60:	0003      	movs	r3, r0
 8005a62:	000f      	movs	r7, r1
  {
    /* Process Locked */
    __HAL_LOCK(hi2c);
 8005a64:	2002      	movs	r0, #2
  if (hi2c->State == HAL_I2C_STATE_READY)
 8005a66:	b2d6      	uxtb	r6, r2
 8005a68:	2a20      	cmp	r2, #32
 8005a6a:	d118      	bne.n	8005a9e <HAL_I2CEx_ConfigAnalogFilter+0x46>
    __HAL_LOCK(hi2c);
 8005a6c:	001d      	movs	r5, r3
 8005a6e:	3540      	adds	r5, #64	@ 0x40
 8005a70:	782a      	ldrb	r2, [r5, #0]
 8005a72:	2a01      	cmp	r2, #1
 8005a74:	d013      	beq.n	8005a9e <HAL_I2CEx_ConfigAnalogFilter+0x46>

    hi2c->State = HAL_I2C_STATE_BUSY;
 8005a76:	2224      	movs	r2, #36	@ 0x24
 8005a78:	7022      	strb	r2, [r4, #0]

    /* Disable the selected I2C peripheral */
    __HAL_I2C_DISABLE(hi2c);
 8005a7a:	681b      	ldr	r3, [r3, #0]
 8005a7c:	3a23      	subs	r2, #35	@ 0x23
 8005a7e:	6819      	ldr	r1, [r3, #0]

    /* Reset I2Cx ANOFF bit */
    hi2c->Instance->CR1 &= ~(I2C_CR1_ANFOFF);
 8005a80:	4807      	ldr	r0, [pc, #28]	@ (8005aa0 <HAL_I2CEx_ConfigAnalogFilter+0x48>)
    __HAL_I2C_DISABLE(hi2c);
 8005a82:	4391      	bics	r1, r2
 8005a84:	6019      	str	r1, [r3, #0]
    hi2c->Instance->CR1 &= ~(I2C_CR1_ANFOFF);
 8005a86:	6819      	ldr	r1, [r3, #0]
 8005a88:	4001      	ands	r1, r0
    __HAL_I2C_ENABLE(hi2c);

    hi2c->State = HAL_I2C_STATE_READY;

    /* Process Unlocked */
    __HAL_UNLOCK(hi2c);
 8005a8a:	2000      	movs	r0, #0
    hi2c->Instance->CR1 &= ~(I2C_CR1_ANFOFF);
 8005a8c:	6019      	str	r1, [r3, #0]
    hi2c->Instance->CR1 |= AnalogFilter;
 8005a8e:	6819      	ldr	r1, [r3, #0]
 8005a90:	4339      	orrs	r1, r7
 8005a92:	6019      	str	r1, [r3, #0]
    __HAL_I2C_ENABLE(hi2c);
 8005a94:	6819      	ldr	r1, [r3, #0]
 8005a96:	430a      	orrs	r2, r1
 8005a98:	601a      	str	r2, [r3, #0]
    hi2c->State = HAL_I2C_STATE_READY;
 8005a9a:	7026      	strb	r6, [r4, #0]
    __HAL_UNLOCK(hi2c);
 8005a9c:	7028      	strb	r0, [r5, #0]
  }
  else
  {
    return HAL_BUSY;
  }
}
 8005a9e:	bdf0      	pop	{r4, r5, r6, r7, pc}
 8005aa0:	ffffefff 	.word	0xffffefff

08005aa4 <HAL_I2CEx_ConfigDigitalFilter>:

  /* Check the parameters */
  assert_param(IS_I2C_ALL_INSTANCE(hi2c->Instance));
  assert_param(IS_I2C_DIGITAL_FILTER(DigitalFilter));

  if (hi2c->State == HAL_I2C_STATE_READY)
 8005aa4:	0002      	movs	r2, r0
{
 8005aa6:	b5f0      	push	{r4, r5, r6, r7, lr}
  if (hi2c->State == HAL_I2C_STATE_READY)
 8005aa8:	3241      	adds	r2, #65	@ 0x41
 8005aaa:	7814      	ldrb	r4, [r2, #0]
{
 8005aac:	0003      	movs	r3, r0
  if (hi2c->State == HAL_I2C_STATE_READY)
 8005aae:	b2e5      	uxtb	r5, r4
  {
    /* Process Locked */
    __HAL_LOCK(hi2c);
 8005ab0:	2002      	movs	r0, #2
  if (hi2c->State == HAL_I2C_STATE_READY)
 8005ab2:	2c20      	cmp	r4, #32
 8005ab4:	d117      	bne.n	8005ae6 <HAL_I2CEx_ConfigDigitalFilter+0x42>
    __HAL_LOCK(hi2c);
 8005ab6:	001c      	movs	r4, r3
 8005ab8:	3440      	adds	r4, #64	@ 0x40
 8005aba:	7826      	ldrb	r6, [r4, #0]
 8005abc:	2e01      	cmp	r6, #1
 8005abe:	d012      	beq.n	8005ae6 <HAL_I2CEx_ConfigDigitalFilter+0x42>

    hi2c->State = HAL_I2C_STATE_BUSY;
 8005ac0:	3022      	adds	r0, #34	@ 0x22
 8005ac2:	7010      	strb	r0, [r2, #0]

    /* Disable the selected I2C peripheral */
    __HAL_I2C_DISABLE(hi2c);
 8005ac4:	681b      	ldr	r3, [r3, #0]
 8005ac6:	3823      	subs	r0, #35	@ 0x23
 8005ac8:	681e      	ldr	r6, [r3, #0]

    /* Get the old register value */
    tmpreg = hi2c->Instance->CR1;

    /* Reset I2Cx DNF bits [11:8] */
    tmpreg &= ~(I2C_CR1_DNF);
 8005aca:	4f07      	ldr	r7, [pc, #28]	@ (8005ae8 <HAL_I2CEx_ConfigDigitalFilter+0x44>)
    __HAL_I2C_DISABLE(hi2c);
 8005acc:	4386      	bics	r6, r0
 8005ace:	601e      	str	r6, [r3, #0]
    tmpreg = hi2c->Instance->CR1;
 8005ad0:	681e      	ldr	r6, [r3, #0]

    /* Set I2Cx DNF coefficient */
    tmpreg |= DigitalFilter << 8U;
 8005ad2:	0209      	lsls	r1, r1, #8
    tmpreg &= ~(I2C_CR1_DNF);
 8005ad4:	403e      	ands	r6, r7
    tmpreg |= DigitalFilter << 8U;
 8005ad6:	4331      	orrs	r1, r6

    /* Store the new register value */
    hi2c->Instance->CR1 = tmpreg;
 8005ad8:	6019      	str	r1, [r3, #0]

    __HAL_I2C_ENABLE(hi2c);
 8005ada:	6819      	ldr	r1, [r3, #0]
 8005adc:	4308      	orrs	r0, r1
 8005ade:	6018      	str	r0, [r3, #0]

    hi2c->State = HAL_I2C_STATE_READY;

    /* Process Unlocked */
    __HAL_UNLOCK(hi2c);
 8005ae0:	2000      	movs	r0, #0
    hi2c->State = HAL_I2C_STATE_READY;
 8005ae2:	7015      	strb	r5, [r2, #0]
    __HAL_UNLOCK(hi2c);
 8005ae4:	7020      	strb	r0, [r4, #0]
  }
  else
  {
    return HAL_BUSY;
  }
}
 8005ae6:	bdf0      	pop	{r4, r5, r6, r7, pc}
 8005ae8:	fffff0ff 	.word	0xfffff0ff

08005aec <HAL_RCC_OscConfig>:
  *         supported by this macro. User should request a transition to HSE Off
  *         first and then HSE On or HSE Bypass.
  * @retval HAL status
  */
HAL_StatusTypeDef HAL_RCC_OscConfig(RCC_OscInitTypeDef  *RCC_OscInitStruct)
{
 8005aec:	b5f0      	push	{r4, r5, r6, r7, lr}
 8005aee:	0004      	movs	r4, r0
 8005af0:	b085      	sub	sp, #20
  uint32_t tickstart;
  uint32_t pll_config;
  uint32_t pll_config2;

  /* Check Null pointer */
  if(RCC_OscInitStruct == NULL)
 8005af2:	2800      	cmp	r0, #0
 8005af4:	d045      	beq.n	8005b82 <HAL_RCC_OscConfig+0x96>

  /* Check the parameters */
  assert_param(IS_RCC_OSCILLATORTYPE(RCC_OscInitStruct->OscillatorType));

  /*------------------------------- HSE Configuration ------------------------*/ 
  if(((RCC_OscInitStruct->OscillatorType) & RCC_OSCILLATORTYPE_HSE) == RCC_OSCILLATORTYPE_HSE)
 8005af6:	6803      	ldr	r3, [r0, #0]
 8005af8:	07db      	lsls	r3, r3, #31
 8005afa:	d42f      	bmi.n	8005b5c <HAL_RCC_OscConfig+0x70>
        }
      }
    }
  }
  /*----------------------------- HSI Configuration --------------------------*/ 
  if(((RCC_OscInitStruct->OscillatorType) & RCC_OSCILLATORTYPE_HSI) == RCC_OSCILLATORTYPE_HSI)
 8005afc:	6823      	ldr	r3, [r4, #0]
 8005afe:	079b      	lsls	r3, r3, #30
 8005b00:	d500      	bpl.n	8005b04 <HAL_RCC_OscConfig+0x18>
 8005b02:	e081      	b.n	8005c08 <HAL_RCC_OscConfig+0x11c>
        }
      }
    }
  }
  /*------------------------------ LSI Configuration -------------------------*/ 
  if(((RCC_OscInitStruct->OscillatorType) & RCC_OSCILLATORTYPE_LSI) == RCC_OSCILLATORTYPE_LSI)
 8005b04:	6823      	ldr	r3, [r4, #0]
 8005b06:	071b      	lsls	r3, r3, #28
 8005b08:	d500      	bpl.n	8005b0c <HAL_RCC_OscConfig+0x20>
 8005b0a:	e0bc      	b.n	8005c86 <HAL_RCC_OscConfig+0x19a>
        }
      }
    }
  }
  /*------------------------------ LSE Configuration -------------------------*/ 
  if(((RCC_OscInitStruct->OscillatorType) & RCC_OSCILLATORTYPE_LSE) == RCC_OSCILLATORTYPE_LSE)
 8005b0c:	6823      	ldr	r3, [r4, #0]
 8005b0e:	075b      	lsls	r3, r3, #29
 8005b10:	d500      	bpl.n	8005b14 <HAL_RCC_OscConfig+0x28>
 8005b12:	e0df      	b.n	8005cd4 <HAL_RCC_OscConfig+0x1e8>
      __HAL_RCC_PWR_CLK_DISABLE();
    }
  }

  /*----------------------------- HSI14 Configuration --------------------------*/
  if(((RCC_OscInitStruct->OscillatorType) & RCC_OSCILLATORTYPE_HSI14) == RCC_OSCILLATORTYPE_HSI14)
 8005b14:	6823      	ldr	r3, [r4, #0]
 8005b16:	06db      	lsls	r3, r3, #27
 8005b18:	d51a      	bpl.n	8005b50 <HAL_RCC_OscConfig+0x64>
    /* Check the parameters */
    assert_param(IS_RCC_HSI14(RCC_OscInitStruct->HSI14State));
    assert_param(IS_RCC_CALIBRATION_VALUE(RCC_OscInitStruct->HSI14CalibrationValue));

    /* Check the HSI14 State */
    if(RCC_OscInitStruct->HSI14State == RCC_HSI14_ON)
 8005b1a:	6962      	ldr	r2, [r4, #20]
 8005b1c:	2304      	movs	r3, #4
 8005b1e:	4db4      	ldr	r5, [pc, #720]	@ (8005df0 <HAL_RCC_OscConfig+0x304>)
 8005b20:	2a01      	cmp	r2, #1
 8005b22:	d000      	beq.n	8005b26 <HAL_RCC_OscConfig+0x3a>
 8005b24:	e148      	b.n	8005db8 <HAL_RCC_OscConfig+0x2cc>
    {
      /* Disable ADC control of the Internal High Speed oscillator HSI14 */
      __HAL_RCC_HSI14ADC_DISABLE();
 8005b26:	6b69      	ldr	r1, [r5, #52]	@ 0x34

      /* Get Start Tick */
      tickstart = HAL_GetTick();
      
      /* Wait till HSI is ready */  
      while(__HAL_RCC_GET_FLAG(RCC_FLAG_HSI14RDY) == RESET)
 8005b28:	2702      	movs	r7, #2
      __HAL_RCC_HSI14ADC_DISABLE();
 8005b2a:	430b      	orrs	r3, r1
 8005b2c:	636b      	str	r3, [r5, #52]	@ 0x34
      __HAL_RCC_HSI14_ENABLE();
 8005b2e:	6b6b      	ldr	r3, [r5, #52]	@ 0x34
 8005b30:	431a      	orrs	r2, r3
 8005b32:	636a      	str	r2, [r5, #52]	@ 0x34
      tickstart = HAL_GetTick();
 8005b34:	f7fe fde0 	bl	80046f8 <HAL_GetTick>
 8005b38:	0006      	movs	r6, r0
      while(__HAL_RCC_GET_FLAG(RCC_FLAG_HSI14RDY) == RESET)
 8005b3a:	6b6b      	ldr	r3, [r5, #52]	@ 0x34
 8005b3c:	423b      	tst	r3, r7
 8005b3e:	d100      	bne.n	8005b42 <HAL_RCC_OscConfig+0x56>
 8005b40:	e133      	b.n	8005daa <HAL_RCC_OscConfig+0x2be>
    {
      /* Enable ADC control of the Internal High Speed oscillator HSI14 */
      __HAL_RCC_HSI14ADC_ENABLE();

      /* Adjusts the Internal High Speed oscillator 14Mhz (HSI14) calibration value. */
      __HAL_RCC_HSI14_CALIBRATIONVALUE_ADJUST(RCC_OscInitStruct->HSI14CalibrationValue);
 8005b42:	21f8      	movs	r1, #248	@ 0xf8
 8005b44:	6b6a      	ldr	r2, [r5, #52]	@ 0x34
 8005b46:	69a3      	ldr	r3, [r4, #24]
 8005b48:	438a      	bics	r2, r1
 8005b4a:	00db      	lsls	r3, r3, #3
 8005b4c:	4313      	orrs	r3, r2
 8005b4e:	636b      	str	r3, [r5, #52]	@ 0x34
#endif /* RCC_HSI48_SUPPORT */
       
  /*-------------------------------- PLL Configuration -----------------------*/
  /* Check the parameters */
  assert_param(IS_RCC_PLL(RCC_OscInitStruct->PLL.PLLState));
  if ((RCC_OscInitStruct->PLL.PLLState) != RCC_PLL_NONE)
 8005b50:	6a23      	ldr	r3, [r4, #32]
 8005b52:	2b00      	cmp	r3, #0
 8005b54:	d000      	beq.n	8005b58 <HAL_RCC_OscConfig+0x6c>
 8005b56:	e157      	b.n	8005e08 <HAL_RCC_OscConfig+0x31c>
        }
      }
    }
  }

  return HAL_OK;
 8005b58:	2000      	movs	r0, #0
 8005b5a:	e02a      	b.n	8005bb2 <HAL_RCC_OscConfig+0xc6>
    if((__HAL_RCC_GET_SYSCLK_SOURCE() == RCC_SYSCLKSOURCE_STATUS_HSE) 
 8005b5c:	220c      	movs	r2, #12
 8005b5e:	4da4      	ldr	r5, [pc, #656]	@ (8005df0 <HAL_RCC_OscConfig+0x304>)
 8005b60:	686b      	ldr	r3, [r5, #4]
 8005b62:	4013      	ands	r3, r2
 8005b64:	2b04      	cmp	r3, #4
 8005b66:	d006      	beq.n	8005b76 <HAL_RCC_OscConfig+0x8a>
       || ((__HAL_RCC_GET_SYSCLK_SOURCE() == RCC_SYSCLKSOURCE_STATUS_PLLCLK) && (__HAL_RCC_GET_PLL_OSCSOURCE() == RCC_PLLSOURCE_HSE)))
 8005b68:	686b      	ldr	r3, [r5, #4]
 8005b6a:	4013      	ands	r3, r2
 8005b6c:	2b08      	cmp	r3, #8
 8005b6e:	d10a      	bne.n	8005b86 <HAL_RCC_OscConfig+0x9a>
 8005b70:	686b      	ldr	r3, [r5, #4]
 8005b72:	03db      	lsls	r3, r3, #15
 8005b74:	d507      	bpl.n	8005b86 <HAL_RCC_OscConfig+0x9a>
      if((__HAL_RCC_GET_FLAG(RCC_FLAG_HSERDY) != RESET) && (RCC_OscInitStruct->HSEState == RCC_HSE_OFF))
 8005b76:	682b      	ldr	r3, [r5, #0]
 8005b78:	039b      	lsls	r3, r3, #14
 8005b7a:	d5bf      	bpl.n	8005afc <HAL_RCC_OscConfig+0x10>
 8005b7c:	6863      	ldr	r3, [r4, #4]
 8005b7e:	2b00      	cmp	r3, #0
 8005b80:	d1bc      	bne.n	8005afc <HAL_RCC_OscConfig+0x10>
    return HAL_ERROR;
 8005b82:	2001      	movs	r0, #1
 8005b84:	e015      	b.n	8005bb2 <HAL_RCC_OscConfig+0xc6>
      __HAL_RCC_HSE_CONFIG(RCC_OscInitStruct->HSEState);
 8005b86:	6863      	ldr	r3, [r4, #4]
 8005b88:	2b01      	cmp	r3, #1
 8005b8a:	d114      	bne.n	8005bb6 <HAL_RCC_OscConfig+0xca>
 8005b8c:	2380      	movs	r3, #128	@ 0x80
 8005b8e:	682a      	ldr	r2, [r5, #0]
 8005b90:	025b      	lsls	r3, r3, #9
 8005b92:	4313      	orrs	r3, r2
 8005b94:	602b      	str	r3, [r5, #0]
        tickstart = HAL_GetTick();
 8005b96:	f7fe fdaf 	bl	80046f8 <HAL_GetTick>
        while(__HAL_RCC_GET_FLAG(RCC_FLAG_HSERDY) == RESET)
 8005b9a:	2780      	movs	r7, #128	@ 0x80
        tickstart = HAL_GetTick();
 8005b9c:	0006      	movs	r6, r0
        while(__HAL_RCC_GET_FLAG(RCC_FLAG_HSERDY) == RESET)
 8005b9e:	02bf      	lsls	r7, r7, #10
 8005ba0:	682b      	ldr	r3, [r5, #0]
 8005ba2:	423b      	tst	r3, r7
 8005ba4:	d1aa      	bne.n	8005afc <HAL_RCC_OscConfig+0x10>
          if((HAL_GetTick() - tickstart ) > HSE_TIMEOUT_VALUE)
 8005ba6:	f7fe fda7 	bl	80046f8 <HAL_GetTick>
 8005baa:	1b80      	subs	r0, r0, r6
 8005bac:	2864      	cmp	r0, #100	@ 0x64
 8005bae:	d9f7      	bls.n	8005ba0 <HAL_RCC_OscConfig+0xb4>
            return HAL_TIMEOUT;
 8005bb0:	2003      	movs	r0, #3
}
 8005bb2:	b005      	add	sp, #20
 8005bb4:	bdf0      	pop	{r4, r5, r6, r7, pc}
      __HAL_RCC_HSE_CONFIG(RCC_OscInitStruct->HSEState);
 8005bb6:	2b00      	cmp	r3, #0
 8005bb8:	d116      	bne.n	8005be8 <HAL_RCC_OscConfig+0xfc>
 8005bba:	682b      	ldr	r3, [r5, #0]
 8005bbc:	4a8d      	ldr	r2, [pc, #564]	@ (8005df4 <HAL_RCC_OscConfig+0x308>)
        while(__HAL_RCC_GET_FLAG(RCC_FLAG_HSERDY) != RESET)
 8005bbe:	2780      	movs	r7, #128	@ 0x80
      __HAL_RCC_HSE_CONFIG(RCC_OscInitStruct->HSEState);
 8005bc0:	4013      	ands	r3, r2
 8005bc2:	602b      	str	r3, [r5, #0]
 8005bc4:	682b      	ldr	r3, [r5, #0]
 8005bc6:	4a8c      	ldr	r2, [pc, #560]	@ (8005df8 <HAL_RCC_OscConfig+0x30c>)
        while(__HAL_RCC_GET_FLAG(RCC_FLAG_HSERDY) != RESET)
 8005bc8:	02bf      	lsls	r7, r7, #10
      __HAL_RCC_HSE_CONFIG(RCC_OscInitStruct->HSEState);
 8005bca:	4013      	ands	r3, r2
 8005bcc:	602b      	str	r3, [r5, #0]
        tickstart = HAL_GetTick();
 8005bce:	f7fe fd93 	bl	80046f8 <HAL_GetTick>
 8005bd2:	0006      	movs	r6, r0
        while(__HAL_RCC_GET_FLAG(RCC_FLAG_HSERDY) != RESET)
 8005bd4:	682b      	ldr	r3, [r5, #0]
 8005bd6:	423b      	tst	r3, r7
 8005bd8:	d100      	bne.n	8005bdc <HAL_RCC_OscConfig+0xf0>
 8005bda:	e78f      	b.n	8005afc <HAL_RCC_OscConfig+0x10>
           if((HAL_GetTick() - tickstart ) > HSE_TIMEOUT_VALUE)
 8005bdc:	f7fe fd8c 	bl	80046f8 <HAL_GetTick>
 8005be0:	1b80      	subs	r0, r0, r6
 8005be2:	2864      	cmp	r0, #100	@ 0x64
 8005be4:	d9f6      	bls.n	8005bd4 <HAL_RCC_OscConfig+0xe8>
 8005be6:	e7e3      	b.n	8005bb0 <HAL_RCC_OscConfig+0xc4>
      __HAL_RCC_HSE_CONFIG(RCC_OscInitStruct->HSEState);
 8005be8:	2b05      	cmp	r3, #5
 8005bea:	d105      	bne.n	8005bf8 <HAL_RCC_OscConfig+0x10c>
 8005bec:	2380      	movs	r3, #128	@ 0x80
 8005bee:	682a      	ldr	r2, [r5, #0]
 8005bf0:	02db      	lsls	r3, r3, #11
 8005bf2:	4313      	orrs	r3, r2
 8005bf4:	602b      	str	r3, [r5, #0]
 8005bf6:	e7c9      	b.n	8005b8c <HAL_RCC_OscConfig+0xa0>
 8005bf8:	682b      	ldr	r3, [r5, #0]
 8005bfa:	4a7e      	ldr	r2, [pc, #504]	@ (8005df4 <HAL_RCC_OscConfig+0x308>)
 8005bfc:	4013      	ands	r3, r2
 8005bfe:	602b      	str	r3, [r5, #0]
 8005c00:	682b      	ldr	r3, [r5, #0]
 8005c02:	4a7d      	ldr	r2, [pc, #500]	@ (8005df8 <HAL_RCC_OscConfig+0x30c>)
 8005c04:	4013      	ands	r3, r2
 8005c06:	e7c5      	b.n	8005b94 <HAL_RCC_OscConfig+0xa8>
    if((__HAL_RCC_GET_SYSCLK_SOURCE() == RCC_SYSCLKSOURCE_STATUS_HSI) 
 8005c08:	220c      	movs	r2, #12
 8005c0a:	4d79      	ldr	r5, [pc, #484]	@ (8005df0 <HAL_RCC_OscConfig+0x304>)
 8005c0c:	686b      	ldr	r3, [r5, #4]
 8005c0e:	4213      	tst	r3, r2
 8005c10:	d006      	beq.n	8005c20 <HAL_RCC_OscConfig+0x134>
       || ((__HAL_RCC_GET_SYSCLK_SOURCE() == RCC_SYSCLKSOURCE_STATUS_PLLCLK) && (__HAL_RCC_GET_PLL_OSCSOURCE() == RCC_PLLSOURCE_HSI)))
 8005c12:	686b      	ldr	r3, [r5, #4]
 8005c14:	4013      	ands	r3, r2
 8005c16:	2b08      	cmp	r3, #8
 8005c18:	d110      	bne.n	8005c3c <HAL_RCC_OscConfig+0x150>
 8005c1a:	686b      	ldr	r3, [r5, #4]
 8005c1c:	03db      	lsls	r3, r3, #15
 8005c1e:	d40d      	bmi.n	8005c3c <HAL_RCC_OscConfig+0x150>
      if((__HAL_RCC_GET_FLAG(RCC_FLAG_HSIRDY) != RESET) && (RCC_OscInitStruct->HSIState != RCC_HSI_ON))
 8005c20:	682b      	ldr	r3, [r5, #0]
 8005c22:	079b      	lsls	r3, r3, #30
 8005c24:	d502      	bpl.n	8005c2c <HAL_RCC_OscConfig+0x140>
 8005c26:	68e3      	ldr	r3, [r4, #12]
 8005c28:	2b01      	cmp	r3, #1
 8005c2a:	d1aa      	bne.n	8005b82 <HAL_RCC_OscConfig+0x96>
        __HAL_RCC_HSI_CALIBRATIONVALUE_ADJUST(RCC_OscInitStruct->HSICalibrationValue);
 8005c2c:	21f8      	movs	r1, #248	@ 0xf8
 8005c2e:	682a      	ldr	r2, [r5, #0]
 8005c30:	6923      	ldr	r3, [r4, #16]
 8005c32:	438a      	bics	r2, r1
 8005c34:	00db      	lsls	r3, r3, #3
 8005c36:	4313      	orrs	r3, r2
 8005c38:	602b      	str	r3, [r5, #0]
 8005c3a:	e763      	b.n	8005b04 <HAL_RCC_OscConfig+0x18>
      if(RCC_OscInitStruct->HSIState != RCC_HSI_OFF)
 8005c3c:	68e2      	ldr	r2, [r4, #12]
 8005c3e:	2301      	movs	r3, #1
 8005c40:	2a00      	cmp	r2, #0
 8005c42:	d00f      	beq.n	8005c64 <HAL_RCC_OscConfig+0x178>
        __HAL_RCC_HSI_ENABLE();
 8005c44:	682a      	ldr	r2, [r5, #0]
        while(__HAL_RCC_GET_FLAG(RCC_FLAG_HSIRDY) == RESET)
 8005c46:	2702      	movs	r7, #2
        __HAL_RCC_HSI_ENABLE();
 8005c48:	4313      	orrs	r3, r2
 8005c4a:	602b      	str	r3, [r5, #0]
        tickstart = HAL_GetTick();
 8005c4c:	f7fe fd54 	bl	80046f8 <HAL_GetTick>
 8005c50:	0006      	movs	r6, r0
        while(__HAL_RCC_GET_FLAG(RCC_FLAG_HSIRDY) == RESET)
 8005c52:	682b      	ldr	r3, [r5, #0]
 8005c54:	423b      	tst	r3, r7
 8005c56:	d1e9      	bne.n	8005c2c <HAL_RCC_OscConfig+0x140>
          if((HAL_GetTick() - tickstart ) > HSI_TIMEOUT_VALUE)
 8005c58:	f7fe fd4e 	bl	80046f8 <HAL_GetTick>
 8005c5c:	1b80      	subs	r0, r0, r6
 8005c5e:	2802      	cmp	r0, #2
 8005c60:	d9f7      	bls.n	8005c52 <HAL_RCC_OscConfig+0x166>
 8005c62:	e7a5      	b.n	8005bb0 <HAL_RCC_OscConfig+0xc4>
        __HAL_RCC_HSI_DISABLE();
 8005c64:	682a      	ldr	r2, [r5, #0]
        while(__HAL_RCC_GET_FLAG(RCC_FLAG_HSIRDY) != RESET)
 8005c66:	2702      	movs	r7, #2
        __HAL_RCC_HSI_DISABLE();
 8005c68:	439a      	bics	r2, r3
 8005c6a:	602a      	str	r2, [r5, #0]
        tickstart = HAL_GetTick();
 8005c6c:	f7fe fd44 	bl	80046f8 <HAL_GetTick>
 8005c70:	0006      	movs	r6, r0
        while(__HAL_RCC_GET_FLAG(RCC_FLAG_HSIRDY) != RESET)
 8005c72:	682b      	ldr	r3, [r5, #0]
 8005c74:	423b      	tst	r3, r7
 8005c76:	d100      	bne.n	8005c7a <HAL_RCC_OscConfig+0x18e>
 8005c78:	e744      	b.n	8005b04 <HAL_RCC_OscConfig+0x18>
          if((HAL_GetTick() - tickstart ) > HSI_TIMEOUT_VALUE)
 8005c7a:	f7fe fd3d 	bl	80046f8 <HAL_GetTick>
 8005c7e:	1b80      	subs	r0, r0, r6
 8005c80:	2802      	cmp	r0, #2
 8005c82:	d9f6      	bls.n	8005c72 <HAL_RCC_OscConfig+0x186>
 8005c84:	e794      	b.n	8005bb0 <HAL_RCC_OscConfig+0xc4>
    if(RCC_OscInitStruct->LSIState != RCC_LSI_OFF)
 8005c86:	69e2      	ldr	r2, [r4, #28]
 8005c88:	2301      	movs	r3, #1
 8005c8a:	4d59      	ldr	r5, [pc, #356]	@ (8005df0 <HAL_RCC_OscConfig+0x304>)
 8005c8c:	2a00      	cmp	r2, #0
 8005c8e:	d010      	beq.n	8005cb2 <HAL_RCC_OscConfig+0x1c6>
      __HAL_RCC_LSI_ENABLE();
 8005c90:	6a6a      	ldr	r2, [r5, #36]	@ 0x24
      while(__HAL_RCC_GET_FLAG(RCC_FLAG_LSIRDY) == RESET)
 8005c92:	2702      	movs	r7, #2
      __HAL_RCC_LSI_ENABLE();
 8005c94:	4313      	orrs	r3, r2
 8005c96:	626b      	str	r3, [r5, #36]	@ 0x24
      tickstart = HAL_GetTick();
 8005c98:	f7fe fd2e 	bl	80046f8 <HAL_GetTick>
 8005c9c:	0006      	movs	r6, r0
      while(__HAL_RCC_GET_FLAG(RCC_FLAG_LSIRDY) == RESET)
 8005c9e:	6a6b      	ldr	r3, [r5, #36]	@ 0x24
 8005ca0:	423b      	tst	r3, r7
 8005ca2:	d000      	beq.n	8005ca6 <HAL_RCC_OscConfig+0x1ba>
 8005ca4:	e732      	b.n	8005b0c <HAL_RCC_OscConfig+0x20>
        if((HAL_GetTick() - tickstart ) > LSI_TIMEOUT_VALUE)
 8005ca6:	f7fe fd27 	bl	80046f8 <HAL_GetTick>
 8005caa:	1b80      	subs	r0, r0, r6
 8005cac:	2802      	cmp	r0, #2
 8005cae:	d9f6      	bls.n	8005c9e <HAL_RCC_OscConfig+0x1b2>
 8005cb0:	e77e      	b.n	8005bb0 <HAL_RCC_OscConfig+0xc4>
      __HAL_RCC_LSI_DISABLE();
 8005cb2:	6a6a      	ldr	r2, [r5, #36]	@ 0x24
      while(__HAL_RCC_GET_FLAG(RCC_FLAG_LSIRDY) != RESET)
 8005cb4:	2702      	movs	r7, #2
      __HAL_RCC_LSI_DISABLE();
 8005cb6:	439a      	bics	r2, r3
 8005cb8:	626a      	str	r2, [r5, #36]	@ 0x24
      tickstart = HAL_GetTick();
 8005cba:	f7fe fd1d 	bl	80046f8 <HAL_GetTick>
 8005cbe:	0006      	movs	r6, r0
      while(__HAL_RCC_GET_FLAG(RCC_FLAG_LSIRDY) != RESET)
 8005cc0:	6a6b      	ldr	r3, [r5, #36]	@ 0x24
 8005cc2:	423b      	tst	r3, r7
 8005cc4:	d100      	bne.n	8005cc8 <HAL_RCC_OscConfig+0x1dc>
 8005cc6:	e721      	b.n	8005b0c <HAL_RCC_OscConfig+0x20>
        if((HAL_GetTick() - tickstart ) > LSI_TIMEOUT_VALUE)
 8005cc8:	f7fe fd16 	bl	80046f8 <HAL_GetTick>
 8005ccc:	1b80      	subs	r0, r0, r6
 8005cce:	2802      	cmp	r0, #2
 8005cd0:	d9f6      	bls.n	8005cc0 <HAL_RCC_OscConfig+0x1d4>
 8005cd2:	e76d      	b.n	8005bb0 <HAL_RCC_OscConfig+0xc4>
    if(__HAL_RCC_PWR_IS_CLK_DISABLED())
 8005cd4:	2280      	movs	r2, #128	@ 0x80
    FlagStatus       pwrclkchanged = RESET;
 8005cd6:	2100      	movs	r1, #0
    if(__HAL_RCC_PWR_IS_CLK_DISABLED())
 8005cd8:	4d45      	ldr	r5, [pc, #276]	@ (8005df0 <HAL_RCC_OscConfig+0x304>)
 8005cda:	0552      	lsls	r2, r2, #21
 8005cdc:	69eb      	ldr	r3, [r5, #28]
    FlagStatus       pwrclkchanged = RESET;
 8005cde:	9100      	str	r1, [sp, #0]
    if(__HAL_RCC_PWR_IS_CLK_DISABLED())
 8005ce0:	4213      	tst	r3, r2
 8005ce2:	d108      	bne.n	8005cf6 <HAL_RCC_OscConfig+0x20a>
      __HAL_RCC_PWR_CLK_ENABLE();
 8005ce4:	69eb      	ldr	r3, [r5, #28]
 8005ce6:	4313      	orrs	r3, r2
 8005ce8:	61eb      	str	r3, [r5, #28]
 8005cea:	69eb      	ldr	r3, [r5, #28]
 8005cec:	4013      	ands	r3, r2
 8005cee:	9303      	str	r3, [sp, #12]
 8005cf0:	9b03      	ldr	r3, [sp, #12]
      pwrclkchanged = SET;
 8005cf2:	2301      	movs	r3, #1
 8005cf4:	9300      	str	r3, [sp, #0]
    if(HAL_IS_BIT_CLR(PWR->CR, PWR_CR_DBP))
 8005cf6:	2780      	movs	r7, #128	@ 0x80
 8005cf8:	4e40      	ldr	r6, [pc, #256]	@ (8005dfc <HAL_RCC_OscConfig+0x310>)
 8005cfa:	007f      	lsls	r7, r7, #1
 8005cfc:	6833      	ldr	r3, [r6, #0]
 8005cfe:	423b      	tst	r3, r7
 8005d00:	d015      	beq.n	8005d2e <HAL_RCC_OscConfig+0x242>
    __HAL_RCC_LSE_CONFIG(RCC_OscInitStruct->LSEState);
 8005d02:	68a3      	ldr	r3, [r4, #8]
 8005d04:	2b01      	cmp	r3, #1
 8005d06:	d122      	bne.n	8005d4e <HAL_RCC_OscConfig+0x262>
 8005d08:	6a2a      	ldr	r2, [r5, #32]
 8005d0a:	4313      	orrs	r3, r2
 8005d0c:	622b      	str	r3, [r5, #32]
      tickstart = HAL_GetTick();
 8005d0e:	f7fe fcf3 	bl	80046f8 <HAL_GetTick>
      while(__HAL_RCC_GET_FLAG(RCC_FLAG_LSERDY) == RESET)
 8005d12:	2702      	movs	r7, #2
      tickstart = HAL_GetTick();
 8005d14:	0006      	movs	r6, r0
      while(__HAL_RCC_GET_FLAG(RCC_FLAG_LSERDY) == RESET)
 8005d16:	6a2b      	ldr	r3, [r5, #32]
 8005d18:	423b      	tst	r3, r7
 8005d1a:	d03f      	beq.n	8005d9c <HAL_RCC_OscConfig+0x2b0>
    if(pwrclkchanged == SET)
 8005d1c:	9b00      	ldr	r3, [sp, #0]
 8005d1e:	2b01      	cmp	r3, #1
 8005d20:	d000      	beq.n	8005d24 <HAL_RCC_OscConfig+0x238>
 8005d22:	e6f7      	b.n	8005b14 <HAL_RCC_OscConfig+0x28>
      __HAL_RCC_PWR_CLK_DISABLE();
 8005d24:	69eb      	ldr	r3, [r5, #28]
 8005d26:	4a36      	ldr	r2, [pc, #216]	@ (8005e00 <HAL_RCC_OscConfig+0x314>)
 8005d28:	4013      	ands	r3, r2
 8005d2a:	61eb      	str	r3, [r5, #28]
 8005d2c:	e6f2      	b.n	8005b14 <HAL_RCC_OscConfig+0x28>
      SET_BIT(PWR->CR, PWR_CR_DBP);
 8005d2e:	6833      	ldr	r3, [r6, #0]
 8005d30:	433b      	orrs	r3, r7
 8005d32:	6033      	str	r3, [r6, #0]
      tickstart = HAL_GetTick();
 8005d34:	f7fe fce0 	bl	80046f8 <HAL_GetTick>
 8005d38:	9001      	str	r0, [sp, #4]
      while(HAL_IS_BIT_CLR(PWR->CR, PWR_CR_DBP))
 8005d3a:	6833      	ldr	r3, [r6, #0]
 8005d3c:	423b      	tst	r3, r7
 8005d3e:	d1e0      	bne.n	8005d02 <HAL_RCC_OscConfig+0x216>
        if((HAL_GetTick() - tickstart) > RCC_DBP_TIMEOUT_VALUE)
 8005d40:	f7fe fcda 	bl	80046f8 <HAL_GetTick>
 8005d44:	9b01      	ldr	r3, [sp, #4]
 8005d46:	1ac0      	subs	r0, r0, r3
 8005d48:	2864      	cmp	r0, #100	@ 0x64
 8005d4a:	d9f6      	bls.n	8005d3a <HAL_RCC_OscConfig+0x24e>
 8005d4c:	e730      	b.n	8005bb0 <HAL_RCC_OscConfig+0xc4>
    __HAL_RCC_LSE_CONFIG(RCC_OscInitStruct->LSEState);
 8005d4e:	2201      	movs	r2, #1
 8005d50:	2b00      	cmp	r3, #0
 8005d52:	d114      	bne.n	8005d7e <HAL_RCC_OscConfig+0x292>
 8005d54:	6a2b      	ldr	r3, [r5, #32]
      while(__HAL_RCC_GET_FLAG(RCC_FLAG_LSERDY) != RESET)
 8005d56:	2702      	movs	r7, #2
    __HAL_RCC_LSE_CONFIG(RCC_OscInitStruct->LSEState);
 8005d58:	4393      	bics	r3, r2
 8005d5a:	622b      	str	r3, [r5, #32]
 8005d5c:	6a2b      	ldr	r3, [r5, #32]
 8005d5e:	3203      	adds	r2, #3
 8005d60:	4393      	bics	r3, r2
 8005d62:	622b      	str	r3, [r5, #32]
      tickstart = HAL_GetTick();
 8005d64:	f7fe fcc8 	bl	80046f8 <HAL_GetTick>
 8005d68:	0006      	movs	r6, r0
      while(__HAL_RCC_GET_FLAG(RCC_FLAG_LSERDY) != RESET)
 8005d6a:	6a2b      	ldr	r3, [r5, #32]
 8005d6c:	423b      	tst	r3, r7
 8005d6e:	d0d5      	beq.n	8005d1c <HAL_RCC_OscConfig+0x230>
        if((HAL_GetTick() - tickstart ) > RCC_LSE_TIMEOUT_VALUE)
 8005d70:	f7fe fcc2 	bl	80046f8 <HAL_GetTick>
 8005d74:	4b23      	ldr	r3, [pc, #140]	@ (8005e04 <HAL_RCC_OscConfig+0x318>)
 8005d76:	1b80      	subs	r0, r0, r6
 8005d78:	4298      	cmp	r0, r3
 8005d7a:	d9f6      	bls.n	8005d6a <HAL_RCC_OscConfig+0x27e>
 8005d7c:	e718      	b.n	8005bb0 <HAL_RCC_OscConfig+0xc4>
    __HAL_RCC_LSE_CONFIG(RCC_OscInitStruct->LSEState);
 8005d7e:	2b05      	cmp	r3, #5
 8005d80:	d105      	bne.n	8005d8e <HAL_RCC_OscConfig+0x2a2>
 8005d82:	6a29      	ldr	r1, [r5, #32]
 8005d84:	3b01      	subs	r3, #1
 8005d86:	430b      	orrs	r3, r1
 8005d88:	622b      	str	r3, [r5, #32]
 8005d8a:	6a2b      	ldr	r3, [r5, #32]
 8005d8c:	e7bd      	b.n	8005d0a <HAL_RCC_OscConfig+0x21e>
 8005d8e:	6a2b      	ldr	r3, [r5, #32]
 8005d90:	4393      	bics	r3, r2
 8005d92:	2204      	movs	r2, #4
 8005d94:	622b      	str	r3, [r5, #32]
 8005d96:	6a2b      	ldr	r3, [r5, #32]
 8005d98:	4393      	bics	r3, r2
 8005d9a:	e7b7      	b.n	8005d0c <HAL_RCC_OscConfig+0x220>
        if((HAL_GetTick() - tickstart ) > RCC_LSE_TIMEOUT_VALUE)
 8005d9c:	f7fe fcac 	bl	80046f8 <HAL_GetTick>
 8005da0:	4b18      	ldr	r3, [pc, #96]	@ (8005e04 <HAL_RCC_OscConfig+0x318>)
 8005da2:	1b80      	subs	r0, r0, r6
 8005da4:	4298      	cmp	r0, r3
 8005da6:	d9b6      	bls.n	8005d16 <HAL_RCC_OscConfig+0x22a>
 8005da8:	e702      	b.n	8005bb0 <HAL_RCC_OscConfig+0xc4>
        if((HAL_GetTick() - tickstart) > HSI14_TIMEOUT_VALUE)
 8005daa:	f7fe fca5 	bl	80046f8 <HAL_GetTick>
 8005dae:	1b80      	subs	r0, r0, r6
 8005db0:	2802      	cmp	r0, #2
 8005db2:	d800      	bhi.n	8005db6 <HAL_RCC_OscConfig+0x2ca>
 8005db4:	e6c1      	b.n	8005b3a <HAL_RCC_OscConfig+0x4e>
 8005db6:	e6fb      	b.n	8005bb0 <HAL_RCC_OscConfig+0xc4>
    else if(RCC_OscInitStruct->HSI14State == RCC_HSI14_ADC_CONTROL)
 8005db8:	3205      	adds	r2, #5
 8005dba:	d103      	bne.n	8005dc4 <HAL_RCC_OscConfig+0x2d8>
      __HAL_RCC_HSI14ADC_ENABLE();
 8005dbc:	6b6a      	ldr	r2, [r5, #52]	@ 0x34
 8005dbe:	439a      	bics	r2, r3
 8005dc0:	636a      	str	r2, [r5, #52]	@ 0x34
 8005dc2:	e6be      	b.n	8005b42 <HAL_RCC_OscConfig+0x56>
      __HAL_RCC_HSI14ADC_DISABLE();
 8005dc4:	6b6a      	ldr	r2, [r5, #52]	@ 0x34
      while(__HAL_RCC_GET_FLAG(RCC_FLAG_HSI14RDY) != RESET)
 8005dc6:	2702      	movs	r7, #2
      __HAL_RCC_HSI14ADC_DISABLE();
 8005dc8:	4313      	orrs	r3, r2
      __HAL_RCC_HSI14_DISABLE();
 8005dca:	2201      	movs	r2, #1
      __HAL_RCC_HSI14ADC_DISABLE();
 8005dcc:	636b      	str	r3, [r5, #52]	@ 0x34
      __HAL_RCC_HSI14_DISABLE();
 8005dce:	6b6b      	ldr	r3, [r5, #52]	@ 0x34
 8005dd0:	4393      	bics	r3, r2
 8005dd2:	636b      	str	r3, [r5, #52]	@ 0x34
      tickstart = HAL_GetTick();
 8005dd4:	f7fe fc90 	bl	80046f8 <HAL_GetTick>
 8005dd8:	0006      	movs	r6, r0
      while(__HAL_RCC_GET_FLAG(RCC_FLAG_HSI14RDY) != RESET)
 8005dda:	6b6b      	ldr	r3, [r5, #52]	@ 0x34
 8005ddc:	423b      	tst	r3, r7
 8005dde:	d100      	bne.n	8005de2 <HAL_RCC_OscConfig+0x2f6>
 8005de0:	e6b6      	b.n	8005b50 <HAL_RCC_OscConfig+0x64>
        if((HAL_GetTick() - tickstart) > HSI14_TIMEOUT_VALUE)
 8005de2:	f7fe fc89 	bl	80046f8 <HAL_GetTick>
 8005de6:	1b80      	subs	r0, r0, r6
 8005de8:	2802      	cmp	r0, #2
 8005dea:	d9f6      	bls.n	8005dda <HAL_RCC_OscConfig+0x2ee>
 8005dec:	e6e0      	b.n	8005bb0 <HAL_RCC_OscConfig+0xc4>
 8005dee:	46c0      	nop			@ (mov r8, r8)
 8005df0:	40021000 	.word	0x40021000
 8005df4:	fffeffff 	.word	0xfffeffff
 8005df8:	fffbffff 	.word	0xfffbffff
 8005dfc:	40007000 	.word	0x40007000
 8005e00:	efffffff 	.word	0xefffffff
 8005e04:	00001388 	.word	0x00001388
    if(__HAL_RCC_GET_SYSCLK_SOURCE() != RCC_SYSCLKSOURCE_STATUS_PLLCLK)
 8005e08:	210c      	movs	r1, #12
 8005e0a:	4d34      	ldr	r5, [pc, #208]	@ (8005edc <HAL_RCC_OscConfig+0x3f0>)
 8005e0c:	686a      	ldr	r2, [r5, #4]
 8005e0e:	400a      	ands	r2, r1
 8005e10:	2a08      	cmp	r2, #8
 8005e12:	d047      	beq.n	8005ea4 <HAL_RCC_OscConfig+0x3b8>
      if((RCC_OscInitStruct->PLL.PLLState) == RCC_PLL_ON)
 8005e14:	4a32      	ldr	r2, [pc, #200]	@ (8005ee0 <HAL_RCC_OscConfig+0x3f4>)
 8005e16:	2b02      	cmp	r3, #2
 8005e18:	d132      	bne.n	8005e80 <HAL_RCC_OscConfig+0x394>
        __HAL_RCC_PLL_DISABLE();
 8005e1a:	682b      	ldr	r3, [r5, #0]
        while(__HAL_RCC_GET_FLAG(RCC_FLAG_PLLRDY)  != RESET)
 8005e1c:	2780      	movs	r7, #128	@ 0x80
        __HAL_RCC_PLL_DISABLE();
 8005e1e:	4013      	ands	r3, r2
 8005e20:	602b      	str	r3, [r5, #0]
        tickstart = HAL_GetTick();
 8005e22:	f7fe fc69 	bl	80046f8 <HAL_GetTick>
 8005e26:	0006      	movs	r6, r0
        while(__HAL_RCC_GET_FLAG(RCC_FLAG_PLLRDY)  != RESET)
 8005e28:	04bf      	lsls	r7, r7, #18
 8005e2a:	682b      	ldr	r3, [r5, #0]
 8005e2c:	423b      	tst	r3, r7
 8005e2e:	d121      	bne.n	8005e74 <HAL_RCC_OscConfig+0x388>
        __HAL_RCC_PLL_CONFIG(RCC_OscInitStruct->PLL.PLLSource,
 8005e30:	220f      	movs	r2, #15
 8005e32:	6aeb      	ldr	r3, [r5, #44]	@ 0x2c
        while(__HAL_RCC_GET_FLAG(RCC_FLAG_PLLRDY)  == RESET)
 8005e34:	2680      	movs	r6, #128	@ 0x80
        __HAL_RCC_PLL_CONFIG(RCC_OscInitStruct->PLL.PLLSource,
 8005e36:	4393      	bics	r3, r2
 8005e38:	6ae2      	ldr	r2, [r4, #44]	@ 0x2c
        while(__HAL_RCC_GET_FLAG(RCC_FLAG_PLLRDY)  == RESET)
 8005e3a:	04b6      	lsls	r6, r6, #18
        __HAL_RCC_PLL_CONFIG(RCC_OscInitStruct->PLL.PLLSource,
 8005e3c:	4313      	orrs	r3, r2
 8005e3e:	62eb      	str	r3, [r5, #44]	@ 0x2c
 8005e40:	6a61      	ldr	r1, [r4, #36]	@ 0x24
 8005e42:	6aa3      	ldr	r3, [r4, #40]	@ 0x28
 8005e44:	686a      	ldr	r2, [r5, #4]
 8005e46:	430b      	orrs	r3, r1
 8005e48:	4926      	ldr	r1, [pc, #152]	@ (8005ee4 <HAL_RCC_OscConfig+0x3f8>)
 8005e4a:	400a      	ands	r2, r1
 8005e4c:	4313      	orrs	r3, r2
 8005e4e:	606b      	str	r3, [r5, #4]
        __HAL_RCC_PLL_ENABLE();
 8005e50:	2380      	movs	r3, #128	@ 0x80
 8005e52:	682a      	ldr	r2, [r5, #0]
 8005e54:	045b      	lsls	r3, r3, #17
 8005e56:	4313      	orrs	r3, r2
 8005e58:	602b      	str	r3, [r5, #0]
        tickstart = HAL_GetTick();
 8005e5a:	f7fe fc4d 	bl	80046f8 <HAL_GetTick>
 8005e5e:	0004      	movs	r4, r0
        while(__HAL_RCC_GET_FLAG(RCC_FLAG_PLLRDY)  == RESET)
 8005e60:	682b      	ldr	r3, [r5, #0]
 8005e62:	4233      	tst	r3, r6
 8005e64:	d000      	beq.n	8005e68 <HAL_RCC_OscConfig+0x37c>
 8005e66:	e677      	b.n	8005b58 <HAL_RCC_OscConfig+0x6c>
          if((HAL_GetTick() - tickstart ) > PLL_TIMEOUT_VALUE)
 8005e68:	f7fe fc46 	bl	80046f8 <HAL_GetTick>
 8005e6c:	1b00      	subs	r0, r0, r4
 8005e6e:	2802      	cmp	r0, #2
 8005e70:	d9f6      	bls.n	8005e60 <HAL_RCC_OscConfig+0x374>
 8005e72:	e69d      	b.n	8005bb0 <HAL_RCC_OscConfig+0xc4>
          if((HAL_GetTick() - tickstart ) > PLL_TIMEOUT_VALUE)
 8005e74:	f7fe fc40 	bl	80046f8 <HAL_GetTick>
 8005e78:	1b80      	subs	r0, r0, r6
 8005e7a:	2802      	cmp	r0, #2
 8005e7c:	d9d5      	bls.n	8005e2a <HAL_RCC_OscConfig+0x33e>
 8005e7e:	e697      	b.n	8005bb0 <HAL_RCC_OscConfig+0xc4>
        __HAL_RCC_PLL_DISABLE();
 8005e80:	682b      	ldr	r3, [r5, #0]
        while(__HAL_RCC_GET_FLAG(RCC_FLAG_PLLRDY)  != RESET)
 8005e82:	2680      	movs	r6, #128	@ 0x80
        __HAL_RCC_PLL_DISABLE();
 8005e84:	4013      	ands	r3, r2
 8005e86:	602b      	str	r3, [r5, #0]
        tickstart = HAL_GetTick();
 8005e88:	f7fe fc36 	bl	80046f8 <HAL_GetTick>
 8005e8c:	0004      	movs	r4, r0
        while(__HAL_RCC_GET_FLAG(RCC_FLAG_PLLRDY)  != RESET)
 8005e8e:	04b6      	lsls	r6, r6, #18
 8005e90:	682b      	ldr	r3, [r5, #0]
 8005e92:	4233      	tst	r3, r6
 8005e94:	d100      	bne.n	8005e98 <HAL_RCC_OscConfig+0x3ac>
 8005e96:	e65f      	b.n	8005b58 <HAL_RCC_OscConfig+0x6c>
          if((HAL_GetTick() - tickstart ) > PLL_TIMEOUT_VALUE)
 8005e98:	f7fe fc2e 	bl	80046f8 <HAL_GetTick>
 8005e9c:	1b00      	subs	r0, r0, r4
 8005e9e:	2802      	cmp	r0, #2
 8005ea0:	d9f6      	bls.n	8005e90 <HAL_RCC_OscConfig+0x3a4>
 8005ea2:	e685      	b.n	8005bb0 <HAL_RCC_OscConfig+0xc4>
      if((RCC_OscInitStruct->PLL.PLLState) == RCC_PLL_OFF)
 8005ea4:	2b01      	cmp	r3, #1
 8005ea6:	d100      	bne.n	8005eaa <HAL_RCC_OscConfig+0x3be>
 8005ea8:	e66b      	b.n	8005b82 <HAL_RCC_OscConfig+0x96>
        if((READ_BIT(pll_config,  RCC_CFGR_PLLSRC)  != RCC_OscInitStruct->PLL.PLLSource) ||
 8005eaa:	2280      	movs	r2, #128	@ 0x80
        pll_config  = RCC->CFGR;
 8005eac:	6868      	ldr	r0, [r5, #4]
        if((READ_BIT(pll_config,  RCC_CFGR_PLLSRC)  != RCC_OscInitStruct->PLL.PLLSource) ||
 8005eae:	6a61      	ldr	r1, [r4, #36]	@ 0x24
 8005eb0:	0252      	lsls	r2, r2, #9
        pll_config2 = RCC->CFGR2;
 8005eb2:	6aeb      	ldr	r3, [r5, #44]	@ 0x2c
        if((READ_BIT(pll_config,  RCC_CFGR_PLLSRC)  != RCC_OscInitStruct->PLL.PLLSource) ||
 8005eb4:	4002      	ands	r2, r0
 8005eb6:	428a      	cmp	r2, r1
 8005eb8:	d000      	beq.n	8005ebc <HAL_RCC_OscConfig+0x3d0>
 8005eba:	e662      	b.n	8005b82 <HAL_RCC_OscConfig+0x96>
           (READ_BIT(pll_config2, RCC_CFGR2_PREDIV) != RCC_OscInitStruct->PLL.PREDIV)    ||
 8005ebc:	220f      	movs	r2, #15
 8005ebe:	4013      	ands	r3, r2
        if((READ_BIT(pll_config,  RCC_CFGR_PLLSRC)  != RCC_OscInitStruct->PLL.PLLSource) ||
 8005ec0:	6ae2      	ldr	r2, [r4, #44]	@ 0x2c
 8005ec2:	4293      	cmp	r3, r2
 8005ec4:	d000      	beq.n	8005ec8 <HAL_RCC_OscConfig+0x3dc>
 8005ec6:	e65c      	b.n	8005b82 <HAL_RCC_OscConfig+0x96>
           (READ_BIT(pll_config,  RCC_CFGR_PLLMUL)  != RCC_OscInitStruct->PLL.PLLMUL))
 8005ec8:	23f0      	movs	r3, #240	@ 0xf0
 8005eca:	039b      	lsls	r3, r3, #14
 8005ecc:	4018      	ands	r0, r3
           (READ_BIT(pll_config2, RCC_CFGR2_PREDIV) != RCC_OscInitStruct->PLL.PREDIV)    ||
 8005ece:	6aa3      	ldr	r3, [r4, #40]	@ 0x28
 8005ed0:	1ac0      	subs	r0, r0, r3
 8005ed2:	1e43      	subs	r3, r0, #1
 8005ed4:	4198      	sbcs	r0, r3
 8005ed6:	b2c0      	uxtb	r0, r0
 8005ed8:	e66b      	b.n	8005bb2 <HAL_RCC_OscConfig+0xc6>
 8005eda:	46c0      	nop			@ (mov r8, r8)
 8005edc:	40021000 	.word	0x40021000
 8005ee0:	feffffff 	.word	0xfeffffff
 8005ee4:	ffc2ffff 	.word	0xffc2ffff

08005ee8 <HAL_RCC_GetSysClockFreq>:
  uint32_t sysclockfreq = 0U;
  
  tmpreg = RCC->CFGR;
  
  /* Get SYSCLK source -------------------------------------------------------*/
  switch (tmpreg & RCC_CFGR_SWS)
 8005ee8:	220c      	movs	r2, #12
{
 8005eea:	b570      	push	{r4, r5, r6, lr}
  tmpreg = RCC->CFGR;
 8005eec:	4d0c      	ldr	r5, [pc, #48]	@ (8005f20 <HAL_RCC_GetSysClockFreq+0x38>)
 8005eee:	686b      	ldr	r3, [r5, #4]
  switch (tmpreg & RCC_CFGR_SWS)
 8005ef0:	401a      	ands	r2, r3
 8005ef2:	2a08      	cmp	r2, #8
 8005ef4:	d111      	bne.n	8005f1a <HAL_RCC_GetSysClockFreq+0x32>
      sysclockfreq = HSE_VALUE;
      break;
    }
    case RCC_SYSCLKSOURCE_STATUS_PLLCLK:  /* PLL used as system clock */
    {
      pllmul = aPLLMULFactorTable[(uint32_t)(tmpreg & RCC_CFGR_PLLMUL) >> RCC_CFGR_PLLMUL_BITNUMBER];
 8005ef6:	200f      	movs	r0, #15
 8005ef8:	490a      	ldr	r1, [pc, #40]	@ (8005f24 <HAL_RCC_GetSysClockFreq+0x3c>)
 8005efa:	0c9a      	lsrs	r2, r3, #18
 8005efc:	4002      	ands	r2, r0
 8005efe:	5c8c      	ldrb	r4, [r1, r2]
      prediv = aPredivFactorTable[(uint32_t)(RCC->CFGR2 & RCC_CFGR2_PREDIV) >> RCC_CFGR2_PREDIV_BITNUMBER];
 8005f00:	6aea      	ldr	r2, [r5, #44]	@ 0x2c
      if ((tmpreg & RCC_CFGR_PLLSRC) == RCC_PLLSOURCE_HSE)
 8005f02:	03db      	lsls	r3, r3, #15
 8005f04:	d507      	bpl.n	8005f16 <HAL_RCC_GetSysClockFreq+0x2e>
      prediv = aPredivFactorTable[(uint32_t)(RCC->CFGR2 & RCC_CFGR2_PREDIV) >> RCC_CFGR2_PREDIV_BITNUMBER];
 8005f06:	4908      	ldr	r1, [pc, #32]	@ (8005f28 <HAL_RCC_GetSysClockFreq+0x40>)
 8005f08:	4002      	ands	r2, r0
 8005f0a:	5c89      	ldrb	r1, [r1, r2]
      {
        /* HSE used as PLL clock source : PLLCLK = HSE/PREDIV * PLLMUL */
        pllclk = (uint32_t)((uint64_t) HSE_VALUE / (uint64_t) (prediv)) * ((uint64_t) pllmul);
 8005f0c:	4807      	ldr	r0, [pc, #28]	@ (8005f2c <HAL_RCC_GetSysClockFreq+0x44>)
 8005f0e:	f7fa f917 	bl	8000140 <__udivsi3>
#if  (defined(STM32F042x6) || defined(STM32F048xx) || defined(STM32F070x6) || defined(STM32F071xB) || defined(STM32F072xB) || defined(STM32F078xx) || defined(STM32F070xB) || defined(STM32F091xC) || defined(STM32F098xx) || defined(STM32F030xC))
        /* HSI used as PLL clock source : PLLCLK = HSI/PREDIV * PLLMUL */
        pllclk = (uint32_t)((uint64_t) HSI_VALUE / (uint64_t) (prediv)) * ((uint64_t) pllmul);
#else
        /* HSI used as PLL clock source : PLLCLK = HSI/2 * PLLMUL */
        pllclk = (uint32_t)((uint64_t) (HSI_VALUE >> 1U) * ((uint64_t) pllmul));
 8005f12:	4360      	muls	r0, r4
      sysclockfreq = HSI_VALUE;
      break;
    }
  }
  return sysclockfreq;
}
 8005f14:	bd70      	pop	{r4, r5, r6, pc}
        pllclk = (uint32_t)((uint64_t) (HSI_VALUE >> 1U) * ((uint64_t) pllmul));
 8005f16:	4806      	ldr	r0, [pc, #24]	@ (8005f30 <HAL_RCC_GetSysClockFreq+0x48>)
 8005f18:	e7fb      	b.n	8005f12 <HAL_RCC_GetSysClockFreq+0x2a>
      sysclockfreq = HSE_VALUE;
 8005f1a:	4804      	ldr	r0, [pc, #16]	@ (8005f2c <HAL_RCC_GetSysClockFreq+0x44>)
  return sysclockfreq;
 8005f1c:	e7fa      	b.n	8005f14 <HAL_RCC_GetSysClockFreq+0x2c>
 8005f1e:	46c0      	nop			@ (mov r8, r8)
 8005f20:	40021000 	.word	0x40021000
 8005f24:	08007b1e 	.word	0x08007b1e
 8005f28:	08007b0e 	.word	0x08007b0e
 8005f2c:	007a1200 	.word	0x007a1200
 8005f30:	003d0900 	.word	0x003d0900

08005f34 <HAL_RCC_ClockConfig>:
{
 8005f34:	b5f7      	push	{r0, r1, r2, r4, r5, r6, r7, lr}
 8005f36:	0004      	movs	r4, r0
 8005f38:	000e      	movs	r6, r1
  if(RCC_ClkInitStruct == NULL)
 8005f3a:	2800      	cmp	r0, #0
 8005f3c:	d101      	bne.n	8005f42 <HAL_RCC_ClockConfig+0xe>
    return HAL_ERROR;
 8005f3e:	2001      	movs	r0, #1
}
 8005f40:	bdfe      	pop	{r1, r2, r3, r4, r5, r6, r7, pc}
  if(FLatency > __HAL_FLASH_GET_LATENCY())
 8005f42:	2201      	movs	r2, #1
 8005f44:	4d37      	ldr	r5, [pc, #220]	@ (8006024 <HAL_RCC_ClockConfig+0xf0>)
 8005f46:	682b      	ldr	r3, [r5, #0]
 8005f48:	4013      	ands	r3, r2
 8005f4a:	428b      	cmp	r3, r1
 8005f4c:	d31c      	bcc.n	8005f88 <HAL_RCC_ClockConfig+0x54>
  if(((RCC_ClkInitStruct->ClockType) & RCC_CLOCKTYPE_HCLK) == RCC_CLOCKTYPE_HCLK)
 8005f4e:	6822      	ldr	r2, [r4, #0]
 8005f50:	0793      	lsls	r3, r2, #30
 8005f52:	d422      	bmi.n	8005f9a <HAL_RCC_ClockConfig+0x66>
  if(((RCC_ClkInitStruct->ClockType) & RCC_CLOCKTYPE_SYSCLK) == RCC_CLOCKTYPE_SYSCLK)
 8005f54:	07d2      	lsls	r2, r2, #31
 8005f56:	d42f      	bmi.n	8005fb8 <HAL_RCC_ClockConfig+0x84>
  if(FLatency < __HAL_FLASH_GET_LATENCY())
 8005f58:	2301      	movs	r3, #1
 8005f5a:	682a      	ldr	r2, [r5, #0]
 8005f5c:	401a      	ands	r2, r3
 8005f5e:	42b2      	cmp	r2, r6
 8005f60:	d851      	bhi.n	8006006 <HAL_RCC_ClockConfig+0xd2>
  if(((RCC_ClkInitStruct->ClockType) & RCC_CLOCKTYPE_PCLK1) == RCC_CLOCKTYPE_PCLK1)
 8005f62:	6823      	ldr	r3, [r4, #0]
 8005f64:	4d30      	ldr	r5, [pc, #192]	@ (8006028 <HAL_RCC_ClockConfig+0xf4>)
 8005f66:	075b      	lsls	r3, r3, #29
 8005f68:	d454      	bmi.n	8006014 <HAL_RCC_ClockConfig+0xe0>
  SystemCoreClock = HAL_RCC_GetSysClockFreq() >> AHBPrescTable[(RCC->CFGR & RCC_CFGR_HPRE)>> RCC_CFGR_HPRE_BITNUMBER];
 8005f6a:	f7ff ffbd 	bl	8005ee8 <HAL_RCC_GetSysClockFreq>
 8005f6e:	686b      	ldr	r3, [r5, #4]
 8005f70:	4a2e      	ldr	r2, [pc, #184]	@ (800602c <HAL_RCC_ClockConfig+0xf8>)
 8005f72:	061b      	lsls	r3, r3, #24
 8005f74:	0f1b      	lsrs	r3, r3, #28
 8005f76:	5cd3      	ldrb	r3, [r2, r3]
 8005f78:	492d      	ldr	r1, [pc, #180]	@ (8006030 <HAL_RCC_ClockConfig+0xfc>)
 8005f7a:	40d8      	lsrs	r0, r3
 8005f7c:	6008      	str	r0, [r1, #0]
  HAL_InitTick (TICK_INT_PRIORITY);
 8005f7e:	2003      	movs	r0, #3
 8005f80:	f7fe fb7a 	bl	8004678 <HAL_InitTick>
  return HAL_OK;
 8005f84:	2000      	movs	r0, #0
 8005f86:	e7db      	b.n	8005f40 <HAL_RCC_ClockConfig+0xc>
    __HAL_FLASH_SET_LATENCY(FLatency);
 8005f88:	682b      	ldr	r3, [r5, #0]
 8005f8a:	4393      	bics	r3, r2
 8005f8c:	430b      	orrs	r3, r1
 8005f8e:	602b      	str	r3, [r5, #0]
    if(__HAL_FLASH_GET_LATENCY() != FLatency)
 8005f90:	682b      	ldr	r3, [r5, #0]
 8005f92:	4013      	ands	r3, r2
 8005f94:	428b      	cmp	r3, r1
 8005f96:	d1d2      	bne.n	8005f3e <HAL_RCC_ClockConfig+0xa>
 8005f98:	e7d9      	b.n	8005f4e <HAL_RCC_ClockConfig+0x1a>
    if(((RCC_ClkInitStruct->ClockType) & RCC_CLOCKTYPE_PCLK1) == RCC_CLOCKTYPE_PCLK1)
 8005f9a:	4923      	ldr	r1, [pc, #140]	@ (8006028 <HAL_RCC_ClockConfig+0xf4>)
 8005f9c:	0753      	lsls	r3, r2, #29
 8005f9e:	d504      	bpl.n	8005faa <HAL_RCC_ClockConfig+0x76>
      MODIFY_REG(RCC->CFGR, RCC_CFGR_PPRE, RCC_HCLK_DIV16);
 8005fa0:	23e0      	movs	r3, #224	@ 0xe0
 8005fa2:	6848      	ldr	r0, [r1, #4]
 8005fa4:	00db      	lsls	r3, r3, #3
 8005fa6:	4303      	orrs	r3, r0
 8005fa8:	604b      	str	r3, [r1, #4]
    MODIFY_REG(RCC->CFGR, RCC_CFGR_HPRE, RCC_ClkInitStruct->AHBCLKDivider);
 8005faa:	20f0      	movs	r0, #240	@ 0xf0
 8005fac:	684b      	ldr	r3, [r1, #4]
 8005fae:	4383      	bics	r3, r0
 8005fb0:	68a0      	ldr	r0, [r4, #8]
 8005fb2:	4303      	orrs	r3, r0
 8005fb4:	604b      	str	r3, [r1, #4]
 8005fb6:	e7cd      	b.n	8005f54 <HAL_RCC_ClockConfig+0x20>
    if(RCC_ClkInitStruct->SYSCLKSource == RCC_SYSCLKSOURCE_HSE)
 8005fb8:	4f1b      	ldr	r7, [pc, #108]	@ (8006028 <HAL_RCC_ClockConfig+0xf4>)
 8005fba:	6862      	ldr	r2, [r4, #4]
      if(__HAL_RCC_GET_FLAG(RCC_FLAG_HSERDY) == RESET)
 8005fbc:	683b      	ldr	r3, [r7, #0]
    if(RCC_ClkInitStruct->SYSCLKSource == RCC_SYSCLKSOURCE_HSE)
 8005fbe:	2a01      	cmp	r2, #1
 8005fc0:	d119      	bne.n	8005ff6 <HAL_RCC_ClockConfig+0xc2>
      if(__HAL_RCC_GET_FLAG(RCC_FLAG_HSERDY) == RESET)
 8005fc2:	039b      	lsls	r3, r3, #14
 8005fc4:	d5bb      	bpl.n	8005f3e <HAL_RCC_ClockConfig+0xa>
    __HAL_RCC_SYSCLK_CONFIG(RCC_ClkInitStruct->SYSCLKSource);
 8005fc6:	2103      	movs	r1, #3
 8005fc8:	687b      	ldr	r3, [r7, #4]
 8005fca:	438b      	bics	r3, r1
 8005fcc:	4313      	orrs	r3, r2
 8005fce:	607b      	str	r3, [r7, #4]
    tickstart = HAL_GetTick();
 8005fd0:	f7fe fb92 	bl	80046f8 <HAL_GetTick>
 8005fd4:	9001      	str	r0, [sp, #4]
    while (__HAL_RCC_GET_SYSCLK_SOURCE() != (RCC_ClkInitStruct->SYSCLKSource << RCC_CFGR_SWS_Pos))
 8005fd6:	230c      	movs	r3, #12
 8005fd8:	687a      	ldr	r2, [r7, #4]
 8005fda:	401a      	ands	r2, r3
 8005fdc:	6863      	ldr	r3, [r4, #4]
 8005fde:	009b      	lsls	r3, r3, #2
 8005fe0:	429a      	cmp	r2, r3
 8005fe2:	d0b9      	beq.n	8005f58 <HAL_RCC_ClockConfig+0x24>
      if((HAL_GetTick() - tickstart ) > CLOCKSWITCH_TIMEOUT_VALUE)
 8005fe4:	f7fe fb88 	bl	80046f8 <HAL_GetTick>
 8005fe8:	9b01      	ldr	r3, [sp, #4]
 8005fea:	1ac0      	subs	r0, r0, r3
 8005fec:	4b11      	ldr	r3, [pc, #68]	@ (8006034 <HAL_RCC_ClockConfig+0x100>)
 8005fee:	4298      	cmp	r0, r3
 8005ff0:	d9f1      	bls.n	8005fd6 <HAL_RCC_ClockConfig+0xa2>
        return HAL_TIMEOUT;
 8005ff2:	2003      	movs	r0, #3
 8005ff4:	e7a4      	b.n	8005f40 <HAL_RCC_ClockConfig+0xc>
    else if(RCC_ClkInitStruct->SYSCLKSource == RCC_SYSCLKSOURCE_PLLCLK)
 8005ff6:	2a02      	cmp	r2, #2
 8005ff8:	d102      	bne.n	8006000 <HAL_RCC_ClockConfig+0xcc>
      if(__HAL_RCC_GET_FLAG(RCC_FLAG_PLLRDY) == RESET)
 8005ffa:	019b      	lsls	r3, r3, #6
 8005ffc:	d4e3      	bmi.n	8005fc6 <HAL_RCC_ClockConfig+0x92>
 8005ffe:	e79e      	b.n	8005f3e <HAL_RCC_ClockConfig+0xa>
      if(__HAL_RCC_GET_FLAG(RCC_FLAG_HSIRDY) == RESET)
 8006000:	079b      	lsls	r3, r3, #30
 8006002:	d4e0      	bmi.n	8005fc6 <HAL_RCC_ClockConfig+0x92>
 8006004:	e79b      	b.n	8005f3e <HAL_RCC_ClockConfig+0xa>
    __HAL_FLASH_SET_LATENCY(FLatency);
 8006006:	682a      	ldr	r2, [r5, #0]
 8006008:	439a      	bics	r2, r3
 800600a:	602a      	str	r2, [r5, #0]
    if(__HAL_FLASH_GET_LATENCY() != FLatency)
 800600c:	682a      	ldr	r2, [r5, #0]
 800600e:	421a      	tst	r2, r3
 8006010:	d0a7      	beq.n	8005f62 <HAL_RCC_ClockConfig+0x2e>
 8006012:	e794      	b.n	8005f3e <HAL_RCC_ClockConfig+0xa>
    MODIFY_REG(RCC->CFGR, RCC_CFGR_PPRE, RCC_ClkInitStruct->APB1CLKDivider);
 8006014:	686b      	ldr	r3, [r5, #4]
 8006016:	4a08      	ldr	r2, [pc, #32]	@ (8006038 <HAL_RCC_ClockConfig+0x104>)
 8006018:	4013      	ands	r3, r2
 800601a:	68e2      	ldr	r2, [r4, #12]
 800601c:	4313      	orrs	r3, r2
 800601e:	606b      	str	r3, [r5, #4]
 8006020:	e7a3      	b.n	8005f6a <HAL_RCC_ClockConfig+0x36>
 8006022:	46c0      	nop			@ (mov r8, r8)
 8006024:	40022000 	.word	0x40022000
 8006028:	40021000 	.word	0x40021000
 800602c:	08007af4 	.word	0x08007af4
 8006030:	20000000 	.word	0x20000000
 8006034:	00001388 	.word	0x00001388
 8006038:	fffff8ff 	.word	0xfffff8ff

0800603c <HAL_RCC_GetPCLK1Freq>:
  * @retval PCLK1 frequency
  */
uint32_t HAL_RCC_GetPCLK1Freq(void)
{
  /* Get HCLK source and Compute PCLK1 frequency ---------------------------*/
  return (HAL_RCC_GetHCLKFreq() >> APBPrescTable[(RCC->CFGR & RCC_CFGR_PPRE) >> RCC_CFGR_PPRE_BITNUMBER]);
 800603c:	4b04      	ldr	r3, [pc, #16]	@ (8006050 <HAL_RCC_GetPCLK1Freq+0x14>)
  return SystemCoreClock;
 800603e:	4a05      	ldr	r2, [pc, #20]	@ (8006054 <HAL_RCC_GetPCLK1Freq+0x18>)
  return (HAL_RCC_GetHCLKFreq() >> APBPrescTable[(RCC->CFGR & RCC_CFGR_PPRE) >> RCC_CFGR_PPRE_BITNUMBER]);
 8006040:	685b      	ldr	r3, [r3, #4]
 8006042:	4905      	ldr	r1, [pc, #20]	@ (8006058 <HAL_RCC_GetPCLK1Freq+0x1c>)
 8006044:	055b      	lsls	r3, r3, #21
 8006046:	0f5b      	lsrs	r3, r3, #29
 8006048:	5ccb      	ldrb	r3, [r1, r3]
 800604a:	6810      	ldr	r0, [r2, #0]
 800604c:	40d8      	lsrs	r0, r3
}    
 800604e:	4770      	bx	lr
 8006050:	40021000 	.word	0x40021000
 8006054:	20000000 	.word	0x20000000
 8006058:	08007aec 	.word	0x08007aec

0800605c <HAL_RCCEx_PeriphCLKConfig>:
  *         the backup registers) and RCC_BDCR register are set to their reset values.
  *
  * @retval HAL status
  */
HAL_StatusTypeDef HAL_RCCEx_PeriphCLKConfig(RCC_PeriphCLKInitTypeDef  *PeriphClkInit)
{
 800605c:	b5f0      	push	{r4, r5, r6, r7, lr}

  /* Check the parameters */
  assert_param(IS_RCC_PERIPHCLOCK(PeriphClkInit->PeriphClockSelection));
  
  /*---------------------------- RTC configuration -------------------------------*/
  if(((PeriphClkInit->PeriphClockSelection) & RCC_PERIPHCLK_RTC) == (RCC_PERIPHCLK_RTC))
 800605e:	6803      	ldr	r3, [r0, #0]
{
 8006060:	0005      	movs	r5, r0
 8006062:	b085      	sub	sp, #20
  if(((PeriphClkInit->PeriphClockSelection) & RCC_PERIPHCLK_RTC) == (RCC_PERIPHCLK_RTC))
 8006064:	03db      	lsls	r3, r3, #15
 8006066:	d52b      	bpl.n	80060c0 <HAL_RCCEx_PeriphCLKConfig+0x64>
    FlagStatus       pwrclkchanged = RESET;

    /* As soon as function is called to change RTC clock source, activation of the 
       power domain is done. */
    /* Requires to enable write access to Backup Domain of necessary */
    if(__HAL_RCC_PWR_IS_CLK_DISABLED())
 8006068:	2280      	movs	r2, #128	@ 0x80
    FlagStatus       pwrclkchanged = RESET;
 800606a:	2100      	movs	r1, #0
    if(__HAL_RCC_PWR_IS_CLK_DISABLED())
 800606c:	4c38      	ldr	r4, [pc, #224]	@ (8006150 <HAL_RCCEx_PeriphCLKConfig+0xf4>)
 800606e:	0552      	lsls	r2, r2, #21
 8006070:	69e3      	ldr	r3, [r4, #28]
    FlagStatus       pwrclkchanged = RESET;
 8006072:	9100      	str	r1, [sp, #0]
    if(__HAL_RCC_PWR_IS_CLK_DISABLED())
 8006074:	4213      	tst	r3, r2
 8006076:	d108      	bne.n	800608a <HAL_RCCEx_PeriphCLKConfig+0x2e>
    {
    __HAL_RCC_PWR_CLK_ENABLE();
 8006078:	69e3      	ldr	r3, [r4, #28]
 800607a:	4313      	orrs	r3, r2
 800607c:	61e3      	str	r3, [r4, #28]
 800607e:	69e3      	ldr	r3, [r4, #28]
 8006080:	4013      	ands	r3, r2
 8006082:	9303      	str	r3, [sp, #12]
 8006084:	9b03      	ldr	r3, [sp, #12]
      pwrclkchanged = SET;
 8006086:	2301      	movs	r3, #1
 8006088:	9300      	str	r3, [sp, #0]
    }
    
    if(HAL_IS_BIT_CLR(PWR->CR, PWR_CR_DBP))
 800608a:	2780      	movs	r7, #128	@ 0x80
 800608c:	4e31      	ldr	r6, [pc, #196]	@ (8006154 <HAL_RCCEx_PeriphCLKConfig+0xf8>)
 800608e:	007f      	lsls	r7, r7, #1
 8006090:	6833      	ldr	r3, [r6, #0]
 8006092:	423b      	tst	r3, r7
 8006094:	d022      	beq.n	80060dc <HAL_RCCEx_PeriphCLKConfig+0x80>
        }
      }
    }
    
    /* Reset the Backup domain only if the RTC Clock source selection is modified from reset value */ 
    temp_reg = (RCC->BDCR & RCC_BDCR_RTCSEL);
 8006096:	6a21      	ldr	r1, [r4, #32]
 8006098:	22c0      	movs	r2, #192	@ 0xc0
 800609a:	0008      	movs	r0, r1
 800609c:	0092      	lsls	r2, r2, #2
    if((temp_reg != 0x00000000U) && (temp_reg != (PeriphClkInit->RTCClockSelection & RCC_BDCR_RTCSEL)))
 800609e:	686b      	ldr	r3, [r5, #4]
 80060a0:	4e2d      	ldr	r6, [pc, #180]	@ (8006158 <HAL_RCCEx_PeriphCLKConfig+0xfc>)
    temp_reg = (RCC->BDCR & RCC_BDCR_RTCSEL);
 80060a2:	4010      	ands	r0, r2
    if((temp_reg != 0x00000000U) && (temp_reg != (PeriphClkInit->RTCClockSelection & RCC_BDCR_RTCSEL)))
 80060a4:	4211      	tst	r1, r2
 80060a6:	d12b      	bne.n	8006100 <HAL_RCCEx_PeriphCLKConfig+0xa4>
            return HAL_TIMEOUT;
          }
        }
      }
    }
    __HAL_RCC_RTC_CONFIG(PeriphClkInit->RTCClockSelection);
 80060a8:	6a23      	ldr	r3, [r4, #32]
 80060aa:	686a      	ldr	r2, [r5, #4]
 80060ac:	4033      	ands	r3, r6
 80060ae:	4313      	orrs	r3, r2
 80060b0:	6223      	str	r3, [r4, #32]

    /* Require to disable power clock if necessary */
    if(pwrclkchanged == SET)
 80060b2:	9b00      	ldr	r3, [sp, #0]
 80060b4:	2b01      	cmp	r3, #1
 80060b6:	d103      	bne.n	80060c0 <HAL_RCCEx_PeriphCLKConfig+0x64>
    {
      __HAL_RCC_PWR_CLK_DISABLE();
 80060b8:	69e3      	ldr	r3, [r4, #28]
 80060ba:	4a28      	ldr	r2, [pc, #160]	@ (800615c <HAL_RCCEx_PeriphCLKConfig+0x100>)
 80060bc:	4013      	ands	r3, r2
 80060be:	61e3      	str	r3, [r4, #28]
    }
  }

  /*------------------------------- USART1 Configuration ------------------------*/ 
  if(((PeriphClkInit->PeriphClockSelection) & RCC_PERIPHCLK_USART1) == RCC_PERIPHCLK_USART1)
 80060c0:	682a      	ldr	r2, [r5, #0]
 80060c2:	07d3      	lsls	r3, r2, #31
 80060c4:	d506      	bpl.n	80060d4 <HAL_RCCEx_PeriphCLKConfig+0x78>
  {
    /* Check the parameters */
    assert_param(IS_RCC_USART1CLKSOURCE(PeriphClkInit->Usart1ClockSelection));
    
    /* Configure the USART1 clock source */
    __HAL_RCC_USART1_CONFIG(PeriphClkInit->Usart1ClockSelection);
 80060c6:	2003      	movs	r0, #3
 80060c8:	4921      	ldr	r1, [pc, #132]	@ (8006150 <HAL_RCCEx_PeriphCLKConfig+0xf4>)
 80060ca:	6b0b      	ldr	r3, [r1, #48]	@ 0x30
 80060cc:	4383      	bics	r3, r0
 80060ce:	68a8      	ldr	r0, [r5, #8]
 80060d0:	4303      	orrs	r3, r0
 80060d2:	630b      	str	r3, [r1, #48]	@ 0x30
    __HAL_RCC_USART3_CONFIG(PeriphClkInit->Usart3ClockSelection);
  }
#endif /* STM32F091xC || STM32F098xx */  

  /*------------------------------ I2C1 Configuration ------------------------*/ 
  if(((PeriphClkInit->PeriphClockSelection) & RCC_PERIPHCLK_I2C1) == RCC_PERIPHCLK_I2C1)
 80060d4:	0692      	lsls	r2, r2, #26
 80060d6:	d433      	bmi.n	8006140 <HAL_RCCEx_PeriphCLKConfig+0xe4>
#endif /* STM32F042x6 || STM32F048xx ||                */
       /* STM32F051x8 || STM32F058xx ||                */
       /* STM32F071xB || STM32F072xB || STM32F078xx || */
       /* STM32F091xC || STM32F098xx */
  
  return HAL_OK;
 80060d8:	2000      	movs	r0, #0
 80060da:	e00f      	b.n	80060fc <HAL_RCCEx_PeriphCLKConfig+0xa0>
      SET_BIT(PWR->CR, PWR_CR_DBP);
 80060dc:	6833      	ldr	r3, [r6, #0]
 80060de:	433b      	orrs	r3, r7
 80060e0:	6033      	str	r3, [r6, #0]
      tickstart = HAL_GetTick();
 80060e2:	f7fe fb09 	bl	80046f8 <HAL_GetTick>
 80060e6:	9001      	str	r0, [sp, #4]
      while(HAL_IS_BIT_CLR(PWR->CR, PWR_CR_DBP))
 80060e8:	6833      	ldr	r3, [r6, #0]
 80060ea:	423b      	tst	r3, r7
 80060ec:	d1d3      	bne.n	8006096 <HAL_RCCEx_PeriphCLKConfig+0x3a>
        if((HAL_GetTick() - tickstart) > RCC_DBP_TIMEOUT_VALUE)
 80060ee:	f7fe fb03 	bl	80046f8 <HAL_GetTick>
 80060f2:	9b01      	ldr	r3, [sp, #4]
 80060f4:	1ac0      	subs	r0, r0, r3
 80060f6:	2864      	cmp	r0, #100	@ 0x64
 80060f8:	d9f6      	bls.n	80060e8 <HAL_RCCEx_PeriphCLKConfig+0x8c>
          return HAL_TIMEOUT;
 80060fa:	2003      	movs	r0, #3
}
 80060fc:	b005      	add	sp, #20
 80060fe:	bdf0      	pop	{r4, r5, r6, r7, pc}
    if((temp_reg != 0x00000000U) && (temp_reg != (PeriphClkInit->RTCClockSelection & RCC_BDCR_RTCSEL)))
 8006100:	4013      	ands	r3, r2
 8006102:	4283      	cmp	r3, r0
 8006104:	d0d0      	beq.n	80060a8 <HAL_RCCEx_PeriphCLKConfig+0x4c>
      __HAL_RCC_BACKUPRESET_FORCE();
 8006106:	2280      	movs	r2, #128	@ 0x80
      temp_reg = (RCC->BDCR & ~(RCC_BDCR_RTCSEL));
 8006108:	6a23      	ldr	r3, [r4, #32]
      __HAL_RCC_BACKUPRESET_FORCE();
 800610a:	6a20      	ldr	r0, [r4, #32]
      temp_reg = (RCC->BDCR & ~(RCC_BDCR_RTCSEL));
 800610c:	0019      	movs	r1, r3
      __HAL_RCC_BACKUPRESET_FORCE();
 800610e:	0252      	lsls	r2, r2, #9
 8006110:	4302      	orrs	r2, r0
 8006112:	6222      	str	r2, [r4, #32]
      __HAL_RCC_BACKUPRESET_RELEASE();
 8006114:	6a22      	ldr	r2, [r4, #32]
 8006116:	4812      	ldr	r0, [pc, #72]	@ (8006160 <HAL_RCCEx_PeriphCLKConfig+0x104>)
      temp_reg = (RCC->BDCR & ~(RCC_BDCR_RTCSEL));
 8006118:	4031      	ands	r1, r6
      __HAL_RCC_BACKUPRESET_RELEASE();
 800611a:	4002      	ands	r2, r0
 800611c:	6222      	str	r2, [r4, #32]
      RCC->BDCR = temp_reg;
 800611e:	6221      	str	r1, [r4, #32]
      if (HAL_IS_BIT_SET(temp_reg, RCC_BDCR_LSEON))
 8006120:	07db      	lsls	r3, r3, #31
 8006122:	d5c1      	bpl.n	80060a8 <HAL_RCCEx_PeriphCLKConfig+0x4c>
        tickstart = HAL_GetTick();
 8006124:	f7fe fae8 	bl	80046f8 <HAL_GetTick>
 8006128:	0007      	movs	r7, r0
        while(__HAL_RCC_GET_FLAG(RCC_FLAG_LSERDY) == RESET)
 800612a:	2202      	movs	r2, #2
 800612c:	6a23      	ldr	r3, [r4, #32]
 800612e:	4213      	tst	r3, r2
 8006130:	d1ba      	bne.n	80060a8 <HAL_RCCEx_PeriphCLKConfig+0x4c>
          if((HAL_GetTick() - tickstart) > RCC_LSE_TIMEOUT_VALUE)
 8006132:	f7fe fae1 	bl	80046f8 <HAL_GetTick>
 8006136:	4b0b      	ldr	r3, [pc, #44]	@ (8006164 <HAL_RCCEx_PeriphCLKConfig+0x108>)
 8006138:	1bc0      	subs	r0, r0, r7
 800613a:	4298      	cmp	r0, r3
 800613c:	d9f5      	bls.n	800612a <HAL_RCCEx_PeriphCLKConfig+0xce>
 800613e:	e7dc      	b.n	80060fa <HAL_RCCEx_PeriphCLKConfig+0x9e>
    __HAL_RCC_I2C1_CONFIG(PeriphClkInit->I2c1ClockSelection);
 8006140:	2110      	movs	r1, #16
 8006142:	4a03      	ldr	r2, [pc, #12]	@ (8006150 <HAL_RCCEx_PeriphCLKConfig+0xf4>)
 8006144:	6b13      	ldr	r3, [r2, #48]	@ 0x30
 8006146:	438b      	bics	r3, r1
 8006148:	68e9      	ldr	r1, [r5, #12]
 800614a:	430b      	orrs	r3, r1
 800614c:	6313      	str	r3, [r2, #48]	@ 0x30
 800614e:	e7c3      	b.n	80060d8 <HAL_RCCEx_PeriphCLKConfig+0x7c>
 8006150:	40021000 	.word	0x40021000
 8006154:	40007000 	.word	0x40007000
 8006158:	fffffcff 	.word	0xfffffcff
 800615c:	efffffff 	.word	0xefffffff
 8006160:	fffeffff 	.word	0xfffeffff
 8006164:	00001388 	.word	0x00001388

08006168 <TIM_OC1_SetConfig>:
  * @param  TIMx to select the TIM peripheral
  * @param  OC_Config The output configuration structure
  * @retval None
  */
static void TIM_OC1_SetConfig(TIM_TypeDef *TIMx, const TIM_OC_InitTypeDef *OC_Config)
{
 8006168:	b570      	push	{r4, r5, r6, lr}

  /* Get the TIMx CCER register value */
  tmpccer = TIMx->CCER;

  /* Disable the Channel 1: Reset the CC1E Bit */
  TIMx->CCER &= ~TIM_CCER_CC1E;
 800616a:	2401      	movs	r4, #1
  tmpccer = TIMx->CCER;
 800616c:	6a03      	ldr	r3, [r0, #32]
  TIMx->CCER &= ~TIM_CCER_CC1E;
 800616e:	6a02      	ldr	r2, [r0, #32]
 8006170:	43a2      	bics	r2, r4
 8006172:	6202      	str	r2, [r0, #32]
  /* Get the TIMx CCMR1 register value */
  tmpccmrx = TIMx->CCMR1;

  /* Reset the Output Compare Mode Bits */
  tmpccmrx &= ~TIM_CCMR1_OC1M;
  tmpccmrx &= ~TIM_CCMR1_CC1S;
 8006174:	2273      	movs	r2, #115	@ 0x73
  tmpcr2 =  TIMx->CR2;
 8006176:	6844      	ldr	r4, [r0, #4]
  tmpccmrx = TIMx->CCMR1;
 8006178:	6985      	ldr	r5, [r0, #24]
  tmpccmrx &= ~TIM_CCMR1_CC1S;
 800617a:	4395      	bics	r5, r2
  /* Select the Output Compare Mode */
  tmpccmrx |= OC_Config->OCMode;
 800617c:	680a      	ldr	r2, [r1, #0]
 800617e:	4315      	orrs	r5, r2

  /* Reset the Output Polarity level */
  tmpccer &= ~TIM_CCER_CC1P;
 8006180:	2202      	movs	r2, #2
 8006182:	4393      	bics	r3, r2
  /* Set the Output Compare Polarity */
  tmpccer |= OC_Config->OCPolarity;
 8006184:	688a      	ldr	r2, [r1, #8]
 8006186:	4313      	orrs	r3, r2

  if (IS_TIM_CCXN_INSTANCE(TIMx, TIM_CHANNEL_1))
 8006188:	4a0d      	ldr	r2, [pc, #52]	@ (80061c0 <TIM_OC1_SetConfig+0x58>)
 800618a:	4290      	cmp	r0, r2
 800618c:	d005      	beq.n	800619a <TIM_OC1_SetConfig+0x32>
 800618e:	4a0d      	ldr	r2, [pc, #52]	@ (80061c4 <TIM_OC1_SetConfig+0x5c>)
 8006190:	4290      	cmp	r0, r2
 8006192:	d002      	beq.n	800619a <TIM_OC1_SetConfig+0x32>
 8006194:	4a0c      	ldr	r2, [pc, #48]	@ (80061c8 <TIM_OC1_SetConfig+0x60>)
 8006196:	4290      	cmp	r0, r2
 8006198:	d10b      	bne.n	80061b2 <TIM_OC1_SetConfig+0x4a>
  {
    /* Check parameters */
    assert_param(IS_TIM_OCN_POLARITY(OC_Config->OCNPolarity));

    /* Reset the Output N Polarity level */
    tmpccer &= ~TIM_CCER_CC1NP;
 800619a:	2208      	movs	r2, #8
 800619c:	4393      	bics	r3, r2
    /* Set the Output N Polarity */
    tmpccer |= OC_Config->OCNPolarity;
 800619e:	68ca      	ldr	r2, [r1, #12]
    tmpcr2 &= ~TIM_CR2_OIS1;
    tmpcr2 &= ~TIM_CR2_OIS1N;
    /* Set the Output Idle state */
    tmpcr2 |= OC_Config->OCIdleState;
    /* Set the Output N Idle state */
    tmpcr2 |= OC_Config->OCNIdleState;
 80061a0:	698e      	ldr	r6, [r1, #24]
    tmpccer |= OC_Config->OCNPolarity;
 80061a2:	4313      	orrs	r3, r2
    tmpccer &= ~TIM_CCER_CC1NE;
 80061a4:	2204      	movs	r2, #4
 80061a6:	4393      	bics	r3, r2
    tmpcr2 &= ~TIM_CR2_OIS1N;
 80061a8:	4a08      	ldr	r2, [pc, #32]	@ (80061cc <TIM_OC1_SetConfig+0x64>)
 80061aa:	4022      	ands	r2, r4
    tmpcr2 |= OC_Config->OCNIdleState;
 80061ac:	694c      	ldr	r4, [r1, #20]
 80061ae:	4334      	orrs	r4, r6
 80061b0:	4314      	orrs	r4, r2

  /* Write to TIMx CCMR1 */
  TIMx->CCMR1 = tmpccmrx;

  /* Set the Capture Compare Register value */
  TIMx->CCR1 = OC_Config->Pulse;
 80061b2:	684a      	ldr	r2, [r1, #4]
  TIMx->CR2 = tmpcr2;
 80061b4:	6044      	str	r4, [r0, #4]
  TIMx->CCMR1 = tmpccmrx;
 80061b6:	6185      	str	r5, [r0, #24]
  TIMx->CCR1 = OC_Config->Pulse;
 80061b8:	6342      	str	r2, [r0, #52]	@ 0x34

  /* Write to TIMx CCER */
  TIMx->CCER = tmpccer;
 80061ba:	6203      	str	r3, [r0, #32]
}
 80061bc:	bd70      	pop	{r4, r5, r6, pc}
 80061be:	46c0      	nop			@ (mov r8, r8)
 80061c0:	40012c00 	.word	0x40012c00
 80061c4:	40014400 	.word	0x40014400
 80061c8:	40014800 	.word	0x40014800
 80061cc:	fffffcff 	.word	0xfffffcff

080061d0 <TIM_OC3_SetConfig>:
  * @param  TIMx to select the TIM peripheral
  * @param  OC_Config The output configuration structure
  * @retval None
  */
static void TIM_OC3_SetConfig(TIM_TypeDef *TIMx, const TIM_OC_InitTypeDef *OC_Config)
{
 80061d0:	b570      	push	{r4, r5, r6, lr}

  /* Get the TIMx CCER register value */
  tmpccer = TIMx->CCER;

  /* Disable the Channel 3: Reset the CC2E Bit */
  TIMx->CCER &= ~TIM_CCER_CC3E;
 80061d2:	4a17      	ldr	r2, [pc, #92]	@ (8006230 <TIM_OC3_SetConfig+0x60>)
  tmpccer = TIMx->CCER;
 80061d4:	6a05      	ldr	r5, [r0, #32]
  TIMx->CCER &= ~TIM_CCER_CC3E;
 80061d6:	6a03      	ldr	r3, [r0, #32]
 80061d8:	4013      	ands	r3, r2
 80061da:	6203      	str	r3, [r0, #32]
  /* Get the TIMx CCMR2 register value */
  tmpccmrx = TIMx->CCMR2;

  /* Reset the Output Compare mode and Capture/Compare selection Bits */
  tmpccmrx &= ~TIM_CCMR2_OC3M;
  tmpccmrx &= ~TIM_CCMR2_CC3S;
 80061dc:	2373      	movs	r3, #115	@ 0x73
  tmpcr2 =  TIMx->CR2;
 80061de:	6842      	ldr	r2, [r0, #4]
  tmpccmrx = TIMx->CCMR2;
 80061e0:	69c4      	ldr	r4, [r0, #28]
  tmpccmrx &= ~TIM_CCMR2_CC3S;
 80061e2:	439c      	bics	r4, r3
  /* Select the Output Compare Mode */
  tmpccmrx |= OC_Config->OCMode;
 80061e4:	680b      	ldr	r3, [r1, #0]
 80061e6:	431c      	orrs	r4, r3

  /* Reset the Output Polarity level */
  tmpccer &= ~TIM_CCER_CC3P;
 80061e8:	4b12      	ldr	r3, [pc, #72]	@ (8006234 <TIM_OC3_SetConfig+0x64>)
 80061ea:	401d      	ands	r5, r3
  /* Set the Output Compare Polarity */
  tmpccer |= (OC_Config->OCPolarity << 8U);
 80061ec:	688b      	ldr	r3, [r1, #8]
 80061ee:	021b      	lsls	r3, r3, #8
 80061f0:	432b      	orrs	r3, r5

  if (IS_TIM_CCXN_INSTANCE(TIMx, TIM_CHANNEL_3))
 80061f2:	4d11      	ldr	r5, [pc, #68]	@ (8006238 <TIM_OC3_SetConfig+0x68>)
 80061f4:	42a8      	cmp	r0, r5
 80061f6:	d10e      	bne.n	8006216 <TIM_OC3_SetConfig+0x46>
  {
    assert_param(IS_TIM_OCN_POLARITY(OC_Config->OCNPolarity));

    /* Reset the Output N Polarity level */
    tmpccer &= ~TIM_CCER_CC3NP;
 80061f8:	4d10      	ldr	r5, [pc, #64]	@ (800623c <TIM_OC3_SetConfig+0x6c>)
 80061fa:	401d      	ands	r5, r3
    /* Set the Output N Polarity */
    tmpccer |= (OC_Config->OCNPolarity << 8U);
 80061fc:	68cb      	ldr	r3, [r1, #12]
 80061fe:	021b      	lsls	r3, r3, #8
 8006200:	432b      	orrs	r3, r5
    /* Reset the Output N State */
    tmpccer &= ~TIM_CCER_CC3NE;
 8006202:	4d0f      	ldr	r5, [pc, #60]	@ (8006240 <TIM_OC3_SetConfig+0x70>)
 8006204:	402b      	ands	r3, r5
    assert_param(IS_TIM_OCNIDLE_STATE(OC_Config->OCNIdleState));
    assert_param(IS_TIM_OCIDLE_STATE(OC_Config->OCIdleState));

    /* Reset the Output Compare and Output Compare N IDLE State */
    tmpcr2 &= ~TIM_CR2_OIS3;
    tmpcr2 &= ~TIM_CR2_OIS3N;
 8006206:	4d0f      	ldr	r5, [pc, #60]	@ (8006244 <TIM_OC3_SetConfig+0x74>)
    /* Set the Output Idle state */
    tmpcr2 |= (OC_Config->OCIdleState << 4U);
    /* Set the Output N Idle state */
    tmpcr2 |= (OC_Config->OCNIdleState << 4U);
 8006208:	698e      	ldr	r6, [r1, #24]
    tmpcr2 &= ~TIM_CR2_OIS3N;
 800620a:	4015      	ands	r5, r2
    tmpcr2 |= (OC_Config->OCNIdleState << 4U);
 800620c:	694a      	ldr	r2, [r1, #20]
 800620e:	4332      	orrs	r2, r6
 8006210:	0112      	lsls	r2, r2, #4
 8006212:	432a      	orrs	r2, r5
 8006214:	e005      	b.n	8006222 <TIM_OC3_SetConfig+0x52>
  if (IS_TIM_BREAK_INSTANCE(TIMx))
 8006216:	4d0c      	ldr	r5, [pc, #48]	@ (8006248 <TIM_OC3_SetConfig+0x78>)
 8006218:	42a8      	cmp	r0, r5
 800621a:	d0f4      	beq.n	8006206 <TIM_OC3_SetConfig+0x36>
 800621c:	4d0b      	ldr	r5, [pc, #44]	@ (800624c <TIM_OC3_SetConfig+0x7c>)
 800621e:	42a8      	cmp	r0, r5
 8006220:	d0f1      	beq.n	8006206 <TIM_OC3_SetConfig+0x36>
  }

  /* Write to TIMx CR2 */
  TIMx->CR2 = tmpcr2;
 8006222:	6042      	str	r2, [r0, #4]

  /* Write to TIMx CCMR2 */
  TIMx->CCMR2 = tmpccmrx;

  /* Set the Capture Compare Register value */
  TIMx->CCR3 = OC_Config->Pulse;
 8006224:	684a      	ldr	r2, [r1, #4]
  TIMx->CCMR2 = tmpccmrx;
 8006226:	61c4      	str	r4, [r0, #28]
  TIMx->CCR3 = OC_Config->Pulse;
 8006228:	63c2      	str	r2, [r0, #60]	@ 0x3c

  /* Write to TIMx CCER */
  TIMx->CCER = tmpccer;
 800622a:	6203      	str	r3, [r0, #32]
}
 800622c:	bd70      	pop	{r4, r5, r6, pc}
 800622e:	46c0      	nop			@ (mov r8, r8)
 8006230:	fffffeff 	.word	0xfffffeff
 8006234:	fffffdff 	.word	0xfffffdff
 8006238:	40012c00 	.word	0x40012c00
 800623c:	fffff7ff 	.word	0xfffff7ff
 8006240:	fffffbff 	.word	0xfffffbff
 8006244:	ffffcfff 	.word	0xffffcfff
 8006248:	40014400 	.word	0x40014400
 800624c:	40014800 	.word	0x40014800

08006250 <TIM_OC4_SetConfig>:
  * @param  TIMx to select the TIM peripheral
  * @param  OC_Config The output configuration structure
  * @retval None
  */
static void TIM_OC4_SetConfig(TIM_TypeDef *TIMx, const TIM_OC_InitTypeDef *OC_Config)
{
 8006250:	b530      	push	{r4, r5, lr}

  /* Get the TIMx CCER register value */
  tmpccer = TIMx->CCER;

  /* Disable the Channel 4: Reset the CC4E Bit */
  TIMx->CCER &= ~TIM_CCER_CC4E;
 8006252:	4a12      	ldr	r2, [pc, #72]	@ (800629c <TIM_OC4_SetConfig+0x4c>)
  tmpccer = TIMx->CCER;
 8006254:	6a04      	ldr	r4, [r0, #32]
  TIMx->CCER &= ~TIM_CCER_CC4E;
 8006256:	6a03      	ldr	r3, [r0, #32]
  /* Get the TIMx CCMR2 register value */
  tmpccmrx = TIMx->CCMR2;

  /* Reset the Output Compare mode and Capture/Compare selection Bits */
  tmpccmrx &= ~TIM_CCMR2_OC4M;
  tmpccmrx &= ~TIM_CCMR2_CC4S;
 8006258:	4d11      	ldr	r5, [pc, #68]	@ (80062a0 <TIM_OC4_SetConfig+0x50>)
  TIMx->CCER &= ~TIM_CCER_CC4E;
 800625a:	4013      	ands	r3, r2
 800625c:	6203      	str	r3, [r0, #32]
  tmpcr2 =  TIMx->CR2;
 800625e:	6843      	ldr	r3, [r0, #4]
  tmpccmrx = TIMx->CCMR2;
 8006260:	69c2      	ldr	r2, [r0, #28]
  tmpccmrx &= ~TIM_CCMR2_CC4S;
 8006262:	402a      	ands	r2, r5

  /* Select the Output Compare Mode */
  tmpccmrx |= (OC_Config->OCMode << 8U);
 8006264:	680d      	ldr	r5, [r1, #0]
 8006266:	022d      	lsls	r5, r5, #8
 8006268:	4315      	orrs	r5, r2

  /* Reset the Output Polarity level */
  tmpccer &= ~TIM_CCER_CC4P;
 800626a:	4a0e      	ldr	r2, [pc, #56]	@ (80062a4 <TIM_OC4_SetConfig+0x54>)
 800626c:	4014      	ands	r4, r2
  /* Set the Output Compare Polarity */
  tmpccer |= (OC_Config->OCPolarity << 12U);
 800626e:	688a      	ldr	r2, [r1, #8]
 8006270:	0312      	lsls	r2, r2, #12
 8006272:	4322      	orrs	r2, r4

  if (IS_TIM_BREAK_INSTANCE(TIMx))
 8006274:	4c0c      	ldr	r4, [pc, #48]	@ (80062a8 <TIM_OC4_SetConfig+0x58>)
 8006276:	42a0      	cmp	r0, r4
 8006278:	d005      	beq.n	8006286 <TIM_OC4_SetConfig+0x36>
 800627a:	4c0c      	ldr	r4, [pc, #48]	@ (80062ac <TIM_OC4_SetConfig+0x5c>)
 800627c:	42a0      	cmp	r0, r4
 800627e:	d002      	beq.n	8006286 <TIM_OC4_SetConfig+0x36>
 8006280:	4c0b      	ldr	r4, [pc, #44]	@ (80062b0 <TIM_OC4_SetConfig+0x60>)
 8006282:	42a0      	cmp	r0, r4
 8006284:	d104      	bne.n	8006290 <TIM_OC4_SetConfig+0x40>
  {
    /* Check parameters */
    assert_param(IS_TIM_OCIDLE_STATE(OC_Config->OCIdleState));

    /* Reset the Output Compare IDLE State */
    tmpcr2 &= ~TIM_CR2_OIS4;
 8006286:	4c0b      	ldr	r4, [pc, #44]	@ (80062b4 <TIM_OC4_SetConfig+0x64>)
 8006288:	401c      	ands	r4, r3

    /* Set the Output Idle state */
    tmpcr2 |= (OC_Config->OCIdleState << 6U);
 800628a:	694b      	ldr	r3, [r1, #20]
 800628c:	019b      	lsls	r3, r3, #6
 800628e:	4323      	orrs	r3, r4
  }

  /* Write to TIMx CR2 */
  TIMx->CR2 = tmpcr2;
 8006290:	6043      	str	r3, [r0, #4]

  /* Write to TIMx CCMR2 */
  TIMx->CCMR2 = tmpccmrx;

  /* Set the Capture Compare Register value */
  TIMx->CCR4 = OC_Config->Pulse;
 8006292:	684b      	ldr	r3, [r1, #4]
  TIMx->CCMR2 = tmpccmrx;
 8006294:	61c5      	str	r5, [r0, #28]
  TIMx->CCR4 = OC_Config->Pulse;
 8006296:	6403      	str	r3, [r0, #64]	@ 0x40

  /* Write to TIMx CCER */
  TIMx->CCER = tmpccer;
 8006298:	6202      	str	r2, [r0, #32]
}
 800629a:	bd30      	pop	{r4, r5, pc}
 800629c:	ffffefff 	.word	0xffffefff
 80062a0:	ffff8cff 	.word	0xffff8cff
 80062a4:	ffffdfff 	.word	0xffffdfff
 80062a8:	40012c00 	.word	0x40012c00
 80062ac:	40014400 	.word	0x40014400
 80062b0:	40014800 	.word	0x40014800
 80062b4:	ffffbfff 	.word	0xffffbfff

080062b8 <HAL_TIM_PWM_MspInit>:
__weak void HAL_TIM_PWM_MspInit(TIM_HandleTypeDef *htim)
 80062b8:	4770      	bx	lr

080062ba <TIM_DMADelayPulseCplt>:
{
 80062ba:	b510      	push	{r4, lr}
  TIM_HandleTypeDef *htim = (TIM_HandleTypeDef *)((DMA_HandleTypeDef *)hdma)->Parent;
 80062bc:	6a44      	ldr	r4, [r0, #36]	@ 0x24
  if (hdma == htim->hdma[TIM_DMA_ID_CC1])
 80062be:	6a62      	ldr	r2, [r4, #36]	@ 0x24
 80062c0:	4282      	cmp	r2, r0
 80062c2:	d10d      	bne.n	80062e0 <TIM_DMADelayPulseCplt+0x26>
    htim->Channel = HAL_TIM_ACTIVE_CHANNEL_1;
 80062c4:	2301      	movs	r3, #1
 80062c6:	7723      	strb	r3, [r4, #28]
    if (hdma->Init.Mode == DMA_NORMAL)
 80062c8:	6992      	ldr	r2, [r2, #24]
 80062ca:	2a00      	cmp	r2, #0
 80062cc:	d102      	bne.n	80062d4 <TIM_DMADelayPulseCplt+0x1a>
      TIM_CHANNEL_STATE_SET(htim, TIM_CHANNEL_1, HAL_TIM_CHANNEL_STATE_READY);
 80062ce:	0022      	movs	r2, r4
 80062d0:	323e      	adds	r2, #62	@ 0x3e
 80062d2:	7013      	strb	r3, [r2, #0]
  HAL_TIM_PWM_PulseFinishedCallback(htim);
 80062d4:	0020      	movs	r0, r4
 80062d6:	f7fd fedb 	bl	8004090 <HAL_TIM_PWM_PulseFinishedCallback>
  htim->Channel = HAL_TIM_ACTIVE_CHANNEL_CLEARED;
 80062da:	2300      	movs	r3, #0
 80062dc:	7723      	strb	r3, [r4, #28]
}
 80062de:	bd10      	pop	{r4, pc}
  else if (hdma == htim->hdma[TIM_DMA_ID_CC2])
 80062e0:	6aa3      	ldr	r3, [r4, #40]	@ 0x28
 80062e2:	4283      	cmp	r3, r0
 80062e4:	d109      	bne.n	80062fa <TIM_DMADelayPulseCplt+0x40>
    htim->Channel = HAL_TIM_ACTIVE_CHANNEL_2;
 80062e6:	2202      	movs	r2, #2
 80062e8:	7722      	strb	r2, [r4, #28]
    if (hdma->Init.Mode == DMA_NORMAL)
 80062ea:	699b      	ldr	r3, [r3, #24]
 80062ec:	2b00      	cmp	r3, #0
 80062ee:	d1f1      	bne.n	80062d4 <TIM_DMADelayPulseCplt+0x1a>
      TIM_CHANNEL_STATE_SET(htim, TIM_CHANNEL_2, HAL_TIM_CHANNEL_STATE_READY);
 80062f0:	0023      	movs	r3, r4
 80062f2:	3a01      	subs	r2, #1
 80062f4:	333f      	adds	r3, #63	@ 0x3f
      TIM_CHANNEL_STATE_SET(htim, TIM_CHANNEL_4, HAL_TIM_CHANNEL_STATE_READY);
 80062f6:	701a      	strb	r2, [r3, #0]
 80062f8:	e7ec      	b.n	80062d4 <TIM_DMADelayPulseCplt+0x1a>
  else if (hdma == htim->hdma[TIM_DMA_ID_CC3])
 80062fa:	6ae3      	ldr	r3, [r4, #44]	@ 0x2c
 80062fc:	4283      	cmp	r3, r0
 80062fe:	d108      	bne.n	8006312 <TIM_DMADelayPulseCplt+0x58>
    htim->Channel = HAL_TIM_ACTIVE_CHANNEL_3;
 8006300:	2204      	movs	r2, #4
 8006302:	7722      	strb	r2, [r4, #28]
    if (hdma->Init.Mode == DMA_NORMAL)
 8006304:	699b      	ldr	r3, [r3, #24]
 8006306:	2b00      	cmp	r3, #0
 8006308:	d1e4      	bne.n	80062d4 <TIM_DMADelayPulseCplt+0x1a>
      TIM_CHANNEL_STATE_SET(htim, TIM_CHANNEL_3, HAL_TIM_CHANNEL_STATE_READY);
 800630a:	0023      	movs	r3, r4
 800630c:	3a03      	subs	r2, #3
 800630e:	3340      	adds	r3, #64	@ 0x40
 8006310:	e7f1      	b.n	80062f6 <TIM_DMADelayPulseCplt+0x3c>
  else if (hdma == htim->hdma[TIM_DMA_ID_CC4])
 8006312:	6b23      	ldr	r3, [r4, #48]	@ 0x30
 8006314:	4283      	cmp	r3, r0
 8006316:	d1dd      	bne.n	80062d4 <TIM_DMADelayPulseCplt+0x1a>
    htim->Channel = HAL_TIM_ACTIVE_CHANNEL_4;
 8006318:	2208      	movs	r2, #8
 800631a:	7722      	strb	r2, [r4, #28]
    if (hdma->Init.Mode == DMA_NORMAL)
 800631c:	699b      	ldr	r3, [r3, #24]
 800631e:	2b00      	cmp	r3, #0
 8006320:	d1d8      	bne.n	80062d4 <TIM_DMADelayPulseCplt+0x1a>
      TIM_CHANNEL_STATE_SET(htim, TIM_CHANNEL_4, HAL_TIM_CHANNEL_STATE_READY);
 8006322:	0023      	movs	r3, r4
 8006324:	3a07      	subs	r2, #7
 8006326:	3341      	adds	r3, #65	@ 0x41
 8006328:	e7e5      	b.n	80062f6 <TIM_DMADelayPulseCplt+0x3c>

0800632a <TIM_DMADelayPulseHalfCplt>:
{
 800632a:	b510      	push	{r4, lr}
  TIM_HandleTypeDef *htim = (TIM_HandleTypeDef *)((DMA_HandleTypeDef *)hdma)->Parent;
 800632c:	6a44      	ldr	r4, [r0, #36]	@ 0x24
  if (hdma == htim->hdma[TIM_DMA_ID_CC1])
 800632e:	6a63      	ldr	r3, [r4, #36]	@ 0x24
 8006330:	4283      	cmp	r3, r0
 8006332:	d107      	bne.n	8006344 <TIM_DMADelayPulseHalfCplt+0x1a>
    htim->Channel = HAL_TIM_ACTIVE_CHANNEL_1;
 8006334:	2301      	movs	r3, #1
    htim->Channel = HAL_TIM_ACTIVE_CHANNEL_4;
 8006336:	7723      	strb	r3, [r4, #28]
  HAL_TIM_PWM_PulseFinishedHalfCpltCallback(htim);
 8006338:	0020      	movs	r0, r4
 800633a:	f7fd feb3 	bl	80040a4 <HAL_TIM_PWM_PulseFinishedHalfCpltCallback>
  htim->Channel = HAL_TIM_ACTIVE_CHANNEL_CLEARED;
 800633e:	2300      	movs	r3, #0
 8006340:	7723      	strb	r3, [r4, #28]
}
 8006342:	bd10      	pop	{r4, pc}
  else if (hdma == htim->hdma[TIM_DMA_ID_CC2])
 8006344:	6aa3      	ldr	r3, [r4, #40]	@ 0x28
 8006346:	4283      	cmp	r3, r0
 8006348:	d101      	bne.n	800634e <TIM_DMADelayPulseHalfCplt+0x24>
    htim->Channel = HAL_TIM_ACTIVE_CHANNEL_2;
 800634a:	2302      	movs	r3, #2
 800634c:	e7f3      	b.n	8006336 <TIM_DMADelayPulseHalfCplt+0xc>
  else if (hdma == htim->hdma[TIM_DMA_ID_CC3])
 800634e:	6ae3      	ldr	r3, [r4, #44]	@ 0x2c
 8006350:	4283      	cmp	r3, r0
 8006352:	d101      	bne.n	8006358 <TIM_DMADelayPulseHalfCplt+0x2e>
    htim->Channel = HAL_TIM_ACTIVE_CHANNEL_3;
 8006354:	2304      	movs	r3, #4
 8006356:	e7ee      	b.n	8006336 <TIM_DMADelayPulseHalfCplt+0xc>
  else if (hdma == htim->hdma[TIM_DMA_ID_CC4])
 8006358:	6b23      	ldr	r3, [r4, #48]	@ 0x30
 800635a:	4283      	cmp	r3, r0
 800635c:	d1ec      	bne.n	8006338 <TIM_DMADelayPulseHalfCplt+0xe>
    htim->Channel = HAL_TIM_ACTIVE_CHANNEL_4;
 800635e:	2308      	movs	r3, #8
 8006360:	e7e9      	b.n	8006336 <TIM_DMADelayPulseHalfCplt+0xc>

08006362 <HAL_TIM_ErrorCallback>:
__weak void HAL_TIM_ErrorCallback(TIM_HandleTypeDef *htim)
 8006362:	4770      	bx	lr

08006364 <TIM_DMAError>:
{
 8006364:	b510      	push	{r4, lr}
  TIM_HandleTypeDef *htim = (TIM_HandleTypeDef *)((DMA_HandleTypeDef *)hdma)->Parent;
 8006366:	6a44      	ldr	r4, [r0, #36]	@ 0x24
  if (hdma == htim->hdma[TIM_DMA_ID_CC1])
 8006368:	6a63      	ldr	r3, [r4, #36]	@ 0x24
 800636a:	4283      	cmp	r3, r0
 800636c:	d105      	bne.n	800637a <TIM_DMAError+0x16>
    htim->Channel = HAL_TIM_ACTIVE_CHANNEL_1;
 800636e:	2301      	movs	r3, #1
    TIM_CHANNEL_STATE_SET(htim, TIM_CHANNEL_1, HAL_TIM_CHANNEL_STATE_READY);
 8006370:	0022      	movs	r2, r4
    htim->Channel = HAL_TIM_ACTIVE_CHANNEL_1;
 8006372:	7723      	strb	r3, [r4, #28]
    TIM_CHANNEL_STATE_SET(htim, TIM_CHANNEL_1, HAL_TIM_CHANNEL_STATE_READY);
 8006374:	323e      	adds	r2, #62	@ 0x3e
    htim->State = HAL_TIM_STATE_READY;
 8006376:	7013      	strb	r3, [r2, #0]
 8006378:	e008      	b.n	800638c <TIM_DMAError+0x28>
  else if (hdma == htim->hdma[TIM_DMA_ID_CC2])
 800637a:	6aa3      	ldr	r3, [r4, #40]	@ 0x28
 800637c:	4283      	cmp	r3, r0
 800637e:	d10b      	bne.n	8006398 <TIM_DMAError+0x34>
    htim->Channel = HAL_TIM_ACTIVE_CHANNEL_2;
 8006380:	2302      	movs	r3, #2
 8006382:	7723      	strb	r3, [r4, #28]
    TIM_CHANNEL_STATE_SET(htim, TIM_CHANNEL_2, HAL_TIM_CHANNEL_STATE_READY);
 8006384:	0023      	movs	r3, r4
 8006386:	2201      	movs	r2, #1
 8006388:	333f      	adds	r3, #63	@ 0x3f
 800638a:	701a      	strb	r2, [r3, #0]
  HAL_TIM_ErrorCallback(htim);
 800638c:	0020      	movs	r0, r4
 800638e:	f7ff ffe8 	bl	8006362 <HAL_TIM_ErrorCallback>
  htim->Channel = HAL_TIM_ACTIVE_CHANNEL_CLEARED;
 8006392:	2300      	movs	r3, #0
 8006394:	7723      	strb	r3, [r4, #28]
}
 8006396:	bd10      	pop	{r4, pc}
  else if (hdma == htim->hdma[TIM_DMA_ID_CC3])
 8006398:	6ae2      	ldr	r2, [r4, #44]	@ 0x2c
 800639a:	2301      	movs	r3, #1
 800639c:	4282      	cmp	r2, r0
 800639e:	d104      	bne.n	80063aa <TIM_DMAError+0x46>
    htim->Channel = HAL_TIM_ACTIVE_CHANNEL_3;
 80063a0:	2204      	movs	r2, #4
 80063a2:	7722      	strb	r2, [r4, #28]
    TIM_CHANNEL_STATE_SET(htim, TIM_CHANNEL_3, HAL_TIM_CHANNEL_STATE_READY);
 80063a4:	0022      	movs	r2, r4
 80063a6:	3240      	adds	r2, #64	@ 0x40
 80063a8:	e7e5      	b.n	8006376 <TIM_DMAError+0x12>
  else if (hdma == htim->hdma[TIM_DMA_ID_CC4])
 80063aa:	6b22      	ldr	r2, [r4, #48]	@ 0x30
 80063ac:	4282      	cmp	r2, r0
 80063ae:	d104      	bne.n	80063ba <TIM_DMAError+0x56>
    htim->Channel = HAL_TIM_ACTIVE_CHANNEL_4;
 80063b0:	2208      	movs	r2, #8
 80063b2:	7722      	strb	r2, [r4, #28]
    TIM_CHANNEL_STATE_SET(htim, TIM_CHANNEL_4, HAL_TIM_CHANNEL_STATE_READY);
 80063b4:	0022      	movs	r2, r4
 80063b6:	3241      	adds	r2, #65	@ 0x41
 80063b8:	e7dd      	b.n	8006376 <TIM_DMAError+0x12>
    htim->State = HAL_TIM_STATE_READY;
 80063ba:	0022      	movs	r2, r4
 80063bc:	323d      	adds	r2, #61	@ 0x3d
 80063be:	e7da      	b.n	8006376 <TIM_DMAError+0x12>

080063c0 <TIM_Base_SetConfig>:
{
 80063c0:	b510      	push	{r4, lr}
  if (IS_TIM_COUNTER_MODE_SELECT_INSTANCE(TIMx))
 80063c2:	4c1b      	ldr	r4, [pc, #108]	@ (8006430 <TIM_Base_SetConfig+0x70>)
  tmpcr1 = TIMx->CR1;
 80063c4:	6803      	ldr	r3, [r0, #0]
  if (IS_TIM_COUNTER_MODE_SELECT_INSTANCE(TIMx))
 80063c6:	42a0      	cmp	r0, r4
 80063c8:	d00a      	beq.n	80063e0 <TIM_Base_SetConfig+0x20>
 80063ca:	4a1a      	ldr	r2, [pc, #104]	@ (8006434 <TIM_Base_SetConfig+0x74>)
 80063cc:	4290      	cmp	r0, r2
 80063ce:	d007      	beq.n	80063e0 <TIM_Base_SetConfig+0x20>
  if (IS_TIM_CLOCK_DIVISION_INSTANCE(TIMx))
 80063d0:	4a19      	ldr	r2, [pc, #100]	@ (8006438 <TIM_Base_SetConfig+0x78>)
 80063d2:	4290      	cmp	r0, r2
 80063d4:	d109      	bne.n	80063ea <TIM_Base_SetConfig+0x2a>
    tmpcr1 &= ~TIM_CR1_CKD;
 80063d6:	4a19      	ldr	r2, [pc, #100]	@ (800643c <TIM_Base_SetConfig+0x7c>)
 80063d8:	401a      	ands	r2, r3
    tmpcr1 |= (uint32_t)Structure->ClockDivision;
 80063da:	68cb      	ldr	r3, [r1, #12]
 80063dc:	4313      	orrs	r3, r2
 80063de:	e00a      	b.n	80063f6 <TIM_Base_SetConfig+0x36>
    tmpcr1 &= ~(TIM_CR1_DIR | TIM_CR1_CMS);
 80063e0:	2270      	movs	r2, #112	@ 0x70
 80063e2:	4393      	bics	r3, r2
    tmpcr1 |= Structure->CounterMode;
 80063e4:	684a      	ldr	r2, [r1, #4]
 80063e6:	4313      	orrs	r3, r2
  if (IS_TIM_CLOCK_DIVISION_INSTANCE(TIMx))
 80063e8:	e7f5      	b.n	80063d6 <TIM_Base_SetConfig+0x16>
 80063ea:	4a15      	ldr	r2, [pc, #84]	@ (8006440 <TIM_Base_SetConfig+0x80>)
 80063ec:	4290      	cmp	r0, r2
 80063ee:	d0f2      	beq.n	80063d6 <TIM_Base_SetConfig+0x16>
 80063f0:	4a14      	ldr	r2, [pc, #80]	@ (8006444 <TIM_Base_SetConfig+0x84>)
 80063f2:	4290      	cmp	r0, r2
 80063f4:	d0ef      	beq.n	80063d6 <TIM_Base_SetConfig+0x16>
  MODIFY_REG(tmpcr1, TIM_CR1_ARPE, Structure->AutoReloadPreload);
 80063f6:	2280      	movs	r2, #128	@ 0x80
 80063f8:	4393      	bics	r3, r2
 80063fa:	694a      	ldr	r2, [r1, #20]
 80063fc:	4313      	orrs	r3, r2
  TIMx->CR1 = tmpcr1;
 80063fe:	6003      	str	r3, [r0, #0]
  TIMx->ARR = (uint32_t)Structure->Period ;
 8006400:	688b      	ldr	r3, [r1, #8]
 8006402:	62c3      	str	r3, [r0, #44]	@ 0x2c
  TIMx->PSC = Structure->Prescaler;
 8006404:	680b      	ldr	r3, [r1, #0]
 8006406:	6283      	str	r3, [r0, #40]	@ 0x28
  if (IS_TIM_REPETITION_COUNTER_INSTANCE(TIMx))
 8006408:	42a0      	cmp	r0, r4
 800640a:	d005      	beq.n	8006418 <TIM_Base_SetConfig+0x58>
 800640c:	4b0c      	ldr	r3, [pc, #48]	@ (8006440 <TIM_Base_SetConfig+0x80>)
 800640e:	4298      	cmp	r0, r3
 8006410:	d002      	beq.n	8006418 <TIM_Base_SetConfig+0x58>
 8006412:	4b0c      	ldr	r3, [pc, #48]	@ (8006444 <TIM_Base_SetConfig+0x84>)
 8006414:	4298      	cmp	r0, r3
 8006416:	d101      	bne.n	800641c <TIM_Base_SetConfig+0x5c>
    TIMx->RCR = Structure->RepetitionCounter;
 8006418:	690b      	ldr	r3, [r1, #16]
 800641a:	6303      	str	r3, [r0, #48]	@ 0x30
  TIMx->EGR = TIM_EGR_UG;
 800641c:	2201      	movs	r2, #1
 800641e:	6142      	str	r2, [r0, #20]
  if (HAL_IS_BIT_SET(TIMx->SR, TIM_FLAG_UPDATE))
 8006420:	6903      	ldr	r3, [r0, #16]
 8006422:	4213      	tst	r3, r2
 8006424:	d002      	beq.n	800642c <TIM_Base_SetConfig+0x6c>
    CLEAR_BIT(TIMx->SR, TIM_FLAG_UPDATE);
 8006426:	6903      	ldr	r3, [r0, #16]
 8006428:	4393      	bics	r3, r2
 800642a:	6103      	str	r3, [r0, #16]
}
 800642c:	bd10      	pop	{r4, pc}
 800642e:	46c0      	nop			@ (mov r8, r8)
 8006430:	40012c00 	.word	0x40012c00
 8006434:	40000400 	.word	0x40000400
 8006438:	40002000 	.word	0x40002000
 800643c:	fffffcff 	.word	0xfffffcff
 8006440:	40014400 	.word	0x40014400
 8006444:	40014800 	.word	0x40014800

08006448 <HAL_TIM_Base_Init>:
{
 8006448:	b570      	push	{r4, r5, r6, lr}
 800644a:	0004      	movs	r4, r0
    return HAL_ERROR;
 800644c:	2001      	movs	r0, #1
  if (htim == NULL)
 800644e:	2c00      	cmp	r4, #0
 8006450:	d021      	beq.n	8006496 <HAL_TIM_Base_Init+0x4e>
  if (htim->State == HAL_TIM_STATE_RESET)
 8006452:	0025      	movs	r5, r4
 8006454:	353d      	adds	r5, #61	@ 0x3d
 8006456:	782b      	ldrb	r3, [r5, #0]
 8006458:	b2da      	uxtb	r2, r3
 800645a:	2b00      	cmp	r3, #0
 800645c:	d105      	bne.n	800646a <HAL_TIM_Base_Init+0x22>
    htim->Lock = HAL_UNLOCKED;
 800645e:	0023      	movs	r3, r4
 8006460:	333c      	adds	r3, #60	@ 0x3c
    HAL_TIM_Base_MspInit(htim);
 8006462:	0020      	movs	r0, r4
    htim->Lock = HAL_UNLOCKED;
 8006464:	701a      	strb	r2, [r3, #0]
    HAL_TIM_Base_MspInit(htim);
 8006466:	f7fd fba7 	bl	8003bb8 <HAL_TIM_Base_MspInit>
  htim->State = HAL_TIM_STATE_BUSY;
 800646a:	2302      	movs	r3, #2
 800646c:	702b      	strb	r3, [r5, #0]
  TIM_Base_SetConfig(htim->Instance, &htim->Init);
 800646e:	6820      	ldr	r0, [r4, #0]
 8006470:	1d21      	adds	r1, r4, #4
 8006472:	f7ff ffa5 	bl	80063c0 <TIM_Base_SetConfig>
  htim->DMABurstState = HAL_DMA_BURST_STATE_READY;
 8006476:	0022      	movs	r2, r4
 8006478:	2301      	movs	r3, #1
  return HAL_OK;
 800647a:	2000      	movs	r0, #0
  htim->DMABurstState = HAL_DMA_BURST_STATE_READY;
 800647c:	3246      	adds	r2, #70	@ 0x46
 800647e:	7013      	strb	r3, [r2, #0]
  TIM_CHANNEL_N_STATE_SET_ALL(htim, HAL_TIM_CHANNEL_STATE_READY);
 8006480:	3445      	adds	r4, #69	@ 0x45
  TIM_CHANNEL_STATE_SET_ALL(htim, HAL_TIM_CHANNEL_STATE_READY);
 8006482:	3a08      	subs	r2, #8
 8006484:	7013      	strb	r3, [r2, #0]
 8006486:	7053      	strb	r3, [r2, #1]
 8006488:	7093      	strb	r3, [r2, #2]
 800648a:	70d3      	strb	r3, [r2, #3]
  TIM_CHANNEL_N_STATE_SET_ALL(htim, HAL_TIM_CHANNEL_STATE_READY);
 800648c:	7113      	strb	r3, [r2, #4]
 800648e:	7153      	strb	r3, [r2, #5]
 8006490:	7193      	strb	r3, [r2, #6]
 8006492:	7023      	strb	r3, [r4, #0]
  htim->State = HAL_TIM_STATE_READY;
 8006494:	702b      	strb	r3, [r5, #0]
}
 8006496:	bd70      	pop	{r4, r5, r6, pc}

08006498 <HAL_TIM_PWM_Init>:
{
 8006498:	b570      	push	{r4, r5, r6, lr}
 800649a:	0004      	movs	r4, r0
    return HAL_ERROR;
 800649c:	2001      	movs	r0, #1
  if (htim == NULL)
 800649e:	2c00      	cmp	r4, #0
 80064a0:	d021      	beq.n	80064e6 <HAL_TIM_PWM_Init+0x4e>
  if (htim->State == HAL_TIM_STATE_RESET)
 80064a2:	0025      	movs	r5, r4
 80064a4:	353d      	adds	r5, #61	@ 0x3d
 80064a6:	782b      	ldrb	r3, [r5, #0]
 80064a8:	b2da      	uxtb	r2, r3
 80064aa:	2b00      	cmp	r3, #0
 80064ac:	d105      	bne.n	80064ba <HAL_TIM_PWM_Init+0x22>
    htim->Lock = HAL_UNLOCKED;
 80064ae:	0023      	movs	r3, r4
 80064b0:	333c      	adds	r3, #60	@ 0x3c
    HAL_TIM_PWM_MspInit(htim);
 80064b2:	0020      	movs	r0, r4
    htim->Lock = HAL_UNLOCKED;
 80064b4:	701a      	strb	r2, [r3, #0]
    HAL_TIM_PWM_MspInit(htim);
 80064b6:	f7ff feff 	bl	80062b8 <HAL_TIM_PWM_MspInit>
  htim->State = HAL_TIM_STATE_BUSY;
 80064ba:	2302      	movs	r3, #2
 80064bc:	702b      	strb	r3, [r5, #0]
  TIM_Base_SetConfig(htim->Instance, &htim->Init);
 80064be:	6820      	ldr	r0, [r4, #0]
 80064c0:	1d21      	adds	r1, r4, #4
 80064c2:	f7ff ff7d 	bl	80063c0 <TIM_Base_SetConfig>
  htim->DMABurstState = HAL_DMA_BURST_STATE_READY;
 80064c6:	0022      	movs	r2, r4
 80064c8:	2301      	movs	r3, #1
  return HAL_OK;
 80064ca:	2000      	movs	r0, #0
  htim->DMABurstState = HAL_DMA_BURST_STATE_READY;
 80064cc:	3246      	adds	r2, #70	@ 0x46
 80064ce:	7013      	strb	r3, [r2, #0]
  TIM_CHANNEL_N_STATE_SET_ALL(htim, HAL_TIM_CHANNEL_STATE_READY);
 80064d0:	3445      	adds	r4, #69	@ 0x45
  TIM_CHANNEL_STATE_SET_ALL(htim, HAL_TIM_CHANNEL_STATE_READY);
 80064d2:	3a08      	subs	r2, #8
 80064d4:	7013      	strb	r3, [r2, #0]
 80064d6:	7053      	strb	r3, [r2, #1]
 80064d8:	7093      	strb	r3, [r2, #2]
 80064da:	70d3      	strb	r3, [r2, #3]
  TIM_CHANNEL_N_STATE_SET_ALL(htim, HAL_TIM_CHANNEL_STATE_READY);
 80064dc:	7113      	strb	r3, [r2, #4]
 80064de:	7153      	strb	r3, [r2, #5]
 80064e0:	7193      	strb	r3, [r2, #6]
 80064e2:	7023      	strb	r3, [r4, #0]
  htim->State = HAL_TIM_STATE_READY;
 80064e4:	702b      	strb	r3, [r5, #0]
}
 80064e6:	bd70      	pop	{r4, r5, r6, pc}

080064e8 <TIM_OC2_SetConfig>:
  TIMx->CCER &= ~TIM_CCER_CC2E;
 80064e8:	2210      	movs	r2, #16
{
 80064ea:	b570      	push	{r4, r5, r6, lr}
  tmpccer = TIMx->CCER;
 80064ec:	6a05      	ldr	r5, [r0, #32]
  TIMx->CCER &= ~TIM_CCER_CC2E;
 80064ee:	6a03      	ldr	r3, [r0, #32]
  tmpccmrx &= ~TIM_CCMR1_CC2S;
 80064f0:	4c16      	ldr	r4, [pc, #88]	@ (800654c <TIM_OC2_SetConfig+0x64>)
  TIMx->CCER &= ~TIM_CCER_CC2E;
 80064f2:	4393      	bics	r3, r2
 80064f4:	6203      	str	r3, [r0, #32]
  tmpcr2 =  TIMx->CR2;
 80064f6:	6842      	ldr	r2, [r0, #4]
  tmpccmrx = TIMx->CCMR1;
 80064f8:	6983      	ldr	r3, [r0, #24]
  tmpccmrx &= ~TIM_CCMR1_CC2S;
 80064fa:	4023      	ands	r3, r4
  tmpccmrx |= (OC_Config->OCMode << 8U);
 80064fc:	680c      	ldr	r4, [r1, #0]
 80064fe:	0224      	lsls	r4, r4, #8
 8006500:	431c      	orrs	r4, r3
  tmpccer &= ~TIM_CCER_CC2P;
 8006502:	2320      	movs	r3, #32
 8006504:	439d      	bics	r5, r3
  tmpccer |= (OC_Config->OCPolarity << 4U);
 8006506:	688b      	ldr	r3, [r1, #8]
 8006508:	011b      	lsls	r3, r3, #4
 800650a:	432b      	orrs	r3, r5
  if (IS_TIM_CCXN_INSTANCE(TIMx, TIM_CHANNEL_2))
 800650c:	4d10      	ldr	r5, [pc, #64]	@ (8006550 <TIM_OC2_SetConfig+0x68>)
 800650e:	42a8      	cmp	r0, r5
 8006510:	d10f      	bne.n	8006532 <TIM_OC2_SetConfig+0x4a>
    tmpccer &= ~TIM_CCER_CC2NP;
 8006512:	2580      	movs	r5, #128	@ 0x80
 8006514:	43ab      	bics	r3, r5
 8006516:	001e      	movs	r6, r3
    tmpccer |= (OC_Config->OCNPolarity << 4U);
 8006518:	68cb      	ldr	r3, [r1, #12]
    tmpccer &= ~TIM_CCER_CC2NE;
 800651a:	3d40      	subs	r5, #64	@ 0x40
    tmpccer |= (OC_Config->OCNPolarity << 4U);
 800651c:	011b      	lsls	r3, r3, #4
 800651e:	4333      	orrs	r3, r6
    tmpccer &= ~TIM_CCER_CC2NE;
 8006520:	43ab      	bics	r3, r5
    tmpcr2 &= ~TIM_CR2_OIS2N;
 8006522:	4d0c      	ldr	r5, [pc, #48]	@ (8006554 <TIM_OC2_SetConfig+0x6c>)
    tmpcr2 |= (OC_Config->OCNIdleState << 2U);
 8006524:	698e      	ldr	r6, [r1, #24]
    tmpcr2 &= ~TIM_CR2_OIS2N;
 8006526:	4015      	ands	r5, r2
    tmpcr2 |= (OC_Config->OCNIdleState << 2U);
 8006528:	694a      	ldr	r2, [r1, #20]
 800652a:	4332      	orrs	r2, r6
 800652c:	0092      	lsls	r2, r2, #2
 800652e:	432a      	orrs	r2, r5
 8006530:	e005      	b.n	800653e <TIM_OC2_SetConfig+0x56>
  if (IS_TIM_BREAK_INSTANCE(TIMx))
 8006532:	4d09      	ldr	r5, [pc, #36]	@ (8006558 <TIM_OC2_SetConfig+0x70>)
 8006534:	42a8      	cmp	r0, r5
 8006536:	d0f4      	beq.n	8006522 <TIM_OC2_SetConfig+0x3a>
 8006538:	4d08      	ldr	r5, [pc, #32]	@ (800655c <TIM_OC2_SetConfig+0x74>)
 800653a:	42a8      	cmp	r0, r5
 800653c:	d0f1      	beq.n	8006522 <TIM_OC2_SetConfig+0x3a>
  TIMx->CR2 = tmpcr2;
 800653e:	6042      	str	r2, [r0, #4]
  TIMx->CCR2 = OC_Config->Pulse;
 8006540:	684a      	ldr	r2, [r1, #4]
  TIMx->CCMR1 = tmpccmrx;
 8006542:	6184      	str	r4, [r0, #24]
  TIMx->CCR2 = OC_Config->Pulse;
 8006544:	6382      	str	r2, [r0, #56]	@ 0x38
  TIMx->CCER = tmpccer;
 8006546:	6203      	str	r3, [r0, #32]
}
 8006548:	bd70      	pop	{r4, r5, r6, pc}
 800654a:	46c0      	nop			@ (mov r8, r8)
 800654c:	ffff8cff 	.word	0xffff8cff
 8006550:	40012c00 	.word	0x40012c00
 8006554:	fffff3ff 	.word	0xfffff3ff
 8006558:	40014400 	.word	0x40014400
 800655c:	40014800 	.word	0x40014800

08006560 <HAL_TIM_PWM_ConfigChannel>:
{
 8006560:	b5f8      	push	{r3, r4, r5, r6, r7, lr}
  __HAL_LOCK(htim);
 8006562:	0006      	movs	r6, r0
 8006564:	363c      	adds	r6, #60	@ 0x3c
{
 8006566:	0015      	movs	r5, r2
  __HAL_LOCK(htim);
 8006568:	7832      	ldrb	r2, [r6, #0]
{
 800656a:	0003      	movs	r3, r0
 800656c:	000c      	movs	r4, r1
  __HAL_LOCK(htim);
 800656e:	2002      	movs	r0, #2
 8006570:	2a01      	cmp	r2, #1
 8006572:	d00a      	beq.n	800658a <HAL_TIM_PWM_ConfigChannel+0x2a>
 8006574:	3801      	subs	r0, #1
 8006576:	7030      	strb	r0, [r6, #0]
  switch (Channel)
 8006578:	2d08      	cmp	r5, #8
 800657a:	d03f      	beq.n	80065fc <HAL_TIM_PWM_ConfigChannel+0x9c>
 800657c:	d806      	bhi.n	800658c <HAL_TIM_PWM_ConfigChannel+0x2c>
 800657e:	2d00      	cmp	r5, #0
 8006580:	d019      	beq.n	80065b6 <HAL_TIM_PWM_ConfigChannel+0x56>
 8006582:	2d04      	cmp	r5, #4
 8006584:	d029      	beq.n	80065da <HAL_TIM_PWM_ConfigChannel+0x7a>
  __HAL_UNLOCK(htim);
 8006586:	2300      	movs	r3, #0
 8006588:	7033      	strb	r3, [r6, #0]
}
 800658a:	bdf8      	pop	{r3, r4, r5, r6, r7, pc}
  switch (Channel)
 800658c:	2d0c      	cmp	r5, #12
 800658e:	d1fa      	bne.n	8006586 <HAL_TIM_PWM_ConfigChannel+0x26>
      TIM_OC4_SetConfig(htim->Instance, sConfig);
 8006590:	681d      	ldr	r5, [r3, #0]
 8006592:	0028      	movs	r0, r5
 8006594:	f7ff fe5c 	bl	8006250 <TIM_OC4_SetConfig>
      htim->Instance->CCMR2 |= TIM_CCMR2_OC4PE;
 8006598:	2380      	movs	r3, #128	@ 0x80
 800659a:	69ea      	ldr	r2, [r5, #28]
 800659c:	011b      	lsls	r3, r3, #4
 800659e:	4313      	orrs	r3, r2
 80065a0:	61eb      	str	r3, [r5, #28]
      htim->Instance->CCMR2 &= ~TIM_CCMR2_OC4FE;
 80065a2:	69eb      	ldr	r3, [r5, #28]
 80065a4:	4a1d      	ldr	r2, [pc, #116]	@ (800661c <HAL_TIM_PWM_ConfigChannel+0xbc>)
 80065a6:	4013      	ands	r3, r2
 80065a8:	61eb      	str	r3, [r5, #28]
      htim->Instance->CCMR2 |= sConfig->OCFastMode << 8U;
 80065aa:	6923      	ldr	r3, [r4, #16]
 80065ac:	69ea      	ldr	r2, [r5, #28]
 80065ae:	021b      	lsls	r3, r3, #8
 80065b0:	4313      	orrs	r3, r2
 80065b2:	61eb      	str	r3, [r5, #28]
      break;
 80065b4:	e00f      	b.n	80065d6 <HAL_TIM_PWM_ConfigChannel+0x76>
      TIM_OC1_SetConfig(htim->Instance, sConfig);
 80065b6:	681d      	ldr	r5, [r3, #0]
 80065b8:	0028      	movs	r0, r5
 80065ba:	f7ff fdd5 	bl	8006168 <TIM_OC1_SetConfig>
      htim->Instance->CCMR1 |= TIM_CCMR1_OC1PE;
 80065be:	2308      	movs	r3, #8
 80065c0:	69aa      	ldr	r2, [r5, #24]
 80065c2:	4313      	orrs	r3, r2
      htim->Instance->CCMR1 &= ~TIM_CCMR1_OC1FE;
 80065c4:	2204      	movs	r2, #4
      htim->Instance->CCMR1 |= TIM_CCMR1_OC1PE;
 80065c6:	61ab      	str	r3, [r5, #24]
      htim->Instance->CCMR1 &= ~TIM_CCMR1_OC1FE;
 80065c8:	69ab      	ldr	r3, [r5, #24]
 80065ca:	4393      	bics	r3, r2
 80065cc:	61ab      	str	r3, [r5, #24]
      htim->Instance->CCMR1 |= sConfig->OCFastMode;
 80065ce:	69ab      	ldr	r3, [r5, #24]
 80065d0:	6922      	ldr	r2, [r4, #16]
      htim->Instance->CCMR1 |= sConfig->OCFastMode << 8U;
 80065d2:	4313      	orrs	r3, r2
 80065d4:	61ab      	str	r3, [r5, #24]
  HAL_StatusTypeDef status = HAL_OK;
 80065d6:	2000      	movs	r0, #0
 80065d8:	e7d5      	b.n	8006586 <HAL_TIM_PWM_ConfigChannel+0x26>
      TIM_OC2_SetConfig(htim->Instance, sConfig);
 80065da:	681d      	ldr	r5, [r3, #0]
 80065dc:	0028      	movs	r0, r5
 80065de:	f7ff ff83 	bl	80064e8 <TIM_OC2_SetConfig>
      htim->Instance->CCMR1 |= TIM_CCMR1_OC2PE;
 80065e2:	2380      	movs	r3, #128	@ 0x80
 80065e4:	69aa      	ldr	r2, [r5, #24]
 80065e6:	011b      	lsls	r3, r3, #4
 80065e8:	4313      	orrs	r3, r2
 80065ea:	61ab      	str	r3, [r5, #24]
      htim->Instance->CCMR1 &= ~TIM_CCMR1_OC2FE;
 80065ec:	69ab      	ldr	r3, [r5, #24]
 80065ee:	4a0b      	ldr	r2, [pc, #44]	@ (800661c <HAL_TIM_PWM_ConfigChannel+0xbc>)
 80065f0:	4013      	ands	r3, r2
 80065f2:	61ab      	str	r3, [r5, #24]
      htim->Instance->CCMR1 |= sConfig->OCFastMode << 8U;
 80065f4:	6923      	ldr	r3, [r4, #16]
 80065f6:	69aa      	ldr	r2, [r5, #24]
 80065f8:	021b      	lsls	r3, r3, #8
 80065fa:	e7ea      	b.n	80065d2 <HAL_TIM_PWM_ConfigChannel+0x72>
      TIM_OC3_SetConfig(htim->Instance, sConfig);
 80065fc:	681f      	ldr	r7, [r3, #0]
 80065fe:	0038      	movs	r0, r7
 8006600:	f7ff fde6 	bl	80061d0 <TIM_OC3_SetConfig>
      htim->Instance->CCMR2 &= ~TIM_CCMR2_OC3FE;
 8006604:	2204      	movs	r2, #4
      htim->Instance->CCMR2 |= TIM_CCMR2_OC3PE;
 8006606:	69fb      	ldr	r3, [r7, #28]
 8006608:	431d      	orrs	r5, r3
 800660a:	61fd      	str	r5, [r7, #28]
      htim->Instance->CCMR2 &= ~TIM_CCMR2_OC3FE;
 800660c:	69fb      	ldr	r3, [r7, #28]
 800660e:	4393      	bics	r3, r2
 8006610:	61fb      	str	r3, [r7, #28]
      htim->Instance->CCMR2 |= sConfig->OCFastMode;
 8006612:	69fb      	ldr	r3, [r7, #28]
 8006614:	6922      	ldr	r2, [r4, #16]
 8006616:	4313      	orrs	r3, r2
 8006618:	61fb      	str	r3, [r7, #28]
      break;
 800661a:	e7dc      	b.n	80065d6 <HAL_TIM_PWM_ConfigChannel+0x76>
 800661c:	fffffbff 	.word	0xfffffbff

08006620 <TIM_ETR_SetConfig>:
  *          This parameter must be a value between 0x00 and 0x0F
  * @retval None
  */
void TIM_ETR_SetConfig(TIM_TypeDef *TIMx, uint32_t TIM_ExtTRGPrescaler,
                       uint32_t TIM_ExtTRGPolarity, uint32_t ExtTRGFilter)
{
 8006620:	b530      	push	{r4, r5, lr}
  uint32_t tmpsmcr;

  tmpsmcr = TIMx->SMCR;
 8006622:	6884      	ldr	r4, [r0, #8]

  /* Reset the ETR Bits */
  tmpsmcr &= ~(TIM_SMCR_ETF | TIM_SMCR_ETPS | TIM_SMCR_ECE | TIM_SMCR_ETP);
 8006624:	4d03      	ldr	r5, [pc, #12]	@ (8006634 <TIM_ETR_SetConfig+0x14>)

  /* Set the Prescaler, the Filter value and the Polarity */
  tmpsmcr |= (uint32_t)(TIM_ExtTRGPrescaler | (TIM_ExtTRGPolarity | (ExtTRGFilter << 8U)));
 8006626:	430a      	orrs	r2, r1
 8006628:	021b      	lsls	r3, r3, #8
  tmpsmcr &= ~(TIM_SMCR_ETF | TIM_SMCR_ETPS | TIM_SMCR_ECE | TIM_SMCR_ETP);
 800662a:	402c      	ands	r4, r5
  tmpsmcr |= (uint32_t)(TIM_ExtTRGPrescaler | (TIM_ExtTRGPolarity | (ExtTRGFilter << 8U)));
 800662c:	4313      	orrs	r3, r2
 800662e:	4323      	orrs	r3, r4

  /* Write to TIMx SMCR */
  TIMx->SMCR = tmpsmcr;
 8006630:	6083      	str	r3, [r0, #8]
}
 8006632:	bd30      	pop	{r4, r5, pc}
 8006634:	ffff00ff 	.word	0xffff00ff

08006638 <HAL_TIM_ConfigClockSource>:
{
 8006638:	b5f8      	push	{r3, r4, r5, r6, r7, lr}
  __HAL_LOCK(htim);
 800663a:	0005      	movs	r5, r0
 800663c:	2202      	movs	r2, #2
 800663e:	353c      	adds	r5, #60	@ 0x3c
 8006640:	782c      	ldrb	r4, [r5, #0]
{
 8006642:	0003      	movs	r3, r0
  __HAL_LOCK(htim);
 8006644:	0010      	movs	r0, r2
 8006646:	2c01      	cmp	r4, #1
 8006648:	d01b      	beq.n	8006682 <HAL_TIM_ConfigClockSource+0x4a>
  htim->State = HAL_TIM_STATE_BUSY;
 800664a:	001e      	movs	r6, r3
  __HAL_LOCK(htim);
 800664c:	3801      	subs	r0, #1
  htim->State = HAL_TIM_STATE_BUSY;
 800664e:	363d      	adds	r6, #61	@ 0x3d
  __HAL_LOCK(htim);
 8006650:	7028      	strb	r0, [r5, #0]
  htim->State = HAL_TIM_STATE_BUSY;
 8006652:	7032      	strb	r2, [r6, #0]
  tmpsmcr = htim->Instance->SMCR;
 8006654:	681c      	ldr	r4, [r3, #0]
  tmpsmcr &= ~(TIM_SMCR_ETF | TIM_SMCR_ETPS | TIM_SMCR_ECE | TIM_SMCR_ETP);
 8006656:	4a41      	ldr	r2, [pc, #260]	@ (800675c <HAL_TIM_ConfigClockSource+0x124>)
  tmpsmcr = htim->Instance->SMCR;
 8006658:	68a3      	ldr	r3, [r4, #8]
  tmpsmcr &= ~(TIM_SMCR_ETF | TIM_SMCR_ETPS | TIM_SMCR_ECE | TIM_SMCR_ETP);
 800665a:	4013      	ands	r3, r2
  htim->Instance->SMCR = tmpsmcr;
 800665c:	60a3      	str	r3, [r4, #8]
  switch (sClockSourceConfig->ClockSource)
 800665e:	680b      	ldr	r3, [r1, #0]
 8006660:	2b60      	cmp	r3, #96	@ 0x60
 8006662:	d04e      	beq.n	8006702 <HAL_TIM_ConfigClockSource+0xca>
 8006664:	d82d      	bhi.n	80066c2 <HAL_TIM_ConfigClockSource+0x8a>
 8006666:	2b40      	cmp	r3, #64	@ 0x40
 8006668:	d062      	beq.n	8006730 <HAL_TIM_ConfigClockSource+0xf8>
 800666a:	d813      	bhi.n	8006694 <HAL_TIM_ConfigClockSource+0x5c>
 800666c:	2b20      	cmp	r3, #32
 800666e:	d00b      	beq.n	8006688 <HAL_TIM_ConfigClockSource+0x50>
 8006670:	d808      	bhi.n	8006684 <HAL_TIM_ConfigClockSource+0x4c>
 8006672:	2210      	movs	r2, #16
 8006674:	0019      	movs	r1, r3
 8006676:	4391      	bics	r1, r2
 8006678:	d006      	beq.n	8006688 <HAL_TIM_ConfigClockSource+0x50>
  htim->State = HAL_TIM_STATE_READY;
 800667a:	2301      	movs	r3, #1
 800667c:	7033      	strb	r3, [r6, #0]
  __HAL_UNLOCK(htim);
 800667e:	2300      	movs	r3, #0
 8006680:	702b      	strb	r3, [r5, #0]
}
 8006682:	bdf8      	pop	{r3, r4, r5, r6, r7, pc}
  switch (sClockSourceConfig->ClockSource)
 8006684:	2b30      	cmp	r3, #48	@ 0x30
 8006686:	d1f8      	bne.n	800667a <HAL_TIM_ConfigClockSource+0x42>
  tmpsmcr &= ~TIM_SMCR_TS;
 8006688:	2170      	movs	r1, #112	@ 0x70
  tmpsmcr = TIMx->SMCR;
 800668a:	68a2      	ldr	r2, [r4, #8]
  tmpsmcr &= ~TIM_SMCR_TS;
 800668c:	438a      	bics	r2, r1
  tmpsmcr |= (InputTriggerSource | TIM_SLAVEMODE_EXTERNAL1);
 800668e:	4313      	orrs	r3, r2
 8006690:	2207      	movs	r2, #7
 8006692:	e028      	b.n	80066e6 <HAL_TIM_ConfigClockSource+0xae>
  switch (sClockSourceConfig->ClockSource)
 8006694:	2b50      	cmp	r3, #80	@ 0x50
 8006696:	d1f0      	bne.n	800667a <HAL_TIM_ConfigClockSource+0x42>
                               sClockSourceConfig->ClockPolarity,
 8006698:	684a      	ldr	r2, [r1, #4]
                               sClockSourceConfig->ClockFilter);
 800669a:	68cb      	ldr	r3, [r1, #12]
  tmpccer = TIMx->CCER;
 800669c:	6a21      	ldr	r1, [r4, #32]
  TIMx->CCER &= ~TIM_CCER_CC1E;
 800669e:	6a27      	ldr	r7, [r4, #32]
  tmpccmr1 |= (TIM_ICFilter << 4U);
 80066a0:	011b      	lsls	r3, r3, #4
  TIMx->CCER &= ~TIM_CCER_CC1E;
 80066a2:	4387      	bics	r7, r0
 80066a4:	6227      	str	r7, [r4, #32]
  tmpccmr1 &= ~TIM_CCMR1_IC1F;
 80066a6:	27f0      	movs	r7, #240	@ 0xf0
  tmpccmr1 = TIMx->CCMR1;
 80066a8:	69a0      	ldr	r0, [r4, #24]
  tmpccmr1 &= ~TIM_CCMR1_IC1F;
 80066aa:	43b8      	bics	r0, r7
  tmpccmr1 |= (TIM_ICFilter << 4U);
 80066ac:	4303      	orrs	r3, r0
  tmpccer &= ~(TIM_CCER_CC1P | TIM_CCER_CC1NP);
 80066ae:	200a      	movs	r0, #10
  TIMx->CCMR1 = tmpccmr1;
 80066b0:	61a3      	str	r3, [r4, #24]
  tmpsmcr &= ~TIM_SMCR_TS;
 80066b2:	2370      	movs	r3, #112	@ 0x70
  tmpccer &= ~(TIM_CCER_CC1P | TIM_CCER_CC1NP);
 80066b4:	4381      	bics	r1, r0
  tmpccer |= TIM_ICPolarity;
 80066b6:	430a      	orrs	r2, r1
  TIMx->CCER = tmpccer;
 80066b8:	6222      	str	r2, [r4, #32]
  tmpsmcr = TIMx->SMCR;
 80066ba:	68a2      	ldr	r2, [r4, #8]
  tmpsmcr &= ~TIM_SMCR_TS;
 80066bc:	439a      	bics	r2, r3
  tmpsmcr |= (InputTriggerSource | TIM_SLAVEMODE_EXTERNAL1);
 80066be:	3b19      	subs	r3, #25
 80066c0:	e011      	b.n	80066e6 <HAL_TIM_ConfigClockSource+0xae>
  switch (sClockSourceConfig->ClockSource)
 80066c2:	2280      	movs	r2, #128	@ 0x80
 80066c4:	0152      	lsls	r2, r2, #5
 80066c6:	4293      	cmp	r3, r2
 80066c8:	d00f      	beq.n	80066ea <HAL_TIM_ConfigClockSource+0xb2>
 80066ca:	2280      	movs	r2, #128	@ 0x80
 80066cc:	0192      	lsls	r2, r2, #6
 80066ce:	4293      	cmp	r3, r2
 80066d0:	d00d      	beq.n	80066ee <HAL_TIM_ConfigClockSource+0xb6>
 80066d2:	2b70      	cmp	r3, #112	@ 0x70
 80066d4:	d1d1      	bne.n	800667a <HAL_TIM_ConfigClockSource+0x42>
      TIM_ETR_SetConfig(htim->Instance,
 80066d6:	68cb      	ldr	r3, [r1, #12]
 80066d8:	684a      	ldr	r2, [r1, #4]
 80066da:	0020      	movs	r0, r4
 80066dc:	6889      	ldr	r1, [r1, #8]
 80066de:	f7ff ff9f 	bl	8006620 <TIM_ETR_SetConfig>
      tmpsmcr |= (TIM_SLAVEMODE_EXTERNAL1 | TIM_CLOCKSOURCE_ETRMODE1);
 80066e2:	2377      	movs	r3, #119	@ 0x77
      tmpsmcr = htim->Instance->SMCR;
 80066e4:	68a2      	ldr	r2, [r4, #8]
      tmpsmcr |= (TIM_SLAVEMODE_EXTERNAL1 | TIM_CLOCKSOURCE_ETRMODE1);
 80066e6:	4313      	orrs	r3, r2
      htim->Instance->SMCR = tmpsmcr;
 80066e8:	60a3      	str	r3, [r4, #8]
  HAL_StatusTypeDef status = HAL_OK;
 80066ea:	2000      	movs	r0, #0
 80066ec:	e7c5      	b.n	800667a <HAL_TIM_ConfigClockSource+0x42>
      TIM_ETR_SetConfig(htim->Instance,
 80066ee:	68cb      	ldr	r3, [r1, #12]
 80066f0:	684a      	ldr	r2, [r1, #4]
 80066f2:	0020      	movs	r0, r4
 80066f4:	6889      	ldr	r1, [r1, #8]
 80066f6:	f7ff ff93 	bl	8006620 <TIM_ETR_SetConfig>
      htim->Instance->SMCR |= TIM_SMCR_ECE;
 80066fa:	2380      	movs	r3, #128	@ 0x80
 80066fc:	68a2      	ldr	r2, [r4, #8]
 80066fe:	01db      	lsls	r3, r3, #7
 8006700:	e7f1      	b.n	80066e6 <HAL_TIM_ConfigClockSource+0xae>
  TIMx->CCER &= ~TIM_CCER_CC2E;
 8006702:	2710      	movs	r7, #16
                               sClockSourceConfig->ClockPolarity,
 8006704:	684b      	ldr	r3, [r1, #4]
                               sClockSourceConfig->ClockFilter);
 8006706:	68ca      	ldr	r2, [r1, #12]
  tmpccer = TIMx->CCER;
 8006708:	6a21      	ldr	r1, [r4, #32]
  TIMx->CCER &= ~TIM_CCER_CC2E;
 800670a:	6a20      	ldr	r0, [r4, #32]
  tmpccmr1 |= (TIM_ICFilter << 12U);
 800670c:	0312      	lsls	r2, r2, #12
  TIMx->CCER &= ~TIM_CCER_CC2E;
 800670e:	43b8      	bics	r0, r7
 8006710:	6220      	str	r0, [r4, #32]
  tmpccmr1 = TIMx->CCMR1;
 8006712:	69a0      	ldr	r0, [r4, #24]
  tmpccmr1 &= ~TIM_CCMR1_IC2F;
 8006714:	4f12      	ldr	r7, [pc, #72]	@ (8006760 <HAL_TIM_ConfigClockSource+0x128>)
  tmpccer |= (TIM_ICPolarity << 4U);
 8006716:	011b      	lsls	r3, r3, #4
  tmpccmr1 &= ~TIM_CCMR1_IC2F;
 8006718:	4038      	ands	r0, r7
  tmpccmr1 |= (TIM_ICFilter << 12U);
 800671a:	4302      	orrs	r2, r0
  tmpccer &= ~(TIM_CCER_CC2P | TIM_CCER_CC2NP);
 800671c:	20a0      	movs	r0, #160	@ 0xa0
 800671e:	4381      	bics	r1, r0
  tmpccer |= (TIM_ICPolarity << 4U);
 8006720:	430b      	orrs	r3, r1
  TIMx->CCMR1 = tmpccmr1 ;
 8006722:	61a2      	str	r2, [r4, #24]
  TIMx->CCER = tmpccer;
 8006724:	6223      	str	r3, [r4, #32]
  tmpsmcr &= ~TIM_SMCR_TS;
 8006726:	2370      	movs	r3, #112	@ 0x70
  tmpsmcr = TIMx->SMCR;
 8006728:	68a2      	ldr	r2, [r4, #8]
  tmpsmcr &= ~TIM_SMCR_TS;
 800672a:	439a      	bics	r2, r3
  tmpsmcr |= (InputTriggerSource | TIM_SLAVEMODE_EXTERNAL1);
 800672c:	3b09      	subs	r3, #9
 800672e:	e7da      	b.n	80066e6 <HAL_TIM_ConfigClockSource+0xae>
                               sClockSourceConfig->ClockPolarity,
 8006730:	684a      	ldr	r2, [r1, #4]
                               sClockSourceConfig->ClockFilter);
 8006732:	68cb      	ldr	r3, [r1, #12]
  tmpccer = TIMx->CCER;
 8006734:	6a21      	ldr	r1, [r4, #32]
  TIMx->CCER &= ~TIM_CCER_CC1E;
 8006736:	6a27      	ldr	r7, [r4, #32]
  tmpccmr1 |= (TIM_ICFilter << 4U);
 8006738:	011b      	lsls	r3, r3, #4
  TIMx->CCER &= ~TIM_CCER_CC1E;
 800673a:	4387      	bics	r7, r0
 800673c:	6227      	str	r7, [r4, #32]
  tmpccmr1 &= ~TIM_CCMR1_IC1F;
 800673e:	27f0      	movs	r7, #240	@ 0xf0
  tmpccmr1 = TIMx->CCMR1;
 8006740:	69a0      	ldr	r0, [r4, #24]
  tmpccmr1 &= ~TIM_CCMR1_IC1F;
 8006742:	43b8      	bics	r0, r7
  tmpccmr1 |= (TIM_ICFilter << 4U);
 8006744:	4303      	orrs	r3, r0
  tmpccer &= ~(TIM_CCER_CC1P | TIM_CCER_CC1NP);
 8006746:	200a      	movs	r0, #10
  TIMx->CCMR1 = tmpccmr1;
 8006748:	61a3      	str	r3, [r4, #24]
  tmpsmcr &= ~TIM_SMCR_TS;
 800674a:	2370      	movs	r3, #112	@ 0x70
  tmpccer &= ~(TIM_CCER_CC1P | TIM_CCER_CC1NP);
 800674c:	4381      	bics	r1, r0
  tmpccer |= TIM_ICPolarity;
 800674e:	430a      	orrs	r2, r1
  TIMx->CCER = tmpccer;
 8006750:	6222      	str	r2, [r4, #32]
  tmpsmcr = TIMx->SMCR;
 8006752:	68a2      	ldr	r2, [r4, #8]
  tmpsmcr &= ~TIM_SMCR_TS;
 8006754:	439a      	bics	r2, r3
  tmpsmcr |= (InputTriggerSource | TIM_SLAVEMODE_EXTERNAL1);
 8006756:	3b29      	subs	r3, #41	@ 0x29
 8006758:	e7c5      	b.n	80066e6 <HAL_TIM_ConfigClockSource+0xae>
 800675a:	46c0      	nop			@ (mov r8, r8)
 800675c:	ffff0088 	.word	0xffff0088
 8006760:	ffff0fff 	.word	0xffff0fff

08006764 <TIM_SlaveTimer_SetConfig.constprop.0>:
  tmpsmcr &= ~TIM_SMCR_TS;
 8006764:	2370      	movs	r3, #112	@ 0x70
static HAL_StatusTypeDef TIM_SlaveTimer_SetConfig(TIM_HandleTypeDef *htim,
 8006766:	b570      	push	{r4, r5, r6, lr}
  tmpsmcr = htim->Instance->SMCR;
 8006768:	6804      	ldr	r4, [r0, #0]
  tmpsmcr &= ~TIM_SMCR_SMS;
 800676a:	2007      	movs	r0, #7
  tmpsmcr = htim->Instance->SMCR;
 800676c:	68a2      	ldr	r2, [r4, #8]
  tmpsmcr |= sSlaveConfig->SlaveMode;
 800676e:	680d      	ldr	r5, [r1, #0]
  tmpsmcr &= ~TIM_SMCR_TS;
 8006770:	439a      	bics	r2, r3
  tmpsmcr |= sSlaveConfig->InputTrigger;
 8006772:	684b      	ldr	r3, [r1, #4]
 8006774:	431a      	orrs	r2, r3
  tmpsmcr &= ~TIM_SMCR_SMS;
 8006776:	4382      	bics	r2, r0
  tmpsmcr |= sSlaveConfig->SlaveMode;
 8006778:	432a      	orrs	r2, r5
  htim->Instance->SMCR = tmpsmcr;
 800677a:	60a2      	str	r2, [r4, #8]
  switch (sSlaveConfig->InputTrigger)
 800677c:	2b50      	cmp	r3, #80	@ 0x50
 800677e:	d02f      	beq.n	80067e0 <TIM_SlaveTimer_SetConfig.constprop.0+0x7c>
 8006780:	d810      	bhi.n	80067a4 <TIM_SlaveTimer_SetConfig.constprop.0+0x40>
 8006782:	2b40      	cmp	r3, #64	@ 0x40
 8006784:	d01b      	beq.n	80067be <TIM_SlaveTimer_SetConfig.constprop.0+0x5a>
        return HAL_ERROR;
 8006786:	3806      	subs	r0, #6
  switch (sSlaveConfig->InputTrigger)
 8006788:	2b40      	cmp	r3, #64	@ 0x40
 800678a:	d808      	bhi.n	800679e <TIM_SlaveTimer_SetConfig.constprop.0+0x3a>
 800678c:	2b20      	cmp	r3, #32
 800678e:	d014      	beq.n	80067ba <TIM_SlaveTimer_SetConfig.constprop.0+0x56>
 8006790:	d806      	bhi.n	80067a0 <TIM_SlaveTimer_SetConfig.constprop.0+0x3c>
 8006792:	2210      	movs	r2, #16
 8006794:	4393      	bics	r3, r2
 8006796:	0018      	movs	r0, r3
 8006798:	1e43      	subs	r3, r0, #1
 800679a:	4198      	sbcs	r0, r3
 800679c:	b2c0      	uxtb	r0, r0
}
 800679e:	bd70      	pop	{r4, r5, r6, pc}
  switch (sSlaveConfig->InputTrigger)
 80067a0:	3b30      	subs	r3, #48	@ 0x30
 80067a2:	e7f8      	b.n	8006796 <TIM_SlaveTimer_SetConfig.constprop.0+0x32>
 80067a4:	2b60      	cmp	r3, #96	@ 0x60
 80067a6:	d02d      	beq.n	8006804 <TIM_SlaveTimer_SetConfig.constprop.0+0xa0>
        return HAL_ERROR;
 80067a8:	2001      	movs	r0, #1
  switch (sSlaveConfig->InputTrigger)
 80067aa:	2b70      	cmp	r3, #112	@ 0x70
 80067ac:	d1f7      	bne.n	800679e <TIM_SlaveTimer_SetConfig.constprop.0+0x3a>
      TIM_ETR_SetConfig(htim->Instance,
 80067ae:	690b      	ldr	r3, [r1, #16]
 80067b0:	688a      	ldr	r2, [r1, #8]
 80067b2:	0020      	movs	r0, r4
 80067b4:	68c9      	ldr	r1, [r1, #12]
 80067b6:	f7ff ff33 	bl	8006620 <TIM_ETR_SetConfig>
  HAL_StatusTypeDef status = HAL_OK;
 80067ba:	2000      	movs	r0, #0
 80067bc:	e7ef      	b.n	800679e <TIM_SlaveTimer_SetConfig.constprop.0+0x3a>
      if (sSlaveConfig->SlaveMode == TIM_SLAVEMODE_GATED)
 80067be:	2201      	movs	r2, #1
        return HAL_ERROR;
 80067c0:	0010      	movs	r0, r2
      if (sSlaveConfig->SlaveMode == TIM_SLAVEMODE_GATED)
 80067c2:	2d05      	cmp	r5, #5
 80067c4:	d0eb      	beq.n	800679e <TIM_SlaveTimer_SetConfig.constprop.0+0x3a>
      tmpccer = htim->Instance->CCER;
 80067c6:	6a20      	ldr	r0, [r4, #32]
      htim->Instance->CCER &= ~TIM_CCER_CC1E;
 80067c8:	6a23      	ldr	r3, [r4, #32]
 80067ca:	4393      	bics	r3, r2
 80067cc:	6223      	str	r3, [r4, #32]
      tmpccmr1 &= ~TIM_CCMR1_IC1F;
 80067ce:	23f0      	movs	r3, #240	@ 0xf0
      tmpccmr1 = htim->Instance->CCMR1;
 80067d0:	69a2      	ldr	r2, [r4, #24]
      tmpccmr1 &= ~TIM_CCMR1_IC1F;
 80067d2:	439a      	bics	r2, r3
      tmpccmr1 |= ((sSlaveConfig->TriggerFilter) << 4U);
 80067d4:	690b      	ldr	r3, [r1, #16]
 80067d6:	011b      	lsls	r3, r3, #4
 80067d8:	4313      	orrs	r3, r2
      htim->Instance->CCMR1 = tmpccmr1;
 80067da:	61a3      	str	r3, [r4, #24]
      htim->Instance->CCER = tmpccer;
 80067dc:	6220      	str	r0, [r4, #32]
      break;
 80067de:	e7ec      	b.n	80067ba <TIM_SlaveTimer_SetConfig.constprop.0+0x56>
  TIMx->CCER &= ~TIM_CCER_CC1E;
 80067e0:	2501      	movs	r5, #1
                               sSlaveConfig->TriggerPolarity,
 80067e2:	688a      	ldr	r2, [r1, #8]
                               sSlaveConfig->TriggerFilter);
 80067e4:	690b      	ldr	r3, [r1, #16]
  tmpccer = TIMx->CCER;
 80067e6:	6a21      	ldr	r1, [r4, #32]
  TIMx->CCER &= ~TIM_CCER_CC1E;
 80067e8:	6a20      	ldr	r0, [r4, #32]
  tmpccmr1 |= (TIM_ICFilter << 4U);
 80067ea:	011b      	lsls	r3, r3, #4
  TIMx->CCER &= ~TIM_CCER_CC1E;
 80067ec:	43a8      	bics	r0, r5
 80067ee:	6220      	str	r0, [r4, #32]
  tmpccmr1 = TIMx->CCMR1;
 80067f0:	69a0      	ldr	r0, [r4, #24]
  tmpccmr1 &= ~TIM_CCMR1_IC1F;
 80067f2:	35ef      	adds	r5, #239	@ 0xef
 80067f4:	43a8      	bics	r0, r5
  tmpccmr1 |= (TIM_ICFilter << 4U);
 80067f6:	4303      	orrs	r3, r0
  tmpccer &= ~(TIM_CCER_CC1P | TIM_CCER_CC1NP);
 80067f8:	200a      	movs	r0, #10
 80067fa:	4381      	bics	r1, r0
  tmpccer |= TIM_ICPolarity;
 80067fc:	430a      	orrs	r2, r1
  TIMx->CCMR1 = tmpccmr1;
 80067fe:	61a3      	str	r3, [r4, #24]
  TIMx->CCER = tmpccer;
 8006800:	6222      	str	r2, [r4, #32]
}
 8006802:	e7da      	b.n	80067ba <TIM_SlaveTimer_SetConfig.constprop.0+0x56>
  TIMx->CCER &= ~TIM_CCER_CC2E;
 8006804:	2510      	movs	r5, #16
                               sSlaveConfig->TriggerPolarity,
 8006806:	688b      	ldr	r3, [r1, #8]
                               sSlaveConfig->TriggerFilter);
 8006808:	690a      	ldr	r2, [r1, #16]
  tmpccer = TIMx->CCER;
 800680a:	6a21      	ldr	r1, [r4, #32]
  TIMx->CCER &= ~TIM_CCER_CC2E;
 800680c:	6a20      	ldr	r0, [r4, #32]
  tmpccmr1 |= (TIM_ICFilter << 12U);
 800680e:	0312      	lsls	r2, r2, #12
  TIMx->CCER &= ~TIM_CCER_CC2E;
 8006810:	43a8      	bics	r0, r5
 8006812:	6220      	str	r0, [r4, #32]
  tmpccmr1 = TIMx->CCMR1;
 8006814:	69a0      	ldr	r0, [r4, #24]
  tmpccmr1 &= ~TIM_CCMR1_IC2F;
 8006816:	4d05      	ldr	r5, [pc, #20]	@ (800682c <TIM_SlaveTimer_SetConfig.constprop.0+0xc8>)
  tmpccer |= (TIM_ICPolarity << 4U);
 8006818:	011b      	lsls	r3, r3, #4
  tmpccmr1 &= ~TIM_CCMR1_IC2F;
 800681a:	4028      	ands	r0, r5
  tmpccmr1 |= (TIM_ICFilter << 12U);
 800681c:	4302      	orrs	r2, r0
  tmpccer &= ~(TIM_CCER_CC2P | TIM_CCER_CC2NP);
 800681e:	20a0      	movs	r0, #160	@ 0xa0
 8006820:	4381      	bics	r1, r0
  tmpccer |= (TIM_ICPolarity << 4U);
 8006822:	430b      	orrs	r3, r1
  TIMx->CCMR1 = tmpccmr1 ;
 8006824:	61a2      	str	r2, [r4, #24]
  TIMx->CCER = tmpccer;
 8006826:	6223      	str	r3, [r4, #32]
}
 8006828:	e7c7      	b.n	80067ba <TIM_SlaveTimer_SetConfig.constprop.0+0x56>
 800682a:	46c0      	nop			@ (mov r8, r8)
 800682c:	ffff0fff 	.word	0xffff0fff

08006830 <HAL_TIM_SlaveConfigSynchro>:
{
 8006830:	b5f8      	push	{r3, r4, r5, r6, r7, lr}
  __HAL_LOCK(htim);
 8006832:	0005      	movs	r5, r0
 8006834:	2302      	movs	r3, #2
 8006836:	353c      	adds	r5, #60	@ 0x3c
 8006838:	782a      	ldrb	r2, [r5, #0]
{
 800683a:	0004      	movs	r4, r0
  __HAL_LOCK(htim);
 800683c:	0018      	movs	r0, r3
 800683e:	2a01      	cmp	r2, #1
 8006840:	d00d      	beq.n	800685e <HAL_TIM_SlaveConfigSynchro+0x2e>
  htim->State = HAL_TIM_STATE_BUSY;
 8006842:	0027      	movs	r7, r4
  __HAL_LOCK(htim);
 8006844:	2601      	movs	r6, #1
  htim->State = HAL_TIM_STATE_BUSY;
 8006846:	373d      	adds	r7, #61	@ 0x3d
  __HAL_LOCK(htim);
 8006848:	702e      	strb	r6, [r5, #0]
  if (TIM_SlaveTimer_SetConfig(htim, sSlaveConfig) != HAL_OK)
 800684a:	0020      	movs	r0, r4
  htim->State = HAL_TIM_STATE_BUSY;
 800684c:	703b      	strb	r3, [r7, #0]
  if (TIM_SlaveTimer_SetConfig(htim, sSlaveConfig) != HAL_OK)
 800684e:	f7ff ff89 	bl	8006764 <TIM_SlaveTimer_SetConfig.constprop.0>
 8006852:	2800      	cmp	r0, #0
 8006854:	d004      	beq.n	8006860 <HAL_TIM_SlaveConfigSynchro+0x30>
    __HAL_UNLOCK(htim);
 8006856:	2300      	movs	r3, #0
    return HAL_ERROR;
 8006858:	0030      	movs	r0, r6
    htim->State = HAL_TIM_STATE_READY;
 800685a:	703e      	strb	r6, [r7, #0]
    __HAL_UNLOCK(htim);
 800685c:	702b      	strb	r3, [r5, #0]
}
 800685e:	bdf8      	pop	{r3, r4, r5, r6, r7, pc}
  __HAL_TIM_DISABLE_IT(htim, TIM_IT_TRIGGER);
 8006860:	2140      	movs	r1, #64	@ 0x40
 8006862:	6823      	ldr	r3, [r4, #0]
 8006864:	68da      	ldr	r2, [r3, #12]
 8006866:	438a      	bics	r2, r1
 8006868:	60da      	str	r2, [r3, #12]
  __HAL_TIM_DISABLE_DMA(htim, TIM_DMA_TRIGGER);
 800686a:	68da      	ldr	r2, [r3, #12]
 800686c:	4902      	ldr	r1, [pc, #8]	@ (8006878 <HAL_TIM_SlaveConfigSynchro+0x48>)
 800686e:	400a      	ands	r2, r1
 8006870:	60da      	str	r2, [r3, #12]
  htim->State = HAL_TIM_STATE_READY;
 8006872:	703e      	strb	r6, [r7, #0]
  __HAL_UNLOCK(htim);
 8006874:	7028      	strb	r0, [r5, #0]
  return HAL_OK;
 8006876:	e7f2      	b.n	800685e <HAL_TIM_SlaveConfigSynchro+0x2e>
 8006878:	ffffbfff 	.word	0xffffbfff

0800687c <TIM_CCxChannelCmd>:

  /* Check the parameters */
  assert_param(IS_TIM_CC1_INSTANCE(TIMx));
  assert_param(IS_TIM_CHANNELS(Channel));

  tmp = TIM_CCER_CC1E << (Channel & 0x1FU); /* 0x1FU = 31 bits max shift */
 800687c:	231f      	movs	r3, #31
{
 800687e:	b510      	push	{r4, lr}
  tmp = TIM_CCER_CC1E << (Channel & 0x1FU); /* 0x1FU = 31 bits max shift */
 8006880:	2401      	movs	r4, #1
 8006882:	4019      	ands	r1, r3
 8006884:	408c      	lsls	r4, r1

  /* Reset the CCxE Bit */
  TIMx->CCER &= ~tmp;

  /* Set or reset the CCxE Bit */
  TIMx->CCER |= (uint32_t)(ChannelState << (Channel & 0x1FU)); /* 0x1FU = 31 bits max shift */
 8006886:	408a      	lsls	r2, r1
  TIMx->CCER &= ~tmp;
 8006888:	6a03      	ldr	r3, [r0, #32]
 800688a:	43a3      	bics	r3, r4
 800688c:	6203      	str	r3, [r0, #32]
  TIMx->CCER |= (uint32_t)(ChannelState << (Channel & 0x1FU)); /* 0x1FU = 31 bits max shift */
 800688e:	6a03      	ldr	r3, [r0, #32]
 8006890:	431a      	orrs	r2, r3
 8006892:	6202      	str	r2, [r0, #32]
}
 8006894:	bd10      	pop	{r4, pc}
	...

08006898 <HAL_TIM_OC_Start>:
{
 8006898:	0002      	movs	r2, r0
  if (TIM_CHANNEL_STATE_GET(htim, Channel) != HAL_TIM_CHANNEL_STATE_READY)
 800689a:	0003      	movs	r3, r0
{
 800689c:	b510      	push	{r4, lr}
  if (TIM_CHANNEL_STATE_GET(htim, Channel) != HAL_TIM_CHANNEL_STATE_READY)
 800689e:	2900      	cmp	r1, #0
 80068a0:	d109      	bne.n	80068b6 <HAL_TIM_OC_Start+0x1e>
 80068a2:	333e      	adds	r3, #62	@ 0x3e
 80068a4:	781b      	ldrb	r3, [r3, #0]
 80068a6:	3b01      	subs	r3, #1
 80068a8:	1e58      	subs	r0, r3, #1
 80068aa:	4183      	sbcs	r3, r0
 80068ac:	b2db      	uxtb	r3, r3
    return HAL_ERROR;
 80068ae:	2001      	movs	r0, #1
  if (TIM_CHANNEL_STATE_GET(htim, Channel) != HAL_TIM_CHANNEL_STATE_READY)
 80068b0:	2b00      	cmp	r3, #0
 80068b2:	d00a      	beq.n	80068ca <HAL_TIM_OC_Start+0x32>
}
 80068b4:	bd10      	pop	{r4, pc}
  if (TIM_CHANNEL_STATE_GET(htim, Channel) != HAL_TIM_CHANNEL_STATE_READY)
 80068b6:	2904      	cmp	r1, #4
 80068b8:	d101      	bne.n	80068be <HAL_TIM_OC_Start+0x26>
 80068ba:	333f      	adds	r3, #63	@ 0x3f
 80068bc:	e7f2      	b.n	80068a4 <HAL_TIM_OC_Start+0xc>
 80068be:	2908      	cmp	r1, #8
 80068c0:	d101      	bne.n	80068c6 <HAL_TIM_OC_Start+0x2e>
 80068c2:	3340      	adds	r3, #64	@ 0x40
 80068c4:	e7ee      	b.n	80068a4 <HAL_TIM_OC_Start+0xc>
 80068c6:	3341      	adds	r3, #65	@ 0x41
 80068c8:	e7ec      	b.n	80068a4 <HAL_TIM_OC_Start+0xc>
  TIM_CHANNEL_STATE_SET(htim, Channel, HAL_TIM_CHANNEL_STATE_BUSY);
 80068ca:	2302      	movs	r3, #2
 80068cc:	0010      	movs	r0, r2
 80068ce:	2900      	cmp	r1, #0
 80068d0:	d11d      	bne.n	800690e <HAL_TIM_OC_Start+0x76>
 80068d2:	303e      	adds	r0, #62	@ 0x3e
 80068d4:	7003      	strb	r3, [r0, #0]
  TIM_CCxChannelCmd(htim->Instance, Channel, TIM_CCx_ENABLE);
 80068d6:	6814      	ldr	r4, [r2, #0]
 80068d8:	2201      	movs	r2, #1
 80068da:	0020      	movs	r0, r4
 80068dc:	f7ff ffce 	bl	800687c <TIM_CCxChannelCmd>
  if (IS_TIM_BREAK_INSTANCE(htim->Instance) != RESET)
 80068e0:	4a14      	ldr	r2, [pc, #80]	@ (8006934 <HAL_TIM_OC_Start+0x9c>)
 80068e2:	4294      	cmp	r4, r2
 80068e4:	d005      	beq.n	80068f2 <HAL_TIM_OC_Start+0x5a>
 80068e6:	4b14      	ldr	r3, [pc, #80]	@ (8006938 <HAL_TIM_OC_Start+0xa0>)
 80068e8:	429c      	cmp	r4, r3
 80068ea:	d002      	beq.n	80068f2 <HAL_TIM_OC_Start+0x5a>
 80068ec:	4b13      	ldr	r3, [pc, #76]	@ (800693c <HAL_TIM_OC_Start+0xa4>)
 80068ee:	429c      	cmp	r4, r3
 80068f0:	d117      	bne.n	8006922 <HAL_TIM_OC_Start+0x8a>
    __HAL_TIM_MOE_ENABLE(htim);
 80068f2:	2380      	movs	r3, #128	@ 0x80
 80068f4:	6c61      	ldr	r1, [r4, #68]	@ 0x44
 80068f6:	021b      	lsls	r3, r3, #8
 80068f8:	430b      	orrs	r3, r1
 80068fa:	6463      	str	r3, [r4, #68]	@ 0x44
  if (IS_TIM_SLAVE_INSTANCE(htim->Instance))
 80068fc:	4294      	cmp	r4, r2
 80068fe:	d113      	bne.n	8006928 <HAL_TIM_OC_Start+0x90>
    tmpsmcr = htim->Instance->SMCR & TIM_SMCR_SMS;
 8006900:	2207      	movs	r2, #7
 8006902:	68a3      	ldr	r3, [r4, #8]
 8006904:	4013      	ands	r3, r2
    if (!IS_TIM_SLAVEMODE_TRIGGER_ENABLED(tmpsmcr))
 8006906:	2b06      	cmp	r3, #6
 8006908:	d10e      	bne.n	8006928 <HAL_TIM_OC_Start+0x90>
  return HAL_OK;
 800690a:	2000      	movs	r0, #0
 800690c:	e7d2      	b.n	80068b4 <HAL_TIM_OC_Start+0x1c>
  TIM_CHANNEL_STATE_SET(htim, Channel, HAL_TIM_CHANNEL_STATE_BUSY);
 800690e:	2904      	cmp	r1, #4
 8006910:	d101      	bne.n	8006916 <HAL_TIM_OC_Start+0x7e>
 8006912:	303f      	adds	r0, #63	@ 0x3f
 8006914:	e7de      	b.n	80068d4 <HAL_TIM_OC_Start+0x3c>
 8006916:	2908      	cmp	r1, #8
 8006918:	d101      	bne.n	800691e <HAL_TIM_OC_Start+0x86>
 800691a:	3040      	adds	r0, #64	@ 0x40
 800691c:	e7da      	b.n	80068d4 <HAL_TIM_OC_Start+0x3c>
 800691e:	3041      	adds	r0, #65	@ 0x41
 8006920:	e7d8      	b.n	80068d4 <HAL_TIM_OC_Start+0x3c>
  if (IS_TIM_SLAVE_INSTANCE(htim->Instance))
 8006922:	4b07      	ldr	r3, [pc, #28]	@ (8006940 <HAL_TIM_OC_Start+0xa8>)
 8006924:	429c      	cmp	r4, r3
 8006926:	d0eb      	beq.n	8006900 <HAL_TIM_OC_Start+0x68>
      __HAL_TIM_ENABLE(htim);
 8006928:	2301      	movs	r3, #1
 800692a:	6822      	ldr	r2, [r4, #0]
 800692c:	4313      	orrs	r3, r2
 800692e:	6023      	str	r3, [r4, #0]
 8006930:	e7eb      	b.n	800690a <HAL_TIM_OC_Start+0x72>
 8006932:	46c0      	nop			@ (mov r8, r8)
 8006934:	40012c00 	.word	0x40012c00
 8006938:	40014400 	.word	0x40014400
 800693c:	40014800 	.word	0x40014800
 8006940:	40000400 	.word	0x40000400

08006944 <HAL_TIM_PWM_Start>:
HAL_StatusTypeDef HAL_TIM_PWM_Start(TIM_HandleTypeDef *htim, uint32_t Channel)
 8006944:	b510      	push	{r4, lr}
 8006946:	f7ff ffa7 	bl	8006898 <HAL_TIM_OC_Start>
 800694a:	bd10      	pop	{r4, pc}

0800694c <HAL_TIM_OC_Stop>:
{
 800694c:	b570      	push	{r4, r5, r6, lr}
  TIM_CCxChannelCmd(htim->Instance, Channel, TIM_CCx_DISABLE);
 800694e:	6805      	ldr	r5, [r0, #0]
 8006950:	2200      	movs	r2, #0
{
 8006952:	0004      	movs	r4, r0
  TIM_CCxChannelCmd(htim->Instance, Channel, TIM_CCx_DISABLE);
 8006954:	0028      	movs	r0, r5
{
 8006956:	000e      	movs	r6, r1
  TIM_CCxChannelCmd(htim->Instance, Channel, TIM_CCx_DISABLE);
 8006958:	f7ff ff90 	bl	800687c <TIM_CCxChannelCmd>
  if (IS_TIM_BREAK_INSTANCE(htim->Instance) != RESET)
 800695c:	4b18      	ldr	r3, [pc, #96]	@ (80069c0 <HAL_TIM_OC_Stop+0x74>)
 800695e:	4a19      	ldr	r2, [pc, #100]	@ (80069c4 <HAL_TIM_OC_Stop+0x78>)
 8006960:	429d      	cmp	r5, r3
 8006962:	d005      	beq.n	8006970 <HAL_TIM_OC_Stop+0x24>
 8006964:	4b18      	ldr	r3, [pc, #96]	@ (80069c8 <HAL_TIM_OC_Stop+0x7c>)
 8006966:	429d      	cmp	r5, r3
 8006968:	d002      	beq.n	8006970 <HAL_TIM_OC_Stop+0x24>
 800696a:	4b18      	ldr	r3, [pc, #96]	@ (80069cc <HAL_TIM_OC_Stop+0x80>)
 800696c:	429d      	cmp	r5, r3
 800696e:	d10a      	bne.n	8006986 <HAL_TIM_OC_Stop+0x3a>
    __HAL_TIM_MOE_DISABLE(htim);
 8006970:	6a2b      	ldr	r3, [r5, #32]
 8006972:	4213      	tst	r3, r2
 8006974:	d107      	bne.n	8006986 <HAL_TIM_OC_Stop+0x3a>
 8006976:	6a29      	ldr	r1, [r5, #32]
 8006978:	4b15      	ldr	r3, [pc, #84]	@ (80069d0 <HAL_TIM_OC_Stop+0x84>)
 800697a:	4219      	tst	r1, r3
 800697c:	d103      	bne.n	8006986 <HAL_TIM_OC_Stop+0x3a>
 800697e:	6c6b      	ldr	r3, [r5, #68]	@ 0x44
 8006980:	4914      	ldr	r1, [pc, #80]	@ (80069d4 <HAL_TIM_OC_Stop+0x88>)
 8006982:	400b      	ands	r3, r1
 8006984:	646b      	str	r3, [r5, #68]	@ 0x44
  __HAL_TIM_DISABLE(htim);
 8006986:	6a2b      	ldr	r3, [r5, #32]
 8006988:	4213      	tst	r3, r2
 800698a:	d107      	bne.n	800699c <HAL_TIM_OC_Stop+0x50>
 800698c:	6a2a      	ldr	r2, [r5, #32]
 800698e:	4b10      	ldr	r3, [pc, #64]	@ (80069d0 <HAL_TIM_OC_Stop+0x84>)
 8006990:	421a      	tst	r2, r3
 8006992:	d103      	bne.n	800699c <HAL_TIM_OC_Stop+0x50>
 8006994:	2201      	movs	r2, #1
 8006996:	682b      	ldr	r3, [r5, #0]
 8006998:	4393      	bics	r3, r2
 800699a:	602b      	str	r3, [r5, #0]
  TIM_CHANNEL_STATE_SET(htim, Channel, HAL_TIM_CHANNEL_STATE_READY);
 800699c:	2301      	movs	r3, #1
 800699e:	2e00      	cmp	r6, #0
 80069a0:	d103      	bne.n	80069aa <HAL_TIM_OC_Stop+0x5e>
 80069a2:	343e      	adds	r4, #62	@ 0x3e
}
 80069a4:	2000      	movs	r0, #0
  TIM_CHANNEL_STATE_SET(htim, Channel, HAL_TIM_CHANNEL_STATE_READY);
 80069a6:	7023      	strb	r3, [r4, #0]
}
 80069a8:	bd70      	pop	{r4, r5, r6, pc}
  TIM_CHANNEL_STATE_SET(htim, Channel, HAL_TIM_CHANNEL_STATE_READY);
 80069aa:	2e04      	cmp	r6, #4
 80069ac:	d101      	bne.n	80069b2 <HAL_TIM_OC_Stop+0x66>
 80069ae:	343f      	adds	r4, #63	@ 0x3f
 80069b0:	e7f8      	b.n	80069a4 <HAL_TIM_OC_Stop+0x58>
 80069b2:	2e08      	cmp	r6, #8
 80069b4:	d101      	bne.n	80069ba <HAL_TIM_OC_Stop+0x6e>
 80069b6:	3440      	adds	r4, #64	@ 0x40
 80069b8:	e7f4      	b.n	80069a4 <HAL_TIM_OC_Stop+0x58>
 80069ba:	3441      	adds	r4, #65	@ 0x41
 80069bc:	e7f2      	b.n	80069a4 <HAL_TIM_OC_Stop+0x58>
 80069be:	46c0      	nop			@ (mov r8, r8)
 80069c0:	40012c00 	.word	0x40012c00
 80069c4:	00001111 	.word	0x00001111
 80069c8:	40014400 	.word	0x40014400
 80069cc:	40014800 	.word	0x40014800
 80069d0:	00000444 	.word	0x00000444
 80069d4:	ffff7fff 	.word	0xffff7fff

080069d8 <HAL_TIM_PWM_Stop>:
HAL_StatusTypeDef HAL_TIM_PWM_Stop(TIM_HandleTypeDef *htim, uint32_t Channel)
 80069d8:	b510      	push	{r4, lr}
 80069da:	f7ff ffb7 	bl	800694c <HAL_TIM_OC_Stop>
 80069de:	bd10      	pop	{r4, pc}

080069e0 <HAL_TIM_OC_Start_DMA>:
{
 80069e0:	b570      	push	{r4, r5, r6, lr}
 80069e2:	000e      	movs	r6, r1
 80069e4:	0005      	movs	r5, r0
 80069e6:	0011      	movs	r1, r2
  if (TIM_CHANNEL_STATE_GET(htim, Channel) == HAL_TIM_CHANNEL_STATE_BUSY)
 80069e8:	0002      	movs	r2, r0
 80069ea:	2e00      	cmp	r6, #0
 80069ec:	d109      	bne.n	8006a02 <HAL_TIM_OC_Start_DMA+0x22>
 80069ee:	323e      	adds	r2, #62	@ 0x3e
 80069f0:	7814      	ldrb	r4, [r2, #0]
    return HAL_BUSY;
 80069f2:	2002      	movs	r0, #2
  if (TIM_CHANNEL_STATE_GET(htim, Channel) == HAL_TIM_CHANNEL_STATE_BUSY)
 80069f4:	3c02      	subs	r4, #2
 80069f6:	4262      	negs	r2, r4
 80069f8:	4154      	adcs	r4, r2
 80069fa:	b2e4      	uxtb	r4, r4
 80069fc:	2c00      	cmp	r4, #0
 80069fe:	d00a      	beq.n	8006a16 <HAL_TIM_OC_Start_DMA+0x36>
}
 8006a00:	bd70      	pop	{r4, r5, r6, pc}
  if (TIM_CHANNEL_STATE_GET(htim, Channel) == HAL_TIM_CHANNEL_STATE_BUSY)
 8006a02:	2e04      	cmp	r6, #4
 8006a04:	d101      	bne.n	8006a0a <HAL_TIM_OC_Start_DMA+0x2a>
 8006a06:	323f      	adds	r2, #63	@ 0x3f
 8006a08:	e7f2      	b.n	80069f0 <HAL_TIM_OC_Start_DMA+0x10>
 8006a0a:	2e08      	cmp	r6, #8
 8006a0c:	d101      	bne.n	8006a12 <HAL_TIM_OC_Start_DMA+0x32>
 8006a0e:	3240      	adds	r2, #64	@ 0x40
 8006a10:	e7ee      	b.n	80069f0 <HAL_TIM_OC_Start_DMA+0x10>
 8006a12:	3241      	adds	r2, #65	@ 0x41
 8006a14:	e7ec      	b.n	80069f0 <HAL_TIM_OC_Start_DMA+0x10>
  else if (TIM_CHANNEL_STATE_GET(htim, Channel) == HAL_TIM_CHANNEL_STATE_READY)
 8006a16:	002a      	movs	r2, r5
 8006a18:	2e00      	cmp	r6, #0
 8006a1a:	d109      	bne.n	8006a30 <HAL_TIM_OC_Start_DMA+0x50>
 8006a1c:	323e      	adds	r2, #62	@ 0x3e
 8006a1e:	7812      	ldrb	r2, [r2, #0]
 8006a20:	3a01      	subs	r2, #1
 8006a22:	4250      	negs	r0, r2
 8006a24:	4142      	adcs	r2, r0
 8006a26:	b2d2      	uxtb	r2, r2
 8006a28:	2a00      	cmp	r2, #0
 8006a2a:	d10b      	bne.n	8006a44 <HAL_TIM_OC_Start_DMA+0x64>
      return HAL_ERROR;
 8006a2c:	2001      	movs	r0, #1
 8006a2e:	e7e7      	b.n	8006a00 <HAL_TIM_OC_Start_DMA+0x20>
  else if (TIM_CHANNEL_STATE_GET(htim, Channel) == HAL_TIM_CHANNEL_STATE_READY)
 8006a30:	2e04      	cmp	r6, #4
 8006a32:	d101      	bne.n	8006a38 <HAL_TIM_OC_Start_DMA+0x58>
 8006a34:	323f      	adds	r2, #63	@ 0x3f
 8006a36:	e7f2      	b.n	8006a1e <HAL_TIM_OC_Start_DMA+0x3e>
 8006a38:	2e08      	cmp	r6, #8
 8006a3a:	d101      	bne.n	8006a40 <HAL_TIM_OC_Start_DMA+0x60>
 8006a3c:	3240      	adds	r2, #64	@ 0x40
 8006a3e:	e7ee      	b.n	8006a1e <HAL_TIM_OC_Start_DMA+0x3e>
 8006a40:	3241      	adds	r2, #65	@ 0x41
 8006a42:	e7ec      	b.n	8006a1e <HAL_TIM_OC_Start_DMA+0x3e>
    if ((pData == NULL) || (Length == 0U))
 8006a44:	2900      	cmp	r1, #0
 8006a46:	d0f1      	beq.n	8006a2c <HAL_TIM_OC_Start_DMA+0x4c>
 8006a48:	2b00      	cmp	r3, #0
 8006a4a:	d0ef      	beq.n	8006a2c <HAL_TIM_OC_Start_DMA+0x4c>
      TIM_CHANNEL_STATE_SET(htim, Channel, HAL_TIM_CHANNEL_STATE_BUSY);
 8006a4c:	2202      	movs	r2, #2
 8006a4e:	0028      	movs	r0, r5
 8006a50:	2e00      	cmp	r6, #0
 8006a52:	d131      	bne.n	8006ab8 <HAL_TIM_OC_Start_DMA+0xd8>
 8006a54:	303e      	adds	r0, #62	@ 0x3e
 8006a56:	7002      	strb	r2, [r0, #0]
      htim->hdma[TIM_DMA_ID_CC1]->XferCpltCallback = TIM_DMADelayPulseCplt;
 8006a58:	6a68      	ldr	r0, [r5, #36]	@ 0x24
 8006a5a:	4a3d      	ldr	r2, [pc, #244]	@ (8006b50 <HAL_TIM_OC_Start_DMA+0x170>)
 8006a5c:	6282      	str	r2, [r0, #40]	@ 0x28
      htim->hdma[TIM_DMA_ID_CC1]->XferHalfCpltCallback = TIM_DMADelayPulseHalfCplt;
 8006a5e:	4a3d      	ldr	r2, [pc, #244]	@ (8006b54 <HAL_TIM_OC_Start_DMA+0x174>)
 8006a60:	62c2      	str	r2, [r0, #44]	@ 0x2c
      htim->hdma[TIM_DMA_ID_CC1]->XferErrorCallback = TIM_DMAError ;
 8006a62:	4a3d      	ldr	r2, [pc, #244]	@ (8006b58 <HAL_TIM_OC_Start_DMA+0x178>)
 8006a64:	6302      	str	r2, [r0, #48]	@ 0x30
      if (HAL_DMA_Start_IT(htim->hdma[TIM_DMA_ID_CC1], (uint32_t)pData, (uint32_t)&htim->Instance->CCR1,
 8006a66:	682a      	ldr	r2, [r5, #0]
 8006a68:	3234      	adds	r2, #52	@ 0x34
 8006a6a:	f7fe fa33 	bl	8004ed4 <HAL_DMA_Start_IT>
 8006a6e:	2800      	cmp	r0, #0
 8006a70:	d1dc      	bne.n	8006a2c <HAL_TIM_OC_Start_DMA+0x4c>
      __HAL_TIM_ENABLE_DMA(htim, TIM_DMA_CC1);
 8006a72:	2380      	movs	r3, #128	@ 0x80
 8006a74:	682a      	ldr	r2, [r5, #0]
 8006a76:	009b      	lsls	r3, r3, #2
 8006a78:	68d1      	ldr	r1, [r2, #12]
    TIM_CCxChannelCmd(htim->Instance, Channel, TIM_CCx_ENABLE);
 8006a7a:	682c      	ldr	r4, [r5, #0]
      __HAL_TIM_ENABLE_DMA(htim, TIM_DMA_CC4);
 8006a7c:	430b      	orrs	r3, r1
 8006a7e:	60d3      	str	r3, [r2, #12]
    TIM_CCxChannelCmd(htim->Instance, Channel, TIM_CCx_ENABLE);
 8006a80:	0031      	movs	r1, r6
 8006a82:	2201      	movs	r2, #1
 8006a84:	0020      	movs	r0, r4
 8006a86:	f7ff fef9 	bl	800687c <TIM_CCxChannelCmd>
    if (IS_TIM_BREAK_INSTANCE(htim->Instance) != RESET)
 8006a8a:	4a34      	ldr	r2, [pc, #208]	@ (8006b5c <HAL_TIM_OC_Start_DMA+0x17c>)
 8006a8c:	4294      	cmp	r4, r2
 8006a8e:	d005      	beq.n	8006a9c <HAL_TIM_OC_Start_DMA+0xbc>
 8006a90:	4b33      	ldr	r3, [pc, #204]	@ (8006b60 <HAL_TIM_OC_Start_DMA+0x180>)
 8006a92:	429c      	cmp	r4, r3
 8006a94:	d002      	beq.n	8006a9c <HAL_TIM_OC_Start_DMA+0xbc>
 8006a96:	4b33      	ldr	r3, [pc, #204]	@ (8006b64 <HAL_TIM_OC_Start_DMA+0x184>)
 8006a98:	429c      	cmp	r4, r3
 8006a9a:	d150      	bne.n	8006b3e <HAL_TIM_OC_Start_DMA+0x15e>
      __HAL_TIM_MOE_ENABLE(htim);
 8006a9c:	2380      	movs	r3, #128	@ 0x80
 8006a9e:	6c61      	ldr	r1, [r4, #68]	@ 0x44
 8006aa0:	021b      	lsls	r3, r3, #8
 8006aa2:	430b      	orrs	r3, r1
 8006aa4:	6463      	str	r3, [r4, #68]	@ 0x44
    if (IS_TIM_SLAVE_INSTANCE(htim->Instance))
 8006aa6:	4294      	cmp	r4, r2
 8006aa8:	d14c      	bne.n	8006b44 <HAL_TIM_OC_Start_DMA+0x164>
      tmpsmcr = htim->Instance->SMCR & TIM_SMCR_SMS;
 8006aaa:	2207      	movs	r2, #7
 8006aac:	68a3      	ldr	r3, [r4, #8]
 8006aae:	4013      	ands	r3, r2
      if (!IS_TIM_SLAVEMODE_TRIGGER_ENABLED(tmpsmcr))
 8006ab0:	2b06      	cmp	r3, #6
 8006ab2:	d147      	bne.n	8006b44 <HAL_TIM_OC_Start_DMA+0x164>
    return HAL_BUSY;
 8006ab4:	2000      	movs	r0, #0
 8006ab6:	e7a3      	b.n	8006a00 <HAL_TIM_OC_Start_DMA+0x20>
      TIM_CHANNEL_STATE_SET(htim, Channel, HAL_TIM_CHANNEL_STATE_BUSY);
 8006ab8:	2e04      	cmp	r6, #4
 8006aba:	d113      	bne.n	8006ae4 <HAL_TIM_OC_Start_DMA+0x104>
 8006abc:	303f      	adds	r0, #63	@ 0x3f
 8006abe:	7002      	strb	r2, [r0, #0]
      htim->hdma[TIM_DMA_ID_CC2]->XferCpltCallback = TIM_DMADelayPulseCplt;
 8006ac0:	6aa8      	ldr	r0, [r5, #40]	@ 0x28
 8006ac2:	4a23      	ldr	r2, [pc, #140]	@ (8006b50 <HAL_TIM_OC_Start_DMA+0x170>)
 8006ac4:	6282      	str	r2, [r0, #40]	@ 0x28
      htim->hdma[TIM_DMA_ID_CC2]->XferHalfCpltCallback = TIM_DMADelayPulseHalfCplt;
 8006ac6:	4a23      	ldr	r2, [pc, #140]	@ (8006b54 <HAL_TIM_OC_Start_DMA+0x174>)
 8006ac8:	62c2      	str	r2, [r0, #44]	@ 0x2c
      htim->hdma[TIM_DMA_ID_CC2]->XferErrorCallback = TIM_DMAError ;
 8006aca:	4a23      	ldr	r2, [pc, #140]	@ (8006b58 <HAL_TIM_OC_Start_DMA+0x178>)
 8006acc:	6302      	str	r2, [r0, #48]	@ 0x30
      if (HAL_DMA_Start_IT(htim->hdma[TIM_DMA_ID_CC2], (uint32_t)pData, (uint32_t)&htim->Instance->CCR2,
 8006ace:	682a      	ldr	r2, [r5, #0]
 8006ad0:	3238      	adds	r2, #56	@ 0x38
 8006ad2:	f7fe f9ff 	bl	8004ed4 <HAL_DMA_Start_IT>
 8006ad6:	2800      	cmp	r0, #0
 8006ad8:	d1a8      	bne.n	8006a2c <HAL_TIM_OC_Start_DMA+0x4c>
      __HAL_TIM_ENABLE_DMA(htim, TIM_DMA_CC2);
 8006ada:	2380      	movs	r3, #128	@ 0x80
 8006adc:	682a      	ldr	r2, [r5, #0]
 8006ade:	00db      	lsls	r3, r3, #3
 8006ae0:	68d1      	ldr	r1, [r2, #12]
 8006ae2:	e7ca      	b.n	8006a7a <HAL_TIM_OC_Start_DMA+0x9a>
      TIM_CHANNEL_STATE_SET(htim, Channel, HAL_TIM_CHANNEL_STATE_BUSY);
 8006ae4:	2e08      	cmp	r6, #8
 8006ae6:	d113      	bne.n	8006b10 <HAL_TIM_OC_Start_DMA+0x130>
 8006ae8:	3040      	adds	r0, #64	@ 0x40
 8006aea:	7002      	strb	r2, [r0, #0]
      htim->hdma[TIM_DMA_ID_CC3]->XferCpltCallback = TIM_DMADelayPulseCplt;
 8006aec:	6ae8      	ldr	r0, [r5, #44]	@ 0x2c
 8006aee:	4a18      	ldr	r2, [pc, #96]	@ (8006b50 <HAL_TIM_OC_Start_DMA+0x170>)
 8006af0:	6282      	str	r2, [r0, #40]	@ 0x28
      htim->hdma[TIM_DMA_ID_CC3]->XferHalfCpltCallback = TIM_DMADelayPulseHalfCplt;
 8006af2:	4a18      	ldr	r2, [pc, #96]	@ (8006b54 <HAL_TIM_OC_Start_DMA+0x174>)
 8006af4:	62c2      	str	r2, [r0, #44]	@ 0x2c
      htim->hdma[TIM_DMA_ID_CC3]->XferErrorCallback = TIM_DMAError ;
 8006af6:	4a18      	ldr	r2, [pc, #96]	@ (8006b58 <HAL_TIM_OC_Start_DMA+0x178>)
 8006af8:	6302      	str	r2, [r0, #48]	@ 0x30
      if (HAL_DMA_Start_IT(htim->hdma[TIM_DMA_ID_CC3], (uint32_t)pData, (uint32_t)&htim->Instance->CCR3,
 8006afa:	682a      	ldr	r2, [r5, #0]
 8006afc:	323c      	adds	r2, #60	@ 0x3c
 8006afe:	f7fe f9e9 	bl	8004ed4 <HAL_DMA_Start_IT>
 8006b02:	2800      	cmp	r0, #0
 8006b04:	d192      	bne.n	8006a2c <HAL_TIM_OC_Start_DMA+0x4c>
      __HAL_TIM_ENABLE_DMA(htim, TIM_DMA_CC3);
 8006b06:	2380      	movs	r3, #128	@ 0x80
 8006b08:	682a      	ldr	r2, [r5, #0]
 8006b0a:	011b      	lsls	r3, r3, #4
 8006b0c:	68d1      	ldr	r1, [r2, #12]
 8006b0e:	e7b4      	b.n	8006a7a <HAL_TIM_OC_Start_DMA+0x9a>
      TIM_CHANNEL_STATE_SET(htim, Channel, HAL_TIM_CHANNEL_STATE_BUSY);
 8006b10:	3041      	adds	r0, #65	@ 0x41
 8006b12:	7002      	strb	r2, [r0, #0]
  switch (Channel)
 8006b14:	2e0c      	cmp	r6, #12
 8006b16:	d189      	bne.n	8006a2c <HAL_TIM_OC_Start_DMA+0x4c>
      htim->hdma[TIM_DMA_ID_CC4]->XferCpltCallback = TIM_DMADelayPulseCplt;
 8006b18:	6b28      	ldr	r0, [r5, #48]	@ 0x30
 8006b1a:	4a0d      	ldr	r2, [pc, #52]	@ (8006b50 <HAL_TIM_OC_Start_DMA+0x170>)
 8006b1c:	6282      	str	r2, [r0, #40]	@ 0x28
      htim->hdma[TIM_DMA_ID_CC4]->XferHalfCpltCallback = TIM_DMADelayPulseHalfCplt;
 8006b1e:	4a0d      	ldr	r2, [pc, #52]	@ (8006b54 <HAL_TIM_OC_Start_DMA+0x174>)
 8006b20:	62c2      	str	r2, [r0, #44]	@ 0x2c
      htim->hdma[TIM_DMA_ID_CC4]->XferErrorCallback = TIM_DMAError ;
 8006b22:	4a0d      	ldr	r2, [pc, #52]	@ (8006b58 <HAL_TIM_OC_Start_DMA+0x178>)
 8006b24:	6302      	str	r2, [r0, #48]	@ 0x30
      if (HAL_DMA_Start_IT(htim->hdma[TIM_DMA_ID_CC4], (uint32_t)pData, (uint32_t)&htim->Instance->CCR4,
 8006b26:	682a      	ldr	r2, [r5, #0]
 8006b28:	3240      	adds	r2, #64	@ 0x40
 8006b2a:	f7fe f9d3 	bl	8004ed4 <HAL_DMA_Start_IT>
 8006b2e:	2800      	cmp	r0, #0
 8006b30:	d000      	beq.n	8006b34 <HAL_TIM_OC_Start_DMA+0x154>
 8006b32:	e77b      	b.n	8006a2c <HAL_TIM_OC_Start_DMA+0x4c>
      __HAL_TIM_ENABLE_DMA(htim, TIM_DMA_CC4);
 8006b34:	2380      	movs	r3, #128	@ 0x80
 8006b36:	682a      	ldr	r2, [r5, #0]
 8006b38:	015b      	lsls	r3, r3, #5
 8006b3a:	68d1      	ldr	r1, [r2, #12]
 8006b3c:	e79d      	b.n	8006a7a <HAL_TIM_OC_Start_DMA+0x9a>
    if (IS_TIM_SLAVE_INSTANCE(htim->Instance))
 8006b3e:	4b0a      	ldr	r3, [pc, #40]	@ (8006b68 <HAL_TIM_OC_Start_DMA+0x188>)
 8006b40:	429c      	cmp	r4, r3
 8006b42:	d0b2      	beq.n	8006aaa <HAL_TIM_OC_Start_DMA+0xca>
        __HAL_TIM_ENABLE(htim);
 8006b44:	2301      	movs	r3, #1
 8006b46:	6822      	ldr	r2, [r4, #0]
 8006b48:	4313      	orrs	r3, r2
 8006b4a:	6023      	str	r3, [r4, #0]
 8006b4c:	e7b2      	b.n	8006ab4 <HAL_TIM_OC_Start_DMA+0xd4>
 8006b4e:	46c0      	nop			@ (mov r8, r8)
 8006b50:	080062bb 	.word	0x080062bb
 8006b54:	0800632b 	.word	0x0800632b
 8006b58:	08006365 	.word	0x08006365
 8006b5c:	40012c00 	.word	0x40012c00
 8006b60:	40014400 	.word	0x40014400
 8006b64:	40014800 	.word	0x40014800
 8006b68:	40000400 	.word	0x40000400

08006b6c <HAL_TIM_PWM_Start_DMA>:
HAL_StatusTypeDef HAL_TIM_PWM_Start_DMA(TIM_HandleTypeDef *htim, uint32_t Channel, const uint32_t *pData,
 8006b6c:	b510      	push	{r4, lr}
 8006b6e:	f7ff ff37 	bl	80069e0 <HAL_TIM_OC_Start_DMA>
 8006b72:	bd10      	pop	{r4, pc}

08006b74 <HAL_TIM_OC_Stop_DMA>:
{
 8006b74:	b570      	push	{r4, r5, r6, lr}
 8006b76:	0004      	movs	r4, r0
 8006b78:	000e      	movs	r6, r1
  switch (Channel)
 8006b7a:	2908      	cmp	r1, #8
 8006b7c:	d04b      	beq.n	8006c16 <HAL_TIM_OC_Stop_DMA+0xa2>
 8006b7e:	d805      	bhi.n	8006b8c <HAL_TIM_OC_Stop_DMA+0x18>
 8006b80:	2900      	cmp	r1, #0
 8006b82:	d00c      	beq.n	8006b9e <HAL_TIM_OC_Stop_DMA+0x2a>
 8006b84:	2904      	cmp	r1, #4
 8006b86:	d03f      	beq.n	8006c08 <HAL_TIM_OC_Stop_DMA+0x94>
 8006b88:	2001      	movs	r0, #1
}
 8006b8a:	bd70      	pop	{r4, r5, r6, pc}
  switch (Channel)
 8006b8c:	290c      	cmp	r1, #12
 8006b8e:	d1fb      	bne.n	8006b88 <HAL_TIM_OC_Stop_DMA+0x14>
      __HAL_TIM_DISABLE_DMA(htim, TIM_DMA_CC4);
 8006b90:	6802      	ldr	r2, [r0, #0]
 8006b92:	4929      	ldr	r1, [pc, #164]	@ (8006c38 <HAL_TIM_OC_Stop_DMA+0xc4>)
 8006b94:	68d3      	ldr	r3, [r2, #12]
      (void)HAL_DMA_Abort_IT(htim->hdma[TIM_DMA_ID_CC4]);
 8006b96:	6b00      	ldr	r0, [r0, #48]	@ 0x30
      __HAL_TIM_DISABLE_DMA(htim, TIM_DMA_CC4);
 8006b98:	400b      	ands	r3, r1
 8006b9a:	60d3      	str	r3, [r2, #12]
      (void)HAL_DMA_Abort_IT(htim->hdma[TIM_DMA_ID_CC4]);
 8006b9c:	e005      	b.n	8006baa <HAL_TIM_OC_Stop_DMA+0x36>
      __HAL_TIM_DISABLE_DMA(htim, TIM_DMA_CC1);
 8006b9e:	6802      	ldr	r2, [r0, #0]
 8006ba0:	4926      	ldr	r1, [pc, #152]	@ (8006c3c <HAL_TIM_OC_Stop_DMA+0xc8>)
 8006ba2:	68d3      	ldr	r3, [r2, #12]
      (void)HAL_DMA_Abort_IT(htim->hdma[TIM_DMA_ID_CC1]);
 8006ba4:	6a40      	ldr	r0, [r0, #36]	@ 0x24
      __HAL_TIM_DISABLE_DMA(htim, TIM_DMA_CC1);
 8006ba6:	400b      	ands	r3, r1
 8006ba8:	60d3      	str	r3, [r2, #12]
      (void)HAL_DMA_Abort_IT(htim->hdma[TIM_DMA_ID_CC4]);
 8006baa:	f7fe f9ed 	bl	8004f88 <HAL_DMA_Abort_IT>
    TIM_CCxChannelCmd(htim->Instance, Channel, TIM_CCx_DISABLE);
 8006bae:	6825      	ldr	r5, [r4, #0]
 8006bb0:	2200      	movs	r2, #0
 8006bb2:	0031      	movs	r1, r6
 8006bb4:	0028      	movs	r0, r5
 8006bb6:	f7ff fe61 	bl	800687c <TIM_CCxChannelCmd>
    if (IS_TIM_BREAK_INSTANCE(htim->Instance) != RESET)
 8006bba:	4b21      	ldr	r3, [pc, #132]	@ (8006c40 <HAL_TIM_OC_Stop_DMA+0xcc>)
 8006bbc:	4a21      	ldr	r2, [pc, #132]	@ (8006c44 <HAL_TIM_OC_Stop_DMA+0xd0>)
 8006bbe:	429d      	cmp	r5, r3
 8006bc0:	d005      	beq.n	8006bce <HAL_TIM_OC_Stop_DMA+0x5a>
 8006bc2:	4b21      	ldr	r3, [pc, #132]	@ (8006c48 <HAL_TIM_OC_Stop_DMA+0xd4>)
 8006bc4:	429d      	cmp	r5, r3
 8006bc6:	d002      	beq.n	8006bce <HAL_TIM_OC_Stop_DMA+0x5a>
 8006bc8:	4b20      	ldr	r3, [pc, #128]	@ (8006c4c <HAL_TIM_OC_Stop_DMA+0xd8>)
 8006bca:	429d      	cmp	r5, r3
 8006bcc:	d10a      	bne.n	8006be4 <HAL_TIM_OC_Stop_DMA+0x70>
      __HAL_TIM_MOE_DISABLE(htim);
 8006bce:	6a2b      	ldr	r3, [r5, #32]
 8006bd0:	4213      	tst	r3, r2
 8006bd2:	d107      	bne.n	8006be4 <HAL_TIM_OC_Stop_DMA+0x70>
 8006bd4:	6a29      	ldr	r1, [r5, #32]
 8006bd6:	4b1e      	ldr	r3, [pc, #120]	@ (8006c50 <HAL_TIM_OC_Stop_DMA+0xdc>)
 8006bd8:	4219      	tst	r1, r3
 8006bda:	d103      	bne.n	8006be4 <HAL_TIM_OC_Stop_DMA+0x70>
 8006bdc:	6c6b      	ldr	r3, [r5, #68]	@ 0x44
 8006bde:	491d      	ldr	r1, [pc, #116]	@ (8006c54 <HAL_TIM_OC_Stop_DMA+0xe0>)
 8006be0:	400b      	ands	r3, r1
 8006be2:	646b      	str	r3, [r5, #68]	@ 0x44
    __HAL_TIM_DISABLE(htim);
 8006be4:	6a2b      	ldr	r3, [r5, #32]
 8006be6:	4213      	tst	r3, r2
 8006be8:	d107      	bne.n	8006bfa <HAL_TIM_OC_Stop_DMA+0x86>
 8006bea:	6a2a      	ldr	r2, [r5, #32]
 8006bec:	4b18      	ldr	r3, [pc, #96]	@ (8006c50 <HAL_TIM_OC_Stop_DMA+0xdc>)
 8006bee:	421a      	tst	r2, r3
 8006bf0:	d103      	bne.n	8006bfa <HAL_TIM_OC_Stop_DMA+0x86>
 8006bf2:	2201      	movs	r2, #1
 8006bf4:	682b      	ldr	r3, [r5, #0]
 8006bf6:	4393      	bics	r3, r2
 8006bf8:	602b      	str	r3, [r5, #0]
    TIM_CHANNEL_STATE_SET(htim, Channel, HAL_TIM_CHANNEL_STATE_READY);
 8006bfa:	2301      	movs	r3, #1
 8006bfc:	2e00      	cmp	r6, #0
 8006bfe:	d111      	bne.n	8006c24 <HAL_TIM_OC_Stop_DMA+0xb0>
 8006c00:	343e      	adds	r4, #62	@ 0x3e
  switch (Channel)
 8006c02:	2000      	movs	r0, #0
    TIM_CHANNEL_STATE_SET(htim, Channel, HAL_TIM_CHANNEL_STATE_READY);
 8006c04:	7023      	strb	r3, [r4, #0]
 8006c06:	e7c0      	b.n	8006b8a <HAL_TIM_OC_Stop_DMA+0x16>
      __HAL_TIM_DISABLE_DMA(htim, TIM_DMA_CC2);
 8006c08:	6802      	ldr	r2, [r0, #0]
 8006c0a:	4913      	ldr	r1, [pc, #76]	@ (8006c58 <HAL_TIM_OC_Stop_DMA+0xe4>)
 8006c0c:	68d3      	ldr	r3, [r2, #12]
      (void)HAL_DMA_Abort_IT(htim->hdma[TIM_DMA_ID_CC2]);
 8006c0e:	6a80      	ldr	r0, [r0, #40]	@ 0x28
      __HAL_TIM_DISABLE_DMA(htim, TIM_DMA_CC2);
 8006c10:	400b      	ands	r3, r1
 8006c12:	60d3      	str	r3, [r2, #12]
      (void)HAL_DMA_Abort_IT(htim->hdma[TIM_DMA_ID_CC2]);
 8006c14:	e7c9      	b.n	8006baa <HAL_TIM_OC_Stop_DMA+0x36>
      __HAL_TIM_DISABLE_DMA(htim, TIM_DMA_CC3);
 8006c16:	6802      	ldr	r2, [r0, #0]
 8006c18:	4910      	ldr	r1, [pc, #64]	@ (8006c5c <HAL_TIM_OC_Stop_DMA+0xe8>)
 8006c1a:	68d3      	ldr	r3, [r2, #12]
      (void)HAL_DMA_Abort_IT(htim->hdma[TIM_DMA_ID_CC3]);
 8006c1c:	6ac0      	ldr	r0, [r0, #44]	@ 0x2c
      __HAL_TIM_DISABLE_DMA(htim, TIM_DMA_CC3);
 8006c1e:	400b      	ands	r3, r1
 8006c20:	60d3      	str	r3, [r2, #12]
      (void)HAL_DMA_Abort_IT(htim->hdma[TIM_DMA_ID_CC3]);
 8006c22:	e7c2      	b.n	8006baa <HAL_TIM_OC_Stop_DMA+0x36>
    TIM_CHANNEL_STATE_SET(htim, Channel, HAL_TIM_CHANNEL_STATE_READY);
 8006c24:	2e04      	cmp	r6, #4
 8006c26:	d101      	bne.n	8006c2c <HAL_TIM_OC_Stop_DMA+0xb8>
 8006c28:	343f      	adds	r4, #63	@ 0x3f
 8006c2a:	e7ea      	b.n	8006c02 <HAL_TIM_OC_Stop_DMA+0x8e>
 8006c2c:	2e08      	cmp	r6, #8
 8006c2e:	d101      	bne.n	8006c34 <HAL_TIM_OC_Stop_DMA+0xc0>
 8006c30:	3440      	adds	r4, #64	@ 0x40
 8006c32:	e7e6      	b.n	8006c02 <HAL_TIM_OC_Stop_DMA+0x8e>
 8006c34:	3441      	adds	r4, #65	@ 0x41
 8006c36:	e7e4      	b.n	8006c02 <HAL_TIM_OC_Stop_DMA+0x8e>
 8006c38:	ffffefff 	.word	0xffffefff
 8006c3c:	fffffdff 	.word	0xfffffdff
 8006c40:	40012c00 	.word	0x40012c00
 8006c44:	00001111 	.word	0x00001111
 8006c48:	40014400 	.word	0x40014400
 8006c4c:	40014800 	.word	0x40014800
 8006c50:	00000444 	.word	0x00000444
 8006c54:	ffff7fff 	.word	0xffff7fff
 8006c58:	fffffbff 	.word	0xfffffbff
 8006c5c:	fffff7ff 	.word	0xfffff7ff

08006c60 <HAL_TIM_PWM_Stop_DMA>:
HAL_StatusTypeDef HAL_TIM_PWM_Stop_DMA(TIM_HandleTypeDef *htim, uint32_t Channel)
 8006c60:	b510      	push	{r4, lr}
 8006c62:	f7ff ff87 	bl	8006b74 <HAL_TIM_OC_Stop_DMA>
 8006c66:	bd10      	pop	{r4, pc}

08006c68 <HAL_TIMEx_MasterConfigSynchronization>:
  *         mode.
  * @retval HAL status
  */
HAL_StatusTypeDef HAL_TIMEx_MasterConfigSynchronization(TIM_HandleTypeDef *htim,
                                                        const TIM_MasterConfigTypeDef *sMasterConfig)
{
 8006c68:	b570      	push	{r4, r5, r6, lr}
  assert_param(IS_TIM_MASTER_INSTANCE(htim->Instance));
  assert_param(IS_TIM_TRGO_SOURCE(sMasterConfig->MasterOutputTrigger));
  assert_param(IS_TIM_MSM_STATE(sMasterConfig->MasterSlaveMode));

  /* Check input state */
  __HAL_LOCK(htim);
 8006c6a:	0004      	movs	r4, r0
 8006c6c:	2202      	movs	r2, #2
 8006c6e:	343c      	adds	r4, #60	@ 0x3c
 8006c70:	7825      	ldrb	r5, [r4, #0]
{
 8006c72:	0003      	movs	r3, r0
  __HAL_LOCK(htim);
 8006c74:	0010      	movs	r0, r2
 8006c76:	2d01      	cmp	r5, #1
 8006c78:	d019      	beq.n	8006cae <HAL_TIMEx_MasterConfigSynchronization+0x46>

  /* Change the handler state */
  htim->State = HAL_TIM_STATE_BUSY;
 8006c7a:	001d      	movs	r5, r3

  /* Get the TIMx SMCR register value */
  tmpsmcr = htim->Instance->SMCR;

  /* Reset the MMS Bits */
  tmpcr2 &= ~TIM_CR2_MMS;
 8006c7c:	2670      	movs	r6, #112	@ 0x70
  htim->State = HAL_TIM_STATE_BUSY;
 8006c7e:	353d      	adds	r5, #61	@ 0x3d
 8006c80:	702a      	strb	r2, [r5, #0]
  tmpcr2 = htim->Instance->CR2;
 8006c82:	681b      	ldr	r3, [r3, #0]
 8006c84:	6858      	ldr	r0, [r3, #4]
  tmpsmcr = htim->Instance->SMCR;
 8006c86:	689a      	ldr	r2, [r3, #8]
  tmpcr2 &= ~TIM_CR2_MMS;
 8006c88:	43b0      	bics	r0, r6
  /* Select the TRGO source */
  tmpcr2 |=  sMasterConfig->MasterOutputTrigger;
 8006c8a:	680e      	ldr	r6, [r1, #0]
 8006c8c:	4330      	orrs	r0, r6

  /* Update TIMx CR2 */
  htim->Instance->CR2 = tmpcr2;
 8006c8e:	6058      	str	r0, [r3, #4]

  if (IS_TIM_SLAVE_INSTANCE(htim->Instance))
 8006c90:	4807      	ldr	r0, [pc, #28]	@ (8006cb0 <HAL_TIMEx_MasterConfigSynchronization+0x48>)
 8006c92:	4283      	cmp	r3, r0
 8006c94:	d002      	beq.n	8006c9c <HAL_TIMEx_MasterConfigSynchronization+0x34>
 8006c96:	4807      	ldr	r0, [pc, #28]	@ (8006cb4 <HAL_TIMEx_MasterConfigSynchronization+0x4c>)
 8006c98:	4283      	cmp	r3, r0
 8006c9a:	d104      	bne.n	8006ca6 <HAL_TIMEx_MasterConfigSynchronization+0x3e>
  {
    /* Reset the MSM Bit */
    tmpsmcr &= ~TIM_SMCR_MSM;
 8006c9c:	2080      	movs	r0, #128	@ 0x80
    /* Set master mode */
    tmpsmcr |= sMasterConfig->MasterSlaveMode;
 8006c9e:	6849      	ldr	r1, [r1, #4]
    tmpsmcr &= ~TIM_SMCR_MSM;
 8006ca0:	4382      	bics	r2, r0
    tmpsmcr |= sMasterConfig->MasterSlaveMode;
 8006ca2:	430a      	orrs	r2, r1

    /* Update TIMx SMCR */
    htim->Instance->SMCR = tmpsmcr;
 8006ca4:	609a      	str	r2, [r3, #8]
  }

  /* Change the htim state */
  htim->State = HAL_TIM_STATE_READY;
 8006ca6:	2301      	movs	r3, #1

  __HAL_UNLOCK(htim);
 8006ca8:	2000      	movs	r0, #0
  htim->State = HAL_TIM_STATE_READY;
 8006caa:	702b      	strb	r3, [r5, #0]
  __HAL_UNLOCK(htim);
 8006cac:	7020      	strb	r0, [r4, #0]

  return HAL_OK;
}
 8006cae:	bd70      	pop	{r4, r5, r6, pc}
 8006cb0:	40012c00 	.word	0x40012c00
 8006cb4:	40000400 	.word	0x40000400

08006cb8 <HAL_TIMEx_ConfigBreakDeadTime>:
  *         interrupt can be enabled by calling the @ref __HAL_TIM_ENABLE_IT macro.
  * @retval HAL status
  */
HAL_StatusTypeDef HAL_TIMEx_ConfigBreakDeadTime(TIM_HandleTypeDef *htim,
                                                const TIM_BreakDeadTimeConfigTypeDef *sBreakDeadTimeConfig)
{
 8006cb8:	b510      	push	{r4, lr}
  assert_param(IS_TIM_BREAK_STATE(sBreakDeadTimeConfig->BreakState));
  assert_param(IS_TIM_BREAK_POLARITY(sBreakDeadTimeConfig->BreakPolarity));
  assert_param(IS_TIM_AUTOMATIC_OUTPUT_STATE(sBreakDeadTimeConfig->AutomaticOutput));

  /* Check input state */
  __HAL_LOCK(htim);
 8006cba:	0004      	movs	r4, r0
 8006cbc:	343c      	adds	r4, #60	@ 0x3c
 8006cbe:	7823      	ldrb	r3, [r4, #0]
{
 8006cc0:	0002      	movs	r2, r0
  __HAL_LOCK(htim);
 8006cc2:	2002      	movs	r0, #2
 8006cc4:	2b01      	cmp	r3, #1
 8006cc6:	d01c      	beq.n	8006d02 <HAL_TIMEx_ConfigBreakDeadTime+0x4a>
  /* Set the Lock level, the Break enable Bit and the Polarity, the OSSR State,
     the OSSI State, the dead time value and the Automatic Output Enable Bit */

  /* Set the BDTR bits */
  MODIFY_REG(tmpbdtr, TIM_BDTR_DTG, sBreakDeadTimeConfig->DeadTime);
  MODIFY_REG(tmpbdtr, TIM_BDTR_LOCK, sBreakDeadTimeConfig->LockLevel);
 8006cc8:	68cb      	ldr	r3, [r1, #12]
 8006cca:	480e      	ldr	r0, [pc, #56]	@ (8006d04 <HAL_TIMEx_ConfigBreakDeadTime+0x4c>)
  MODIFY_REG(tmpbdtr, TIM_BDTR_BKP, sBreakDeadTimeConfig->BreakPolarity);
  MODIFY_REG(tmpbdtr, TIM_BDTR_AOE, sBreakDeadTimeConfig->AutomaticOutput);


  /* Set TIMx_BDTR */
  htim->Instance->BDTR = tmpbdtr;
 8006ccc:	6812      	ldr	r2, [r2, #0]
  MODIFY_REG(tmpbdtr, TIM_BDTR_LOCK, sBreakDeadTimeConfig->LockLevel);
 8006cce:	4003      	ands	r3, r0
 8006cd0:	6888      	ldr	r0, [r1, #8]
 8006cd2:	4303      	orrs	r3, r0
  MODIFY_REG(tmpbdtr, TIM_BDTR_OSSI, sBreakDeadTimeConfig->OffStateIDLEMode);
 8006cd4:	480c      	ldr	r0, [pc, #48]	@ (8006d08 <HAL_TIMEx_ConfigBreakDeadTime+0x50>)
 8006cd6:	4003      	ands	r3, r0
 8006cd8:	6848      	ldr	r0, [r1, #4]
 8006cda:	4303      	orrs	r3, r0
  MODIFY_REG(tmpbdtr, TIM_BDTR_OSSR, sBreakDeadTimeConfig->OffStateRunMode);
 8006cdc:	480b      	ldr	r0, [pc, #44]	@ (8006d0c <HAL_TIMEx_ConfigBreakDeadTime+0x54>)
 8006cde:	4003      	ands	r3, r0
 8006ce0:	6808      	ldr	r0, [r1, #0]
 8006ce2:	4303      	orrs	r3, r0
  MODIFY_REG(tmpbdtr, TIM_BDTR_BKE, sBreakDeadTimeConfig->BreakState);
 8006ce4:	480a      	ldr	r0, [pc, #40]	@ (8006d10 <HAL_TIMEx_ConfigBreakDeadTime+0x58>)
 8006ce6:	4003      	ands	r3, r0
 8006ce8:	6908      	ldr	r0, [r1, #16]
 8006cea:	4303      	orrs	r3, r0
  MODIFY_REG(tmpbdtr, TIM_BDTR_BKP, sBreakDeadTimeConfig->BreakPolarity);
 8006cec:	4809      	ldr	r0, [pc, #36]	@ (8006d14 <HAL_TIMEx_ConfigBreakDeadTime+0x5c>)
 8006cee:	4003      	ands	r3, r0
 8006cf0:	6948      	ldr	r0, [r1, #20]
  MODIFY_REG(tmpbdtr, TIM_BDTR_AOE, sBreakDeadTimeConfig->AutomaticOutput);
 8006cf2:	69c9      	ldr	r1, [r1, #28]
  MODIFY_REG(tmpbdtr, TIM_BDTR_BKP, sBreakDeadTimeConfig->BreakPolarity);
 8006cf4:	4303      	orrs	r3, r0
  MODIFY_REG(tmpbdtr, TIM_BDTR_AOE, sBreakDeadTimeConfig->AutomaticOutput);
 8006cf6:	4808      	ldr	r0, [pc, #32]	@ (8006d18 <HAL_TIMEx_ConfigBreakDeadTime+0x60>)
 8006cf8:	4003      	ands	r3, r0

  __HAL_UNLOCK(htim);
 8006cfa:	2000      	movs	r0, #0
  MODIFY_REG(tmpbdtr, TIM_BDTR_AOE, sBreakDeadTimeConfig->AutomaticOutput);
 8006cfc:	430b      	orrs	r3, r1
  htim->Instance->BDTR = tmpbdtr;
 8006cfe:	6453      	str	r3, [r2, #68]	@ 0x44
  __HAL_UNLOCK(htim);
 8006d00:	7020      	strb	r0, [r4, #0]

  return HAL_OK;
}
 8006d02:	bd10      	pop	{r4, pc}
 8006d04:	fffffcff 	.word	0xfffffcff
 8006d08:	fffffbff 	.word	0xfffffbff
 8006d0c:	fffff7ff 	.word	0xfffff7ff
 8006d10:	ffffefff 	.word	0xffffefff
 8006d14:	ffffdfff 	.word	0xffffdfff
 8006d18:	ffffbfff 	.word	0xffffbfff

08006d1c <UART_EndRxTransfer>:
  * @brief  End ongoing Rx transfer on UART peripheral (following error detection or Reception completion).
  * @param  huart UART handle.
  * @retval None
  */
static void UART_EndRxTransfer(UART_HandleTypeDef *huart)
{
 8006d1c:	b530      	push	{r4, r5, lr}
  __ASM volatile ("MRS %0, primask" : "=r" (result) :: "memory");
 8006d1e:	f3ef 8410 	mrs	r4, PRIMASK
  __ASM volatile ("MSR primask, %0" : : "r" (priMask) : "memory");
 8006d22:	2201      	movs	r2, #1
 8006d24:	f382 8810 	msr	PRIMASK, r2
  /* Disable RXNE, PE and ERR (Frame error, noise error, overrun error) interrupts */
  ATOMIC_CLEAR_BIT(huart->Instance->CR1, (USART_CR1_RXNEIE | USART_CR1_PEIE));
 8006d28:	6801      	ldr	r1, [r0, #0]
 8006d2a:	4d12      	ldr	r5, [pc, #72]	@ (8006d74 <UART_EndRxTransfer+0x58>)
 8006d2c:	680b      	ldr	r3, [r1, #0]
 8006d2e:	402b      	ands	r3, r5
 8006d30:	600b      	str	r3, [r1, #0]
 8006d32:	f384 8810 	msr	PRIMASK, r4
  __ASM volatile ("MRS %0, primask" : "=r" (result) :: "memory");
 8006d36:	f3ef 8410 	mrs	r4, PRIMASK
  __ASM volatile ("MSR primask, %0" : : "r" (priMask) : "memory");
 8006d3a:	f382 8810 	msr	PRIMASK, r2
  ATOMIC_CLEAR_BIT(huart->Instance->CR3, USART_CR3_EIE);
 8006d3e:	6801      	ldr	r1, [r0, #0]
 8006d40:	688b      	ldr	r3, [r1, #8]
 8006d42:	4393      	bics	r3, r2
 8006d44:	608b      	str	r3, [r1, #8]
 8006d46:	f384 8810 	msr	PRIMASK, r4

  /* In case of reception waiting for IDLE event, disable also the IDLE IE interrupt source */
  if (huart->ReceptionType == HAL_UART_RECEPTION_TOIDLE)
 8006d4a:	6e03      	ldr	r3, [r0, #96]	@ 0x60
 8006d4c:	4293      	cmp	r3, r2
 8006d4e:	d10a      	bne.n	8006d66 <UART_EndRxTransfer+0x4a>
  __ASM volatile ("MRS %0, primask" : "=r" (result) :: "memory");
 8006d50:	f3ef 8110 	mrs	r1, PRIMASK
  __ASM volatile ("MSR primask, %0" : : "r" (priMask) : "memory");
 8006d54:	f383 8810 	msr	PRIMASK, r3
  {
    ATOMIC_CLEAR_BIT(huart->Instance->CR1, USART_CR1_IDLEIE);
 8006d58:	2410      	movs	r4, #16
 8006d5a:	6802      	ldr	r2, [r0, #0]
 8006d5c:	6813      	ldr	r3, [r2, #0]
 8006d5e:	43a3      	bics	r3, r4
 8006d60:	6013      	str	r3, [r2, #0]
 8006d62:	f381 8810 	msr	PRIMASK, r1
  }

  /* At end of Rx process, restore huart->RxState to Ready */
  huart->RxState = HAL_UART_STATE_READY;
 8006d66:	2220      	movs	r2, #32
 8006d68:	1d03      	adds	r3, r0, #4
 8006d6a:	67da      	str	r2, [r3, #124]	@ 0x7c
  huart->ReceptionType = HAL_UART_RECEPTION_STANDARD;
 8006d6c:	2300      	movs	r3, #0
 8006d6e:	6603      	str	r3, [r0, #96]	@ 0x60

  /* Reset RxIsr function pointer */
  huart->RxISR = NULL;
 8006d70:	6683      	str	r3, [r0, #104]	@ 0x68
}
 8006d72:	bd30      	pop	{r4, r5, pc}
 8006d74:	fffffedf 	.word	0xfffffedf

08006d78 <HAL_UART_TxCpltCallback>:
__weak void HAL_UART_TxCpltCallback(UART_HandleTypeDef *huart)
 8006d78:	4770      	bx	lr

08006d7a <UART_DMAAbortOnError>:
  * @param  hdma DMA handle.
  * @retval None
  */
static void UART_DMAAbortOnError(DMA_HandleTypeDef *hdma)
{
  UART_HandleTypeDef *huart = (UART_HandleTypeDef *)(hdma->Parent);
 8006d7a:	6a40      	ldr	r0, [r0, #36]	@ 0x24
  huart->RxXferCount = 0U;
 8006d7c:	2300      	movs	r3, #0
 8006d7e:	0002      	movs	r2, r0
{
 8006d80:	b510      	push	{r4, lr}
  huart->RxXferCount = 0U;
 8006d82:	325a      	adds	r2, #90	@ 0x5a
 8006d84:	8013      	strh	r3, [r2, #0]
  huart->TxXferCount = 0U;
 8006d86:	3a08      	subs	r2, #8
 8006d88:	8013      	strh	r3, [r2, #0]
#if (USE_HAL_UART_REGISTER_CALLBACKS == 1)
  /*Call registered error callback*/
  huart->ErrorCallback(huart);
#else
  /*Call legacy weak error callback*/
  HAL_UART_ErrorCallback(huart);
 8006d8a:	f7fc fbdb 	bl	8003544 <HAL_UART_ErrorCallback>
#endif /* USE_HAL_UART_REGISTER_CALLBACKS */
}
 8006d8e:	bd10      	pop	{r4, pc}

08006d90 <HAL_UARTEx_RxEventCallback>:
}
 8006d90:	4770      	bx	lr
	...

08006d94 <HAL_UART_IRQHandler>:
  uint32_t isrflags   = READ_REG(huart->Instance->ISR);
 8006d94:	6801      	ldr	r1, [r0, #0]
{
 8006d96:	b5f8      	push	{r3, r4, r5, r6, r7, lr}
  uint32_t isrflags   = READ_REG(huart->Instance->ISR);
 8006d98:	69cb      	ldr	r3, [r1, #28]
  errorflags = (isrflags & (uint32_t)(USART_ISR_PE | USART_ISR_FE | USART_ISR_ORE | USART_ISR_NE | USART_ISR_RTOF));
 8006d9a:	4da3      	ldr	r5, [pc, #652]	@ (8007028 <HAL_UART_IRQHandler+0x294>)
{
 8006d9c:	0004      	movs	r4, r0
  uint32_t cr1its     = READ_REG(huart->Instance->CR1);
 8006d9e:	6808      	ldr	r0, [r1, #0]
  uint32_t cr3its     = READ_REG(huart->Instance->CR3);
 8006da0:	688a      	ldr	r2, [r1, #8]
  if (errorflags == 0U)
 8006da2:	422b      	tst	r3, r5
 8006da4:	d10b      	bne.n	8006dbe <HAL_UART_IRQHandler+0x2a>
    if (((isrflags & USART_ISR_RXNE) != 0U)
 8006da6:	2220      	movs	r2, #32
 8006da8:	4213      	tst	r3, r2
 8006daa:	d100      	bne.n	8006dae <HAL_UART_IRQHandler+0x1a>
 8006dac:	e07f      	b.n	8006eae <HAL_UART_IRQHandler+0x11a>
        && ((cr1its & USART_CR1_RXNEIE) != 0U))
 8006dae:	4210      	tst	r0, r2
 8006db0:	d100      	bne.n	8006db4 <HAL_UART_IRQHandler+0x20>
 8006db2:	e07c      	b.n	8006eae <HAL_UART_IRQHandler+0x11a>
      if (huart->RxISR != NULL)
 8006db4:	6ea3      	ldr	r3, [r4, #104]	@ 0x68
      huart->TxISR(huart);
 8006db6:	0020      	movs	r0, r4
    if (huart->TxISR != NULL)
 8006db8:	2b00      	cmp	r3, #0
 8006dba:	d16e      	bne.n	8006e9a <HAL_UART_IRQHandler+0x106>
 8006dbc:	e06e      	b.n	8006e9c <HAL_UART_IRQHandler+0x108>
      && (((cr3its & USART_CR3_EIE) != 0U)
 8006dbe:	2601      	movs	r6, #1
          || ((cr1its & (USART_CR1_RXNEIE | USART_CR1_PEIE | USART_CR1_RTOIE)) != 0U)))
 8006dc0:	4d9a      	ldr	r5, [pc, #616]	@ (800702c <HAL_UART_IRQHandler+0x298>)
      && (((cr3its & USART_CR3_EIE) != 0U)
 8006dc2:	4032      	ands	r2, r6
          || ((cr1its & (USART_CR1_RXNEIE | USART_CR1_PEIE | USART_CR1_RTOIE)) != 0U)))
 8006dc4:	4005      	ands	r5, r0
 8006dc6:	4315      	orrs	r5, r2
 8006dc8:	d100      	bne.n	8006dcc <HAL_UART_IRQHandler+0x38>
 8006dca:	e070      	b.n	8006eae <HAL_UART_IRQHandler+0x11a>
    if (((isrflags & USART_ISR_PE) != 0U) && ((cr1its & USART_CR1_PEIE) != 0U))
 8006dcc:	0025      	movs	r5, r4
 8006dce:	3508      	adds	r5, #8
 8006dd0:	4233      	tst	r3, r6
 8006dd2:	d005      	beq.n	8006de0 <HAL_UART_IRQHandler+0x4c>
 8006dd4:	05c7      	lsls	r7, r0, #23
 8006dd6:	d503      	bpl.n	8006de0 <HAL_UART_IRQHandler+0x4c>
      __HAL_UART_CLEAR_FLAG(huart, UART_CLEAR_PEF);
 8006dd8:	620e      	str	r6, [r1, #32]
      huart->ErrorCode |= HAL_UART_ERROR_PE;
 8006dda:	6fef      	ldr	r7, [r5, #124]	@ 0x7c
 8006ddc:	433e      	orrs	r6, r7
 8006dde:	67ee      	str	r6, [r5, #124]	@ 0x7c
    if (((isrflags & USART_ISR_FE) != 0U) && ((cr3its & USART_CR3_EIE) != 0U))
 8006de0:	2602      	movs	r6, #2
 8006de2:	4233      	tst	r3, r6
 8006de4:	d006      	beq.n	8006df4 <HAL_UART_IRQHandler+0x60>
 8006de6:	2a00      	cmp	r2, #0
 8006de8:	d004      	beq.n	8006df4 <HAL_UART_IRQHandler+0x60>
      __HAL_UART_CLEAR_FLAG(huart, UART_CLEAR_FEF);
 8006dea:	620e      	str	r6, [r1, #32]
      huart->ErrorCode |= HAL_UART_ERROR_FE;
 8006dec:	6fef      	ldr	r7, [r5, #124]	@ 0x7c
 8006dee:	19b6      	adds	r6, r6, r6
 8006df0:	433e      	orrs	r6, r7
 8006df2:	67ee      	str	r6, [r5, #124]	@ 0x7c
    if (((isrflags & USART_ISR_NE) != 0U) && ((cr3its & USART_CR3_EIE) != 0U))
 8006df4:	2604      	movs	r6, #4
 8006df6:	4233      	tst	r3, r6
 8006df8:	d006      	beq.n	8006e08 <HAL_UART_IRQHandler+0x74>
 8006dfa:	2a00      	cmp	r2, #0
 8006dfc:	d004      	beq.n	8006e08 <HAL_UART_IRQHandler+0x74>
      __HAL_UART_CLEAR_FLAG(huart, UART_CLEAR_NEF);
 8006dfe:	620e      	str	r6, [r1, #32]
      huart->ErrorCode |= HAL_UART_ERROR_NE;
 8006e00:	6fef      	ldr	r7, [r5, #124]	@ 0x7c
 8006e02:	3e02      	subs	r6, #2
 8006e04:	433e      	orrs	r6, r7
 8006e06:	67ee      	str	r6, [r5, #124]	@ 0x7c
    if (((isrflags & USART_ISR_ORE) != 0U)
 8006e08:	2608      	movs	r6, #8
 8006e0a:	4233      	tst	r3, r6
 8006e0c:	d007      	beq.n	8006e1e <HAL_UART_IRQHandler+0x8a>
        && (((cr1its & USART_CR1_RXNEIE) != 0U) ||
 8006e0e:	2720      	movs	r7, #32
 8006e10:	4007      	ands	r7, r0
 8006e12:	433a      	orrs	r2, r7
 8006e14:	d003      	beq.n	8006e1e <HAL_UART_IRQHandler+0x8a>
      __HAL_UART_CLEAR_FLAG(huart, UART_CLEAR_OREF);
 8006e16:	620e      	str	r6, [r1, #32]
      huart->ErrorCode |= HAL_UART_ERROR_ORE;
 8006e18:	6fea      	ldr	r2, [r5, #124]	@ 0x7c
 8006e1a:	4316      	orrs	r6, r2
 8006e1c:	67ee      	str	r6, [r5, #124]	@ 0x7c
    if (((isrflags & USART_ISR_RTOF) != 0U) && ((cr1its & USART_CR1_RTOIE) != 0U))
 8006e1e:	2280      	movs	r2, #128	@ 0x80
 8006e20:	0112      	lsls	r2, r2, #4
 8006e22:	4213      	tst	r3, r2
 8006e24:	d006      	beq.n	8006e34 <HAL_UART_IRQHandler+0xa0>
 8006e26:	0146      	lsls	r6, r0, #5
 8006e28:	d504      	bpl.n	8006e34 <HAL_UART_IRQHandler+0xa0>
      __HAL_UART_CLEAR_FLAG(huart, UART_CLEAR_RTOF);
 8006e2a:	620a      	str	r2, [r1, #32]
      huart->ErrorCode |= HAL_UART_ERROR_RTO;
 8006e2c:	2220      	movs	r2, #32
 8006e2e:	6fe9      	ldr	r1, [r5, #124]	@ 0x7c
 8006e30:	430a      	orrs	r2, r1
 8006e32:	67ea      	str	r2, [r5, #124]	@ 0x7c
    if (huart->ErrorCode != HAL_UART_ERROR_NONE)
 8006e34:	6fea      	ldr	r2, [r5, #124]	@ 0x7c
 8006e36:	2a00      	cmp	r2, #0
 8006e38:	d030      	beq.n	8006e9c <HAL_UART_IRQHandler+0x108>
      if (((isrflags & USART_ISR_RXNE) != 0U)
 8006e3a:	2220      	movs	r2, #32
 8006e3c:	4213      	tst	r3, r2
 8006e3e:	d006      	beq.n	8006e4e <HAL_UART_IRQHandler+0xba>
          && ((cr1its & USART_CR1_RXNEIE) != 0U))
 8006e40:	4210      	tst	r0, r2
 8006e42:	d004      	beq.n	8006e4e <HAL_UART_IRQHandler+0xba>
        if (huart->RxISR != NULL)
 8006e44:	6ea3      	ldr	r3, [r4, #104]	@ 0x68
 8006e46:	2b00      	cmp	r3, #0
 8006e48:	d001      	beq.n	8006e4e <HAL_UART_IRQHandler+0xba>
          huart->RxISR(huart);
 8006e4a:	0020      	movs	r0, r4
 8006e4c:	4798      	blx	r3
      if ((HAL_IS_BIT_SET(huart->Instance->CR3, USART_CR3_DMAR)) ||
 8006e4e:	6822      	ldr	r2, [r4, #0]
      errorcode = huart->ErrorCode;
 8006e50:	6feb      	ldr	r3, [r5, #124]	@ 0x7c
      if ((HAL_IS_BIT_SET(huart->Instance->CR3, USART_CR3_DMAR)) ||
 8006e52:	2740      	movs	r7, #64	@ 0x40
 8006e54:	6896      	ldr	r6, [r2, #8]
          ((errorcode & (HAL_UART_ERROR_RTO | HAL_UART_ERROR_ORE)) != 0U))
 8006e56:	2228      	movs	r2, #40	@ 0x28
      if ((HAL_IS_BIT_SET(huart->Instance->CR3, USART_CR3_DMAR)) ||
 8006e58:	403e      	ands	r6, r7
          ((errorcode & (HAL_UART_ERROR_RTO | HAL_UART_ERROR_ORE)) != 0U))
 8006e5a:	4013      	ands	r3, r2
        UART_EndRxTransfer(huart);
 8006e5c:	0020      	movs	r0, r4
      if ((HAL_IS_BIT_SET(huart->Instance->CR3, USART_CR3_DMAR)) ||
 8006e5e:	431e      	orrs	r6, r3
 8006e60:	d021      	beq.n	8006ea6 <HAL_UART_IRQHandler+0x112>
        UART_EndRxTransfer(huart);
 8006e62:	f7ff ff5b 	bl	8006d1c <UART_EndRxTransfer>
        if (HAL_IS_BIT_SET(huart->Instance->CR3, USART_CR3_DMAR))
 8006e66:	6823      	ldr	r3, [r4, #0]
 8006e68:	689b      	ldr	r3, [r3, #8]
 8006e6a:	423b      	tst	r3, r7
 8006e6c:	d017      	beq.n	8006e9e <HAL_UART_IRQHandler+0x10a>
  __ASM volatile ("MRS %0, primask" : "=r" (result) :: "memory");
 8006e6e:	f3ef 8110 	mrs	r1, PRIMASK
  __ASM volatile ("MSR primask, %0" : : "r" (priMask) : "memory");
 8006e72:	2301      	movs	r3, #1
 8006e74:	f383 8810 	msr	PRIMASK, r3
          ATOMIC_CLEAR_BIT(huart->Instance->CR3, USART_CR3_DMAR);
 8006e78:	6822      	ldr	r2, [r4, #0]
 8006e7a:	6893      	ldr	r3, [r2, #8]
 8006e7c:	43bb      	bics	r3, r7
 8006e7e:	6093      	str	r3, [r2, #8]
 8006e80:	f381 8810 	msr	PRIMASK, r1
          if (huart->hdmarx != NULL)
 8006e84:	6f60      	ldr	r0, [r4, #116]	@ 0x74
 8006e86:	2800      	cmp	r0, #0
 8006e88:	d009      	beq.n	8006e9e <HAL_UART_IRQHandler+0x10a>
            huart->hdmarx->XferAbortCallback = UART_DMAAbortOnError;
 8006e8a:	4b69      	ldr	r3, [pc, #420]	@ (8007030 <HAL_UART_IRQHandler+0x29c>)
 8006e8c:	6343      	str	r3, [r0, #52]	@ 0x34
            if (HAL_DMA_Abort_IT(huart->hdmarx) != HAL_OK)
 8006e8e:	f7fe f87b 	bl	8004f88 <HAL_DMA_Abort_IT>
 8006e92:	2800      	cmp	r0, #0
 8006e94:	d002      	beq.n	8006e9c <HAL_UART_IRQHandler+0x108>
              huart->hdmarx->XferAbortCallback(huart->hdmarx);
 8006e96:	6f60      	ldr	r0, [r4, #116]	@ 0x74
 8006e98:	6b43      	ldr	r3, [r0, #52]	@ 0x34
 8006e9a:	4798      	blx	r3
}
 8006e9c:	bdf8      	pop	{r3, r4, r5, r6, r7, pc}
            HAL_UART_ErrorCallback(huart);
 8006e9e:	0020      	movs	r0, r4
 8006ea0:	f7fc fb50 	bl	8003544 <HAL_UART_ErrorCallback>
 8006ea4:	e7fa      	b.n	8006e9c <HAL_UART_IRQHandler+0x108>
        HAL_UART_ErrorCallback(huart);
 8006ea6:	f7fc fb4d 	bl	8003544 <HAL_UART_ErrorCallback>
        huart->ErrorCode = HAL_UART_ERROR_NONE;
 8006eaa:	67ee      	str	r6, [r5, #124]	@ 0x7c
 8006eac:	e7f6      	b.n	8006e9c <HAL_UART_IRQHandler+0x108>
  if ((huart->ReceptionType == HAL_UART_RECEPTION_TOIDLE)
 8006eae:	6e22      	ldr	r2, [r4, #96]	@ 0x60
 8006eb0:	2a01      	cmp	r2, #1
 8006eb2:	d000      	beq.n	8006eb6 <HAL_UART_IRQHandler+0x122>
 8006eb4:	e096      	b.n	8006fe4 <HAL_UART_IRQHandler+0x250>
      && ((isrflags & USART_ISR_IDLE) != 0U)
 8006eb6:	2510      	movs	r5, #16
 8006eb8:	422b      	tst	r3, r5
 8006eba:	d100      	bne.n	8006ebe <HAL_UART_IRQHandler+0x12a>
 8006ebc:	e092      	b.n	8006fe4 <HAL_UART_IRQHandler+0x250>
      && ((cr1its & USART_ISR_IDLE) != 0U))
 8006ebe:	4228      	tst	r0, r5
 8006ec0:	d100      	bne.n	8006ec4 <HAL_UART_IRQHandler+0x130>
 8006ec2:	e08f      	b.n	8006fe4 <HAL_UART_IRQHandler+0x250>
    __HAL_UART_CLEAR_FLAG(huart, UART_CLEAR_IDLEF);
 8006ec4:	620d      	str	r5, [r1, #32]
    if (HAL_IS_BIT_SET(huart->Instance->CR3, USART_CR3_DMAR))
 8006ec6:	688b      	ldr	r3, [r1, #8]
 8006ec8:	2040      	movs	r0, #64	@ 0x40
 8006eca:	001e      	movs	r6, r3
 8006ecc:	4006      	ands	r6, r0
 8006ece:	4203      	tst	r3, r0
 8006ed0:	d04f      	beq.n	8006f72 <HAL_UART_IRQHandler+0x1de>
      uint16_t nb_remaining_rx_data = (uint16_t) __HAL_DMA_GET_COUNTER(huart->hdmarx);
 8006ed2:	6f61      	ldr	r1, [r4, #116]	@ 0x74
 8006ed4:	680b      	ldr	r3, [r1, #0]
 8006ed6:	685b      	ldr	r3, [r3, #4]
 8006ed8:	b29b      	uxth	r3, r3
      if ((nb_remaining_rx_data > 0U)
 8006eda:	2b00      	cmp	r3, #0
 8006edc:	d0de      	beq.n	8006e9c <HAL_UART_IRQHandler+0x108>
          && (nb_remaining_rx_data < huart->RxXferSize))
 8006ede:	0026      	movs	r6, r4
 8006ee0:	3658      	adds	r6, #88	@ 0x58
 8006ee2:	8837      	ldrh	r7, [r6, #0]
 8006ee4:	429f      	cmp	r7, r3
 8006ee6:	d9d9      	bls.n	8006e9c <HAL_UART_IRQHandler+0x108>
        huart->RxXferCount = nb_remaining_rx_data;
 8006ee8:	0027      	movs	r7, r4
 8006eea:	375a      	adds	r7, #90	@ 0x5a
 8006eec:	803b      	strh	r3, [r7, #0]
        if (huart->hdmarx->Init.Mode != DMA_CIRCULAR)
 8006eee:	698b      	ldr	r3, [r1, #24]
 8006ef0:	2b20      	cmp	r3, #32
 8006ef2:	d032      	beq.n	8006f5a <HAL_UART_IRQHandler+0x1c6>
  __ASM volatile ("MRS %0, primask" : "=r" (result) :: "memory");
 8006ef4:	f3ef 8710 	mrs	r7, PRIMASK
  __ASM volatile ("MSR primask, %0" : : "r" (priMask) : "memory");
 8006ef8:	f382 8810 	msr	PRIMASK, r2
          ATOMIC_CLEAR_BIT(huart->Instance->CR1, USART_CR1_PEIE);
 8006efc:	6821      	ldr	r1, [r4, #0]
 8006efe:	4d4d      	ldr	r5, [pc, #308]	@ (8007034 <HAL_UART_IRQHandler+0x2a0>)
 8006f00:	680b      	ldr	r3, [r1, #0]
 8006f02:	402b      	ands	r3, r5
 8006f04:	600b      	str	r3, [r1, #0]
 8006f06:	f387 8810 	msr	PRIMASK, r7
  __ASM volatile ("MRS %0, primask" : "=r" (result) :: "memory");
 8006f0a:	f3ef 8710 	mrs	r7, PRIMASK
  __ASM volatile ("MSR primask, %0" : : "r" (priMask) : "memory");
 8006f0e:	f382 8810 	msr	PRIMASK, r2
          ATOMIC_CLEAR_BIT(huart->Instance->CR3, USART_CR3_EIE);
 8006f12:	6821      	ldr	r1, [r4, #0]
 8006f14:	688b      	ldr	r3, [r1, #8]
 8006f16:	4393      	bics	r3, r2
 8006f18:	608b      	str	r3, [r1, #8]
 8006f1a:	f387 8810 	msr	PRIMASK, r7
  __ASM volatile ("MRS %0, primask" : "=r" (result) :: "memory");
 8006f1e:	f3ef 8c10 	mrs	ip, PRIMASK
  __ASM volatile ("MSR primask, %0" : : "r" (priMask) : "memory");
 8006f22:	f382 8810 	msr	PRIMASK, r2
          ATOMIC_CLEAR_BIT(huart->Instance->CR3, USART_CR3_DMAR);
 8006f26:	0023      	movs	r3, r4
 8006f28:	cb80      	ldmia	r3!, {r7}
 8006f2a:	68b9      	ldr	r1, [r7, #8]
 8006f2c:	4381      	bics	r1, r0
 8006f2e:	60b9      	str	r1, [r7, #8]
 8006f30:	f38c 8810 	msr	PRIMASK, ip
          huart->RxState = HAL_UART_STATE_READY;
 8006f34:	2120      	movs	r1, #32
 8006f36:	67d9      	str	r1, [r3, #124]	@ 0x7c
          huart->ReceptionType = HAL_UART_RECEPTION_STANDARD;
 8006f38:	2300      	movs	r3, #0
 8006f3a:	6623      	str	r3, [r4, #96]	@ 0x60
  __ASM volatile ("MRS %0, primask" : "=r" (result) :: "memory");
 8006f3c:	f3ef 8110 	mrs	r1, PRIMASK
  __ASM volatile ("MSR primask, %0" : : "r" (priMask) : "memory");
 8006f40:	f382 8810 	msr	PRIMASK, r2
          ATOMIC_CLEAR_BIT(huart->Instance->CR1, USART_CR1_IDLEIE);
 8006f44:	6822      	ldr	r2, [r4, #0]
 8006f46:	3512      	adds	r5, #18
 8006f48:	6813      	ldr	r3, [r2, #0]
 8006f4a:	35ff      	adds	r5, #255	@ 0xff
 8006f4c:	43ab      	bics	r3, r5
 8006f4e:	6013      	str	r3, [r2, #0]
 8006f50:	f381 8810 	msr	PRIMASK, r1
          (void)HAL_DMA_Abort(huart->hdmarx);
 8006f54:	6f60      	ldr	r0, [r4, #116]	@ 0x74
 8006f56:	f7fd fff9 	bl	8004f4c <HAL_DMA_Abort>
        huart->RxEventType = HAL_UART_RXEVENT_IDLE;
 8006f5a:	2302      	movs	r3, #2
 8006f5c:	6663      	str	r3, [r4, #100]	@ 0x64
        HAL_UARTEx_RxEventCallback(huart, (huart->RxXferSize - huart->RxXferCount));
 8006f5e:	0023      	movs	r3, r4
 8006f60:	335a      	adds	r3, #90	@ 0x5a
 8006f62:	881b      	ldrh	r3, [r3, #0]
 8006f64:	8831      	ldrh	r1, [r6, #0]
 8006f66:	1ac9      	subs	r1, r1, r3
 8006f68:	b289      	uxth	r1, r1
        HAL_UARTEx_RxEventCallback(huart, nb_rx_data);
 8006f6a:	0020      	movs	r0, r4
 8006f6c:	f7ff ff10 	bl	8006d90 <HAL_UARTEx_RxEventCallback>
 8006f70:	e794      	b.n	8006e9c <HAL_UART_IRQHandler+0x108>
      uint16_t nb_rx_data = huart->RxXferSize - huart->RxXferCount;
 8006f72:	0023      	movs	r3, r4
 8006f74:	0020      	movs	r0, r4
 8006f76:	3358      	adds	r3, #88	@ 0x58
 8006f78:	305a      	adds	r0, #90	@ 0x5a
 8006f7a:	8819      	ldrh	r1, [r3, #0]
 8006f7c:	8803      	ldrh	r3, [r0, #0]
      if ((huart->RxXferCount > 0U)
 8006f7e:	8800      	ldrh	r0, [r0, #0]
      uint16_t nb_rx_data = huart->RxXferSize - huart->RxXferCount;
 8006f80:	b29b      	uxth	r3, r3
      if ((huart->RxXferCount > 0U)
 8006f82:	2800      	cmp	r0, #0
 8006f84:	d100      	bne.n	8006f88 <HAL_UART_IRQHandler+0x1f4>
 8006f86:	e789      	b.n	8006e9c <HAL_UART_IRQHandler+0x108>
      uint16_t nb_rx_data = huart->RxXferSize - huart->RxXferCount;
 8006f88:	1ac9      	subs	r1, r1, r3
 8006f8a:	b289      	uxth	r1, r1
          && (nb_rx_data > 0U))
 8006f8c:	2900      	cmp	r1, #0
 8006f8e:	d100      	bne.n	8006f92 <HAL_UART_IRQHandler+0x1fe>
 8006f90:	e784      	b.n	8006e9c <HAL_UART_IRQHandler+0x108>
  __ASM volatile ("MRS %0, primask" : "=r" (result) :: "memory");
 8006f92:	f3ef 8710 	mrs	r7, PRIMASK
  __ASM volatile ("MSR primask, %0" : : "r" (priMask) : "memory");
 8006f96:	f382 8810 	msr	PRIMASK, r2
        ATOMIC_CLEAR_BIT(huart->Instance->CR1, (USART_CR1_RXNEIE | USART_CR1_PEIE));
 8006f9a:	6820      	ldr	r0, [r4, #0]
 8006f9c:	4d26      	ldr	r5, [pc, #152]	@ (8007038 <HAL_UART_IRQHandler+0x2a4>)
 8006f9e:	6803      	ldr	r3, [r0, #0]
 8006fa0:	402b      	ands	r3, r5
 8006fa2:	6003      	str	r3, [r0, #0]
 8006fa4:	f387 8810 	msr	PRIMASK, r7
  __ASM volatile ("MRS %0, primask" : "=r" (result) :: "memory");
 8006fa8:	f3ef 8c10 	mrs	ip, PRIMASK
  __ASM volatile ("MSR primask, %0" : : "r" (priMask) : "memory");
 8006fac:	f382 8810 	msr	PRIMASK, r2
        ATOMIC_CLEAR_BIT(huart->Instance->CR3, USART_CR3_EIE);
 8006fb0:	0023      	movs	r3, r4
 8006fb2:	cb80      	ldmia	r3!, {r7}
 8006fb4:	68b8      	ldr	r0, [r7, #8]
 8006fb6:	4390      	bics	r0, r2
 8006fb8:	60b8      	str	r0, [r7, #8]
 8006fba:	f38c 8810 	msr	PRIMASK, ip
        huart->RxState = HAL_UART_STATE_READY;
 8006fbe:	2020      	movs	r0, #32
 8006fc0:	67d8      	str	r0, [r3, #124]	@ 0x7c
        huart->ReceptionType = HAL_UART_RECEPTION_STANDARD;
 8006fc2:	6626      	str	r6, [r4, #96]	@ 0x60
        huart->RxISR = NULL;
 8006fc4:	66a6      	str	r6, [r4, #104]	@ 0x68
  __ASM volatile ("MRS %0, primask" : "=r" (result) :: "memory");
 8006fc6:	f3ef 8010 	mrs	r0, PRIMASK
  __ASM volatile ("MSR primask, %0" : : "r" (priMask) : "memory");
 8006fca:	f382 8810 	msr	PRIMASK, r2
        ATOMIC_CLEAR_BIT(huart->Instance->CR1, USART_CR1_IDLEIE);
 8006fce:	6822      	ldr	r2, [r4, #0]
 8006fd0:	3532      	adds	r5, #50	@ 0x32
 8006fd2:	6813      	ldr	r3, [r2, #0]
 8006fd4:	35ff      	adds	r5, #255	@ 0xff
 8006fd6:	43ab      	bics	r3, r5
 8006fd8:	6013      	str	r3, [r2, #0]
 8006fda:	f380 8810 	msr	PRIMASK, r0
        huart->RxEventType = HAL_UART_RXEVENT_IDLE;
 8006fde:	2302      	movs	r3, #2
 8006fe0:	6663      	str	r3, [r4, #100]	@ 0x64
 8006fe2:	e7c2      	b.n	8006f6a <HAL_UART_IRQHandler+0x1d6>
  if (((isrflags & USART_ISR_TXE) != 0U)
 8006fe4:	2280      	movs	r2, #128	@ 0x80
 8006fe6:	4213      	tst	r3, r2
 8006fe8:	d003      	beq.n	8006ff2 <HAL_UART_IRQHandler+0x25e>
      && ((cr1its & USART_CR1_TXEIE) != 0U))
 8006fea:	4210      	tst	r0, r2
 8006fec:	d001      	beq.n	8006ff2 <HAL_UART_IRQHandler+0x25e>
    if (huart->TxISR != NULL)
 8006fee:	6ee3      	ldr	r3, [r4, #108]	@ 0x6c
 8006ff0:	e6e1      	b.n	8006db6 <HAL_UART_IRQHandler+0x22>
  if (((isrflags & USART_ISR_TC) != 0U) && ((cr1its & USART_CR1_TCIE) != 0U))
 8006ff2:	2240      	movs	r2, #64	@ 0x40
 8006ff4:	4213      	tst	r3, r2
 8006ff6:	d100      	bne.n	8006ffa <HAL_UART_IRQHandler+0x266>
 8006ff8:	e750      	b.n	8006e9c <HAL_UART_IRQHandler+0x108>
 8006ffa:	4210      	tst	r0, r2
 8006ffc:	d100      	bne.n	8007000 <HAL_UART_IRQHandler+0x26c>
 8006ffe:	e74d      	b.n	8006e9c <HAL_UART_IRQHandler+0x108>
  __ASM volatile ("MRS %0, primask" : "=r" (result) :: "memory");
 8007000:	f3ef 8010 	mrs	r0, PRIMASK
  __ASM volatile ("MSR primask, %0" : : "r" (priMask) : "memory");
 8007004:	2301      	movs	r3, #1
 8007006:	f383 8810 	msr	PRIMASK, r3
  * @retval None
  */
static void UART_EndTransmit_IT(UART_HandleTypeDef *huart)
{
  /* Disable the UART Transmit Complete Interrupt */
  ATOMIC_CLEAR_BIT(huart->Instance->CR1, USART_CR1_TCIE);
 800700a:	6821      	ldr	r1, [r4, #0]
 800700c:	680b      	ldr	r3, [r1, #0]
 800700e:	4393      	bics	r3, r2
 8007010:	600b      	str	r3, [r1, #0]
 8007012:	f380 8810 	msr	PRIMASK, r0

  /* Tx process is ended, restore huart->gState to Ready */
  huart->gState = HAL_UART_STATE_READY;
 8007016:	2320      	movs	r3, #32
 8007018:	67e3      	str	r3, [r4, #124]	@ 0x7c

  /* Cleat TxISR function pointer */
  huart->TxISR = NULL;
 800701a:	2300      	movs	r3, #0
#if (USE_HAL_UART_REGISTER_CALLBACKS == 1)
  /*Call registered Tx complete callback*/
  huart->TxCpltCallback(huart);
#else
  /*Call legacy weak Tx complete callback*/
  HAL_UART_TxCpltCallback(huart);
 800701c:	0020      	movs	r0, r4
  huart->TxISR = NULL;
 800701e:	66e3      	str	r3, [r4, #108]	@ 0x6c
  HAL_UART_TxCpltCallback(huart);
 8007020:	f7ff feaa 	bl	8006d78 <HAL_UART_TxCpltCallback>
#endif /* USE_HAL_UART_REGISTER_CALLBACKS */
}
 8007024:	e73a      	b.n	8006e9c <HAL_UART_IRQHandler+0x108>
 8007026:	46c0      	nop			@ (mov r8, r8)
 8007028:	0000080f 	.word	0x0000080f
 800702c:	04000120 	.word	0x04000120
 8007030:	08006d7b 	.word	0x08006d7b
 8007034:	fffffeff 	.word	0xfffffeff
 8007038:	fffffedf 	.word	0xfffffedf

0800703c <UART_RxISR_8BIT>:
  * @brief RX interrupt handler for 7 or 8 bits data word length .
  * @param huart UART handle.
  * @retval None
  */
static void UART_RxISR_8BIT(UART_HandleTypeDef *huart)
{
 800703c:	b5f8      	push	{r3, r4, r5, r6, r7, lr}
  uint16_t uhMask = huart->Mask;
 800703e:	0003      	movs	r3, r0
  uint16_t  uhdata;

  /* Check that a Rx process is ongoing */
  if (huart->RxState == HAL_UART_STATE_BUSY_RX)
 8007040:	1d01      	adds	r1, r0, #4
 8007042:	6fcc      	ldr	r4, [r1, #124]	@ 0x7c
  uint16_t uhMask = huart->Mask;
 8007044:	335c      	adds	r3, #92	@ 0x5c
 8007046:	881a      	ldrh	r2, [r3, #0]
  {
    uhdata = (uint16_t) READ_REG(huart->Instance->RDR);
 8007048:	6803      	ldr	r3, [r0, #0]
  if (huart->RxState == HAL_UART_STATE_BUSY_RX)
 800704a:	2c22      	cmp	r4, #34	@ 0x22
 800704c:	d157      	bne.n	80070fe <UART_RxISR_8BIT+0xc2>
    uhdata = (uint16_t) READ_REG(huart->Instance->RDR);
 800704e:	8c9b      	ldrh	r3, [r3, #36]	@ 0x24
    *huart->pRxBuffPtr = (uint8_t)(uhdata & (uint8_t)uhMask);
 8007050:	6d44      	ldr	r4, [r0, #84]	@ 0x54
 8007052:	4013      	ands	r3, r2
    huart->pRxBuffPtr++;
    huart->RxXferCount--;
 8007054:	0002      	movs	r2, r0
    *huart->pRxBuffPtr = (uint8_t)(uhdata & (uint8_t)uhMask);
 8007056:	7023      	strb	r3, [r4, #0]
    huart->pRxBuffPtr++;
 8007058:	6d43      	ldr	r3, [r0, #84]	@ 0x54
    huart->RxXferCount--;
 800705a:	325a      	adds	r2, #90	@ 0x5a
    huart->pRxBuffPtr++;
 800705c:	3301      	adds	r3, #1
 800705e:	6543      	str	r3, [r0, #84]	@ 0x54
    huart->RxXferCount--;
 8007060:	8813      	ldrh	r3, [r2, #0]
 8007062:	3b01      	subs	r3, #1
 8007064:	b29b      	uxth	r3, r3
 8007066:	8013      	strh	r3, [r2, #0]

    if (huart->RxXferCount == 0U)
 8007068:	8813      	ldrh	r3, [r2, #0]
 800706a:	b29c      	uxth	r4, r3
 800706c:	2b00      	cmp	r3, #0
 800706e:	d142      	bne.n	80070f6 <UART_RxISR_8BIT+0xba>
  __ASM volatile ("MRS %0, primask" : "=r" (result) :: "memory");
 8007070:	f3ef 8610 	mrs	r6, PRIMASK
  __ASM volatile ("MSR primask, %0" : : "r" (priMask) : "memory");
 8007074:	3301      	adds	r3, #1
 8007076:	f383 8810 	msr	PRIMASK, r3
    {
      /* Disable the UART Parity Error Interrupt and RXNE interrupts */
      ATOMIC_CLEAR_BIT(huart->Instance->CR1, (USART_CR1_RXNEIE | USART_CR1_PEIE));
 800707a:	6805      	ldr	r5, [r0, #0]
 800707c:	4f22      	ldr	r7, [pc, #136]	@ (8007108 <UART_RxISR_8BIT+0xcc>)
 800707e:	682a      	ldr	r2, [r5, #0]
 8007080:	403a      	ands	r2, r7
 8007082:	602a      	str	r2, [r5, #0]
 8007084:	f386 8810 	msr	PRIMASK, r6
  __ASM volatile ("MRS %0, primask" : "=r" (result) :: "memory");
 8007088:	f3ef 8610 	mrs	r6, PRIMASK
  __ASM volatile ("MSR primask, %0" : : "r" (priMask) : "memory");
 800708c:	f383 8810 	msr	PRIMASK, r3

      /* Disable the UART Error Interrupt: (Frame error, noise error, overrun error) */
      ATOMIC_CLEAR_BIT(huart->Instance->CR3, USART_CR3_EIE);
 8007090:	6805      	ldr	r5, [r0, #0]
 8007092:	68aa      	ldr	r2, [r5, #8]
 8007094:	439a      	bics	r2, r3
 8007096:	60aa      	str	r2, [r5, #8]
 8007098:	f386 8810 	msr	PRIMASK, r6

      /* Rx process is completed, restore huart->RxState to Ready */
      huart->RxState = HAL_UART_STATE_READY;
 800709c:	2220      	movs	r2, #32
 800709e:	67ca      	str	r2, [r1, #124]	@ 0x7c

      /* Initialize type of RxEvent to Transfer Complete */
      huart->RxEventType = HAL_UART_RXEVENT_TC;

      /* Check that USART RTOEN bit is set */
      if (READ_BIT(huart->Instance->CR2, USART_CR2_RTOEN) != 0U)
 80070a0:	6802      	ldr	r2, [r0, #0]
      huart->RxEventType = HAL_UART_RXEVENT_TC;
 80070a2:	6644      	str	r4, [r0, #100]	@ 0x64
      if (READ_BIT(huart->Instance->CR2, USART_CR2_RTOEN) != 0U)
 80070a4:	6852      	ldr	r2, [r2, #4]
      huart->RxISR = NULL;
 80070a6:	6684      	str	r4, [r0, #104]	@ 0x68
      if (READ_BIT(huart->Instance->CR2, USART_CR2_RTOEN) != 0U)
 80070a8:	0212      	lsls	r2, r2, #8
 80070aa:	d50a      	bpl.n	80070c2 <UART_RxISR_8BIT+0x86>
  __ASM volatile ("MRS %0, primask" : "=r" (result) :: "memory");
 80070ac:	f3ef 8110 	mrs	r1, PRIMASK
  __ASM volatile ("MSR primask, %0" : : "r" (priMask) : "memory");
 80070b0:	f383 8810 	msr	PRIMASK, r3
      {
        /* Enable the UART Receiver Timeout Interrupt */
        ATOMIC_CLEAR_BIT(huart->Instance->CR1, USART_CR1_RTOIE);
 80070b4:	6802      	ldr	r2, [r0, #0]
 80070b6:	4c15      	ldr	r4, [pc, #84]	@ (800710c <UART_RxISR_8BIT+0xd0>)
 80070b8:	6813      	ldr	r3, [r2, #0]
 80070ba:	4023      	ands	r3, r4
 80070bc:	6013      	str	r3, [r2, #0]
 80070be:	f381 8810 	msr	PRIMASK, r1
      }

      /* Check current reception Mode :
         If Reception till IDLE event has been selected : */
      if (huart->ReceptionType == HAL_UART_RECEPTION_TOIDLE)
 80070c2:	6e03      	ldr	r3, [r0, #96]	@ 0x60
 80070c4:	2b01      	cmp	r3, #1
 80070c6:	d117      	bne.n	80070f8 <UART_RxISR_8BIT+0xbc>
      {
        /* Set reception type to Standard */
        huart->ReceptionType = HAL_UART_RECEPTION_STANDARD;
 80070c8:	2200      	movs	r2, #0
 80070ca:	6602      	str	r2, [r0, #96]	@ 0x60
  __ASM volatile ("MRS %0, primask" : "=r" (result) :: "memory");
 80070cc:	f3ef 8410 	mrs	r4, PRIMASK
  __ASM volatile ("MSR primask, %0" : : "r" (priMask) : "memory");
 80070d0:	f383 8810 	msr	PRIMASK, r3

        /* Disable IDLE interrupt */
        ATOMIC_CLEAR_BIT(huart->Instance->CR1, USART_CR1_IDLEIE);
 80070d4:	6801      	ldr	r1, [r0, #0]
 80070d6:	330f      	adds	r3, #15
 80070d8:	680a      	ldr	r2, [r1, #0]
 80070da:	439a      	bics	r2, r3
 80070dc:	600a      	str	r2, [r1, #0]
 80070de:	f384 8810 	msr	PRIMASK, r4

        if (__HAL_UART_GET_FLAG(huart, UART_FLAG_IDLE) == SET)
 80070e2:	6802      	ldr	r2, [r0, #0]
 80070e4:	69d1      	ldr	r1, [r2, #28]
 80070e6:	4219      	tst	r1, r3
 80070e8:	d000      	beq.n	80070ec <UART_RxISR_8BIT+0xb0>
        {
          /* Clear IDLE Flag */
          __HAL_UART_CLEAR_FLAG(huart, UART_CLEAR_IDLEF);
 80070ea:	6213      	str	r3, [r2, #32]
#if (USE_HAL_UART_REGISTER_CALLBACKS == 1)
        /*Call registered Rx Event callback*/
        huart->RxEventCallback(huart, huart->RxXferSize);
#else
        /*Call legacy weak Rx Event callback*/
        HAL_UARTEx_RxEventCallback(huart, huart->RxXferSize);
 80070ec:	0003      	movs	r3, r0
 80070ee:	3358      	adds	r3, #88	@ 0x58
 80070f0:	8819      	ldrh	r1, [r3, #0]
 80070f2:	f7ff fe4d 	bl	8006d90 <HAL_UARTEx_RxEventCallback>
  else
  {
    /* Clear RXNE interrupt flag */
    __HAL_UART_SEND_REQ(huart, UART_RXDATA_FLUSH_REQUEST);
  }
}
 80070f6:	bdf8      	pop	{r3, r4, r5, r6, r7, pc}
        HAL_UART_RxCpltCallback(huart);
 80070f8:	f7fc fa16 	bl	8003528 <HAL_UART_RxCpltCallback>
 80070fc:	e7fb      	b.n	80070f6 <UART_RxISR_8BIT+0xba>
    __HAL_UART_SEND_REQ(huart, UART_RXDATA_FLUSH_REQUEST);
 80070fe:	2208      	movs	r2, #8
 8007100:	6999      	ldr	r1, [r3, #24]
 8007102:	430a      	orrs	r2, r1
 8007104:	619a      	str	r2, [r3, #24]
}
 8007106:	e7f6      	b.n	80070f6 <UART_RxISR_8BIT+0xba>
 8007108:	fffffedf 	.word	0xfffffedf
 800710c:	fbffffff 	.word	0xfbffffff

08007110 <UART_RxISR_16BIT>:
  *         interruptions have been enabled by HAL_UART_Receive_IT()
  * @param huart UART handle.
  * @retval None
  */
static void UART_RxISR_16BIT(UART_HandleTypeDef *huart)
{
 8007110:	b5f8      	push	{r3, r4, r5, r6, r7, lr}
  uint16_t *tmp;
  uint16_t uhMask = huart->Mask;
 8007112:	0003      	movs	r3, r0
  uint16_t  uhdata;

  /* Check that a Rx process is ongoing */
  if (huart->RxState == HAL_UART_STATE_BUSY_RX)
 8007114:	1d02      	adds	r2, r0, #4
 8007116:	6fd1      	ldr	r1, [r2, #124]	@ 0x7c
  uint16_t uhMask = huart->Mask;
 8007118:	335c      	adds	r3, #92	@ 0x5c
 800711a:	881c      	ldrh	r4, [r3, #0]
  {
    uhdata = (uint16_t) READ_REG(huart->Instance->RDR);
 800711c:	6803      	ldr	r3, [r0, #0]
  if (huart->RxState == HAL_UART_STATE_BUSY_RX)
 800711e:	2922      	cmp	r1, #34	@ 0x22
 8007120:	d156      	bne.n	80071d0 <UART_RxISR_16BIT+0xc0>
    uhdata = (uint16_t) READ_REG(huart->Instance->RDR);
 8007122:	8c99      	ldrh	r1, [r3, #36]	@ 0x24
    tmp = (uint16_t *) huart->pRxBuffPtr ;
 8007124:	6d43      	ldr	r3, [r0, #84]	@ 0x54
    *tmp = (uint16_t)(uhdata & uhMask);
 8007126:	4021      	ands	r1, r4
 8007128:	8019      	strh	r1, [r3, #0]
    huart->pRxBuffPtr += 2U;
    huart->RxXferCount--;
 800712a:	0001      	movs	r1, r0
    huart->pRxBuffPtr += 2U;
 800712c:	3302      	adds	r3, #2
 800712e:	6543      	str	r3, [r0, #84]	@ 0x54
    huart->RxXferCount--;
 8007130:	315a      	adds	r1, #90	@ 0x5a
 8007132:	880b      	ldrh	r3, [r1, #0]
 8007134:	3b01      	subs	r3, #1
 8007136:	b29b      	uxth	r3, r3
 8007138:	800b      	strh	r3, [r1, #0]

    if (huart->RxXferCount == 0U)
 800713a:	880b      	ldrh	r3, [r1, #0]
 800713c:	b29c      	uxth	r4, r3
 800713e:	2b00      	cmp	r3, #0
 8007140:	d142      	bne.n	80071c8 <UART_RxISR_16BIT+0xb8>
  __ASM volatile ("MRS %0, primask" : "=r" (result) :: "memory");
 8007142:	f3ef 8610 	mrs	r6, PRIMASK
  __ASM volatile ("MSR primask, %0" : : "r" (priMask) : "memory");
 8007146:	3301      	adds	r3, #1
 8007148:	f383 8810 	msr	PRIMASK, r3
    {
      /* Disable the UART Parity Error Interrupt and RXNE interrupt*/
      ATOMIC_CLEAR_BIT(huart->Instance->CR1, (USART_CR1_RXNEIE | USART_CR1_PEIE));
 800714c:	6805      	ldr	r5, [r0, #0]
 800714e:	4f23      	ldr	r7, [pc, #140]	@ (80071dc <UART_RxISR_16BIT+0xcc>)
 8007150:	6829      	ldr	r1, [r5, #0]
 8007152:	4039      	ands	r1, r7
 8007154:	6029      	str	r1, [r5, #0]
 8007156:	f386 8810 	msr	PRIMASK, r6
  __ASM volatile ("MRS %0, primask" : "=r" (result) :: "memory");
 800715a:	f3ef 8610 	mrs	r6, PRIMASK
  __ASM volatile ("MSR primask, %0" : : "r" (priMask) : "memory");
 800715e:	f383 8810 	msr	PRIMASK, r3

      /* Disable the UART Error Interrupt: (Frame error, noise error, overrun error) */
      ATOMIC_CLEAR_BIT(huart->Instance->CR3, USART_CR3_EIE);
 8007162:	6805      	ldr	r5, [r0, #0]
 8007164:	68a9      	ldr	r1, [r5, #8]
 8007166:	4399      	bics	r1, r3
 8007168:	60a9      	str	r1, [r5, #8]
 800716a:	f386 8810 	msr	PRIMASK, r6

      /* Rx process is completed, restore huart->RxState to Ready */
      huart->RxState = HAL_UART_STATE_READY;
 800716e:	2120      	movs	r1, #32
 8007170:	67d1      	str	r1, [r2, #124]	@ 0x7c

      /* Initialize type of RxEvent to Transfer Complete */
      huart->RxEventType = HAL_UART_RXEVENT_TC;

      /* Check that USART RTOEN bit is set */
      if (READ_BIT(huart->Instance->CR2, USART_CR2_RTOEN) != 0U)
 8007172:	6802      	ldr	r2, [r0, #0]
      huart->RxEventType = HAL_UART_RXEVENT_TC;
 8007174:	6644      	str	r4, [r0, #100]	@ 0x64
      if (READ_BIT(huart->Instance->CR2, USART_CR2_RTOEN) != 0U)
 8007176:	6852      	ldr	r2, [r2, #4]
      huart->RxISR = NULL;
 8007178:	6684      	str	r4, [r0, #104]	@ 0x68
      if (READ_BIT(huart->Instance->CR2, USART_CR2_RTOEN) != 0U)
 800717a:	0212      	lsls	r2, r2, #8
 800717c:	d50a      	bpl.n	8007194 <UART_RxISR_16BIT+0x84>
  __ASM volatile ("MRS %0, primask" : "=r" (result) :: "memory");
 800717e:	f3ef 8110 	mrs	r1, PRIMASK
  __ASM volatile ("MSR primask, %0" : : "r" (priMask) : "memory");
 8007182:	f383 8810 	msr	PRIMASK, r3
      {
        /* Enable the UART Receiver Timeout Interrupt */
        ATOMIC_CLEAR_BIT(huart->Instance->CR1, USART_CR1_RTOIE);
 8007186:	6802      	ldr	r2, [r0, #0]
 8007188:	4c15      	ldr	r4, [pc, #84]	@ (80071e0 <UART_RxISR_16BIT+0xd0>)
 800718a:	6813      	ldr	r3, [r2, #0]
 800718c:	4023      	ands	r3, r4
 800718e:	6013      	str	r3, [r2, #0]
 8007190:	f381 8810 	msr	PRIMASK, r1
      }

      /* Check current reception Mode :
         If Reception till IDLE event has been selected : */
      if (huart->ReceptionType == HAL_UART_RECEPTION_TOIDLE)
 8007194:	6e03      	ldr	r3, [r0, #96]	@ 0x60
 8007196:	2b01      	cmp	r3, #1
 8007198:	d117      	bne.n	80071ca <UART_RxISR_16BIT+0xba>
      {
        /* Set reception type to Standard */
        huart->ReceptionType = HAL_UART_RECEPTION_STANDARD;
 800719a:	2200      	movs	r2, #0
 800719c:	6602      	str	r2, [r0, #96]	@ 0x60
  __ASM volatile ("MRS %0, primask" : "=r" (result) :: "memory");
 800719e:	f3ef 8410 	mrs	r4, PRIMASK
  __ASM volatile ("MSR primask, %0" : : "r" (priMask) : "memory");
 80071a2:	f383 8810 	msr	PRIMASK, r3

        /* Disable IDLE interrupt */
        ATOMIC_CLEAR_BIT(huart->Instance->CR1, USART_CR1_IDLEIE);
 80071a6:	6801      	ldr	r1, [r0, #0]
 80071a8:	330f      	adds	r3, #15
 80071aa:	680a      	ldr	r2, [r1, #0]
 80071ac:	439a      	bics	r2, r3
 80071ae:	600a      	str	r2, [r1, #0]
 80071b0:	f384 8810 	msr	PRIMASK, r4

        if (__HAL_UART_GET_FLAG(huart, UART_FLAG_IDLE) == SET)
 80071b4:	6802      	ldr	r2, [r0, #0]
 80071b6:	69d1      	ldr	r1, [r2, #28]
 80071b8:	4219      	tst	r1, r3
 80071ba:	d000      	beq.n	80071be <UART_RxISR_16BIT+0xae>
        {
          /* Clear IDLE Flag */
          __HAL_UART_CLEAR_FLAG(huart, UART_CLEAR_IDLEF);
 80071bc:	6213      	str	r3, [r2, #32]
#if (USE_HAL_UART_REGISTER_CALLBACKS == 1)
        /*Call registered Rx Event callback*/
        huart->RxEventCallback(huart, huart->RxXferSize);
#else
        /*Call legacy weak Rx Event callback*/
        HAL_UARTEx_RxEventCallback(huart, huart->RxXferSize);
 80071be:	0003      	movs	r3, r0
 80071c0:	3358      	adds	r3, #88	@ 0x58
 80071c2:	8819      	ldrh	r1, [r3, #0]
 80071c4:	f7ff fde4 	bl	8006d90 <HAL_UARTEx_RxEventCallback>
  else
  {
    /* Clear RXNE interrupt flag */
    __HAL_UART_SEND_REQ(huart, UART_RXDATA_FLUSH_REQUEST);
  }
}
 80071c8:	bdf8      	pop	{r3, r4, r5, r6, r7, pc}
        HAL_UART_RxCpltCallback(huart);
 80071ca:	f7fc f9ad 	bl	8003528 <HAL_UART_RxCpltCallback>
 80071ce:	e7fb      	b.n	80071c8 <UART_RxISR_16BIT+0xb8>
    __HAL_UART_SEND_REQ(huart, UART_RXDATA_FLUSH_REQUEST);
 80071d0:	2208      	movs	r2, #8
 80071d2:	6999      	ldr	r1, [r3, #24]
 80071d4:	430a      	orrs	r2, r1
 80071d6:	619a      	str	r2, [r3, #24]
}
 80071d8:	e7f6      	b.n	80071c8 <UART_RxISR_16BIT+0xb8>
 80071da:	46c0      	nop			@ (mov r8, r8)
 80071dc:	fffffedf 	.word	0xfffffedf
 80071e0:	fbffffff 	.word	0xfbffffff

080071e4 <UART_SetConfig>:
{
 80071e4:	b570      	push	{r4, r5, r6, lr}
 80071e6:	0004      	movs	r4, r0
  tmpreg = (uint32_t)huart->Init.WordLength | huart->Init.Parity | huart->Init.Mode | huart->Init.OverSampling ;
 80071e8:	6925      	ldr	r5, [r4, #16]
 80071ea:	68a2      	ldr	r2, [r4, #8]
  MODIFY_REG(huart->Instance->CR1, USART_CR1_FIELDS, tmpreg);
 80071ec:	6801      	ldr	r1, [r0, #0]
  tmpreg = (uint32_t)huart->Init.WordLength | huart->Init.Parity | huart->Init.Mode | huart->Init.OverSampling ;
 80071ee:	432a      	orrs	r2, r5
 80071f0:	6965      	ldr	r5, [r4, #20]
 80071f2:	69c3      	ldr	r3, [r0, #28]
 80071f4:	432a      	orrs	r2, r5
  MODIFY_REG(huart->Instance->CR1, USART_CR1_FIELDS, tmpreg);
 80071f6:	6808      	ldr	r0, [r1, #0]
 80071f8:	4d38      	ldr	r5, [pc, #224]	@ (80072dc <UART_SetConfig+0xf8>)
  tmpreg = (uint32_t)huart->Init.WordLength | huart->Init.Parity | huart->Init.Mode | huart->Init.OverSampling ;
 80071fa:	431a      	orrs	r2, r3
  MODIFY_REG(huart->Instance->CR1, USART_CR1_FIELDS, tmpreg);
 80071fc:	4028      	ands	r0, r5
 80071fe:	4302      	orrs	r2, r0
 8007200:	600a      	str	r2, [r1, #0]
  MODIFY_REG(huart->Instance->CR2, USART_CR2_STOP, huart->Init.StopBits);
 8007202:	684a      	ldr	r2, [r1, #4]
 8007204:	4836      	ldr	r0, [pc, #216]	@ (80072e0 <UART_SetConfig+0xfc>)
  tmpreg |= huart->Init.OneBitSampling;
 8007206:	6a25      	ldr	r5, [r4, #32]
  MODIFY_REG(huart->Instance->CR2, USART_CR2_STOP, huart->Init.StopBits);
 8007208:	4002      	ands	r2, r0
 800720a:	68e0      	ldr	r0, [r4, #12]
 800720c:	4302      	orrs	r2, r0
 800720e:	604a      	str	r2, [r1, #4]
  tmpreg = (uint32_t)huart->Init.HwFlowCtl;
 8007210:	69a2      	ldr	r2, [r4, #24]
  MODIFY_REG(huart->Instance->CR3, USART_CR3_FIELDS, tmpreg);
 8007212:	6888      	ldr	r0, [r1, #8]
  tmpreg |= huart->Init.OneBitSampling;
 8007214:	432a      	orrs	r2, r5
  MODIFY_REG(huart->Instance->CR3, USART_CR3_FIELDS, tmpreg);
 8007216:	4d33      	ldr	r5, [pc, #204]	@ (80072e4 <UART_SetConfig+0x100>)
 8007218:	4028      	ands	r0, r5
 800721a:	4302      	orrs	r2, r0
 800721c:	608a      	str	r2, [r1, #8]
  UART_GETCLOCKSOURCE(huart, clocksource);
 800721e:	2103      	movs	r1, #3
 8007220:	4a31      	ldr	r2, [pc, #196]	@ (80072e8 <UART_SetConfig+0x104>)
 8007222:	6b12      	ldr	r2, [r2, #48]	@ 0x30
 8007224:	400a      	ands	r2, r1
 8007226:	2180      	movs	r1, #128	@ 0x80
 8007228:	3a01      	subs	r2, #1
 800722a:	0209      	lsls	r1, r1, #8
 800722c:	2a02      	cmp	r2, #2
 800722e:	d849      	bhi.n	80072c4 <UART_SetConfig+0xe0>
 8007230:	482e      	ldr	r0, [pc, #184]	@ (80072ec <UART_SetConfig+0x108>)
 8007232:	5c80      	ldrb	r0, [r0, r2]
  if (huart->Init.OverSampling == UART_OVERSAMPLING_8)
 8007234:	428b      	cmp	r3, r1
 8007236:	d121      	bne.n	800727c <UART_SetConfig+0x98>
    switch (clocksource)
 8007238:	2808      	cmp	r0, #8
 800723a:	d841      	bhi.n	80072c0 <UART_SetConfig+0xdc>
 800723c:	f7f8 ff6c 	bl	8000118 <__gnu_thumb1_case_uqi>
 8007240:	40084044 	.word	0x40084044
 8007244:	40404005 	.word	0x40404005
 8007248:	09          	.byte	0x09
 8007249:	00          	.byte	0x00
        pclk = HAL_RCC_GetSysClockFreq();
 800724a:	f7fe fe4d 	bl	8005ee8 <HAL_RCC_GetSysClockFreq>
 800724e:	e03d      	b.n	80072cc <UART_SetConfig+0xe8>
    switch (clocksource)
 8007250:	4b27      	ldr	r3, [pc, #156]	@ (80072f0 <UART_SetConfig+0x10c>)
      usartdiv = (uint32_t)(UART_DIV_SAMPLING8(pclk, huart->Init.BaudRate));
 8007252:	6861      	ldr	r1, [r4, #4]
 8007254:	005b      	lsls	r3, r3, #1
 8007256:	0848      	lsrs	r0, r1, #1
 8007258:	1818      	adds	r0, r3, r0
 800725a:	f7f8 ff71 	bl	8000140 <__udivsi3>
      if ((usartdiv >= UART_BRR_MIN) && (usartdiv <= UART_BRR_MAX))
 800725e:	0002      	movs	r2, r0
 8007260:	4b24      	ldr	r3, [pc, #144]	@ (80072f4 <UART_SetConfig+0x110>)
 8007262:	3a10      	subs	r2, #16
 8007264:	429a      	cmp	r2, r3
 8007266:	d82b      	bhi.n	80072c0 <UART_SetConfig+0xdc>
        brrtemp = (uint16_t)(usartdiv & 0xFFF0U);
 8007268:	230f      	movs	r3, #15
 800726a:	0002      	movs	r2, r0
        brrtemp |= (uint16_t)((usartdiv & (uint16_t)0x000FU) >> 1U);
 800726c:	0700      	lsls	r0, r0, #28
        brrtemp = (uint16_t)(usartdiv & 0xFFF0U);
 800726e:	439a      	bics	r2, r3
 8007270:	b293      	uxth	r3, r2
        brrtemp |= (uint16_t)((usartdiv & (uint16_t)0x000FU) >> 1U);
 8007272:	0f40      	lsrs	r0, r0, #29
        huart->Instance->BRR = brrtemp;
 8007274:	6822      	ldr	r2, [r4, #0]
 8007276:	4303      	orrs	r3, r0
 8007278:	60d3      	str	r3, [r2, #12]
 800727a:	e029      	b.n	80072d0 <UART_SetConfig+0xec>
    switch (clocksource)
 800727c:	2808      	cmp	r0, #8
 800727e:	d81f      	bhi.n	80072c0 <UART_SetConfig+0xdc>
 8007280:	f7f8 ff4a 	bl	8000118 <__gnu_thumb1_case_uqi>
 8007284:	1e051e13 	.word	0x1e051e13
 8007288:	1e1e1e18 	.word	0x1e1e1e18
 800728c:	1b          	.byte	0x1b
 800728d:	00          	.byte	0x00
        pclk = (uint32_t) HSI_VALUE;
 800728e:	4818      	ldr	r0, [pc, #96]	@ (80072f0 <UART_SetConfig+0x10c>)
      usartdiv = (uint32_t)(UART_DIV_SAMPLING16(pclk, huart->Init.BaudRate));
 8007290:	6861      	ldr	r1, [r4, #4]
 8007292:	084b      	lsrs	r3, r1, #1
 8007294:	1818      	adds	r0, r3, r0
 8007296:	f7f8 ff53 	bl	8000140 <__udivsi3>
      if ((usartdiv >= UART_BRR_MIN) && (usartdiv <= UART_BRR_MAX))
 800729a:	0002      	movs	r2, r0
 800729c:	4b15      	ldr	r3, [pc, #84]	@ (80072f4 <UART_SetConfig+0x110>)
 800729e:	3a10      	subs	r2, #16
 80072a0:	429a      	cmp	r2, r3
 80072a2:	d80d      	bhi.n	80072c0 <UART_SetConfig+0xdc>
        huart->Instance->BRR = (uint16_t)usartdiv;
 80072a4:	6823      	ldr	r3, [r4, #0]
 80072a6:	60d8      	str	r0, [r3, #12]
 80072a8:	e012      	b.n	80072d0 <UART_SetConfig+0xec>
        pclk = HAL_RCC_GetPCLK1Freq();
 80072aa:	f7fe fec7 	bl	800603c <HAL_RCC_GetPCLK1Freq>
    if (pclk != 0U)
 80072ae:	2800      	cmp	r0, #0
 80072b0:	d00e      	beq.n	80072d0 <UART_SetConfig+0xec>
 80072b2:	e7ed      	b.n	8007290 <UART_SetConfig+0xac>
        pclk = HAL_RCC_GetSysClockFreq();
 80072b4:	f7fe fe18 	bl	8005ee8 <HAL_RCC_GetSysClockFreq>
        break;
 80072b8:	e7f9      	b.n	80072ae <UART_SetConfig+0xca>
    switch (clocksource)
 80072ba:	2080      	movs	r0, #128	@ 0x80
 80072bc:	0200      	lsls	r0, r0, #8
 80072be:	e7e7      	b.n	8007290 <UART_SetConfig+0xac>
        ret = HAL_ERROR;
 80072c0:	2001      	movs	r0, #1
 80072c2:	e006      	b.n	80072d2 <UART_SetConfig+0xee>
  if (huart->Init.OverSampling == UART_OVERSAMPLING_8)
 80072c4:	428b      	cmp	r3, r1
 80072c6:	d1f0      	bne.n	80072aa <UART_SetConfig+0xc6>
        pclk = HAL_RCC_GetPCLK1Freq();
 80072c8:	f7fe feb8 	bl	800603c <HAL_RCC_GetPCLK1Freq>
        pclk = HAL_RCC_GetSysClockFreq();
 80072cc:	1e03      	subs	r3, r0, #0
    if (pclk != 0U)
 80072ce:	d1c0      	bne.n	8007252 <UART_SetConfig+0x6e>
        pclk = (uint32_t) HSI_VALUE;
 80072d0:	2000      	movs	r0, #0
  huart->RxISR = NULL;
 80072d2:	2300      	movs	r3, #0
 80072d4:	66a3      	str	r3, [r4, #104]	@ 0x68
  huart->TxISR = NULL;
 80072d6:	66e3      	str	r3, [r4, #108]	@ 0x6c
}
 80072d8:	bd70      	pop	{r4, r5, r6, pc}
 80072da:	46c0      	nop			@ (mov r8, r8)
 80072dc:	ffff69f3 	.word	0xffff69f3
 80072e0:	ffffcfff 	.word	0xffffcfff
 80072e4:	fffff4ff 	.word	0xfffff4ff
 80072e8:	40021000 	.word	0x40021000
 80072ec:	08007b2e 	.word	0x08007b2e
 80072f0:	007a1200 	.word	0x007a1200
 80072f4:	0000ffef 	.word	0x0000ffef

080072f8 <UART_AdvFeatureConfig>:
  if (HAL_IS_BIT_SET(huart->AdvancedInit.AdvFeatureInit, UART_ADVFEATURE_SWAP_INIT))
 80072f8:	6a43      	ldr	r3, [r0, #36]	@ 0x24
{
 80072fa:	b530      	push	{r4, r5, lr}
  if (HAL_IS_BIT_SET(huart->AdvancedInit.AdvFeatureInit, UART_ADVFEATURE_SWAP_INIT))
 80072fc:	071a      	lsls	r2, r3, #28
 80072fe:	d506      	bpl.n	800730e <UART_AdvFeatureConfig+0x16>
    MODIFY_REG(huart->Instance->CR2, USART_CR2_SWAP, huart->AdvancedInit.Swap);
 8007300:	6801      	ldr	r1, [r0, #0]
 8007302:	4c28      	ldr	r4, [pc, #160]	@ (80073a4 <UART_AdvFeatureConfig+0xac>)
 8007304:	684a      	ldr	r2, [r1, #4]
 8007306:	4022      	ands	r2, r4
 8007308:	6b44      	ldr	r4, [r0, #52]	@ 0x34
 800730a:	4322      	orrs	r2, r4
 800730c:	604a      	str	r2, [r1, #4]
  if (HAL_IS_BIT_SET(huart->AdvancedInit.AdvFeatureInit, UART_ADVFEATURE_TXINVERT_INIT))
 800730e:	07da      	lsls	r2, r3, #31
 8007310:	d506      	bpl.n	8007320 <UART_AdvFeatureConfig+0x28>
    MODIFY_REG(huart->Instance->CR2, USART_CR2_TXINV, huart->AdvancedInit.TxPinLevelInvert);
 8007312:	6801      	ldr	r1, [r0, #0]
 8007314:	4c24      	ldr	r4, [pc, #144]	@ (80073a8 <UART_AdvFeatureConfig+0xb0>)
 8007316:	684a      	ldr	r2, [r1, #4]
 8007318:	4022      	ands	r2, r4
 800731a:	6a84      	ldr	r4, [r0, #40]	@ 0x28
 800731c:	4322      	orrs	r2, r4
 800731e:	604a      	str	r2, [r1, #4]
  if (HAL_IS_BIT_SET(huart->AdvancedInit.AdvFeatureInit, UART_ADVFEATURE_RXINVERT_INIT))
 8007320:	079a      	lsls	r2, r3, #30
 8007322:	d506      	bpl.n	8007332 <UART_AdvFeatureConfig+0x3a>
    MODIFY_REG(huart->Instance->CR2, USART_CR2_RXINV, huart->AdvancedInit.RxPinLevelInvert);
 8007324:	6801      	ldr	r1, [r0, #0]
 8007326:	4c21      	ldr	r4, [pc, #132]	@ (80073ac <UART_AdvFeatureConfig+0xb4>)
 8007328:	684a      	ldr	r2, [r1, #4]
 800732a:	4022      	ands	r2, r4
 800732c:	6ac4      	ldr	r4, [r0, #44]	@ 0x2c
 800732e:	4322      	orrs	r2, r4
 8007330:	604a      	str	r2, [r1, #4]
  if (HAL_IS_BIT_SET(huart->AdvancedInit.AdvFeatureInit, UART_ADVFEATURE_DATAINVERT_INIT))
 8007332:	075a      	lsls	r2, r3, #29
 8007334:	d506      	bpl.n	8007344 <UART_AdvFeatureConfig+0x4c>
    MODIFY_REG(huart->Instance->CR2, USART_CR2_DATAINV, huart->AdvancedInit.DataInvert);
 8007336:	6801      	ldr	r1, [r0, #0]
 8007338:	4c1d      	ldr	r4, [pc, #116]	@ (80073b0 <UART_AdvFeatureConfig+0xb8>)
 800733a:	684a      	ldr	r2, [r1, #4]
 800733c:	4022      	ands	r2, r4
 800733e:	6b04      	ldr	r4, [r0, #48]	@ 0x30
 8007340:	4322      	orrs	r2, r4
 8007342:	604a      	str	r2, [r1, #4]
  if (HAL_IS_BIT_SET(huart->AdvancedInit.AdvFeatureInit, UART_ADVFEATURE_RXOVERRUNDISABLE_INIT))
 8007344:	06da      	lsls	r2, r3, #27
 8007346:	d506      	bpl.n	8007356 <UART_AdvFeatureConfig+0x5e>
    MODIFY_REG(huart->Instance->CR3, USART_CR3_OVRDIS, huart->AdvancedInit.OverrunDisable);
 8007348:	6801      	ldr	r1, [r0, #0]
 800734a:	4c1a      	ldr	r4, [pc, #104]	@ (80073b4 <UART_AdvFeatureConfig+0xbc>)
 800734c:	688a      	ldr	r2, [r1, #8]
 800734e:	4022      	ands	r2, r4
 8007350:	6b84      	ldr	r4, [r0, #56]	@ 0x38
 8007352:	4322      	orrs	r2, r4
 8007354:	608a      	str	r2, [r1, #8]
  if (HAL_IS_BIT_SET(huart->AdvancedInit.AdvFeatureInit, UART_ADVFEATURE_DMADISABLEONERROR_INIT))
 8007356:	069a      	lsls	r2, r3, #26
 8007358:	d506      	bpl.n	8007368 <UART_AdvFeatureConfig+0x70>
    MODIFY_REG(huart->Instance->CR3, USART_CR3_DDRE, huart->AdvancedInit.DMADisableonRxError);
 800735a:	6801      	ldr	r1, [r0, #0]
 800735c:	4c16      	ldr	r4, [pc, #88]	@ (80073b8 <UART_AdvFeatureConfig+0xc0>)
 800735e:	688a      	ldr	r2, [r1, #8]
 8007360:	4022      	ands	r2, r4
 8007362:	6bc4      	ldr	r4, [r0, #60]	@ 0x3c
 8007364:	4322      	orrs	r2, r4
 8007366:	608a      	str	r2, [r1, #8]
  if (HAL_IS_BIT_SET(huart->AdvancedInit.AdvFeatureInit, UART_ADVFEATURE_AUTOBAUDRATE_INIT))
 8007368:	065a      	lsls	r2, r3, #25
 800736a:	d510      	bpl.n	800738e <UART_AdvFeatureConfig+0x96>
    MODIFY_REG(huart->Instance->CR2, USART_CR2_ABREN, huart->AdvancedInit.AutoBaudRateEnable);
 800736c:	6801      	ldr	r1, [r0, #0]
 800736e:	4d13      	ldr	r5, [pc, #76]	@ (80073bc <UART_AdvFeatureConfig+0xc4>)
 8007370:	684a      	ldr	r2, [r1, #4]
 8007372:	6c04      	ldr	r4, [r0, #64]	@ 0x40
 8007374:	402a      	ands	r2, r5
 8007376:	4322      	orrs	r2, r4
 8007378:	604a      	str	r2, [r1, #4]
    if (huart->AdvancedInit.AutoBaudRateEnable == UART_ADVFEATURE_AUTOBAUDRATE_ENABLE)
 800737a:	2280      	movs	r2, #128	@ 0x80
 800737c:	0352      	lsls	r2, r2, #13
 800737e:	4294      	cmp	r4, r2
 8007380:	d105      	bne.n	800738e <UART_AdvFeatureConfig+0x96>
      MODIFY_REG(huart->Instance->CR2, USART_CR2_ABRMODE, huart->AdvancedInit.AutoBaudRateMode);
 8007382:	684a      	ldr	r2, [r1, #4]
 8007384:	4c0e      	ldr	r4, [pc, #56]	@ (80073c0 <UART_AdvFeatureConfig+0xc8>)
 8007386:	4022      	ands	r2, r4
 8007388:	6c44      	ldr	r4, [r0, #68]	@ 0x44
 800738a:	4322      	orrs	r2, r4
 800738c:	604a      	str	r2, [r1, #4]
  if (HAL_IS_BIT_SET(huart->AdvancedInit.AdvFeatureInit, UART_ADVFEATURE_MSBFIRST_INIT))
 800738e:	061b      	lsls	r3, r3, #24
 8007390:	d506      	bpl.n	80073a0 <UART_AdvFeatureConfig+0xa8>
    MODIFY_REG(huart->Instance->CR2, USART_CR2_MSBFIRST, huart->AdvancedInit.MSBFirst);
 8007392:	6802      	ldr	r2, [r0, #0]
 8007394:	490b      	ldr	r1, [pc, #44]	@ (80073c4 <UART_AdvFeatureConfig+0xcc>)
 8007396:	6853      	ldr	r3, [r2, #4]
 8007398:	400b      	ands	r3, r1
 800739a:	6c81      	ldr	r1, [r0, #72]	@ 0x48
 800739c:	430b      	orrs	r3, r1
 800739e:	6053      	str	r3, [r2, #4]
}
 80073a0:	bd30      	pop	{r4, r5, pc}
 80073a2:	46c0      	nop			@ (mov r8, r8)
 80073a4:	ffff7fff 	.word	0xffff7fff
 80073a8:	fffdffff 	.word	0xfffdffff
 80073ac:	fffeffff 	.word	0xfffeffff
 80073b0:	fffbffff 	.word	0xfffbffff
 80073b4:	ffffefff 	.word	0xffffefff
 80073b8:	ffffdfff 	.word	0xffffdfff
 80073bc:	ffefffff 	.word	0xffefffff
 80073c0:	ff9fffff 	.word	0xff9fffff
 80073c4:	fff7ffff 	.word	0xfff7ffff

080073c8 <UART_WaitOnFlagUntilTimeout>:
{
 80073c8:	b5f7      	push	{r0, r1, r2, r4, r5, r6, r7, lr}
 80073ca:	0004      	movs	r4, r0
 80073cc:	000d      	movs	r5, r1
 80073ce:	0017      	movs	r7, r2
 80073d0:	9300      	str	r3, [sp, #0]
  while ((__HAL_UART_GET_FLAG(huart, Flag) ? SET : RESET) == Status)
 80073d2:	6822      	ldr	r2, [r4, #0]
 80073d4:	69d3      	ldr	r3, [r2, #28]
 80073d6:	402b      	ands	r3, r5
 80073d8:	1b5b      	subs	r3, r3, r5
 80073da:	4259      	negs	r1, r3
 80073dc:	414b      	adcs	r3, r1
 80073de:	42bb      	cmp	r3, r7
 80073e0:	d001      	beq.n	80073e6 <UART_WaitOnFlagUntilTimeout+0x1e>
  return HAL_OK;
 80073e2:	2000      	movs	r0, #0
 80073e4:	e025      	b.n	8007432 <UART_WaitOnFlagUntilTimeout+0x6a>
    if (Timeout != HAL_MAX_DELAY)
 80073e6:	9b08      	ldr	r3, [sp, #32]
 80073e8:	3301      	adds	r3, #1
 80073ea:	d0f3      	beq.n	80073d4 <UART_WaitOnFlagUntilTimeout+0xc>
      if (((HAL_GetTick() - Tickstart) > Timeout) || (Timeout == 0U))
 80073ec:	f7fd f984 	bl	80046f8 <HAL_GetTick>
 80073f0:	9b00      	ldr	r3, [sp, #0]
 80073f2:	1ac0      	subs	r0, r0, r3
 80073f4:	9b08      	ldr	r3, [sp, #32]
 80073f6:	4298      	cmp	r0, r3
 80073f8:	d82c      	bhi.n	8007454 <UART_WaitOnFlagUntilTimeout+0x8c>
 80073fa:	2b00      	cmp	r3, #0
 80073fc:	d02a      	beq.n	8007454 <UART_WaitOnFlagUntilTimeout+0x8c>
      if ((READ_BIT(huart->Instance->CR1, USART_CR1_RE) != 0U) && (Flag != UART_FLAG_TXE) && (Flag != UART_FLAG_TC))
 80073fe:	6823      	ldr	r3, [r4, #0]
 8007400:	681a      	ldr	r2, [r3, #0]
 8007402:	0752      	lsls	r2, r2, #29
 8007404:	d5e5      	bpl.n	80073d2 <UART_WaitOnFlagUntilTimeout+0xa>
 8007406:	002a      	movs	r2, r5
 8007408:	2140      	movs	r1, #64	@ 0x40
 800740a:	3a40      	subs	r2, #64	@ 0x40
 800740c:	438a      	bics	r2, r1
 800740e:	d0e0      	beq.n	80073d2 <UART_WaitOnFlagUntilTimeout+0xa>
        if (__HAL_UART_GET_FLAG(huart, UART_FLAG_ORE) == SET)
 8007410:	69da      	ldr	r2, [r3, #28]
 8007412:	2608      	movs	r6, #8
 8007414:	0011      	movs	r1, r2
 8007416:	4031      	ands	r1, r6
 8007418:	9101      	str	r1, [sp, #4]
 800741a:	4232      	tst	r2, r6
 800741c:	d00a      	beq.n	8007434 <UART_WaitOnFlagUntilTimeout+0x6c>
          UART_EndRxTransfer(huart);
 800741e:	0020      	movs	r0, r4
          __HAL_UART_CLEAR_FLAG(huart, UART_CLEAR_OREF);
 8007420:	621e      	str	r6, [r3, #32]
          UART_EndRxTransfer(huart);
 8007422:	f7ff fc7b 	bl	8006d1c <UART_EndRxTransfer>
          huart->ErrorCode = HAL_UART_ERROR_ORE;
 8007426:	19a3      	adds	r3, r4, r6
 8007428:	67de      	str	r6, [r3, #124]	@ 0x7c
          __HAL_UNLOCK(huart);
 800742a:	2300      	movs	r3, #0
          return HAL_ERROR;
 800742c:	2001      	movs	r0, #1
          __HAL_UNLOCK(huart);
 800742e:	3478      	adds	r4, #120	@ 0x78
 8007430:	7023      	strb	r3, [r4, #0]
}
 8007432:	bdfe      	pop	{r1, r2, r3, r4, r5, r6, r7, pc}
        if (__HAL_UART_GET_FLAG(huart, UART_FLAG_RTOF) == SET)
 8007434:	2280      	movs	r2, #128	@ 0x80
 8007436:	69d9      	ldr	r1, [r3, #28]
 8007438:	0112      	lsls	r2, r2, #4
 800743a:	4211      	tst	r1, r2
 800743c:	d0c9      	beq.n	80073d2 <UART_WaitOnFlagUntilTimeout+0xa>
          __HAL_UART_CLEAR_FLAG(huart, UART_CLEAR_RTOF);
 800743e:	621a      	str	r2, [r3, #32]
          UART_EndRxTransfer(huart);
 8007440:	0020      	movs	r0, r4
 8007442:	f7ff fc6b 	bl	8006d1c <UART_EndRxTransfer>
          huart->ErrorCode = HAL_UART_ERROR_RTO;
 8007446:	0023      	movs	r3, r4
 8007448:	2220      	movs	r2, #32
 800744a:	3308      	adds	r3, #8
 800744c:	67da      	str	r2, [r3, #124]	@ 0x7c
          __HAL_UNLOCK(huart);
 800744e:	9b01      	ldr	r3, [sp, #4]
 8007450:	3478      	adds	r4, #120	@ 0x78
 8007452:	7023      	strb	r3, [r4, #0]
        return HAL_TIMEOUT;
 8007454:	2003      	movs	r0, #3
 8007456:	e7ec      	b.n	8007432 <UART_WaitOnFlagUntilTimeout+0x6a>

08007458 <HAL_UART_Transmit>:
{
 8007458:	b5f0      	push	{r4, r5, r6, r7, lr}
 800745a:	b087      	sub	sp, #28
 800745c:	9305      	str	r3, [sp, #20]
  if (huart->gState == HAL_UART_STATE_READY)
 800745e:	6fc3      	ldr	r3, [r0, #124]	@ 0x7c
{
 8007460:	0004      	movs	r4, r0
 8007462:	000d      	movs	r5, r1
 8007464:	0017      	movs	r7, r2
    return HAL_BUSY;
 8007466:	2002      	movs	r0, #2
  if (huart->gState == HAL_UART_STATE_READY)
 8007468:	2b20      	cmp	r3, #32
 800746a:	d138      	bne.n	80074de <HAL_UART_Transmit+0x86>
      return  HAL_ERROR;
 800746c:	3801      	subs	r0, #1
    if ((pData == NULL) || (Size == 0U))
 800746e:	2900      	cmp	r1, #0
 8007470:	d035      	beq.n	80074de <HAL_UART_Transmit+0x86>
 8007472:	2a00      	cmp	r2, #0
 8007474:	d033      	beq.n	80074de <HAL_UART_Transmit+0x86>
    if ((huart->Init.WordLength == UART_WORDLENGTH_9B) && (huart->Init.Parity == UART_PARITY_NONE))
 8007476:	2380      	movs	r3, #128	@ 0x80
 8007478:	68a2      	ldr	r2, [r4, #8]
 800747a:	015b      	lsls	r3, r3, #5
 800747c:	429a      	cmp	r2, r3
 800747e:	d104      	bne.n	800748a <HAL_UART_Transmit+0x32>
 8007480:	6923      	ldr	r3, [r4, #16]
 8007482:	2b00      	cmp	r3, #0
 8007484:	d101      	bne.n	800748a <HAL_UART_Transmit+0x32>
      if ((((uint32_t)pData) & 1U) != 0U)
 8007486:	4201      	tst	r1, r0
 8007488:	d129      	bne.n	80074de <HAL_UART_Transmit+0x86>
    huart->ErrorCode = HAL_UART_ERROR_NONE;
 800748a:	0023      	movs	r3, r4
 800748c:	2600      	movs	r6, #0
 800748e:	3308      	adds	r3, #8
 8007490:	67de      	str	r6, [r3, #124]	@ 0x7c
    huart->gState = HAL_UART_STATE_BUSY_TX;
 8007492:	2321      	movs	r3, #33	@ 0x21
 8007494:	67e3      	str	r3, [r4, #124]	@ 0x7c
    tickstart = HAL_GetTick();
 8007496:	f7fd f92f 	bl	80046f8 <HAL_GetTick>
    huart->TxXferSize  = Size;
 800749a:	0023      	movs	r3, r4
 800749c:	3350      	adds	r3, #80	@ 0x50
 800749e:	801f      	strh	r7, [r3, #0]
    huart->TxXferCount = Size;
 80074a0:	3302      	adds	r3, #2
 80074a2:	9303      	str	r3, [sp, #12]
 80074a4:	801f      	strh	r7, [r3, #0]
    if ((huart->Init.WordLength == UART_WORDLENGTH_9B) && (huart->Init.Parity == UART_PARITY_NONE))
 80074a6:	2380      	movs	r3, #128	@ 0x80
 80074a8:	68a2      	ldr	r2, [r4, #8]
    tickstart = HAL_GetTick();
 80074aa:	9004      	str	r0, [sp, #16]
    if ((huart->Init.WordLength == UART_WORDLENGTH_9B) && (huart->Init.Parity == UART_PARITY_NONE))
 80074ac:	015b      	lsls	r3, r3, #5
 80074ae:	429a      	cmp	r2, r3
 80074b0:	d104      	bne.n	80074bc <HAL_UART_Transmit+0x64>
 80074b2:	6923      	ldr	r3, [r4, #16]
 80074b4:	42b3      	cmp	r3, r6
 80074b6:	d101      	bne.n	80074bc <HAL_UART_Transmit+0x64>
      pdata16bits = (const uint16_t *) pData;
 80074b8:	002e      	movs	r6, r5
      pdata8bits  = NULL;
 80074ba:	001d      	movs	r5, r3
    while (huart->TxXferCount > 0U)
 80074bc:	0023      	movs	r3, r4
 80074be:	3352      	adds	r3, #82	@ 0x52
 80074c0:	881b      	ldrh	r3, [r3, #0]
 80074c2:	b29a      	uxth	r2, r3
 80074c4:	2b00      	cmp	r3, #0
 80074c6:	d10c      	bne.n	80074e2 <HAL_UART_Transmit+0x8a>
    if (UART_WaitOnFlagUntilTimeout(huart, UART_FLAG_TC, RESET, tickstart, Timeout) != HAL_OK)
 80074c8:	9b05      	ldr	r3, [sp, #20]
 80074ca:	2140      	movs	r1, #64	@ 0x40
 80074cc:	9300      	str	r3, [sp, #0]
 80074ce:	0020      	movs	r0, r4
 80074d0:	9b04      	ldr	r3, [sp, #16]
 80074d2:	f7ff ff79 	bl	80073c8 <UART_WaitOnFlagUntilTimeout>
 80074d6:	2320      	movs	r3, #32
      huart->gState = HAL_UART_STATE_READY;
 80074d8:	67e3      	str	r3, [r4, #124]	@ 0x7c
    if (UART_WaitOnFlagUntilTimeout(huart, UART_FLAG_TC, RESET, tickstart, Timeout) != HAL_OK)
 80074da:	2800      	cmp	r0, #0
 80074dc:	d10d      	bne.n	80074fa <HAL_UART_Transmit+0xa2>
}
 80074de:	b007      	add	sp, #28
 80074e0:	bdf0      	pop	{r4, r5, r6, r7, pc}
      if (UART_WaitOnFlagUntilTimeout(huart, UART_FLAG_TXE, RESET, tickstart, Timeout) != HAL_OK)
 80074e2:	9b05      	ldr	r3, [sp, #20]
 80074e4:	2200      	movs	r2, #0
 80074e6:	9300      	str	r3, [sp, #0]
 80074e8:	2180      	movs	r1, #128	@ 0x80
 80074ea:	0020      	movs	r0, r4
 80074ec:	9b04      	ldr	r3, [sp, #16]
 80074ee:	f7ff ff6b 	bl	80073c8 <UART_WaitOnFlagUntilTimeout>
 80074f2:	2800      	cmp	r0, #0
 80074f4:	d003      	beq.n	80074fe <HAL_UART_Transmit+0xa6>
        huart->gState = HAL_UART_STATE_READY;
 80074f6:	2320      	movs	r3, #32
 80074f8:	67e3      	str	r3, [r4, #124]	@ 0x7c
        return HAL_TIMEOUT;
 80074fa:	2003      	movs	r0, #3
 80074fc:	e7ef      	b.n	80074de <HAL_UART_Transmit+0x86>
        huart->Instance->TDR = (uint16_t)(*pdata16bits & 0x01FFU);
 80074fe:	6822      	ldr	r2, [r4, #0]
      if (pdata8bits == NULL)
 8007500:	2d00      	cmp	r5, #0
 8007502:	d10b      	bne.n	800751c <HAL_UART_Transmit+0xc4>
        huart->Instance->TDR = (uint16_t)(*pdata16bits & 0x01FFU);
 8007504:	8833      	ldrh	r3, [r6, #0]
        pdata16bits++;
 8007506:	3602      	adds	r6, #2
        huart->Instance->TDR = (uint16_t)(*pdata16bits & 0x01FFU);
 8007508:	05db      	lsls	r3, r3, #23
 800750a:	0ddb      	lsrs	r3, r3, #23
 800750c:	8513      	strh	r3, [r2, #40]	@ 0x28
      huart->TxXferCount--;
 800750e:	9b03      	ldr	r3, [sp, #12]
 8007510:	9a03      	ldr	r2, [sp, #12]
 8007512:	881b      	ldrh	r3, [r3, #0]
 8007514:	3b01      	subs	r3, #1
 8007516:	b29b      	uxth	r3, r3
 8007518:	8013      	strh	r3, [r2, #0]
 800751a:	e7cf      	b.n	80074bc <HAL_UART_Transmit+0x64>
        huart->Instance->TDR = (uint8_t)(*pdata8bits & 0xFFU);
 800751c:	782b      	ldrb	r3, [r5, #0]
        pdata8bits++;
 800751e:	3501      	adds	r5, #1
        huart->Instance->TDR = (uint8_t)(*pdata8bits & 0xFFU);
 8007520:	8513      	strh	r3, [r2, #40]	@ 0x28
        pdata8bits++;
 8007522:	e7f4      	b.n	800750e <HAL_UART_Transmit+0xb6>

08007524 <UART_CheckIdleState>:
  huart->ErrorCode = HAL_UART_ERROR_NONE;
 8007524:	0003      	movs	r3, r0
{
 8007526:	b573      	push	{r0, r1, r4, r5, r6, lr}
  huart->ErrorCode = HAL_UART_ERROR_NONE;
 8007528:	2500      	movs	r5, #0
{
 800752a:	0004      	movs	r4, r0
  huart->ErrorCode = HAL_UART_ERROR_NONE;
 800752c:	3308      	adds	r3, #8
 800752e:	67dd      	str	r5, [r3, #124]	@ 0x7c
  tickstart = HAL_GetTick();
 8007530:	f7fd f8e2 	bl	80046f8 <HAL_GetTick>
  if ((huart->Instance->CR1 & USART_CR1_TE) == USART_CR1_TE)
 8007534:	6823      	ldr	r3, [r4, #0]
  tickstart = HAL_GetTick();
 8007536:	0006      	movs	r6, r0
  if ((huart->Instance->CR1 & USART_CR1_TE) == USART_CR1_TE)
 8007538:	681b      	ldr	r3, [r3, #0]
 800753a:	071b      	lsls	r3, r3, #28
 800753c:	d51d      	bpl.n	800757a <UART_CheckIdleState+0x56>
    if (UART_WaitOnFlagUntilTimeout(huart, USART_ISR_TEACK, RESET, tickstart, HAL_UART_TIMEOUT_VALUE) != HAL_OK)
 800753e:	2180      	movs	r1, #128	@ 0x80
 8007540:	4b26      	ldr	r3, [pc, #152]	@ (80075dc <UART_CheckIdleState+0xb8>)
 8007542:	002a      	movs	r2, r5
 8007544:	9300      	str	r3, [sp, #0]
 8007546:	0389      	lsls	r1, r1, #14
 8007548:	0003      	movs	r3, r0
 800754a:	0020      	movs	r0, r4
 800754c:	f7ff ff3c 	bl	80073c8 <UART_WaitOnFlagUntilTimeout>
 8007550:	42a8      	cmp	r0, r5
 8007552:	d012      	beq.n	800757a <UART_CheckIdleState+0x56>
  __ASM volatile ("MRS %0, primask" : "=r" (result) :: "memory");
 8007554:	f3ef 8110 	mrs	r1, PRIMASK
  __ASM volatile ("MSR primask, %0" : : "r" (priMask) : "memory");
 8007558:	2301      	movs	r3, #1
 800755a:	f383 8810 	msr	PRIMASK, r3
      ATOMIC_CLEAR_BIT(huart->Instance->CR1, (USART_CR1_TXEIE));
 800755e:	2080      	movs	r0, #128	@ 0x80
 8007560:	6822      	ldr	r2, [r4, #0]
 8007562:	6813      	ldr	r3, [r2, #0]
 8007564:	4383      	bics	r3, r0
 8007566:	6013      	str	r3, [r2, #0]
 8007568:	f381 8810 	msr	PRIMASK, r1
      huart->gState = HAL_UART_STATE_READY;
 800756c:	2320      	movs	r3, #32
 800756e:	67e3      	str	r3, [r4, #124]	@ 0x7c
      return HAL_TIMEOUT;
 8007570:	2003      	movs	r0, #3
      __HAL_UNLOCK(huart);
 8007572:	2300      	movs	r3, #0
 8007574:	3478      	adds	r4, #120	@ 0x78
 8007576:	7023      	strb	r3, [r4, #0]
}
 8007578:	bd76      	pop	{r1, r2, r4, r5, r6, pc}
  if ((huart->Instance->CR1 & USART_CR1_RE) == USART_CR1_RE)
 800757a:	0025      	movs	r5, r4
 800757c:	cd08      	ldmia	r5!, {r3}
 800757e:	681b      	ldr	r3, [r3, #0]
 8007580:	075b      	lsls	r3, r3, #29
 8007582:	d523      	bpl.n	80075cc <UART_CheckIdleState+0xa8>
    if (UART_WaitOnFlagUntilTimeout(huart, USART_ISR_REACK, RESET, tickstart, HAL_UART_TIMEOUT_VALUE) != HAL_OK)
 8007584:	2180      	movs	r1, #128	@ 0x80
 8007586:	4b15      	ldr	r3, [pc, #84]	@ (80075dc <UART_CheckIdleState+0xb8>)
 8007588:	2200      	movs	r2, #0
 800758a:	9300      	str	r3, [sp, #0]
 800758c:	0020      	movs	r0, r4
 800758e:	0033      	movs	r3, r6
 8007590:	03c9      	lsls	r1, r1, #15
 8007592:	f7ff ff19 	bl	80073c8 <UART_WaitOnFlagUntilTimeout>
 8007596:	2800      	cmp	r0, #0
 8007598:	d018      	beq.n	80075cc <UART_CheckIdleState+0xa8>
  __ASM volatile ("MRS %0, primask" : "=r" (result) :: "memory");
 800759a:	f3ef 8010 	mrs	r0, PRIMASK
  __ASM volatile ("MSR primask, %0" : : "r" (priMask) : "memory");
 800759e:	2201      	movs	r2, #1
 80075a0:	f382 8810 	msr	PRIMASK, r2
      ATOMIC_CLEAR_BIT(huart->Instance->CR1, (USART_CR1_RXNEIE | USART_CR1_PEIE));
 80075a4:	6821      	ldr	r1, [r4, #0]
 80075a6:	4e0e      	ldr	r6, [pc, #56]	@ (80075e0 <UART_CheckIdleState+0xbc>)
 80075a8:	680b      	ldr	r3, [r1, #0]
 80075aa:	4033      	ands	r3, r6
 80075ac:	600b      	str	r3, [r1, #0]
 80075ae:	f380 8810 	msr	PRIMASK, r0
  __ASM volatile ("MRS %0, primask" : "=r" (result) :: "memory");
 80075b2:	f3ef 8010 	mrs	r0, PRIMASK
  __ASM volatile ("MSR primask, %0" : : "r" (priMask) : "memory");
 80075b6:	f382 8810 	msr	PRIMASK, r2
      ATOMIC_CLEAR_BIT(huart->Instance->CR3, USART_CR3_EIE);
 80075ba:	6821      	ldr	r1, [r4, #0]
 80075bc:	688b      	ldr	r3, [r1, #8]
 80075be:	4393      	bics	r3, r2
 80075c0:	608b      	str	r3, [r1, #8]
 80075c2:	f380 8810 	msr	PRIMASK, r0
      huart->RxState = HAL_UART_STATE_READY;
 80075c6:	2320      	movs	r3, #32
 80075c8:	67eb      	str	r3, [r5, #124]	@ 0x7c
      return HAL_TIMEOUT;
 80075ca:	e7d1      	b.n	8007570 <UART_CheckIdleState+0x4c>
  huart->gState = HAL_UART_STATE_READY;
 80075cc:	2320      	movs	r3, #32
  huart->ReceptionType = HAL_UART_RECEPTION_STANDARD;
 80075ce:	2000      	movs	r0, #0
  huart->gState = HAL_UART_STATE_READY;
 80075d0:	67e3      	str	r3, [r4, #124]	@ 0x7c
  huart->RxState = HAL_UART_STATE_READY;
 80075d2:	67eb      	str	r3, [r5, #124]	@ 0x7c
  huart->ReceptionType = HAL_UART_RECEPTION_STANDARD;
 80075d4:	6620      	str	r0, [r4, #96]	@ 0x60
  huart->RxEventType = HAL_UART_RXEVENT_TC;
 80075d6:	6660      	str	r0, [r4, #100]	@ 0x64
  return HAL_OK;
 80075d8:	e7cb      	b.n	8007572 <UART_CheckIdleState+0x4e>
 80075da:	46c0      	nop			@ (mov r8, r8)
 80075dc:	01ffffff 	.word	0x01ffffff
 80075e0:	fffffedf 	.word	0xfffffedf

080075e4 <HAL_UART_Init>:
{
 80075e4:	b510      	push	{r4, lr}
 80075e6:	1e04      	subs	r4, r0, #0
  if (huart == NULL)
 80075e8:	d101      	bne.n	80075ee <HAL_UART_Init+0xa>
    return HAL_ERROR;
 80075ea:	2001      	movs	r0, #1
}
 80075ec:	bd10      	pop	{r4, pc}
  if (huart->gState == HAL_UART_STATE_RESET)
 80075ee:	6fc3      	ldr	r3, [r0, #124]	@ 0x7c
 80075f0:	2b00      	cmp	r3, #0
 80075f2:	d104      	bne.n	80075fe <HAL_UART_Init+0x1a>
    huart->Lock = HAL_UNLOCKED;
 80075f4:	0002      	movs	r2, r0
 80075f6:	3278      	adds	r2, #120	@ 0x78
 80075f8:	7013      	strb	r3, [r2, #0]
    HAL_UART_MspInit(huart);
 80075fa:	f7fc fb5f 	bl	8003cbc <HAL_UART_MspInit>
  huart->gState = HAL_UART_STATE_BUSY;
 80075fe:	2324      	movs	r3, #36	@ 0x24
  __HAL_UART_DISABLE(huart);
 8007600:	2101      	movs	r1, #1
 8007602:	6822      	ldr	r2, [r4, #0]
  huart->gState = HAL_UART_STATE_BUSY;
 8007604:	67e3      	str	r3, [r4, #124]	@ 0x7c
  __HAL_UART_DISABLE(huart);
 8007606:	6813      	ldr	r3, [r2, #0]
 8007608:	438b      	bics	r3, r1
 800760a:	6013      	str	r3, [r2, #0]
  if (huart->AdvancedInit.AdvFeatureInit != UART_ADVFEATURE_NO_INIT)
 800760c:	6a63      	ldr	r3, [r4, #36]	@ 0x24
 800760e:	2b00      	cmp	r3, #0
 8007610:	d002      	beq.n	8007618 <HAL_UART_Init+0x34>
    UART_AdvFeatureConfig(huart);
 8007612:	0020      	movs	r0, r4
 8007614:	f7ff fe70 	bl	80072f8 <UART_AdvFeatureConfig>
  if (UART_SetConfig(huart) == HAL_ERROR)
 8007618:	0020      	movs	r0, r4
 800761a:	f7ff fde3 	bl	80071e4 <UART_SetConfig>
 800761e:	2801      	cmp	r0, #1
 8007620:	d0e3      	beq.n	80075ea <HAL_UART_Init+0x6>
  CLEAR_BIT(huart->Instance->CR2, USART_CR2_CLKEN);
 8007622:	6823      	ldr	r3, [r4, #0]
 8007624:	4907      	ldr	r1, [pc, #28]	@ (8007644 <HAL_UART_Init+0x60>)
 8007626:	685a      	ldr	r2, [r3, #4]
  return (UART_CheckIdleState(huart));
 8007628:	0020      	movs	r0, r4
  CLEAR_BIT(huart->Instance->CR2, USART_CR2_CLKEN);
 800762a:	400a      	ands	r2, r1
  CLEAR_BIT(huart->Instance->CR3, USART_CR3_HDSEL);
 800762c:	2108      	movs	r1, #8
  CLEAR_BIT(huart->Instance->CR2, USART_CR2_CLKEN);
 800762e:	605a      	str	r2, [r3, #4]
  CLEAR_BIT(huart->Instance->CR3, USART_CR3_HDSEL);
 8007630:	689a      	ldr	r2, [r3, #8]
 8007632:	438a      	bics	r2, r1
 8007634:	609a      	str	r2, [r3, #8]
  __HAL_UART_ENABLE(huart);
 8007636:	2201      	movs	r2, #1
 8007638:	6819      	ldr	r1, [r3, #0]
 800763a:	430a      	orrs	r2, r1
 800763c:	601a      	str	r2, [r3, #0]
  return (UART_CheckIdleState(huart));
 800763e:	f7ff ff71 	bl	8007524 <UART_CheckIdleState>
 8007642:	e7d3      	b.n	80075ec <HAL_UART_Init+0x8>
 8007644:	fffff7ff 	.word	0xfffff7ff

08007648 <UART_Start_Receive_IT>:
  huart->RxXferSize  = Size;
 8007648:	0003      	movs	r3, r0
 800764a:	3358      	adds	r3, #88	@ 0x58
{
 800764c:	b510      	push	{r4, lr}
  huart->pRxBuffPtr  = pData;
 800764e:	6541      	str	r1, [r0, #84]	@ 0x54
  huart->RxXferSize  = Size;
 8007650:	801a      	strh	r2, [r3, #0]
  huart->RxXferCount = Size;
 8007652:	805a      	strh	r2, [r3, #2]
  UART_MASK_COMPUTATION(huart);
 8007654:	2180      	movs	r1, #128	@ 0x80
  huart->RxISR       = NULL;
 8007656:	2300      	movs	r3, #0
  UART_MASK_COMPUTATION(huart);
 8007658:	6882      	ldr	r2, [r0, #8]
  huart->RxISR       = NULL;
 800765a:	6683      	str	r3, [r0, #104]	@ 0x68
  UART_MASK_COMPUTATION(huart);
 800765c:	0149      	lsls	r1, r1, #5
 800765e:	428a      	cmp	r2, r1
 8007660:	d136      	bne.n	80076d0 <UART_Start_Receive_IT+0x88>
 8007662:	6903      	ldr	r3, [r0, #16]
 8007664:	425a      	negs	r2, r3
 8007666:	4153      	adcs	r3, r2
 8007668:	021b      	lsls	r3, r3, #8
 800766a:	33ff      	adds	r3, #255	@ 0xff
 800766c:	0002      	movs	r2, r0
 800766e:	325c      	adds	r2, #92	@ 0x5c
 8007670:	8013      	strh	r3, [r2, #0]
  huart->ErrorCode = HAL_UART_ERROR_NONE;
 8007672:	0003      	movs	r3, r0
 8007674:	2200      	movs	r2, #0
 8007676:	3308      	adds	r3, #8
 8007678:	67da      	str	r2, [r3, #124]	@ 0x7c
  huart->RxState = HAL_UART_STATE_BUSY_RX;
 800767a:	1d03      	adds	r3, r0, #4
 800767c:	3222      	adds	r2, #34	@ 0x22
 800767e:	67da      	str	r2, [r3, #124]	@ 0x7c
  __ASM volatile ("MRS %0, primask" : "=r" (result) :: "memory");
 8007680:	f3ef 8110 	mrs	r1, PRIMASK
  __ASM volatile ("MSR primask, %0" : : "r" (priMask) : "memory");
 8007684:	2301      	movs	r3, #1
 8007686:	f383 8810 	msr	PRIMASK, r3
  ATOMIC_SET_BIT(huart->Instance->CR3, USART_CR3_EIE);
 800768a:	6802      	ldr	r2, [r0, #0]
 800768c:	6894      	ldr	r4, [r2, #8]
 800768e:	4323      	orrs	r3, r4
 8007690:	6093      	str	r3, [r2, #8]
 8007692:	f381 8810 	msr	PRIMASK, r1
  if ((huart->Init.WordLength == UART_WORDLENGTH_9B) && (huart->Init.Parity == UART_PARITY_NONE))
 8007696:	2180      	movs	r1, #128	@ 0x80
 8007698:	6884      	ldr	r4, [r0, #8]
 800769a:	6902      	ldr	r2, [r0, #16]
    huart->RxISR = UART_RxISR_8BIT;
 800769c:	4b14      	ldr	r3, [pc, #80]	@ (80076f0 <UART_Start_Receive_IT+0xa8>)
  if ((huart->Init.WordLength == UART_WORDLENGTH_9B) && (huart->Init.Parity == UART_PARITY_NONE))
 800769e:	0149      	lsls	r1, r1, #5
 80076a0:	428c      	cmp	r4, r1
 80076a2:	d103      	bne.n	80076ac <UART_Start_Receive_IT+0x64>
    huart->RxISR = UART_RxISR_16BIT;
 80076a4:	4b13      	ldr	r3, [pc, #76]	@ (80076f4 <UART_Start_Receive_IT+0xac>)
  if ((huart->Init.WordLength == UART_WORDLENGTH_9B) && (huart->Init.Parity == UART_PARITY_NONE))
 80076a6:	2a00      	cmp	r2, #0
 80076a8:	d000      	beq.n	80076ac <UART_Start_Receive_IT+0x64>
    huart->RxISR = UART_RxISR_8BIT;
 80076aa:	4b11      	ldr	r3, [pc, #68]	@ (80076f0 <UART_Start_Receive_IT+0xa8>)
 80076ac:	6683      	str	r3, [r0, #104]	@ 0x68
  if (huart->Init.Parity != UART_PARITY_NONE)
 80076ae:	2301      	movs	r3, #1
 80076b0:	2a00      	cmp	r2, #0
 80076b2:	d015      	beq.n	80076e0 <UART_Start_Receive_IT+0x98>
  __ASM volatile ("MRS %0, primask" : "=r" (result) :: "memory");
 80076b4:	f3ef 8110 	mrs	r1, PRIMASK
  __ASM volatile ("MSR primask, %0" : : "r" (priMask) : "memory");
 80076b8:	f383 8810 	msr	PRIMASK, r3
    ATOMIC_SET_BIT(huart->Instance->CR1, USART_CR1_PEIE | USART_CR1_RXNEIE);
 80076bc:	6802      	ldr	r2, [r0, #0]
 80076be:	3320      	adds	r3, #32
 80076c0:	6810      	ldr	r0, [r2, #0]
 80076c2:	33ff      	adds	r3, #255	@ 0xff
    ATOMIC_SET_BIT(huart->Instance->CR1, USART_CR1_RXNEIE);
 80076c4:	4303      	orrs	r3, r0
 80076c6:	6013      	str	r3, [r2, #0]
 80076c8:	f381 8810 	msr	PRIMASK, r1
}
 80076cc:	2000      	movs	r0, #0
 80076ce:	bd10      	pop	{r4, pc}
  UART_MASK_COMPUTATION(huart);
 80076d0:	2a00      	cmp	r2, #0
 80076d2:	d1cb      	bne.n	800766c <UART_Start_Receive_IT+0x24>
 80076d4:	6902      	ldr	r2, [r0, #16]
 80076d6:	23ff      	movs	r3, #255	@ 0xff
 80076d8:	2a00      	cmp	r2, #0
 80076da:	d0c7      	beq.n	800766c <UART_Start_Receive_IT+0x24>
 80076dc:	3b80      	subs	r3, #128	@ 0x80
 80076de:	e7c5      	b.n	800766c <UART_Start_Receive_IT+0x24>
  __ASM volatile ("MRS %0, primask" : "=r" (result) :: "memory");
 80076e0:	f3ef 8110 	mrs	r1, PRIMASK
  __ASM volatile ("MSR primask, %0" : : "r" (priMask) : "memory");
 80076e4:	f383 8810 	msr	PRIMASK, r3
    ATOMIC_SET_BIT(huart->Instance->CR1, USART_CR1_RXNEIE);
 80076e8:	6802      	ldr	r2, [r0, #0]
 80076ea:	2320      	movs	r3, #32
 80076ec:	6810      	ldr	r0, [r2, #0]
 80076ee:	e7e9      	b.n	80076c4 <UART_Start_Receive_IT+0x7c>
 80076f0:	0800703d 	.word	0x0800703d
 80076f4:	08007111 	.word	0x08007111

080076f8 <HAL_UART_Receive_IT>:
{
 80076f8:	0003      	movs	r3, r0
  if (huart->RxState == HAL_UART_STATE_READY)
 80076fa:	3004      	adds	r0, #4
{
 80076fc:	b570      	push	{r4, r5, r6, lr}
  if (huart->RxState == HAL_UART_STATE_READY)
 80076fe:	6fc4      	ldr	r4, [r0, #124]	@ 0x7c
    return HAL_BUSY;
 8007700:	2002      	movs	r0, #2
  if (huart->RxState == HAL_UART_STATE_READY)
 8007702:	2c20      	cmp	r4, #32
 8007704:	d125      	bne.n	8007752 <HAL_UART_Receive_IT+0x5a>
      return HAL_ERROR;
 8007706:	3801      	subs	r0, #1
    if ((pData == NULL) || (Size == 0U))
 8007708:	2900      	cmp	r1, #0
 800770a:	d022      	beq.n	8007752 <HAL_UART_Receive_IT+0x5a>
 800770c:	2a00      	cmp	r2, #0
 800770e:	d020      	beq.n	8007752 <HAL_UART_Receive_IT+0x5a>
    if ((huart->Init.WordLength == UART_WORDLENGTH_9B) && (huart->Init.Parity == UART_PARITY_NONE))
 8007710:	2080      	movs	r0, #128	@ 0x80
 8007712:	689c      	ldr	r4, [r3, #8]
 8007714:	0140      	lsls	r0, r0, #5
 8007716:	4284      	cmp	r4, r0
 8007718:	d105      	bne.n	8007726 <HAL_UART_Receive_IT+0x2e>
 800771a:	6918      	ldr	r0, [r3, #16]
 800771c:	2800      	cmp	r0, #0
 800771e:	d102      	bne.n	8007726 <HAL_UART_Receive_IT+0x2e>
      return HAL_ERROR;
 8007720:	3001      	adds	r0, #1
      if ((((uint32_t)pData) & 1U) != 0U)
 8007722:	4201      	tst	r1, r0
 8007724:	d115      	bne.n	8007752 <HAL_UART_Receive_IT+0x5a>
    huart->ReceptionType = HAL_UART_RECEPTION_STANDARD;
 8007726:	2000      	movs	r0, #0
 8007728:	6618      	str	r0, [r3, #96]	@ 0x60
    if (READ_BIT(huart->Instance->CR2, USART_CR2_RTOEN) != 0U)
 800772a:	6818      	ldr	r0, [r3, #0]
 800772c:	6840      	ldr	r0, [r0, #4]
 800772e:	0200      	lsls	r0, r0, #8
 8007730:	d50c      	bpl.n	800774c <HAL_UART_Receive_IT+0x54>
  __ASM volatile ("MRS %0, primask" : "=r" (result) :: "memory");
 8007732:	f3ef 8510 	mrs	r5, PRIMASK
  __ASM volatile ("MSR primask, %0" : : "r" (priMask) : "memory");
 8007736:	2001      	movs	r0, #1
 8007738:	f380 8810 	msr	PRIMASK, r0
      ATOMIC_SET_BIT(huart->Instance->CR1, USART_CR1_RTOIE);
 800773c:	2080      	movs	r0, #128	@ 0x80
 800773e:	681c      	ldr	r4, [r3, #0]
 8007740:	04c0      	lsls	r0, r0, #19
 8007742:	6826      	ldr	r6, [r4, #0]
 8007744:	4330      	orrs	r0, r6
 8007746:	6020      	str	r0, [r4, #0]
 8007748:	f385 8810 	msr	PRIMASK, r5
    return (UART_Start_Receive_IT(huart, pData, Size));
 800774c:	0018      	movs	r0, r3
 800774e:	f7ff ff7b 	bl	8007648 <UART_Start_Receive_IT>
}
 8007752:	bd70      	pop	{r4, r5, r6, pc}

08007754 <memmove>:
 8007754:	b510      	push	{r4, lr}
 8007756:	4288      	cmp	r0, r1
 8007758:	d902      	bls.n	8007760 <memmove+0xc>
 800775a:	188b      	adds	r3, r1, r2
 800775c:	4298      	cmp	r0, r3
 800775e:	d308      	bcc.n	8007772 <memmove+0x1e>
 8007760:	2300      	movs	r3, #0
 8007762:	429a      	cmp	r2, r3
 8007764:	d007      	beq.n	8007776 <memmove+0x22>
 8007766:	5ccc      	ldrb	r4, [r1, r3]
 8007768:	54c4      	strb	r4, [r0, r3]
 800776a:	3301      	adds	r3, #1
 800776c:	e7f9      	b.n	8007762 <memmove+0xe>
 800776e:	5c8b      	ldrb	r3, [r1, r2]
 8007770:	5483      	strb	r3, [r0, r2]
 8007772:	3a01      	subs	r2, #1
 8007774:	d2fb      	bcs.n	800776e <memmove+0x1a>
 8007776:	bd10      	pop	{r4, pc}

08007778 <memset>:
 8007778:	0003      	movs	r3, r0
 800777a:	1882      	adds	r2, r0, r2
 800777c:	4293      	cmp	r3, r2
 800777e:	d100      	bne.n	8007782 <memset+0xa>
 8007780:	4770      	bx	lr
 8007782:	7019      	strb	r1, [r3, #0]
 8007784:	3301      	adds	r3, #1
 8007786:	e7f9      	b.n	800777c <memset+0x4>

08007788 <__libc_init_array>:
 8007788:	b570      	push	{r4, r5, r6, lr}
 800778a:	2600      	movs	r6, #0
 800778c:	4c0c      	ldr	r4, [pc, #48]	@ (80077c0 <__libc_init_array+0x38>)
 800778e:	4d0d      	ldr	r5, [pc, #52]	@ (80077c4 <__libc_init_array+0x3c>)
 8007790:	1b64      	subs	r4, r4, r5
 8007792:	10a4      	asrs	r4, r4, #2
 8007794:	42a6      	cmp	r6, r4
 8007796:	d109      	bne.n	80077ac <__libc_init_array+0x24>
 8007798:	2600      	movs	r6, #0
 800779a:	f000 f823 	bl	80077e4 <_init>
 800779e:	4c0a      	ldr	r4, [pc, #40]	@ (80077c8 <__libc_init_array+0x40>)
 80077a0:	4d0a      	ldr	r5, [pc, #40]	@ (80077cc <__libc_init_array+0x44>)
 80077a2:	1b64      	subs	r4, r4, r5
 80077a4:	10a4      	asrs	r4, r4, #2
 80077a6:	42a6      	cmp	r6, r4
 80077a8:	d105      	bne.n	80077b6 <__libc_init_array+0x2e>
 80077aa:	bd70      	pop	{r4, r5, r6, pc}
 80077ac:	00b3      	lsls	r3, r6, #2
 80077ae:	58eb      	ldr	r3, [r5, r3]
 80077b0:	4798      	blx	r3
 80077b2:	3601      	adds	r6, #1
 80077b4:	e7ee      	b.n	8007794 <__libc_init_array+0xc>
 80077b6:	00b3      	lsls	r3, r6, #2
 80077b8:	58eb      	ldr	r3, [r5, r3]
 80077ba:	4798      	blx	r3
 80077bc:	3601      	adds	r6, #1
 80077be:	e7f2      	b.n	80077a6 <__libc_init_array+0x1e>
 80077c0:	08007b34 	.word	0x08007b34
 80077c4:	08007b34 	.word	0x08007b34
 80077c8:	08007b38 	.word	0x08007b38
 80077cc:	08007b34 	.word	0x08007b34

080077d0 <memcpy>:
 80077d0:	2300      	movs	r3, #0
 80077d2:	b510      	push	{r4, lr}
 80077d4:	429a      	cmp	r2, r3
 80077d6:	d100      	bne.n	80077da <memcpy+0xa>
 80077d8:	bd10      	pop	{r4, pc}
 80077da:	5ccc      	ldrb	r4, [r1, r3]
 80077dc:	54c4      	strb	r4, [r0, r3]
 80077de:	3301      	adds	r3, #1
 80077e0:	e7f8      	b.n	80077d4 <memcpy+0x4>
	...

080077e4 <_init>:
 80077e4:	b5f8      	push	{r3, r4, r5, r6, r7, lr}
 80077e6:	46c0      	nop			@ (mov r8, r8)
 80077e8:	bcf8      	pop	{r3, r4, r5, r6, r7}
 80077ea:	bc08      	pop	{r3}
 80077ec:	469e      	mov	lr, r3
 80077ee:	4770      	bx	lr

080077f0 <_fini>:
 80077f0:	b5f8      	push	{r3, r4, r5, r6, r7, lr}
 80077f2:	46c0      	nop			@ (mov r8, r8)
 80077f4:	bcf8      	pop	{r3, r4, r5, r6, r7}
 80077f6:	bc08      	pop	{r3}
 80077f8:	469e      	mov	lr, r3
 80077fa:	4770      	bx	lr
