
water_bottle_1.elf:     file format elf32-littlearm

Sections:
Idx Name          Size      VMA       LMA       File off  Algn
  0 .isr_vector   000000c0  08000000  08000000  00001000  2**0
                  CONTENTS, ALLOC, LOAD, READONLY, DATA
  1 .text         00007288  080000c0  080000c0  000010c0  2**2
                  CONTENTS, ALLOC, LOAD, READONLY, CODE
  2 .rodata       0000046c  08007348  08007348  00008348  2**2
                  CONTENTS, ALLOC, LOAD, READONLY, DATA
  3 .ARM.extab    00000000  080077b4  080077b4  00009060  2**0
                  CONTENTS, READONLY
  4 .ARM          00000008  080077b4  080077b4  000087b4  2**2
                  CONTENTS, ALLOC, LOAD, READONLY, DATA
  5 .preinit_array 00000000  080077bc  080077bc  00009060  2**0
                  CONTENTS, ALLOC, LOAD, DATA
  6 .init_array   00000004  080077bc  080077bc  000087bc  2**2
                  CONTENTS, ALLOC, LOAD, READONLY, DATA
  7 .fini_array   00000004  080077c0  080077c0  000087c0  2**2
                  CONTENTS, ALLOC, LOAD, READONLY, DATA
  8 .data         00000060  20000000  080077c4  00009000  2**2
                  CONTENTS, ALLOC, LOAD, DATA
  9 .bss          000008fc  20000060  08007824  00009060  2**3
                  ALLOC
 10 ._user_heap_stack 00000604  2000095c  08007824  0000995c  2**0
                  ALLOC
 11 .ARM.attributes 00000028  00000000  00000000  00009060  2**0
                  CONTENTS, READONLY
 12 .debug_info   0002256b  00000000  00000000  00009088  2**0
                  CONTENTS, READONLY, DEBUGGING, OCTETS
 13 .debug_abbrev 00003e48  00000000  00000000  0002b5f3  2**0
                  CONTENTS, READONLY, DEBUGGING, OCTETS
 14 .debug_loclists 00006a7c  00000000  00000000  0002f43b  2**0
                  CONTENTS, READONLY, DEBUGGING, OCTETS
 15 .debug_aranges 00000050  00000000  00000000  00035eb8  2**3
                  CONTENTS, READONLY, DEBUGGING, OCTETS
 16 .debug_rnglists 000010c2  00000000  00000000  00035f08  2**0
                  CONTENTS, READONLY, DEBUGGING, OCTETS
 17 .debug_line   0000a9d5  00000000  00000000  00036fca  2**0
                  CONTENTS, READONLY, DEBUGGING, OCTETS
 18 .debug_str    0006d26a  00000000  00000000  0004199f  2**0
                  CONTENTS, READONLY, DEBUGGING, OCTETS
 19 .comment      00000043  00000000  00000000  000aec09  2**0
                  CONTENTS, READONLY
 20 .debug_frame  00000f3c  00000000  00000000  000aec4c  2**2
                  CONTENTS, READONLY, DEBUGGING, OCTETS
 21 .debug_macro  00014b53  00000000  00000000  000afb88  2**0
                  CONTENTS, READONLY, DEBUGGING, OCTETS
 22 .debug_line_str 00000eb3  00000000  00000000  000c46db  2**0
                  CONTENTS, READONLY, DEBUGGING, OCTETS

Disassembly of section .text:

080000c0 <__do_global_dtors_aux>:
 80000c0:	b510      	push	{r4, lr}
 80000c2:	4c06      	ldr	r4, [pc, #24]	@ (80000dc <__do_global_dtors_aux+0x1c>)
 80000c4:	7823      	ldrb	r3, [r4, #0]
 80000c6:	2b00      	cmp	r3, #0
 80000c8:	d107      	bne.n	80000da <__do_global_dtors_aux+0x1a>
 80000ca:	4b05      	ldr	r3, [pc, #20]	@ (80000e0 <__do_global_dtors_aux+0x20>)
 80000cc:	2b00      	cmp	r3, #0
 80000ce:	d002      	beq.n	80000d6 <__do_global_dtors_aux+0x16>
 80000d0:	4804      	ldr	r0, [pc, #16]	@ (80000e4 <__do_global_dtors_aux+0x24>)
 80000d2:	e000      	b.n	80000d6 <__do_global_dtors_aux+0x16>
 80000d4:	bf00      	nop
 80000d6:	2301      	movs	r3, #1
 80000d8:	7023      	strb	r3, [r4, #0]
 80000da:	bd10      	pop	{r4, pc}
 80000dc:	20000060 	.word	0x20000060
 80000e0:	00000000 	.word	0x00000000
 80000e4:	08007330 	.word	0x08007330

080000e8 <frame_dummy>:
 80000e8:	4b04      	ldr	r3, [pc, #16]	@ (80000fc <frame_dummy+0x14>)
 80000ea:	b510      	push	{r4, lr}
 80000ec:	2b00      	cmp	r3, #0
 80000ee:	d003      	beq.n	80000f8 <frame_dummy+0x10>
 80000f0:	4903      	ldr	r1, [pc, #12]	@ (8000100 <frame_dummy+0x18>)
 80000f2:	4804      	ldr	r0, [pc, #16]	@ (8000104 <frame_dummy+0x1c>)
 80000f4:	e000      	b.n	80000f8 <frame_dummy+0x10>
 80000f6:	bf00      	nop
 80000f8:	bd10      	pop	{r4, pc}
 80000fa:	46c0      	nop			@ (mov r8, r8)
 80000fc:	00000000 	.word	0x00000000
 8000100:	20000064 	.word	0x20000064
 8000104:	08007330 	.word	0x08007330

08000108 <s_u2s>:
    }
}

/* ─── String-command helpers ────────────────────────────────────────────── */
static char *s_u2s(char *d, char *e, uint32_t v)
{
 8000108:	b5f0      	push	{r4, r5, r6, r7, lr}
 800010a:	2400      	movs	r4, #0
 800010c:	b087      	sub	sp, #28
 800010e:	0005      	movs	r5, r0
 8000110:	0016      	movs	r6, r2
 8000112:	9101      	str	r1, [sp, #4]
    char t[11]; uint8_t n = 0;
    if (v == 0) { if (d < e - 1) *d++ = '0'; *d = '\0'; return d; }
    while (v && n < sizeof(t)) { t[n++] = (char)('0' + (v % 10U)); v /= 10U; }
 8000114:	af03      	add	r7, sp, #12
    if (v == 0) { if (d < e - 1) *d++ = '0'; *d = '\0'; return d; }
 8000116:	42a2      	cmp	r2, r4
 8000118:	d10b      	bne.n	8000132 <s_u2s+0x2a>
 800011a:	9b01      	ldr	r3, [sp, #4]
 800011c:	3b01      	subs	r3, #1
 800011e:	4298      	cmp	r0, r3
 8000120:	d202      	bcs.n	8000128 <s_u2s+0x20>
 8000122:	2330      	movs	r3, #48	@ 0x30
 8000124:	3501      	adds	r5, #1
 8000126:	7003      	strb	r3, [r0, #0]
 8000128:	2300      	movs	r3, #0
 800012a:	702b      	strb	r3, [r5, #0]
    while (n && d < e - 1) *d++ = t[--n];
    *d = '\0'; return d;
}
 800012c:	0028      	movs	r0, r5
 800012e:	b007      	add	sp, #28
 8000130:	bdf0      	pop	{r4, r5, r6, r7, pc}
    while (v && n < sizeof(t)) { t[n++] = (char)('0' + (v % 10U)); v /= 10U; }
 8000132:	0030      	movs	r0, r6
 8000134:	210a      	movs	r1, #10
 8000136:	f005 f841 	bl	80051bc <__aeabi_uidivmod>
 800013a:	3130      	adds	r1, #48	@ 0x30
 800013c:	55e1      	strb	r1, [r4, r7]
 800013e:	0030      	movs	r0, r6
 8000140:	210a      	movs	r1, #10
 8000142:	9600      	str	r6, [sp, #0]
 8000144:	f004 ffb4 	bl	80050b0 <__udivsi3>
 8000148:	9b00      	ldr	r3, [sp, #0]
 800014a:	0006      	movs	r6, r0
 800014c:	3401      	adds	r4, #1
 800014e:	2b09      	cmp	r3, #9
 8000150:	d912      	bls.n	8000178 <s_u2s+0x70>
 8000152:	2c0b      	cmp	r4, #11
 8000154:	d1ed      	bne.n	8000132 <s_u2s+0x2a>
    while (n && d < e - 1) *d++ = t[--n];
 8000156:	9a01      	ldr	r2, [sp, #4]
 8000158:	002b      	movs	r3, r5
 800015a:	3a01      	subs	r2, #1
 800015c:	e004      	b.n	8000168 <s_u2s+0x60>
 800015e:	3c01      	subs	r4, #1
 8000160:	b2e4      	uxtb	r4, r4
 8000162:	5d39      	ldrb	r1, [r7, r4]
 8000164:	7019      	strb	r1, [r3, #0]
 8000166:	3301      	adds	r3, #1
 8000168:	001d      	movs	r5, r3
 800016a:	2c00      	cmp	r4, #0
 800016c:	d001      	beq.n	8000172 <s_u2s+0x6a>
 800016e:	4293      	cmp	r3, r2
 8000170:	d3f5      	bcc.n	800015e <s_u2s+0x56>
    *d = '\0'; return d;
 8000172:	2200      	movs	r2, #0
 8000174:	701a      	strb	r2, [r3, #0]
 8000176:	e7d9      	b.n	800012c <s_u2s+0x24>
    while (v && n < sizeof(t)) { t[n++] = (char)('0' + (v % 10U)); v /= 10U; }
 8000178:	b2e4      	uxtb	r4, r4
 800017a:	e7ec      	b.n	8000156 <s_u2s+0x4e>

0800017c <s_i2s>:

static char *s_i2s(char *d, char *e, int32_t v)
{
 800017c:	b510      	push	{r4, lr}
    if (v < 0) { if (d < e - 1) *d++ = '-'; return s_u2s(d, e, (uint32_t)(-(int64_t)v)); }
 800017e:	2a00      	cmp	r2, #0
 8000180:	da06      	bge.n	8000190 <s_i2s+0x14>
 8000182:	1e4b      	subs	r3, r1, #1
 8000184:	4298      	cmp	r0, r3
 8000186:	d202      	bcs.n	800018e <s_i2s+0x12>
 8000188:	232d      	movs	r3, #45	@ 0x2d
 800018a:	7003      	strb	r3, [r0, #0]
 800018c:	3001      	adds	r0, #1
 800018e:	4252      	negs	r2, r2
    return s_u2s(d, e, (uint32_t)v);
 8000190:	f7ff ffba 	bl	8000108 <s_u2s>
}
 8000194:	bd10      	pop	{r4, pc}

08000196 <s_app>:

static char *s_app(char *d, char *e, const char *s)
{
    while (*s && d < e - 1) *d++ = *s++;
 8000196:	3901      	subs	r1, #1
 8000198:	7813      	ldrb	r3, [r2, #0]
 800019a:	2b00      	cmp	r3, #0
 800019c:	d001      	beq.n	80001a2 <s_app+0xc>
 800019e:	4288      	cmp	r0, r1
 80001a0:	d302      	bcc.n	80001a8 <s_app+0x12>
    *d = '\0'; return d;
 80001a2:	2300      	movs	r3, #0
 80001a4:	7003      	strb	r3, [r0, #0]
}
 80001a6:	4770      	bx	lr
    while (*s && d < e - 1) *d++ = *s++;
 80001a8:	7003      	strb	r3, [r0, #0]
 80001aa:	3201      	adds	r2, #1
 80001ac:	3001      	adds	r0, #1
 80001ae:	e7f3      	b.n	8000198 <s_app+0x2>

080001b0 <s_csv>:

/* Tightened s_csv: single forward scan to first comma, then parse values */
static int s_csv(const char *s, int *out, int max)
{
 80001b0:	0003      	movs	r3, r0
 80001b2:	b5f0      	push	{r4, r5, r6, r7, lr}
    while (*s && *s != ',') s++;
 80001b4:	7818      	ldrb	r0, [r3, #0]
 80001b6:	2800      	cmp	r0, #0
 80001b8:	d02a      	beq.n	8000210 <s_csv+0x60>
 80001ba:	3301      	adds	r3, #1
 80001bc:	282c      	cmp	r0, #44	@ 0x2c
 80001be:	d1f9      	bne.n	80001b4 <s_csv+0x4>
    if (*s != ',') return 0;
    s++;
    int c = 0;
    while (*s && c < max) {
 80001c0:	2500      	movs	r5, #0
 80001c2:	e01f      	b.n	8000204 <s_csv+0x54>
        while (*s == ' ') s++;
 80001c4:	3301      	adds	r3, #1
 80001c6:	781e      	ldrb	r6, [r3, #0]
 80001c8:	2e20      	cmp	r6, #32
 80001ca:	d0fb      	beq.n	80001c4 <s_csv+0x14>
        int neg = (*s == '-'); if (neg) s++;
 80001cc:	0034      	movs	r4, r6
 80001ce:	3c2d      	subs	r4, #45	@ 0x2d
 80001d0:	0027      	movs	r7, r4
 80001d2:	427c      	negs	r4, r7
 80001d4:	417c      	adcs	r4, r7
 80001d6:	191b      	adds	r3, r3, r4
        if (*s < '0' || *s > '9') break;
 80001d8:	781c      	ldrb	r4, [r3, #0]
 80001da:	3c30      	subs	r4, #48	@ 0x30
 80001dc:	2c09      	cmp	r4, #9
 80001de:	d817      	bhi.n	8000210 <s_csv+0x60>
        int32_t v = 0;
 80001e0:	2000      	movs	r0, #0
        while (*s >= '0' && *s <= '9') { v = v * 10 + (*s++ - '0'); }
 80001e2:	781c      	ldrb	r4, [r3, #0]
 80001e4:	3c30      	subs	r4, #48	@ 0x30
 80001e6:	b2e7      	uxtb	r7, r4
 80001e8:	2f09      	cmp	r7, #9
 80001ea:	d912      	bls.n	8000212 <s_csv+0x62>
        out[c++] = neg ? (int)(-v) : (int)v;
 80001ec:	2e2d      	cmp	r6, #45	@ 0x2d
 80001ee:	d100      	bne.n	80001f2 <s_csv+0x42>
 80001f0:	4240      	negs	r0, r0
 80001f2:	00ac      	lsls	r4, r5, #2
 80001f4:	5108      	str	r0, [r1, r4]
        while (*s && *s != ',') s++;
 80001f6:	7818      	ldrb	r0, [r3, #0]
 80001f8:	2800      	cmp	r0, #0
 80001fa:	d002      	beq.n	8000202 <s_csv+0x52>
 80001fc:	3301      	adds	r3, #1
 80001fe:	282c      	cmp	r0, #44	@ 0x2c
 8000200:	d1f9      	bne.n	80001f6 <s_csv+0x46>
 8000202:	3501      	adds	r5, #1
    while (*s && c < max) {
 8000204:	781c      	ldrb	r4, [r3, #0]
 8000206:	0028      	movs	r0, r5
 8000208:	2c00      	cmp	r4, #0
 800020a:	d001      	beq.n	8000210 <s_csv+0x60>
 800020c:	4295      	cmp	r5, r2
 800020e:	d1da      	bne.n	80001c6 <s_csv+0x16>
        if (*s == ',') s++;
    }
    return c;
}
 8000210:	bdf0      	pop	{r4, r5, r6, r7, pc}
        while (*s >= '0' && *s <= '9') { v = v * 10 + (*s++ - '0'); }
 8000212:	270a      	movs	r7, #10
 8000214:	4378      	muls	r0, r7
 8000216:	3301      	adds	r3, #1
 8000218:	1820      	adds	r0, r4, r0
 800021a:	e7e2      	b.n	80001e2 <s_csv+0x32>

0800021c <Buzzer_ToneOff>:
    s_tone_on = 1;
}

static void Buzzer_ToneOff(void)
{
    if (!s_htim) return;
 800021c:	4818      	ldr	r0, [pc, #96]	@ (8000280 <Buzzer_ToneOff+0x64>)
{
 800021e:	b530      	push	{r4, r5, lr}
    if (!s_htim) return;
 8000220:	6802      	ldr	r2, [r0, #0]
 8000222:	2a00      	cmp	r2, #0
 8000224:	d02b      	beq.n	800027e <Buzzer_ToneOff+0x62>
  assert_param(IS_TIM_CHANNELS(Channel));

  tmp = TIM_CCER_CC1E << (Channel & 0x1FU); /* 0x1FU = 31 bits max shift */

  /* Reset the CCxE Bit */
  TIMx->CCER &= ~tmp;
 8000226:	2410      	movs	r4, #16
  TIM_CCxChannelCmd(htim->Instance, Channel, TIM_CCx_DISABLE);
 8000228:	6813      	ldr	r3, [r2, #0]
  TIMx->CCER &= ~tmp;
 800022a:	6a19      	ldr	r1, [r3, #32]
 800022c:	43a1      	bics	r1, r4
 800022e:	6219      	str	r1, [r3, #32]

  /* Set or reset the CCxE Bit */
  TIMx->CCER |= (uint32_t)(ChannelState << (Channel & 0x1FU)); /* 0x1FU = 31 bits max shift */
 8000230:	6a19      	ldr	r1, [r3, #32]
 8000232:	4c14      	ldr	r4, [pc, #80]	@ (8000284 <Buzzer_ToneOff+0x68>)
 8000234:	6219      	str	r1, [r3, #32]
  if (IS_TIM_BREAK_INSTANCE(htim->Instance) != RESET)
 8000236:	4914      	ldr	r1, [pc, #80]	@ (8000288 <Buzzer_ToneOff+0x6c>)
 8000238:	428b      	cmp	r3, r1
 800023a:	d005      	beq.n	8000248 <Buzzer_ToneOff+0x2c>
 800023c:	4913      	ldr	r1, [pc, #76]	@ (800028c <Buzzer_ToneOff+0x70>)
 800023e:	428b      	cmp	r3, r1
 8000240:	d002      	beq.n	8000248 <Buzzer_ToneOff+0x2c>
 8000242:	4913      	ldr	r1, [pc, #76]	@ (8000290 <Buzzer_ToneOff+0x74>)
 8000244:	428b      	cmp	r3, r1
 8000246:	d10a      	bne.n	800025e <Buzzer_ToneOff+0x42>
    __HAL_TIM_MOE_DISABLE(htim);
 8000248:	6a19      	ldr	r1, [r3, #32]
 800024a:	4221      	tst	r1, r4
 800024c:	d107      	bne.n	800025e <Buzzer_ToneOff+0x42>
 800024e:	6a1d      	ldr	r5, [r3, #32]
 8000250:	4910      	ldr	r1, [pc, #64]	@ (8000294 <Buzzer_ToneOff+0x78>)
 8000252:	420d      	tst	r5, r1
 8000254:	d103      	bne.n	800025e <Buzzer_ToneOff+0x42>
 8000256:	6c59      	ldr	r1, [r3, #68]	@ 0x44
 8000258:	4d0f      	ldr	r5, [pc, #60]	@ (8000298 <Buzzer_ToneOff+0x7c>)
 800025a:	4029      	ands	r1, r5
 800025c:	6459      	str	r1, [r3, #68]	@ 0x44
  __HAL_TIM_DISABLE(htim);
 800025e:	6a19      	ldr	r1, [r3, #32]
 8000260:	4221      	tst	r1, r4
 8000262:	d107      	bne.n	8000274 <Buzzer_ToneOff+0x58>
 8000264:	6a1c      	ldr	r4, [r3, #32]
 8000266:	490b      	ldr	r1, [pc, #44]	@ (8000294 <Buzzer_ToneOff+0x78>)
 8000268:	420c      	tst	r4, r1
 800026a:	d103      	bne.n	8000274 <Buzzer_ToneOff+0x58>
 800026c:	2401      	movs	r4, #1
 800026e:	6819      	ldr	r1, [r3, #0]
 8000270:	43a1      	bics	r1, r4
 8000272:	6019      	str	r1, [r3, #0]
  TIM_CHANNEL_STATE_SET(htim, Channel, HAL_TIM_CHANNEL_STATE_READY);
 8000274:	2301      	movs	r3, #1
 8000276:	323f      	adds	r2, #63	@ 0x3f
 8000278:	7013      	strb	r3, [r2, #0]
    HAL_TIM_PWM_Stop(s_htim, TIM_CHANNEL_2);
    s_tone_on = 0;
 800027a:	2300      	movs	r3, #0
 800027c:	7103      	strb	r3, [r0, #4]
}
 800027e:	bd30      	pop	{r4, r5, pc}
 8000280:	20000080 	.word	0x20000080
 8000284:	00001111 	.word	0x00001111
 8000288:	40012c00 	.word	0x40012c00
 800028c:	40014400 	.word	0x40014400
 8000290:	40014800 	.word	0x40014800
 8000294:	00000444 	.word	0x00000444
 8000298:	ffff7fff 	.word	0xffff7fff

0800029c <Buzzer_Stop>:
    htim->Instance->EGR = TIM_EGR_UG;
    Buzzer_ToneOff();
}

void Buzzer_Stop(void)
{
 800029c:	b510      	push	{r4, lr}
    Buzzer_ToneOff();
 800029e:	f7ff ffbd 	bl	800021c <Buzzer_ToneOff>
    s_steps   = NULL;
 80002a2:	2200      	movs	r2, #0
 80002a4:	4b01      	ldr	r3, [pc, #4]	@ (80002ac <Buzzer_Stop+0x10>)
 80002a6:	609a      	str	r2, [r3, #8]
    s_busy    = 0;
 80002a8:	731a      	strb	r2, [r3, #12]
}
 80002aa:	bd10      	pop	{r4, pc}
 80002ac:	20000080 	.word	0x20000080

080002b0 <HAL_TIM_Base_MspInit>:
  * @param htim_base: TIM_Base handle pointer
  * @retval None
  */
void HAL_TIM_Base_MspInit(TIM_HandleTypeDef* htim_base)
{
  if(htim_base->Instance==TIM1)
 80002b0:	6803      	ldr	r3, [r0, #0]
 80002b2:	4a22      	ldr	r2, [pc, #136]	@ (800033c <HAL_TIM_Base_MspInit+0x8c>)
{
 80002b4:	b573      	push	{r0, r1, r4, r5, r6, lr}
  if(htim_base->Instance==TIM1)
 80002b6:	4293      	cmp	r3, r2
 80002b8:	d133      	bne.n	8000322 <HAL_TIM_Base_MspInit+0x72>
  {
    /* USER CODE BEGIN TIM1_MspInit 0 */

    /* USER CODE END TIM1_MspInit 0 */
    /* Peripheral clock enable */
    __HAL_RCC_TIM1_CLK_ENABLE();
 80002ba:	2180      	movs	r1, #128	@ 0x80
    /* TIM1 DMA Init */
    /* TIM1_CH1 Init */
    hdma_tim1_ch1.Instance = DMA1_Channel2;
    hdma_tim1_ch1.Init.Direction = DMA_MEMORY_TO_PERIPH; /* FIX: was DMA_PERIPH_TO_MEMORY — must be MEM->PERIPH for WS2812B */
    hdma_tim1_ch1.Init.PeriphInc = DMA_PINC_DISABLE;
    hdma_tim1_ch1.Init.MemInc = DMA_MINC_ENABLE;
 80002bc:	2480      	movs	r4, #128	@ 0x80
    __HAL_RCC_TIM1_CLK_ENABLE();
 80002be:	4b20      	ldr	r3, [pc, #128]	@ (8000340 <HAL_TIM_Base_MspInit+0x90>)
 80002c0:	0109      	lsls	r1, r1, #4
 80002c2:	699a      	ldr	r2, [r3, #24]
 80002c4:	430a      	orrs	r2, r1
 80002c6:	619a      	str	r2, [r3, #24]
 80002c8:	699b      	ldr	r3, [r3, #24]
    hdma_tim1_ch1.Init.Direction = DMA_MEMORY_TO_PERIPH; /* FIX: was DMA_PERIPH_TO_MEMORY — must be MEM->PERIPH for WS2812B */
 80002ca:	2210      	movs	r2, #16
    __HAL_RCC_TIM1_CLK_ENABLE();
 80002cc:	400b      	ands	r3, r1
 80002ce:	9301      	str	r3, [sp, #4]
 80002d0:	9b01      	ldr	r3, [sp, #4]
    hdma_tim1_ch1.Instance = DMA1_Channel2;
 80002d2:	4b1c      	ldr	r3, [pc, #112]	@ (8000344 <HAL_TIM_Base_MspInit+0x94>)
 80002d4:	491c      	ldr	r1, [pc, #112]	@ (8000348 <HAL_TIM_Base_MspInit+0x98>)
    hdma_tim1_ch1.Init.MemInc = DMA_MINC_ENABLE;
 80002d6:	61dc      	str	r4, [r3, #28]
    hdma_tim1_ch1.Init.PeriphDataAlignment = DMA_PDATAALIGN_HALFWORD;
 80002d8:	1924      	adds	r4, r4, r4
 80002da:	621c      	str	r4, [r3, #32]
    hdma_tim1_ch1.Init.MemDataAlignment = DMA_MDATAALIGN_HALFWORD;
 80002dc:	2480      	movs	r4, #128	@ 0x80
  assert_param(IS_DMA_MEMORY_DATA_SIZE(hdma->Init.MemDataAlignment));
  assert_param(IS_DMA_MODE(hdma->Init.Mode));
  assert_param(IS_DMA_PRIORITY(hdma->Init.Priority));

  /* Change DMA peripheral state */
  hdma->State = HAL_DMA_STATE_BUSY;
 80002de:	001e      	movs	r6, r3
 80002e0:	00e4      	lsls	r4, r4, #3
    hdma_tim1_ch1.Init.Direction = DMA_MEMORY_TO_PERIPH; /* FIX: was DMA_PERIPH_TO_MEMORY — must be MEM->PERIPH for WS2812B */
 80002e2:	615a      	str	r2, [r3, #20]
    hdma_tim1_ch1.Init.MemDataAlignment = DMA_MDATAALIGN_HALFWORD;
 80002e4:	625c      	str	r4, [r3, #36]	@ 0x24
    hdma_tim1_ch1.Init.PeriphInc = DMA_PINC_DISABLE;
 80002e6:	2200      	movs	r2, #0
 80002e8:	2402      	movs	r4, #2
 80002ea:	3631      	adds	r6, #49	@ 0x31
 80002ec:	7034      	strb	r4, [r6, #0]
 80002ee:	619a      	str	r2, [r3, #24]
    hdma_tim1_ch1.Init.Mode = DMA_NORMAL;
 80002f0:	629a      	str	r2, [r3, #40]	@ 0x28
    hdma_tim1_ch1.Init.Priority = DMA_PRIORITY_LOW;
 80002f2:	62da      	str	r2, [r3, #44]	@ 0x2c

  /* Get the CR register value */
  tmp = hdma->Instance->CCR;
 80002f4:	680d      	ldr	r5, [r1, #0]

  /* Clear PL, MSIZE, PSIZE, MINC, PINC, CIRC, DIR bits */
  tmp &= ((uint32_t)~(DMA_CCR_PL    | DMA_CCR_MSIZE  | DMA_CCR_PSIZE  | \
 80002f6:	4c15      	ldr	r4, [pc, #84]	@ (800034c <HAL_TIM_Base_MspInit+0x9c>)
    hdma_tim1_ch1.Instance = DMA1_Channel2;
 80002f8:	6119      	str	r1, [r3, #16]
 80002fa:	4025      	ands	r5, r4
                      DMA_CCR_MINC  | DMA_CCR_PINC   | DMA_CCR_CIRC   | \
                      DMA_CCR_DIR));

  /* Prepare the DMA Channel configuration */
  tmp |=  hdma->Init.Direction        |
 80002fc:	24b2      	movs	r4, #178	@ 0xb2
 80002fe:	00e4      	lsls	r4, r4, #3
 8000300:	432c      	orrs	r4, r5
          hdma->Init.PeriphInc           | hdma->Init.MemInc           |
          hdma->Init.PeriphDataAlignment | hdma->Init.MemDataAlignment |
          hdma->Init.Mode                | hdma->Init.Priority;

  /* Write to DMA Channel CR register */
  hdma->Instance->CCR = tmp;
 8000302:	600c      	str	r4, [r1, #0]
    hdma->DmaBaseAddress = DMA2;
  }
#else
  /* calculation of the channel index */
  /* DMA1 */
  hdma->ChannelIndex = (((uint32_t)hdma->Instance - (uint32_t)DMA1_Channel1) / ((uint32_t)DMA1_Channel2 - (uint32_t)DMA1_Channel1)) << 2U;
 8000304:	2104      	movs	r1, #4
 8000306:	6519      	str	r1, [r3, #80]	@ 0x50
  hdma->DmaBaseAddress = DMA1;
 8000308:	4911      	ldr	r1, [pc, #68]	@ (8000350 <HAL_TIM_Base_MspInit+0xa0>)
  hdma->ErrorCode = HAL_DMA_ERROR_NONE;
 800030a:	649a      	str	r2, [r3, #72]	@ 0x48
  hdma->DmaBaseAddress = DMA1;
 800030c:	64d9      	str	r1, [r3, #76]	@ 0x4c
  hdma->State = HAL_DMA_STATE_READY;
 800030e:	2101      	movs	r1, #1
  hdma->Lock = HAL_UNLOCKED;
 8000310:	001c      	movs	r4, r3
  hdma->State = HAL_DMA_STATE_READY;
 8000312:	7031      	strb	r1, [r6, #0]
  hdma->Lock = HAL_UNLOCKED;
 8000314:	0019      	movs	r1, r3
 8000316:	3430      	adds	r4, #48	@ 0x30
 8000318:	3110      	adds	r1, #16
    if (HAL_DMA_Init(&hdma_tim1_ch1) != HAL_OK)
    {
      Error_Handler();
    }

    __HAL_LINKDMA(htim_base,hdma[TIM_DMA_ID_CC1],hdma_tim1_ch1);
 800031a:	6241      	str	r1, [r0, #36]	@ 0x24
 800031c:	7022      	strb	r2, [r4, #0]
 800031e:	6358      	str	r0, [r3, #52]	@ 0x34
    /* USER CODE BEGIN TIM3_MspInit 1 */

    /* USER CODE END TIM3_MspInit 1 */
  }

}
 8000320:	bd73      	pop	{r0, r1, r4, r5, r6, pc}
  else if(htim_base->Instance==TIM3)
 8000322:	4a0c      	ldr	r2, [pc, #48]	@ (8000354 <HAL_TIM_Base_MspInit+0xa4>)
 8000324:	4293      	cmp	r3, r2
 8000326:	d1fb      	bne.n	8000320 <HAL_TIM_Base_MspInit+0x70>
    __HAL_RCC_TIM3_CLK_ENABLE();
 8000328:	2102      	movs	r1, #2
 800032a:	4b05      	ldr	r3, [pc, #20]	@ (8000340 <HAL_TIM_Base_MspInit+0x90>)
 800032c:	69da      	ldr	r2, [r3, #28]
 800032e:	430a      	orrs	r2, r1
 8000330:	61da      	str	r2, [r3, #28]
 8000332:	69db      	ldr	r3, [r3, #28]
 8000334:	400b      	ands	r3, r1
 8000336:	9300      	str	r3, [sp, #0]
 8000338:	9b00      	ldr	r3, [sp, #0]
}
 800033a:	e7f1      	b.n	8000320 <HAL_TIM_Base_MspInit+0x70>
 800033c:	40012c00 	.word	0x40012c00
 8000340:	40021000 	.word	0x40021000
 8000344:	20000080 	.word	0x20000080
 8000348:	4002001c 	.word	0x4002001c
 800034c:	ffffc00f 	.word	0xffffc00f
 8000350:	40020000 	.word	0x40020000
 8000354:	40000400 	.word	0x40000400

08000358 <WS2812B_SetAll>:
    (void)htim;
}

/* ─── Pixel setters (dirty flag only — no shadow copy) ──────────────────── */
void WS2812B_SetAll(RGB_t color)
{
 8000358:	b5f0      	push	{r4, r5, r6, r7, lr}
    for (uint8_t i = 0; i < WS2812B_NUM_LEDS; i++) {
        if (s_leds[i].r != color.r || s_leds[i].g != color.g ||
            s_leds[i].b != color.b) { s_dirty = 1; }
 800035a:	2600      	movs	r6, #0
 800035c:	2701      	movs	r7, #1
{
 800035e:	0a03      	lsrs	r3, r0, #8
 8000360:	b085      	sub	sp, #20
        if (s_leds[i].r != color.r || s_leds[i].g != color.g ||
 8000362:	b2db      	uxtb	r3, r3
 8000364:	9301      	str	r3, [sp, #4]
 8000366:	4b13      	ldr	r3, [pc, #76]	@ (80003b4 <WS2812B_SetAll+0x5c>)
{
 8000368:	0c05      	lsrs	r5, r0, #16
        if (s_leds[i].r != color.r || s_leds[i].g != color.g ||
 800036a:	b2c2      	uxtb	r2, r0
 800036c:	4c12      	ldr	r4, [pc, #72]	@ (80003b8 <WS2812B_SetAll+0x60>)
{
 800036e:	9003      	str	r0, [sp, #12]
        if (s_leds[i].r != color.r || s_leds[i].g != color.g ||
 8000370:	9200      	str	r2, [sp, #0]
            s_leds[i].b != color.b) { s_dirty = 1; }
 8000372:	b2ed      	uxtb	r5, r5
 8000374:	9302      	str	r3, [sp, #8]
        if (s_leds[i].r != color.r || s_leds[i].g != color.g ||
 8000376:	7823      	ldrb	r3, [r4, #0]
 8000378:	9a00      	ldr	r2, [sp, #0]
 800037a:	4293      	cmp	r3, r2
 800037c:	d116      	bne.n	80003ac <WS2812B_SetAll+0x54>
 800037e:	7863      	ldrb	r3, [r4, #1]
 8000380:	9a01      	ldr	r2, [sp, #4]
 8000382:	4293      	cmp	r3, r2
 8000384:	d112      	bne.n	80003ac <WS2812B_SetAll+0x54>
 8000386:	78a3      	ldrb	r3, [r4, #2]
 8000388:	42ab      	cmp	r3, r5
 800038a:	d111      	bne.n	80003b0 <WS2812B_SetAll+0x58>
        s_leds[i] = color;
 800038c:	0020      	movs	r0, r4
 800038e:	2203      	movs	r2, #3
 8000390:	a903      	add	r1, sp, #12
 8000392:	f006 ffc3 	bl	800731c <memcpy>
    for (uint8_t i = 0; i < WS2812B_NUM_LEDS; i++) {
 8000396:	9b02      	ldr	r3, [sp, #8]
 8000398:	3403      	adds	r4, #3
 800039a:	429c      	cmp	r4, r3
 800039c:	d1eb      	bne.n	8000376 <WS2812B_SetAll+0x1e>
 800039e:	2e00      	cmp	r6, #0
 80003a0:	d002      	beq.n	80003a8 <WS2812B_SetAll+0x50>
 80003a2:	2201      	movs	r2, #1
 80003a4:	4b05      	ldr	r3, [pc, #20]	@ (80003bc <WS2812B_SetAll+0x64>)
 80003a6:	701a      	strb	r2, [r3, #0]
    }
}
 80003a8:	b005      	add	sp, #20
 80003aa:	bdf0      	pop	{r4, r5, r6, r7, pc}
 80003ac:	003e      	movs	r6, r7
 80003ae:	e7ed      	b.n	800038c <WS2812B_SetAll+0x34>
 80003b0:	2601      	movs	r6, #1
 80003b2:	e7eb      	b.n	800038c <WS2812B_SetAll+0x34>
 80003b4:	200000f2 	.word	0x200000f2
 80003b8:	200000d4 	.word	0x200000d4
 80003bc:	20000000 	.word	0x20000000

080003c0 <WS2812B_SetPixel>:

void WS2812B_SetPixel(uint8_t idx, RGB_t color)
{
 80003c0:	b573      	push	{r0, r1, r4, r5, r6, lr}
 80003c2:	ac01      	add	r4, sp, #4
 80003c4:	9101      	str	r1, [sp, #4]
    if (idx >= WS2812B_NUM_LEDS) return;
 80003c6:	280a      	cmp	r0, #10
 80003c8:	d01a      	beq.n	8000400 <WS2812B_SetPixel+0x40>
    if (s_leds[idx].r != color.r || s_leds[idx].g != color.g ||
 80003ca:	2103      	movs	r1, #3
 80003cc:	4341      	muls	r1, r0
 80003ce:	4a0d      	ldr	r2, [pc, #52]	@ (8000404 <WS2812B_SetPixel+0x44>)
 80003d0:	7825      	ldrb	r5, [r4, #0]
 80003d2:	5c8e      	ldrb	r6, [r1, r2]
 80003d4:	4b0c      	ldr	r3, [pc, #48]	@ (8000408 <WS2812B_SetPixel+0x48>)
 80003d6:	42ae      	cmp	r6, r5
 80003d8:	d108      	bne.n	80003ec <WS2812B_SetPixel+0x2c>
 80003da:	1852      	adds	r2, r2, r1
 80003dc:	7855      	ldrb	r5, [r2, #1]
 80003de:	7861      	ldrb	r1, [r4, #1]
 80003e0:	428d      	cmp	r5, r1
 80003e2:	d103      	bne.n	80003ec <WS2812B_SetPixel+0x2c>
 80003e4:	7891      	ldrb	r1, [r2, #2]
 80003e6:	78a2      	ldrb	r2, [r4, #2]
 80003e8:	4291      	cmp	r1, r2
 80003ea:	d002      	beq.n	80003f2 <WS2812B_SetPixel+0x32>
        s_leds[idx].b != color.b) { s_dirty = 1; }
 80003ec:	2101      	movs	r1, #1
 80003ee:	4a07      	ldr	r2, [pc, #28]	@ (800040c <WS2812B_SetPixel+0x4c>)
 80003f0:	7011      	strb	r1, [r2, #0]
    s_leds[idx] = color;
 80003f2:	2203      	movs	r2, #3
 80003f4:	4350      	muls	r0, r2
 80003f6:	1818      	adds	r0, r3, r0
 80003f8:	0021      	movs	r1, r4
 80003fa:	3054      	adds	r0, #84	@ 0x54
 80003fc:	f006 ff8e 	bl	800731c <memcpy>
}
 8000400:	bd73      	pop	{r0, r1, r4, r5, r6, pc}
 8000402:	46c0      	nop			@ (mov r8, r8)
 8000404:	200000d4 	.word	0x200000d4
 8000408:	20000080 	.word	0x20000080
 800040c:	20000000 	.word	0x20000000

08000410 <WS2812B_SetPattern>:

/* ─── Pattern control ────────────────────────────────────────────────────── */
void WS2812B_SetPattern(LED_Pattern_t pattern)
{
    if (s_pattern == pattern) return;
 8000410:	4a08      	ldr	r2, [pc, #32]	@ (8000434 <WS2812B_SetPattern+0x24>)
 8000412:	4b09      	ldr	r3, [pc, #36]	@ (8000438 <WS2812B_SetPattern+0x28>)
 8000414:	7811      	ldrb	r1, [r2, #0]
 8000416:	4281      	cmp	r1, r0
 8000418:	d00b      	beq.n	8000432 <WS2812B_SetPattern+0x22>
    s_pattern      = pattern;
 800041a:	7010      	strb	r0, [r2, #0]
  *       implementations in user file.
  * @retval tick value
  */
__weak uint32_t HAL_GetTick(void)
{
  return uwTick;
 800041c:	6f5a      	ldr	r2, [r3, #116]	@ 0x74
    s_pattern_tick = HAL_GetTick();
 800041e:	679a      	str	r2, [r3, #120]	@ 0x78
 8000420:	6f5a      	ldr	r2, [r3, #116]	@ 0x74
    s_blink_tick   = HAL_GetTick();
 8000422:	67da      	str	r2, [r3, #124]	@ 0x7c
    s_sweep_pos    = 0;
 8000424:	2200      	movs	r2, #0
 8000426:	4b05      	ldr	r3, [pc, #20]	@ (800043c <WS2812B_SetPattern+0x2c>)
 8000428:	701a      	strb	r2, [r3, #0]
    s_wave_pos     = 0;
 800042a:	705a      	strb	r2, [r3, #1]
    s_dirty        = 1;
 800042c:	4b04      	ldr	r3, [pc, #16]	@ (8000440 <WS2812B_SetPattern+0x30>)
 800042e:	3201      	adds	r2, #1
 8000430:	701a      	strb	r2, [r3, #0]
}
 8000432:	4770      	bx	lr
 8000434:	200000f2 	.word	0x200000f2
 8000438:	20000080 	.word	0x20000080
 800043c:	20000100 	.word	0x20000100
 8000440:	20000000 	.word	0x20000000

08000444 <WS2812B_SetChargingLevel>:

void WS2812B_SetLampColor(RGB_t color)        { s_lamp_color    = color; }
void WS2812B_SetCustomReminderColor(RGB_t c)   { s_custom_remind = c;    }
void WS2812B_SetChargingLevel(uint8_t pct)
{
    if (pct != s_charge_pct) s_dirty = 1;
 8000444:	4a04      	ldr	r2, [pc, #16]	@ (8000458 <WS2812B_SetChargingLevel+0x14>)
 8000446:	7893      	ldrb	r3, [r2, #2]
 8000448:	4283      	cmp	r3, r0
 800044a:	d002      	beq.n	8000452 <WS2812B_SetChargingLevel+0xe>
 800044c:	2101      	movs	r1, #1
 800044e:	4b03      	ldr	r3, [pc, #12]	@ (800045c <WS2812B_SetChargingLevel+0x18>)
 8000450:	7019      	strb	r1, [r3, #0]
    s_charge_pct = pct;
 8000452:	7090      	strb	r0, [r2, #2]
}
 8000454:	4770      	bx	lr
 8000456:	46c0      	nop			@ (mov r8, r8)
 8000458:	20000100 	.word	0x20000100
 800045c:	20000000 	.word	0x20000000

08000460 <HAL_Delay>:
 8000460:	4a03      	ldr	r2, [pc, #12]	@ (8000470 <HAL_Delay+0x10>)
  uint32_t wait = Delay;
  
  /* Add a freq to guarantee minimum wait */
  if (wait < HAL_MAX_DELAY)
  {
    wait += (uint32_t)(uwTickFreq);
 8000462:	3001      	adds	r0, #1
  return uwTick;
 8000464:	6f51      	ldr	r1, [r2, #116]	@ 0x74
 8000466:	6f53      	ldr	r3, [r2, #116]	@ 0x74
  }
  
  while((HAL_GetTick() - tickstart) < wait)
 8000468:	1a5b      	subs	r3, r3, r1
 800046a:	4283      	cmp	r3, r0
 800046c:	d3fb      	bcc.n	8000466 <HAL_Delay+0x6>
  {
  }
}
 800046e:	4770      	bx	lr
 8000470:	20000080 	.word	0x20000080

08000474 <HAL_ADC_PollForConversion>:
  * @param  hadc ADC handle
  * @param  Timeout Timeout value in millisecond.
  * @retval HAL status
  */
HAL_StatusTypeDef HAL_ADC_PollForConversion(ADC_HandleTypeDef* hadc, uint32_t Timeout)
{
 8000474:	b5f0      	push	{r4, r5, r6, r7, lr}
 
  /* Check the parameters */
  assert_param(IS_ADC_ALL_INSTANCE(hadc->Instance));

  /* If end of conversion selected to end of sequence */
  if (hadc->Init.EOCSelection == ADC_EOC_SEQ_CONV)
 8000476:	6944      	ldr	r4, [r0, #20]
{
 8000478:	0003      	movs	r3, r0
    /* each conversion:                                                       */
    /* Particular case is ADC configured in DMA mode and ADC sequencer with   */
    /* several ranks and polling for end of each conversion.                  */
    /* For code simplicity sake, this particular case is generalized to       */
    /* ADC configured in DMA mode and and polling for end of each conversion. */
    if (HAL_IS_BIT_SET(hadc->Instance->CFGR1, ADC_CFGR1_DMAEN))
 800047a:	6802      	ldr	r2, [r0, #0]
  if (hadc->Init.EOCSelection == ADC_EOC_SEQ_CONV)
 800047c:	2c08      	cmp	r4, #8
 800047e:	d00c      	beq.n	800049a <HAL_ADC_PollForConversion+0x26>
    if (HAL_IS_BIT_SET(hadc->Instance->CFGR1, ADC_CFGR1_DMAEN))
 8000480:	2001      	movs	r0, #1
 8000482:	68d5      	ldr	r5, [r2, #12]
      
      return HAL_ERROR;
    }
    else
    {
      tmp_Flag_EOC = (ADC_FLAG_EOC | ADC_FLAG_EOS);
 8000484:	240c      	movs	r4, #12
    if (HAL_IS_BIT_SET(hadc->Instance->CFGR1, ADC_CFGR1_DMAEN))
 8000486:	4205      	tst	r5, r0
 8000488:	d007      	beq.n	800049a <HAL_ADC_PollForConversion+0x26>
      SET_BIT(hadc->State, HAL_ADC_STATE_ERROR_CONFIG);
 800048a:	2220      	movs	r2, #32
 800048c:	6b99      	ldr	r1, [r3, #56]	@ 0x38
      __HAL_UNLOCK(hadc);
 800048e:	3334      	adds	r3, #52	@ 0x34
      SET_BIT(hadc->State, HAL_ADC_STATE_ERROR_CONFIG);
 8000490:	430a      	orrs	r2, r1
 8000492:	605a      	str	r2, [r3, #4]
      __HAL_UNLOCK(hadc);
 8000494:	2200      	movs	r2, #0
 8000496:	701a      	strb	r2, [r3, #0]
    __HAL_ADC_CLEAR_FLAG(hadc, (ADC_FLAG_EOC | ADC_FLAG_EOS));
  }
  
  /* Return ADC state */
  return HAL_OK;
}
 8000498:	bdf0      	pop	{r4, r5, r6, r7, pc}
  return uwTick;
 800049a:	4d22      	ldr	r5, [pc, #136]	@ (8000524 <HAL_ADC_PollForConversion+0xb0>)
 800049c:	6f6e      	ldr	r6, [r5, #116]	@ 0x74
  while(HAL_IS_BIT_CLR(hadc->Instance->ISR, tmp_Flag_EOC))
 800049e:	6810      	ldr	r0, [r2, #0]
 80004a0:	4204      	tst	r4, r0
 80004a2:	d024      	beq.n	80004ee <HAL_ADC_PollForConversion+0x7a>
  SET_BIT(hadc->State, HAL_ADC_STATE_REG_EOC);
 80004a4:	2180      	movs	r1, #128	@ 0x80
 80004a6:	6b98      	ldr	r0, [r3, #56]	@ 0x38
 80004a8:	0089      	lsls	r1, r1, #2
 80004aa:	4301      	orrs	r1, r0
 80004ac:	6399      	str	r1, [r3, #56]	@ 0x38
  if(ADC_IS_SOFTWARE_START_REGULAR(hadc)        && 
 80004ae:	21c0      	movs	r1, #192	@ 0xc0
 80004b0:	68d0      	ldr	r0, [r2, #12]
 80004b2:	0109      	lsls	r1, r1, #4
 80004b4:	4208      	tst	r0, r1
 80004b6:	d113      	bne.n	80004e0 <HAL_ADC_PollForConversion+0x6c>
 80004b8:	7e99      	ldrb	r1, [r3, #26]
 80004ba:	2900      	cmp	r1, #0
 80004bc:	d110      	bne.n	80004e0 <HAL_ADC_PollForConversion+0x6c>
    if( __HAL_ADC_GET_FLAG(hadc, ADC_FLAG_EOS) )
 80004be:	6811      	ldr	r1, [r2, #0]
 80004c0:	0709      	lsls	r1, r1, #28
 80004c2:	d50d      	bpl.n	80004e0 <HAL_ADC_PollForConversion+0x6c>
      if (ADC_IS_CONVERSION_ONGOING_REGULAR(hadc) == RESET)
 80004c4:	6891      	ldr	r1, [r2, #8]
 80004c6:	0749      	lsls	r1, r1, #29
 80004c8:	d422      	bmi.n	8000510 <HAL_ADC_PollForConversion+0x9c>
        __HAL_ADC_DISABLE_IT(hadc, ADC_IT_EOC | ADC_IT_EOS);
 80004ca:	200c      	movs	r0, #12
 80004cc:	6851      	ldr	r1, [r2, #4]
 80004ce:	4381      	bics	r1, r0
 80004d0:	6051      	str	r1, [r2, #4]
        ADC_STATE_CLR_SET(hadc->State,
 80004d2:	6b98      	ldr	r0, [r3, #56]	@ 0x38
 80004d4:	4914      	ldr	r1, [pc, #80]	@ (8000528 <HAL_ADC_PollForConversion+0xb4>)
 80004d6:	4008      	ands	r0, r1
 80004d8:	3104      	adds	r1, #4
 80004da:	31ff      	adds	r1, #255	@ 0xff
 80004dc:	4301      	orrs	r1, r0
 80004de:	6399      	str	r1, [r3, #56]	@ 0x38
  if (hadc->Init.LowPowerAutoWait == DISABLE)
 80004e0:	7e1b      	ldrb	r3, [r3, #24]
 80004e2:	2b00      	cmp	r3, #0
 80004e4:	d101      	bne.n	80004ea <HAL_ADC_PollForConversion+0x76>
    __HAL_ADC_CLEAR_FLAG(hadc, (ADC_FLAG_EOC | ADC_FLAG_EOS));
 80004e6:	330c      	adds	r3, #12
 80004e8:	6013      	str	r3, [r2, #0]
  return HAL_OK;
 80004ea:	2000      	movs	r0, #0
 80004ec:	e7d4      	b.n	8000498 <HAL_ADC_PollForConversion+0x24>
 80004ee:	6f68      	ldr	r0, [r5, #116]	@ 0x74
      if((Timeout == 0) || ((HAL_GetTick()-tickstart) > Timeout))
 80004f0:	1b80      	subs	r0, r0, r6
 80004f2:	4288      	cmp	r0, r1
 80004f4:	d9d3      	bls.n	800049e <HAL_ADC_PollForConversion+0x2a>
        if(HAL_IS_BIT_CLR(hadc->Instance->ISR, tmp_Flag_EOC))
 80004f6:	0020      	movs	r0, r4
 80004f8:	6817      	ldr	r7, [r2, #0]
 80004fa:	4038      	ands	r0, r7
 80004fc:	423c      	tst	r4, r7
 80004fe:	d1ce      	bne.n	800049e <HAL_ADC_PollForConversion+0x2a>
          SET_BIT(hadc->State, HAL_ADC_STATE_TIMEOUT);
 8000500:	2204      	movs	r2, #4
 8000502:	6b99      	ldr	r1, [r3, #56]	@ 0x38
          __HAL_UNLOCK(hadc);
 8000504:	3334      	adds	r3, #52	@ 0x34
          SET_BIT(hadc->State, HAL_ADC_STATE_TIMEOUT);
 8000506:	430a      	orrs	r2, r1
 8000508:	605a      	str	r2, [r3, #4]
          __HAL_UNLOCK(hadc);
 800050a:	7018      	strb	r0, [r3, #0]
          return HAL_TIMEOUT;
 800050c:	2003      	movs	r0, #3
 800050e:	e7c3      	b.n	8000498 <HAL_ADC_PollForConversion+0x24>
        SET_BIT(hadc->State, HAL_ADC_STATE_ERROR_CONFIG);
 8000510:	2120      	movs	r1, #32
 8000512:	6b98      	ldr	r0, [r3, #56]	@ 0x38
 8000514:	4301      	orrs	r1, r0
 8000516:	6399      	str	r1, [r3, #56]	@ 0x38
        SET_BIT(hadc->ErrorCode, HAL_ADC_ERROR_INTERNAL);
 8000518:	2101      	movs	r1, #1
 800051a:	6bd8      	ldr	r0, [r3, #60]	@ 0x3c
 800051c:	4301      	orrs	r1, r0
 800051e:	63d9      	str	r1, [r3, #60]	@ 0x3c
 8000520:	e7de      	b.n	80004e0 <HAL_ADC_PollForConversion+0x6c>
 8000522:	46c0      	nop			@ (mov r8, r8)
 8000524:	20000080 	.word	0x20000080
 8000528:	fffffefe 	.word	0xfffffefe

0800052c <HAL_ADC_ConfigChannel>:
  * @param  hadc ADC handle
  * @param  sConfig Structure of ADC channel for regular group.
  * @retval HAL status
  */
HAL_StatusTypeDef HAL_ADC_ConfigChannel(ADC_HandleTypeDef* hadc, ADC_ChannelConfTypeDef* sConfig)
{
 800052c:	b5f7      	push	{r0, r1, r2, r4, r5, r6, r7, lr}
  HAL_StatusTypeDef tmp_hal_status = HAL_OK;
  __IO uint32_t wait_loop_index = 0U;
 800052e:	2200      	movs	r2, #0
  {
    assert_param(IS_ADC_SAMPLE_TIME(sConfig->SamplingTime));
  }
  
  /* Process locked */
  __HAL_LOCK(hadc);
 8000530:	0004      	movs	r4, r0
  __IO uint32_t wait_loop_index = 0U;
 8000532:	9201      	str	r2, [sp, #4]
  __HAL_LOCK(hadc);
 8000534:	3434      	adds	r4, #52	@ 0x34
 8000536:	7822      	ldrb	r2, [r4, #0]
{
 8000538:	0003      	movs	r3, r0
  if (! IS_ADC_SAMPLE_TIME(hadc->Init.SamplingTimeCommon))
 800053a:	6ac6      	ldr	r6, [r0, #44]	@ 0x2c
  __HAL_LOCK(hadc);
 800053c:	2002      	movs	r0, #2
 800053e:	2a01      	cmp	r2, #1
 8000540:	d047      	beq.n	80005d2 <HAL_ADC_ConfigChannel+0xa6>
 8000542:	3801      	subs	r0, #1
 8000544:	7020      	strb	r0, [r4, #0]
  /* Parameters that can be updated when ADC is disabled or enabled without   */
  /* conversion on going on regular group:                                    */
  /*  - Channel number                                                        */
  /*  - Channel sampling time                                                 */
  /*  - Management of internal measurement channels: VrefInt/TempSensor/Vbat  */
  if (ADC_IS_CONVERSION_ONGOING_REGULAR(hadc) == RESET)
 8000546:	681d      	ldr	r5, [r3, #0]
 8000548:	68aa      	ldr	r2, [r5, #8]
 800054a:	0752      	lsls	r2, r2, #29
 800054c:	d454      	bmi.n	80005f8 <HAL_ADC_ConfigChannel+0xcc>
    /* ADC conversion sequencer.                                              */
    if (sConfig->Rank != ADC_RANK_NONE)
    {
      /* Regular sequence configuration */
      /* Set the channel selection register from the selected channel */
      hadc->Instance->CHSELR |= ADC_CHSELR_CHANNEL(sConfig->Channel);
 800054e:	680a      	ldr	r2, [r1, #0]
    if (sConfig->Rank != ADC_RANK_NONE)
 8000550:	684f      	ldr	r7, [r1, #4]
      /* internal measurement paths enable: If internal channel selected,     */
      /* enable dedicated internal buffers and path.                          */
      /* Note: these internal measurement paths can be disabled using         */
      /*       HAL_ADC_DeInit() or removing the channel from sequencer with   */
      /*       channel configuration parameter "Rank".                        */
      if(ADC_IS_CHANNEL_INTERNAL(sConfig->Channel))
 8000552:	0013      	movs	r3, r2
    if (sConfig->Rank != ADC_RANK_NONE)
 8000554:	46bc      	mov	ip, r7
 8000556:	4f2b      	ldr	r7, [pc, #172]	@ (8000604 <HAL_ADC_ConfigChannel+0xd8>)
      hadc->Instance->CHSELR |= ADC_CHSELR_CHANNEL(sConfig->Channel);
 8000558:	4090      	lsls	r0, r2
      if(ADC_IS_CHANNEL_INTERNAL(sConfig->Channel))
 800055a:	3b10      	subs	r3, #16
    if (sConfig->Rank != ADC_RANK_NONE)
 800055c:	45bc      	cmp	ip, r7
 800055e:	d03c      	beq.n	80005da <HAL_ADC_ConfigChannel+0xae>
      hadc->Instance->CHSELR |= ADC_CHSELR_CHANNEL(sConfig->Channel);
 8000560:	6aaf      	ldr	r7, [r5, #40]	@ 0x28
 8000562:	4338      	orrs	r0, r7
 8000564:	62a8      	str	r0, [r5, #40]	@ 0x28
      if (! IS_ADC_SAMPLE_TIME(hadc->Init.SamplingTimeCommon))
 8000566:	2e07      	cmp	r6, #7
 8000568:	d80f      	bhi.n	800058a <HAL_ADC_ConfigChannel+0x5e>
 800056a:	2e00      	cmp	r6, #0
 800056c:	d111      	bne.n	8000592 <HAL_ADC_ConfigChannel+0x66>
        if (sConfig->SamplingTime != ADC_GET_SAMPLINGTIME(hadc))
 800056e:	2007      	movs	r0, #7
 8000570:	696e      	ldr	r6, [r5, #20]
 8000572:	6889      	ldr	r1, [r1, #8]
 8000574:	4006      	ands	r6, r0
 8000576:	42b1      	cmp	r1, r6
 8000578:	d00b      	beq.n	8000592 <HAL_ADC_ConfigChannel+0x66>
          hadc->Instance->SMPR &= ~(ADC_SMPR_SMP);
 800057a:	696e      	ldr	r6, [r5, #20]
          hadc->Instance->SMPR |= ADC_SMPR_SET(sConfig->SamplingTime);
 800057c:	4001      	ands	r1, r0
          hadc->Instance->SMPR &= ~(ADC_SMPR_SMP);
 800057e:	4386      	bics	r6, r0
 8000580:	616e      	str	r6, [r5, #20]
          hadc->Instance->SMPR |= ADC_SMPR_SET(sConfig->SamplingTime);
 8000582:	696e      	ldr	r6, [r5, #20]
 8000584:	4331      	orrs	r1, r6
 8000586:	6169      	str	r1, [r5, #20]
 8000588:	e003      	b.n	8000592 <HAL_ADC_ConfigChannel+0x66>
 800058a:	2080      	movs	r0, #128	@ 0x80
 800058c:	0540      	lsls	r0, r0, #21
 800058e:	4286      	cmp	r6, r0
 8000590:	d1ed      	bne.n	800056e <HAL_ADC_ConfigChannel+0x42>
      if(ADC_IS_CHANNEL_INTERNAL(sConfig->Channel))
 8000592:	2b01      	cmp	r3, #1
 8000594:	d81a      	bhi.n	80005cc <HAL_ADC_ConfigChannel+0xa0>
      {
        /* If Channel_16 is selected, enable Temp. sensor measurement path. */
        /* If Channel_17 is selected, enable VREFINT measurement path. */
        /* If Channel_18 is selected, enable VBAT measurement path. */
        ADC->CCR |= ADC_CHANNEL_INTERNAL_PATH(sConfig->Channel);
 8000596:	0013      	movs	r3, r2
 8000598:	3b10      	subs	r3, #16
 800059a:	1e5d      	subs	r5, r3, #1
 800059c:	41ab      	sbcs	r3, r5
 800059e:	2580      	movs	r5, #128	@ 0x80
 80005a0:	4919      	ldr	r1, [pc, #100]	@ (8000608 <HAL_ADC_ConfigChannel+0xdc>)
 80005a2:	425b      	negs	r3, r3
 80005a4:	0d9b      	lsrs	r3, r3, #22
 80005a6:	6808      	ldr	r0, [r1, #0]
 80005a8:	059b      	lsls	r3, r3, #22
 80005aa:	042d      	lsls	r5, r5, #16
 80005ac:	195b      	adds	r3, r3, r5
 80005ae:	4303      	orrs	r3, r0
 80005b0:	600b      	str	r3, [r1, #0]
        
        /* If Temp. sensor is selected, wait for stabilization delay */
        if (sConfig->Channel == ADC_CHANNEL_TEMPSENSOR)
 80005b2:	2a10      	cmp	r2, #16
 80005b4:	d10a      	bne.n	80005cc <HAL_ADC_ConfigChannel+0xa0>
        {
          /* Delay for temperature sensor stabilization time */
          /* Compute number of CPU cycles to wait for */
          wait_loop_index = (ADC_TEMPSENSOR_DELAY_US * (SystemCoreClock / 1000000U));
 80005b6:	4b15      	ldr	r3, [pc, #84]	@ (800060c <HAL_ADC_ConfigChannel+0xe0>)
 80005b8:	4915      	ldr	r1, [pc, #84]	@ (8000610 <HAL_ADC_ConfigChannel+0xe4>)
 80005ba:	6858      	ldr	r0, [r3, #4]
 80005bc:	f004 fd78 	bl	80050b0 <__udivsi3>
 80005c0:	230a      	movs	r3, #10
 80005c2:	4343      	muls	r3, r0
          while(wait_loop_index != 0U)
          {
            wait_loop_index--;
 80005c4:	9301      	str	r3, [sp, #4]
          while(wait_loop_index != 0U)
 80005c6:	9b01      	ldr	r3, [sp, #4]
 80005c8:	2b00      	cmp	r3, #0
 80005ca:	d103      	bne.n	80005d4 <HAL_ADC_ConfigChannel+0xa8>
  HAL_StatusTypeDef tmp_hal_status = HAL_OK;
 80005cc:	2000      	movs	r0, #0
    
    tmp_hal_status = HAL_ERROR;
  }
  
  /* Process unlocked */
  __HAL_UNLOCK(hadc);
 80005ce:	2300      	movs	r3, #0
 80005d0:	7023      	strb	r3, [r4, #0]
  
  /* Return function status */
  return tmp_hal_status;
}
 80005d2:	bdfe      	pop	{r1, r2, r3, r4, r5, r6, r7, pc}
            wait_loop_index--;
 80005d4:	9b01      	ldr	r3, [sp, #4]
 80005d6:	3b01      	subs	r3, #1
 80005d8:	e7f4      	b.n	80005c4 <HAL_ADC_ConfigChannel+0x98>
      hadc->Instance->CHSELR &= ~ADC_CHSELR_CHANNEL(sConfig->Channel);
 80005da:	6aaa      	ldr	r2, [r5, #40]	@ 0x28
 80005dc:	4382      	bics	r2, r0
 80005de:	62aa      	str	r2, [r5, #40]	@ 0x28
      if(ADC_IS_CHANNEL_INTERNAL(sConfig->Channel))
 80005e0:	2b01      	cmp	r3, #1
 80005e2:	d8f3      	bhi.n	80005cc <HAL_ADC_ConfigChannel+0xa0>
        ADC->CCR &= ~ADC_CHANNEL_INTERNAL_PATH(sConfig->Channel);
 80005e4:	1e58      	subs	r0, r3, #1
 80005e6:	4183      	sbcs	r3, r0
 80005e8:	4a07      	ldr	r2, [pc, #28]	@ (8000608 <HAL_ADC_ConfigChannel+0xdc>)
 80005ea:	480a      	ldr	r0, [pc, #40]	@ (8000614 <HAL_ADC_ConfigChannel+0xe8>)
 80005ec:	6811      	ldr	r1, [r2, #0]
 80005ee:	059b      	lsls	r3, r3, #22
 80005f0:	181b      	adds	r3, r3, r0
 80005f2:	400b      	ands	r3, r1
 80005f4:	6013      	str	r3, [r2, #0]
 80005f6:	e7e9      	b.n	80005cc <HAL_ADC_ConfigChannel+0xa0>
    SET_BIT(hadc->State, HAL_ADC_STATE_ERROR_CONFIG);
 80005f8:	2220      	movs	r2, #32
 80005fa:	6b99      	ldr	r1, [r3, #56]	@ 0x38
 80005fc:	430a      	orrs	r2, r1
 80005fe:	639a      	str	r2, [r3, #56]	@ 0x38
    tmp_hal_status = HAL_ERROR;
 8000600:	e7e5      	b.n	80005ce <HAL_ADC_ConfigChannel+0xa2>
 8000602:	46c0      	nop			@ (mov r8, r8)
 8000604:	00001001 	.word	0x00001001
 8000608:	40012708 	.word	0x40012708
 800060c:	20000000 	.word	0x20000000
 8000610:	000f4240 	.word	0x000f4240
 8000614:	ff7fffff 	.word	0xff7fffff

08000618 <__NVIC_SystemReset>:
  \details Acts as a special kind of Data Memory Barrier.
           It completes when all explicit memory accesses before this instruction complete.
 */
__STATIC_FORCEINLINE void __DSB(void)
{
  __ASM volatile ("dsb 0xF":::"memory");
 8000618:	f3bf 8f4f 	dsb	sy
 */
__NO_RETURN __STATIC_INLINE void __NVIC_SystemReset(void)
{
  __DSB();                                                          /* Ensure all outstanding memory accesses included
                                                                       buffered write are completed before reset */
  SCB->AIRCR  = ((0x5FAUL << SCB_AIRCR_VECTKEY_Pos) |
 800061c:	4b03      	ldr	r3, [pc, #12]	@ (800062c <__NVIC_SystemReset+0x14>)
 800061e:	4a04      	ldr	r2, [pc, #16]	@ (8000630 <__NVIC_SystemReset+0x18>)
 8000620:	60da      	str	r2, [r3, #12]
 8000622:	f3bf 8f4f 	dsb	sy
                 SCB_AIRCR_SYSRESETREQ_Msk);
  __DSB();                                                          /* Ensure completion of memory access */

  for(;;)                                                           /* wait until reset */
  {
    __NOP();
 8000626:	46c0      	nop			@ (mov r8, r8)
  for(;;)                                                           /* wait until reset */
 8000628:	e7fd      	b.n	8000626 <__NVIC_SystemReset+0xe>
 800062a:	46c0      	nop			@ (mov r8, r8)
 800062c:	e000ed00 	.word	0xe000ed00
 8000630:	05fa0004 	.word	0x05fa0004

08000634 <HAL_DMA_Abort_IT>:
{
 8000634:	b570      	push	{r4, r5, r6, lr}
  if (HAL_DMA_STATE_BUSY != hdma->State)
 8000636:	1c84      	adds	r4, r0, #2
 8000638:	7fe3      	ldrb	r3, [r4, #31]
 800063a:	2b02      	cmp	r3, #2
 800063c:	d003      	beq.n	8000646 <HAL_DMA_Abort_IT+0x12>
    hdma->ErrorCode = HAL_DMA_ERROR_NO_XFER;
 800063e:	2304      	movs	r3, #4
 8000640:	6383      	str	r3, [r0, #56]	@ 0x38
    status = HAL_ERROR;
 8000642:	2001      	movs	r0, #1
}
 8000644:	bd70      	pop	{r4, r5, r6, pc}
    hdma->Instance->CCR &= ~(DMA_IT_TC | DMA_IT_HT | DMA_IT_TE);
 8000646:	210e      	movs	r1, #14
 8000648:	6803      	ldr	r3, [r0, #0]
 800064a:	681a      	ldr	r2, [r3, #0]
 800064c:	438a      	bics	r2, r1
 800064e:	601a      	str	r2, [r3, #0]
    hdma->Instance->CCR &= ~DMA_CCR_EN;
 8000650:	2201      	movs	r2, #1
    hdma->DmaBaseAddress->IFCR = DMA_FLAG_GL1 << hdma->ChannelIndex;
 8000652:	0015      	movs	r5, r2
    hdma->Instance->CCR &= ~DMA_CCR_EN;
 8000654:	6819      	ldr	r1, [r3, #0]
 8000656:	4391      	bics	r1, r2
 8000658:	6019      	str	r1, [r3, #0]
    hdma->DmaBaseAddress->IFCR = DMA_FLAG_GL1 << hdma->ChannelIndex;
 800065a:	6c01      	ldr	r1, [r0, #64]	@ 0x40
 800065c:	6bc3      	ldr	r3, [r0, #60]	@ 0x3c
 800065e:	408d      	lsls	r5, r1
 8000660:	605d      	str	r5, [r3, #4]
    hdma->State = HAL_DMA_STATE_READY;
 8000662:	77e2      	strb	r2, [r4, #31]
    __HAL_UNLOCK(hdma);
 8000664:	1883      	adds	r3, r0, r2
 8000666:	2200      	movs	r2, #0
 8000668:	77da      	strb	r2, [r3, #31]
    if (hdma->XferAbortCallback != NULL)
 800066a:	6b43      	ldr	r3, [r0, #52]	@ 0x34
 800066c:	4293      	cmp	r3, r2
 800066e:	d000      	beq.n	8000672 <HAL_DMA_Abort_IT+0x3e>
      hdma->XferAbortCallback(hdma);
 8000670:	4798      	blx	r3
    status = HAL_ERROR;
 8000672:	2000      	movs	r0, #0
 8000674:	e7e6      	b.n	8000644 <HAL_DMA_Abort_IT+0x10>

08000676 <HAL_GPIO_Init>:
  *         the configuration information for the specified GPIO peripheral.
  * @retval None
  */
void HAL_GPIO_Init(GPIO_TypeDef  *GPIOx, GPIO_InitTypeDef *GPIO_Init)
{
  uint32_t position = 0x00u;
 8000676:	2300      	movs	r3, #0
{
 8000678:	b5f0      	push	{r4, r5, r6, r7, lr}
 800067a:	b087      	sub	sp, #28
  assert_param(IS_GPIO_ALL_INSTANCE(GPIOx));
  assert_param(IS_GPIO_PIN(GPIO_Init->Pin));
  assert_param(IS_GPIO_MODE(GPIO_Init->Mode));

  /* Configure the port pins */
  while (((GPIO_Init->Pin) >> position) != 0x00u)
 800067c:	680a      	ldr	r2, [r1, #0]
 800067e:	0014      	movs	r4, r2
 8000680:	40dc      	lsrs	r4, r3
 8000682:	d101      	bne.n	8000688 <HAL_GPIO_Init+0x12>
      }
    }

    position++;
  } 
}
 8000684:	b007      	add	sp, #28
 8000686:	bdf0      	pop	{r4, r5, r6, r7, pc}
    iocurrent = (GPIO_Init->Pin) & (1uL << position);
 8000688:	2501      	movs	r5, #1
 800068a:	0014      	movs	r4, r2
 800068c:	409d      	lsls	r5, r3
 800068e:	402c      	ands	r4, r5
 8000690:	9400      	str	r4, [sp, #0]
    if (iocurrent != 0x00u)
 8000692:	422a      	tst	r2, r5
 8000694:	d100      	bne.n	8000698 <HAL_GPIO_Init+0x22>
 8000696:	e098      	b.n	80007ca <HAL_GPIO_Init+0x154>
      if(((GPIO_Init->Mode & GPIO_MODE) == MODE_OUTPUT) ||
 8000698:	684a      	ldr	r2, [r1, #4]
 800069a:	005f      	lsls	r7, r3, #1
 800069c:	4694      	mov	ip, r2
 800069e:	2203      	movs	r2, #3
 80006a0:	4664      	mov	r4, ip
 80006a2:	4022      	ands	r2, r4
        temp &= ~(GPIO_OSPEEDER_OSPEEDR0 << (position * 2u));
 80006a4:	2403      	movs	r4, #3
 80006a6:	40bc      	lsls	r4, r7
 80006a8:	43e4      	mvns	r4, r4
 80006aa:	9401      	str	r4, [sp, #4]
      if(((GPIO_Init->Mode & GPIO_MODE) == MODE_OUTPUT) ||
 80006ac:	1e54      	subs	r4, r2, #1
 80006ae:	2c01      	cmp	r4, #1
 80006b0:	d82e      	bhi.n	8000710 <HAL_GPIO_Init+0x9a>
        temp = GPIOx->OSPEEDR;
 80006b2:	6886      	ldr	r6, [r0, #8]
        temp &= ~(GPIO_OSPEEDER_OSPEEDR0 << (position * 2u));
 80006b4:	9c01      	ldr	r4, [sp, #4]
 80006b6:	4026      	ands	r6, r4
        temp |= (GPIO_Init->Speed << (position * 2u));
 80006b8:	68cc      	ldr	r4, [r1, #12]
 80006ba:	40bc      	lsls	r4, r7
 80006bc:	4334      	orrs	r4, r6
        GPIOx->OSPEEDR = temp;
 80006be:	6084      	str	r4, [r0, #8]
        temp = GPIOx->OTYPER;
 80006c0:	6844      	ldr	r4, [r0, #4]
        temp |= (((GPIO_Init->Mode & OUTPUT_TYPE) >> OUTPUT_TYPE_Pos) << position);
 80006c2:	2601      	movs	r6, #1
        temp &= ~(GPIO_OTYPER_OT_0 << position) ;
 80006c4:	43ac      	bics	r4, r5
 80006c6:	0025      	movs	r5, r4
        temp |= (((GPIO_Init->Mode & OUTPUT_TYPE) >> OUTPUT_TYPE_Pos) << position);
 80006c8:	4664      	mov	r4, ip
 80006ca:	0924      	lsrs	r4, r4, #4
 80006cc:	4034      	ands	r4, r6
 80006ce:	409c      	lsls	r4, r3
 80006d0:	432c      	orrs	r4, r5
        GPIOx->OTYPER = temp;
 80006d2:	6044      	str	r4, [r0, #4]
        temp = GPIOx->PUPDR;
 80006d4:	68c5      	ldr	r5, [r0, #12]
        temp &= ~(GPIO_PUPDR_PUPDR0 << (position * 2u));
 80006d6:	9c01      	ldr	r4, [sp, #4]
 80006d8:	4025      	ands	r5, r4
        temp |= ((GPIO_Init->Pull) << (position * 2u));
 80006da:	688c      	ldr	r4, [r1, #8]
 80006dc:	40bc      	lsls	r4, r7
 80006de:	432c      	orrs	r4, r5
        GPIOx->PUPDR = temp;
 80006e0:	60c4      	str	r4, [r0, #12]
      if((GPIO_Init->Mode & GPIO_MODE) == MODE_AF)
 80006e2:	2a02      	cmp	r2, #2
 80006e4:	d116      	bne.n	8000714 <HAL_GPIO_Init+0x9e>
        temp &= ~(0xFu << ((position & 0x07u) * 4u));
 80006e6:	2507      	movs	r5, #7
 80006e8:	260f      	movs	r6, #15
 80006ea:	401d      	ands	r5, r3
 80006ec:	00ad      	lsls	r5, r5, #2
 80006ee:	40ae      	lsls	r6, r5
        temp = GPIOx->AFR[position >> 3u];
 80006f0:	08dc      	lsrs	r4, r3, #3
 80006f2:	00a4      	lsls	r4, r4, #2
 80006f4:	1904      	adds	r4, r0, r4
 80006f6:	9402      	str	r4, [sp, #8]
 80006f8:	6a24      	ldr	r4, [r4, #32]
        temp &= ~(0xFu << ((position & 0x07u) * 4u));
 80006fa:	9603      	str	r6, [sp, #12]
 80006fc:	0026      	movs	r6, r4
 80006fe:	9c03      	ldr	r4, [sp, #12]
 8000700:	43a6      	bics	r6, r4
 8000702:	0034      	movs	r4, r6
        temp |= ((GPIO_Init->Alternate) << ((position & 0x07u) * 4u));
 8000704:	690e      	ldr	r6, [r1, #16]
 8000706:	40ae      	lsls	r6, r5
 8000708:	4326      	orrs	r6, r4
        GPIOx->AFR[position >> 3u] = temp;
 800070a:	9c02      	ldr	r4, [sp, #8]
 800070c:	6226      	str	r6, [r4, #32]
 800070e:	e001      	b.n	8000714 <HAL_GPIO_Init+0x9e>
      if((GPIO_Init->Mode & GPIO_MODE) != MODE_ANALOG)
 8000710:	2a03      	cmp	r2, #3
 8000712:	d1df      	bne.n	80006d4 <HAL_GPIO_Init+0x5e>
      temp |= ((GPIO_Init->Mode & GPIO_MODE) << (position * 2u));
 8000714:	40ba      	lsls	r2, r7
      temp = GPIOx->MODER;
 8000716:	6804      	ldr	r4, [r0, #0]
      temp &= ~(GPIO_MODER_MODER0 << (position * 2u));
 8000718:	9d01      	ldr	r5, [sp, #4]
 800071a:	4025      	ands	r5, r4
      temp |= ((GPIO_Init->Mode & GPIO_MODE) << (position * 2u));
 800071c:	432a      	orrs	r2, r5
      if((GPIO_Init->Mode & EXTI_MODE) != 0x00u)
 800071e:	24c0      	movs	r4, #192	@ 0xc0
      GPIOx->MODER = temp;
 8000720:	6002      	str	r2, [r0, #0]
      if((GPIO_Init->Mode & EXTI_MODE) != 0x00u)
 8000722:	4662      	mov	r2, ip
 8000724:	02a4      	lsls	r4, r4, #10
 8000726:	4222      	tst	r2, r4
 8000728:	d04f      	beq.n	80007ca <HAL_GPIO_Init+0x154>
        __HAL_RCC_SYSCFG_CLK_ENABLE();
 800072a:	2501      	movs	r5, #1
 800072c:	4a28      	ldr	r2, [pc, #160]	@ (80007d0 <HAL_GPIO_Init+0x15a>)
        temp |= (GPIO_GET_INDEX(GPIOx) << (4u * (position & 0x03u)));
 800072e:	2790      	movs	r7, #144	@ 0x90
        __HAL_RCC_SYSCFG_CLK_ENABLE();
 8000730:	6994      	ldr	r4, [r2, #24]
        temp |= (GPIO_GET_INDEX(GPIOx) << (4u * (position & 0x03u)));
 8000732:	05ff      	lsls	r7, r7, #23
        __HAL_RCC_SYSCFG_CLK_ENABLE();
 8000734:	432c      	orrs	r4, r5
 8000736:	6194      	str	r4, [r2, #24]
 8000738:	6992      	ldr	r2, [r2, #24]
        temp = SYSCFG->EXTICR[position >> 2u];
 800073a:	089c      	lsrs	r4, r3, #2
        __HAL_RCC_SYSCFG_CLK_ENABLE();
 800073c:	402a      	ands	r2, r5
 800073e:	9205      	str	r2, [sp, #20]
 8000740:	9a05      	ldr	r2, [sp, #20]
        temp = SYSCFG->EXTICR[position >> 2u];
 8000742:	4a24      	ldr	r2, [pc, #144]	@ (80007d4 <HAL_GPIO_Init+0x15e>)
 8000744:	00a4      	lsls	r4, r4, #2
 8000746:	18a4      	adds	r4, r4, r2
        temp &= ~(0x0FuL << (4u * (position & 0x03u)));
 8000748:	220f      	movs	r2, #15
 800074a:	3502      	adds	r5, #2
 800074c:	401d      	ands	r5, r3
 800074e:	00ad      	lsls	r5, r5, #2
 8000750:	40aa      	lsls	r2, r5
        temp = SYSCFG->EXTICR[position >> 2u];
 8000752:	68a6      	ldr	r6, [r4, #8]
        temp &= ~(0x0FuL << (4u * (position & 0x03u)));
 8000754:	4396      	bics	r6, r2
        temp |= (GPIO_GET_INDEX(GPIOx) << (4u * (position & 0x03u)));
 8000756:	2200      	movs	r2, #0
 8000758:	42b8      	cmp	r0, r7
 800075a:	d00c      	beq.n	8000776 <HAL_GPIO_Init+0x100>
 800075c:	4f1e      	ldr	r7, [pc, #120]	@ (80007d8 <HAL_GPIO_Init+0x162>)
 800075e:	3201      	adds	r2, #1
 8000760:	42b8      	cmp	r0, r7
 8000762:	d008      	beq.n	8000776 <HAL_GPIO_Init+0x100>
 8000764:	4f1d      	ldr	r7, [pc, #116]	@ (80007dc <HAL_GPIO_Init+0x166>)
 8000766:	3201      	adds	r2, #1
 8000768:	42b8      	cmp	r0, r7
 800076a:	d004      	beq.n	8000776 <HAL_GPIO_Init+0x100>
 800076c:	4f1c      	ldr	r7, [pc, #112]	@ (80007e0 <HAL_GPIO_Init+0x16a>)
 800076e:	3203      	adds	r2, #3
 8000770:	42b8      	cmp	r0, r7
 8000772:	d100      	bne.n	8000776 <HAL_GPIO_Init+0x100>
 8000774:	3a02      	subs	r2, #2
 8000776:	40aa      	lsls	r2, r5
        if((GPIO_Init->Mode & TRIGGER_RISING) != 0x00u)
 8000778:	4667      	mov	r7, ip
        temp |= (GPIO_GET_INDEX(GPIOx) << (4u * (position & 0x03u)));
 800077a:	4332      	orrs	r2, r6
        SYSCFG->EXTICR[position >> 2u] = temp;
 800077c:	60a2      	str	r2, [r4, #8]
        temp = EXTI->RTSR;
 800077e:	4a19      	ldr	r2, [pc, #100]	@ (80007e4 <HAL_GPIO_Init+0x16e>)
        temp &= ~(iocurrent);
 8000780:	9c00      	ldr	r4, [sp, #0]
        temp = EXTI->RTSR;
 8000782:	6896      	ldr	r6, [r2, #8]
          temp |= iocurrent;
 8000784:	9d00      	ldr	r5, [sp, #0]
        temp &= ~(iocurrent);
 8000786:	43e4      	mvns	r4, r4
          temp |= iocurrent;
 8000788:	4335      	orrs	r5, r6
        if((GPIO_Init->Mode & TRIGGER_RISING) != 0x00u)
 800078a:	02ff      	lsls	r7, r7, #11
 800078c:	d401      	bmi.n	8000792 <HAL_GPIO_Init+0x11c>
        temp &= ~(iocurrent);
 800078e:	0035      	movs	r5, r6
 8000790:	4025      	ands	r5, r4
        if((GPIO_Init->Mode & TRIGGER_FALLING) != 0x00u)
 8000792:	4667      	mov	r7, ip
        EXTI->RTSR = temp;
 8000794:	6095      	str	r5, [r2, #8]
        temp = EXTI->FTSR;
 8000796:	68d6      	ldr	r6, [r2, #12]
          temp |= iocurrent;
 8000798:	9d00      	ldr	r5, [sp, #0]
 800079a:	4335      	orrs	r5, r6
        if((GPIO_Init->Mode & TRIGGER_FALLING) != 0x00u)
 800079c:	02bf      	lsls	r7, r7, #10
 800079e:	d401      	bmi.n	80007a4 <HAL_GPIO_Init+0x12e>
        temp &= ~(iocurrent);
 80007a0:	0035      	movs	r5, r6
 80007a2:	4025      	ands	r5, r4
        if((GPIO_Init->Mode & EXTI_EVT) != 0x00u)
 80007a4:	4667      	mov	r7, ip
        EXTI->FTSR = temp;
 80007a6:	60d5      	str	r5, [r2, #12]
        temp = EXTI->EMR;
 80007a8:	6856      	ldr	r6, [r2, #4]
          temp |= iocurrent;
 80007aa:	9d00      	ldr	r5, [sp, #0]
 80007ac:	4335      	orrs	r5, r6
        if((GPIO_Init->Mode & EXTI_EVT) != 0x00u)
 80007ae:	03bf      	lsls	r7, r7, #14
 80007b0:	d401      	bmi.n	80007b6 <HAL_GPIO_Init+0x140>
        temp &= ~(iocurrent);
 80007b2:	0035      	movs	r5, r6
 80007b4:	4025      	ands	r5, r4
        if((GPIO_Init->Mode & EXTI_IT) != 0x00u)
 80007b6:	4667      	mov	r7, ip
        EXTI->EMR = temp;
 80007b8:	6055      	str	r5, [r2, #4]
        temp = EXTI->IMR;
 80007ba:	6815      	ldr	r5, [r2, #0]
          temp |= iocurrent;
 80007bc:	9e00      	ldr	r6, [sp, #0]
 80007be:	432e      	orrs	r6, r5
        if((GPIO_Init->Mode & EXTI_IT) != 0x00u)
 80007c0:	03ff      	lsls	r7, r7, #15
 80007c2:	d401      	bmi.n	80007c8 <HAL_GPIO_Init+0x152>
        temp &= ~(iocurrent);
 80007c4:	4025      	ands	r5, r4
 80007c6:	002e      	movs	r6, r5
        EXTI->IMR = temp;
 80007c8:	6016      	str	r6, [r2, #0]
    position++;
 80007ca:	3301      	adds	r3, #1
 80007cc:	e756      	b.n	800067c <HAL_GPIO_Init+0x6>
 80007ce:	46c0      	nop			@ (mov r8, r8)
 80007d0:	40021000 	.word	0x40021000
 80007d4:	40010000 	.word	0x40010000
 80007d8:	48000400 	.word	0x48000400
 80007dc:	48000800 	.word	0x48000800
 80007e0:	48000c00 	.word	0x48000c00
 80007e4:	40010400 	.word	0x40010400

080007e8 <HAL_TIM_MspPostInit>:

void HAL_TIM_MspPostInit(TIM_HandleTypeDef* htim)
{
 80007e8:	b510      	push	{r4, lr}
 80007ea:	0004      	movs	r4, r0
 80007ec:	b088      	sub	sp, #32
  GPIO_InitTypeDef GPIO_InitStruct = {0};
 80007ee:	2214      	movs	r2, #20
 80007f0:	2100      	movs	r1, #0
 80007f2:	a803      	add	r0, sp, #12
 80007f4:	f006 fd4d 	bl	8007292 <memset>
  if(htim->Instance==TIM1)
 80007f8:	6823      	ldr	r3, [r4, #0]
 80007fa:	4a18      	ldr	r2, [pc, #96]	@ (800085c <HAL_TIM_MspPostInit+0x74>)
 80007fc:	4293      	cmp	r3, r2
 80007fe:	d116      	bne.n	800082e <HAL_TIM_MspPostInit+0x46>
  {
    /* USER CODE BEGIN TIM1_MspPostInit 0 */

    /* USER CODE END TIM1_MspPostInit 0 */
    __HAL_RCC_GPIOA_CLK_ENABLE();
 8000800:	2180      	movs	r1, #128	@ 0x80
 8000802:	4b17      	ldr	r3, [pc, #92]	@ (8000860 <HAL_TIM_MspPostInit+0x78>)
 8000804:	0289      	lsls	r1, r1, #10
 8000806:	695a      	ldr	r2, [r3, #20]
    GPIO_InitStruct.Pin = RGB_D_Pin;
    GPIO_InitStruct.Mode = GPIO_MODE_AF_PP;
    GPIO_InitStruct.Pull = GPIO_NOPULL;
    GPIO_InitStruct.Speed = GPIO_SPEED_FREQ_LOW;
    GPIO_InitStruct.Alternate = GPIO_AF2_TIM1;
    HAL_GPIO_Init(RGB_D_GPIO_Port, &GPIO_InitStruct);
 8000808:	2090      	movs	r0, #144	@ 0x90
    __HAL_RCC_GPIOA_CLK_ENABLE();
 800080a:	430a      	orrs	r2, r1
 800080c:	615a      	str	r2, [r3, #20]
 800080e:	695b      	ldr	r3, [r3, #20]
    HAL_GPIO_Init(RGB_D_GPIO_Port, &GPIO_InitStruct);
 8000810:	05c0      	lsls	r0, r0, #23
    __HAL_RCC_GPIOA_CLK_ENABLE();
 8000812:	400b      	ands	r3, r1
 8000814:	9301      	str	r3, [sp, #4]
 8000816:	9b01      	ldr	r3, [sp, #4]
    GPIO_InitStruct.Pin = RGB_D_Pin;
 8000818:	2380      	movs	r3, #128	@ 0x80
 800081a:	005b      	lsls	r3, r3, #1
 800081c:	9303      	str	r3, [sp, #12]
    GPIO_InitStruct.Mode = GPIO_MODE_AF_PP;
 800081e:	3bfe      	subs	r3, #254	@ 0xfe
 8000820:	9304      	str	r3, [sp, #16]
    GPIO_InitStruct.Alternate = GPIO_AF2_TIM1;
 8000822:	9307      	str	r3, [sp, #28]
    HAL_GPIO_Init(RGB_D_GPIO_Port, &GPIO_InitStruct);
 8000824:	a903      	add	r1, sp, #12
    GPIO_InitStruct.Pin = BUZZER_Pin;
    GPIO_InitStruct.Mode = GPIO_MODE_AF_PP;
    GPIO_InitStruct.Pull = GPIO_NOPULL;
    GPIO_InitStruct.Speed = GPIO_SPEED_FREQ_LOW;
    GPIO_InitStruct.Alternate = GPIO_AF1_TIM3;
    HAL_GPIO_Init(BUZZER_GPIO_Port, &GPIO_InitStruct);
 8000826:	f7ff ff26 	bl	8000676 <HAL_GPIO_Init>
    /* USER CODE BEGIN TIM3_MspPostInit 1 */

    /* USER CODE END TIM3_MspPostInit 1 */
  }

}
 800082a:	b008      	add	sp, #32
 800082c:	bd10      	pop	{r4, pc}
  else if(htim->Instance==TIM3)
 800082e:	4a0d      	ldr	r2, [pc, #52]	@ (8000864 <HAL_TIM_MspPostInit+0x7c>)
 8000830:	4293      	cmp	r3, r2
 8000832:	d1fa      	bne.n	800082a <HAL_TIM_MspPostInit+0x42>
    __HAL_RCC_GPIOB_CLK_ENABLE();
 8000834:	2180      	movs	r1, #128	@ 0x80
 8000836:	4b0a      	ldr	r3, [pc, #40]	@ (8000860 <HAL_TIM_MspPostInit+0x78>)
 8000838:	02c9      	lsls	r1, r1, #11
 800083a:	695a      	ldr	r2, [r3, #20]
    HAL_GPIO_Init(BUZZER_GPIO_Port, &GPIO_InitStruct);
 800083c:	480a      	ldr	r0, [pc, #40]	@ (8000868 <HAL_TIM_MspPostInit+0x80>)
    __HAL_RCC_GPIOB_CLK_ENABLE();
 800083e:	430a      	orrs	r2, r1
 8000840:	615a      	str	r2, [r3, #20]
 8000842:	695b      	ldr	r3, [r3, #20]
 8000844:	400b      	ands	r3, r1
 8000846:	9302      	str	r3, [sp, #8]
 8000848:	9b02      	ldr	r3, [sp, #8]
    GPIO_InitStruct.Pin = BUZZER_Pin;
 800084a:	2320      	movs	r3, #32
 800084c:	9303      	str	r3, [sp, #12]
    GPIO_InitStruct.Mode = GPIO_MODE_AF_PP;
 800084e:	3b1e      	subs	r3, #30
 8000850:	9304      	str	r3, [sp, #16]
    GPIO_InitStruct.Alternate = GPIO_AF1_TIM3;
 8000852:	3b01      	subs	r3, #1
 8000854:	9307      	str	r3, [sp, #28]
    HAL_GPIO_Init(BUZZER_GPIO_Port, &GPIO_InitStruct);
 8000856:	a903      	add	r1, sp, #12
 8000858:	e7e5      	b.n	8000826 <HAL_TIM_MspPostInit+0x3e>
 800085a:	46c0      	nop			@ (mov r8, r8)
 800085c:	40012c00 	.word	0x40012c00
 8000860:	40021000 	.word	0x40021000
 8000864:	40000400 	.word	0x40000400
 8000868:	48000400 	.word	0x48000400

0800086c <I2C_IsErrorOccurred>:
  * @param  Timeout Timeout duration
  * @param  Tickstart Tick start value
  * @retval HAL status
  */
static HAL_StatusTypeDef I2C_IsErrorOccurred(I2C_HandleTypeDef *hi2c, uint32_t Timeout, uint32_t Tickstart)
{
 800086c:	b5f0      	push	{r4, r5, r6, r7, lr}
  HAL_StatusTypeDef status = HAL_OK;
  uint32_t itflag   = hi2c->Instance->ISR;
 800086e:	6803      	ldr	r3, [r0, #0]
{
 8000870:	b085      	sub	sp, #20
  uint32_t itflag   = hi2c->Instance->ISR;
 8000872:	699e      	ldr	r6, [r3, #24]
  uint32_t error_code = 0;
  uint32_t tickstart = Tickstart;
  uint32_t tmp1;
  HAL_I2C_ModeTypeDef tmp2;

  if (HAL_IS_BIT_SET(itflag, I2C_FLAG_AF))
 8000874:	2510      	movs	r5, #16
{
 8000876:	9103      	str	r1, [sp, #12]
  if (HAL_IS_BIT_SET(itflag, I2C_FLAG_AF))
 8000878:	0031      	movs	r1, r6
{
 800087a:	0004      	movs	r4, r0
  if (HAL_IS_BIT_SET(itflag, I2C_FLAG_AF))
 800087c:	4029      	ands	r1, r5
  HAL_StatusTypeDef status = HAL_OK;
 800087e:	2000      	movs	r0, #0
  if (HAL_IS_BIT_SET(itflag, I2C_FLAG_AF))
 8000880:	422e      	tst	r6, r5
 8000882:	d00d      	beq.n	80008a0 <I2C_IsErrorOccurred+0x34>
  {
    /* Clear NACKF Flag */
    __HAL_I2C_CLEAR_FLAG(hi2c, I2C_FLAG_AF);
 8000884:	61dd      	str	r5, [r3, #28]
  uint32_t error_code = 0;
 8000886:	4684      	mov	ip, r0
  HAL_StatusTypeDef status = HAL_OK;
 8000888:	0005      	movs	r5, r0

    /* Wait until STOP Flag is set or timeout occurred */
    /* AutoEnd should be initiate after AF */
    while ((__HAL_I2C_GET_FLAG(hi2c, I2C_FLAG_STOPF) == RESET) && (status == HAL_OK))
 800088a:	2120      	movs	r1, #32
 800088c:	4f37      	ldr	r7, [pc, #220]	@ (800096c <I2C_IsErrorOccurred+0x100>)
 800088e:	6998      	ldr	r0, [r3, #24]
 8000890:	4208      	tst	r0, r1
 8000892:	d163      	bne.n	800095c <I2C_IsErrorOccurred+0xf0>
 8000894:	2d00      	cmp	r5, #0
 8000896:	d039      	beq.n	800090c <I2C_IsErrorOccurred+0xa0>
    {
      /* Clear STOP Flag */
      __HAL_I2C_CLEAR_FLAG(hi2c, I2C_FLAG_STOPF);
    }

    error_code |= HAL_I2C_ERROR_AF;
 8000898:	2104      	movs	r1, #4
 800089a:	4662      	mov	r2, ip

    status = HAL_ERROR;
 800089c:	2001      	movs	r0, #1
    error_code |= HAL_I2C_ERROR_AF;
 800089e:	4311      	orrs	r1, r2
  /* Refresh Content of Status register */
  itflag = hi2c->Instance->ISR;

  /* Then verify if an additional errors occurs */
  /* Check if a Bus error occurred */
  if (HAL_IS_BIT_SET(itflag, I2C_FLAG_BERR))
 80008a0:	2580      	movs	r5, #128	@ 0x80
  itflag = hi2c->Instance->ISR;
 80008a2:	699a      	ldr	r2, [r3, #24]
  if (HAL_IS_BIT_SET(itflag, I2C_FLAG_BERR))
 80008a4:	006d      	lsls	r5, r5, #1
 80008a6:	422a      	tst	r2, r5
 80008a8:	d002      	beq.n	80008b0 <I2C_IsErrorOccurred+0x44>
  {
    error_code |= HAL_I2C_ERROR_BERR;
 80008aa:	2001      	movs	r0, #1

    /* Clear BERR flag */
    __HAL_I2C_CLEAR_FLAG(hi2c, I2C_FLAG_BERR);
 80008ac:	61dd      	str	r5, [r3, #28]
    error_code |= HAL_I2C_ERROR_BERR;
 80008ae:	4301      	orrs	r1, r0

    status = HAL_ERROR;
  }

  /* Check if an Over-Run/Under-Run error occurred */
  if (HAL_IS_BIT_SET(itflag, I2C_FLAG_OVR))
 80008b0:	2580      	movs	r5, #128	@ 0x80
 80008b2:	00ed      	lsls	r5, r5, #3
 80008b4:	422a      	tst	r2, r5
 80008b6:	d003      	beq.n	80008c0 <I2C_IsErrorOccurred+0x54>
  {
    error_code |= HAL_I2C_ERROR_OVR;
 80008b8:	2008      	movs	r0, #8

    /* Clear OVR flag */
    __HAL_I2C_CLEAR_FLAG(hi2c, I2C_FLAG_OVR);
 80008ba:	61dd      	str	r5, [r3, #28]
    error_code |= HAL_I2C_ERROR_OVR;
 80008bc:	4301      	orrs	r1, r0

    status = HAL_ERROR;
 80008be:	3807      	subs	r0, #7
  }

  /* Check if an Arbitration Loss error occurred */
  if (HAL_IS_BIT_SET(itflag, I2C_FLAG_ARLO))
 80008c0:	2580      	movs	r5, #128	@ 0x80
 80008c2:	00ad      	lsls	r5, r5, #2
 80008c4:	422a      	tst	r2, r5
 80008c6:	d04d      	beq.n	8000964 <I2C_IsErrorOccurred+0xf8>
  {
    error_code |= HAL_I2C_ERROR_ARLO;
 80008c8:	2202      	movs	r2, #2

    /* Clear ARLO flag */
    __HAL_I2C_CLEAR_FLAG(hi2c, I2C_FLAG_ARLO);
 80008ca:	61dd      	str	r5, [r3, #28]
    error_code |= HAL_I2C_ERROR_ARLO;
 80008cc:	4311      	orrs	r1, r2
  if (__HAL_I2C_GET_FLAG(hi2c, I2C_FLAG_TXIS) != RESET)
 80008ce:	699a      	ldr	r2, [r3, #24]
 80008d0:	0792      	lsls	r2, r2, #30
 80008d2:	d501      	bpl.n	80008d8 <I2C_IsErrorOccurred+0x6c>
    hi2c->Instance->TXDR = 0x00U;
 80008d4:	2200      	movs	r2, #0
 80008d6:	629a      	str	r2, [r3, #40]	@ 0x28
  if (__HAL_I2C_GET_FLAG(hi2c, I2C_FLAG_TXE) == RESET)
 80008d8:	2201      	movs	r2, #1
 80008da:	6998      	ldr	r0, [r3, #24]
 80008dc:	4210      	tst	r0, r2
 80008de:	d102      	bne.n	80008e6 <I2C_IsErrorOccurred+0x7a>
    __HAL_I2C_CLEAR_FLAG(hi2c, I2C_FLAG_TXE);
 80008e0:	6998      	ldr	r0, [r3, #24]
 80008e2:	4302      	orrs	r2, r0
 80008e4:	619a      	str	r2, [r3, #24]
  {
    /* Flush TX register */
    I2C_Flush_TXDR(hi2c);

    /* Clear Configuration Register 2 */
    I2C_RESET_CR2(hi2c);
 80008e6:	685a      	ldr	r2, [r3, #4]
 80008e8:	4821      	ldr	r0, [pc, #132]	@ (8000970 <I2C_IsErrorOccurred+0x104>)
 80008ea:	4002      	ands	r2, r0
 80008ec:	605a      	str	r2, [r3, #4]

    hi2c->ErrorCode |= error_code;
 80008ee:	6c63      	ldr	r3, [r4, #68]	@ 0x44
    hi2c->State = HAL_I2C_STATE_READY;
 80008f0:	2220      	movs	r2, #32
    hi2c->ErrorCode |= error_code;
 80008f2:	430b      	orrs	r3, r1
 80008f4:	6463      	str	r3, [r4, #68]	@ 0x44
    hi2c->State = HAL_I2C_STATE_READY;
 80008f6:	0023      	movs	r3, r4
 80008f8:	3341      	adds	r3, #65	@ 0x41
 80008fa:	701a      	strb	r2, [r3, #0]
    hi2c->Mode = HAL_I2C_MODE_NONE;
 80008fc:	0022      	movs	r2, r4
 80008fe:	2300      	movs	r3, #0
 8000900:	3242      	adds	r2, #66	@ 0x42

    /* Process Unlocked */
    __HAL_UNLOCK(hi2c);
 8000902:	3440      	adds	r4, #64	@ 0x40
    hi2c->Mode = HAL_I2C_MODE_NONE;
 8000904:	7013      	strb	r3, [r2, #0]
    __HAL_UNLOCK(hi2c);
 8000906:	2001      	movs	r0, #1
 8000908:	7023      	strb	r3, [r4, #0]
 800090a:	e02d      	b.n	8000968 <I2C_IsErrorOccurred+0xfc>
 800090c:	6f78      	ldr	r0, [r7, #116]	@ 0x74
        if (((HAL_GetTick() - tickstart) > Timeout) || (Timeout == 0U))
 800090e:	9e03      	ldr	r6, [sp, #12]
 8000910:	1a80      	subs	r0, r0, r2
 8000912:	42b0      	cmp	r0, r6
 8000914:	d9bb      	bls.n	800088e <I2C_IsErrorOccurred+0x22>
          tmp1 = (uint32_t)(hi2c->Instance->CR2 & I2C_CR2_STOP);
 8000916:	6858      	ldr	r0, [r3, #4]
 8000918:	9001      	str	r0, [sp, #4]
          tmp2 = hi2c->Mode;
 800091a:	0020      	movs	r0, r4
 800091c:	3042      	adds	r0, #66	@ 0x42
 800091e:	7806      	ldrb	r6, [r0, #0]
 8000920:	b2f0      	uxtb	r0, r6
          if ((__HAL_I2C_GET_FLAG(hi2c, I2C_FLAG_BUSY) != RESET) && \
 8000922:	2680      	movs	r6, #128	@ 0x80
          tmp2 = hi2c->Mode;
 8000924:	9002      	str	r0, [sp, #8]
          if ((__HAL_I2C_GET_FLAG(hi2c, I2C_FLAG_BUSY) != RESET) && \
 8000926:	6998      	ldr	r0, [r3, #24]
 8000928:	0236      	lsls	r6, r6, #8
 800092a:	4230      	tst	r0, r6
 800092c:	d00b      	beq.n	8000946 <I2C_IsErrorOccurred+0xda>
          tmp1 = (uint32_t)(hi2c->Instance->CR2 & I2C_CR2_STOP);
 800092e:	2080      	movs	r0, #128	@ 0x80
          if ((__HAL_I2C_GET_FLAG(hi2c, I2C_FLAG_BUSY) != RESET) && \
 8000930:	9e01      	ldr	r6, [sp, #4]
          tmp1 = (uint32_t)(hi2c->Instance->CR2 & I2C_CR2_STOP);
 8000932:	01c0      	lsls	r0, r0, #7
          if ((__HAL_I2C_GET_FLAG(hi2c, I2C_FLAG_BUSY) != RESET) && \
 8000934:	4206      	tst	r6, r0
 8000936:	d106      	bne.n	8000946 <I2C_IsErrorOccurred+0xda>
              (tmp1 != I2C_CR2_STOP) && \
 8000938:	9e02      	ldr	r6, [sp, #8]
 800093a:	2e20      	cmp	r6, #32
 800093c:	d003      	beq.n	8000946 <I2C_IsErrorOccurred+0xda>
            hi2c->Instance->CR2 |= I2C_CR2_STOP;
 800093e:	685a      	ldr	r2, [r3, #4]
 8000940:	4310      	orrs	r0, r2
 8000942:	6058      	str	r0, [r3, #4]
 8000944:	6f7a      	ldr	r2, [r7, #116]	@ 0x74
 8000946:	4e09      	ldr	r6, [pc, #36]	@ (800096c <I2C_IsErrorOccurred+0x100>)
          while (__HAL_I2C_GET_FLAG(hi2c, I2C_FLAG_STOPF) == RESET)
 8000948:	6998      	ldr	r0, [r3, #24]
 800094a:	4208      	tst	r0, r1
 800094c:	d19f      	bne.n	800088e <I2C_IsErrorOccurred+0x22>
 800094e:	6f70      	ldr	r0, [r6, #116]	@ 0x74
            if ((HAL_GetTick() - tickstart) > I2C_TIMEOUT_STOPF)
 8000950:	1a80      	subs	r0, r0, r2
 8000952:	2819      	cmp	r0, #25
 8000954:	d9f8      	bls.n	8000948 <I2C_IsErrorOccurred+0xdc>
              error_code |= HAL_I2C_ERROR_TIMEOUT;
 8000956:	468c      	mov	ip, r1
              status = HAL_ERROR;
 8000958:	2501      	movs	r5, #1
 800095a:	e798      	b.n	800088e <I2C_IsErrorOccurred+0x22>
    if (status == HAL_OK)
 800095c:	2d00      	cmp	r5, #0
 800095e:	d19b      	bne.n	8000898 <I2C_IsErrorOccurred+0x2c>
      __HAL_I2C_CLEAR_FLAG(hi2c, I2C_FLAG_STOPF);
 8000960:	61d9      	str	r1, [r3, #28]
 8000962:	e799      	b.n	8000898 <I2C_IsErrorOccurred+0x2c>
  if (status != HAL_OK)
 8000964:	2800      	cmp	r0, #0
 8000966:	d1b2      	bne.n	80008ce <I2C_IsErrorOccurred+0x62>
  }

  return status;
}
 8000968:	b005      	add	sp, #20
 800096a:	bdf0      	pop	{r4, r5, r6, r7, pc}
 800096c:	20000080 	.word	0x20000080
 8000970:	fe00e800 	.word	0xfe00e800

08000974 <I2C_WaitOnFlagUntilTimeout>:
{
 8000974:	b5f7      	push	{r0, r1, r2, r4, r5, r6, r7, lr}
 8000976:	0004      	movs	r4, r0
 8000978:	000d      	movs	r5, r1
 800097a:	0016      	movs	r6, r2
 800097c:	9301      	str	r3, [sp, #4]
  while (__HAL_I2C_GET_FLAG(hi2c, Flag) == Status)
 800097e:	6827      	ldr	r7, [r4, #0]
 8000980:	69bb      	ldr	r3, [r7, #24]
 8000982:	402b      	ands	r3, r5
 8000984:	1b5b      	subs	r3, r3, r5
 8000986:	425a      	negs	r2, r3
 8000988:	4153      	adcs	r3, r2
 800098a:	42b3      	cmp	r3, r6
 800098c:	d001      	beq.n	8000992 <I2C_WaitOnFlagUntilTimeout+0x1e>
  return HAL_OK;
 800098e:	2000      	movs	r0, #0
 8000990:	e01f      	b.n	80009d2 <I2C_WaitOnFlagUntilTimeout+0x5e>
    if (I2C_IsErrorOccurred(hi2c, Timeout, Tickstart) != HAL_OK)
 8000992:	0020      	movs	r0, r4
 8000994:	9a08      	ldr	r2, [sp, #32]
 8000996:	9901      	ldr	r1, [sp, #4]
 8000998:	f7ff ff68 	bl	800086c <I2C_IsErrorOccurred>
 800099c:	2800      	cmp	r0, #0
 800099e:	d117      	bne.n	80009d0 <I2C_WaitOnFlagUntilTimeout+0x5c>
 80009a0:	4b0c      	ldr	r3, [pc, #48]	@ (80009d4 <I2C_WaitOnFlagUntilTimeout+0x60>)
      if (((HAL_GetTick() - Tickstart) > Timeout) || (Timeout == 0U))
 80009a2:	9a08      	ldr	r2, [sp, #32]
 80009a4:	6f5b      	ldr	r3, [r3, #116]	@ 0x74
 80009a6:	1a9b      	subs	r3, r3, r2
 80009a8:	9a01      	ldr	r2, [sp, #4]
 80009aa:	4293      	cmp	r3, r2
 80009ac:	d9e7      	bls.n	800097e <I2C_WaitOnFlagUntilTimeout+0xa>
        if ((__HAL_I2C_GET_FLAG(hi2c, Flag) == Status))
 80009ae:	69bb      	ldr	r3, [r7, #24]
 80009b0:	402b      	ands	r3, r5
 80009b2:	1b5b      	subs	r3, r3, r5
 80009b4:	425a      	negs	r2, r3
 80009b6:	4153      	adcs	r3, r2
 80009b8:	42b3      	cmp	r3, r6
 80009ba:	d1e0      	bne.n	800097e <I2C_WaitOnFlagUntilTimeout+0xa>
          hi2c->ErrorCode |= HAL_I2C_ERROR_TIMEOUT;
 80009bc:	2220      	movs	r2, #32
 80009be:	6c63      	ldr	r3, [r4, #68]	@ 0x44
 80009c0:	4313      	orrs	r3, r2
 80009c2:	6463      	str	r3, [r4, #68]	@ 0x44
          hi2c->State = HAL_I2C_STATE_READY;
 80009c4:	0023      	movs	r3, r4
          __HAL_UNLOCK(hi2c);
 80009c6:	3440      	adds	r4, #64	@ 0x40
          hi2c->State = HAL_I2C_STATE_READY;
 80009c8:	3341      	adds	r3, #65	@ 0x41
 80009ca:	701a      	strb	r2, [r3, #0]
          hi2c->Mode = HAL_I2C_MODE_NONE;
 80009cc:	7058      	strb	r0, [r3, #1]
          __HAL_UNLOCK(hi2c);
 80009ce:	7020      	strb	r0, [r4, #0]
      return HAL_ERROR;
 80009d0:	2001      	movs	r0, #1
}
 80009d2:	bdfe      	pop	{r1, r2, r3, r4, r5, r6, r7, pc}
 80009d4:	20000080 	.word	0x20000080

080009d8 <HAL_RCC_GetSysClockFreq>:
  uint32_t sysclockfreq = 0U;
  
  tmpreg = RCC->CFGR;
  
  /* Get SYSCLK source -------------------------------------------------------*/
  switch (tmpreg & RCC_CFGR_SWS)
 80009d8:	230c      	movs	r3, #12
{
 80009da:	b570      	push	{r4, r5, r6, lr}
  tmpreg = RCC->CFGR;
 80009dc:	4d0c      	ldr	r5, [pc, #48]	@ (8000a10 <HAL_RCC_GetSysClockFreq+0x38>)
 80009de:	686a      	ldr	r2, [r5, #4]
  switch (tmpreg & RCC_CFGR_SWS)
 80009e0:	4013      	ands	r3, r2
 80009e2:	2b08      	cmp	r3, #8
 80009e4:	d111      	bne.n	8000a0a <HAL_RCC_GetSysClockFreq+0x32>
      sysclockfreq = HSE_VALUE;
      break;
    }
    case RCC_SYSCLKSOURCE_STATUS_PLLCLK:  /* PLL used as system clock */
    {
      pllmul = aPLLMULFactorTable[(uint32_t)(tmpreg & RCC_CFGR_PLLMUL) >> RCC_CFGR_PLLMUL_BITNUMBER];
 80009e6:	200f      	movs	r0, #15
 80009e8:	4b0a      	ldr	r3, [pc, #40]	@ (8000a14 <HAL_RCC_GetSysClockFreq+0x3c>)
 80009ea:	0c91      	lsrs	r1, r2, #18
 80009ec:	4001      	ands	r1, r0
 80009ee:	5c5c      	ldrb	r4, [r3, r1]
      prediv = aPredivFactorTable[(uint32_t)(RCC->CFGR2 & RCC_CFGR2_PREDIV) >> RCC_CFGR2_PREDIV_BITNUMBER];
 80009f0:	6ae9      	ldr	r1, [r5, #44]	@ 0x2c
      if ((tmpreg & RCC_CFGR_PLLSRC) == RCC_PLLSOURCE_HSE)
 80009f2:	03d2      	lsls	r2, r2, #15
 80009f4:	d507      	bpl.n	8000a06 <HAL_RCC_GetSysClockFreq+0x2e>
      prediv = aPredivFactorTable[(uint32_t)(RCC->CFGR2 & RCC_CFGR2_PREDIV) >> RCC_CFGR2_PREDIV_BITNUMBER];
 80009f6:	4001      	ands	r1, r0
 80009f8:	185b      	adds	r3, r3, r1
 80009fa:	7c19      	ldrb	r1, [r3, #16]
      {
        /* HSE used as PLL clock source : PLLCLK = HSE/PREDIV * PLLMUL */
        pllclk = (uint32_t)((uint64_t) HSE_VALUE / (uint64_t) (prediv)) * ((uint64_t) pllmul);
 80009fc:	4806      	ldr	r0, [pc, #24]	@ (8000a18 <HAL_RCC_GetSysClockFreq+0x40>)
 80009fe:	f004 fb57 	bl	80050b0 <__udivsi3>
#if  (defined(STM32F042x6) || defined(STM32F048xx) || defined(STM32F070x6) || defined(STM32F071xB) || defined(STM32F072xB) || defined(STM32F078xx) || defined(STM32F070xB) || defined(STM32F091xC) || defined(STM32F098xx) || defined(STM32F030xC))
        /* HSI used as PLL clock source : PLLCLK = HSI/PREDIV * PLLMUL */
        pllclk = (uint32_t)((uint64_t) HSI_VALUE / (uint64_t) (prediv)) * ((uint64_t) pllmul);
#else
        /* HSI used as PLL clock source : PLLCLK = HSI/2 * PLLMUL */
        pllclk = (uint32_t)((uint64_t) (HSI_VALUE >> 1U) * ((uint64_t) pllmul));
 8000a02:	4360      	muls	r0, r4
      sysclockfreq = HSI_VALUE;
      break;
    }
  }
  return sysclockfreq;
}
 8000a04:	bd70      	pop	{r4, r5, r6, pc}
        pllclk = (uint32_t)((uint64_t) (HSI_VALUE >> 1U) * ((uint64_t) pllmul));
 8000a06:	4805      	ldr	r0, [pc, #20]	@ (8000a1c <HAL_RCC_GetSysClockFreq+0x44>)
 8000a08:	e7fb      	b.n	8000a02 <HAL_RCC_GetSysClockFreq+0x2a>
      sysclockfreq = HSE_VALUE;
 8000a0a:	4803      	ldr	r0, [pc, #12]	@ (8000a18 <HAL_RCC_GetSysClockFreq+0x40>)
  return sysclockfreq;
 8000a0c:	e7fa      	b.n	8000a04 <HAL_RCC_GetSysClockFreq+0x2c>
 8000a0e:	46c0      	nop			@ (mov r8, r8)
 8000a10:	40021000 	.word	0x40021000
 8000a14:	08007348 	.word	0x08007348
 8000a18:	007a1200 	.word	0x007a1200
 8000a1c:	003d0900 	.word	0x003d0900

08000a20 <HAL_TIM_SlaveConfigSynchro>:
{
 8000a20:	b5f0      	push	{r4, r5, r6, r7, lr}
  __HAL_LOCK(htim);
 8000a22:	0004      	movs	r4, r0
 8000a24:	2202      	movs	r2, #2
 8000a26:	343c      	adds	r4, #60	@ 0x3c
 8000a28:	7825      	ldrb	r5, [r4, #0]
{
 8000a2a:	0003      	movs	r3, r0
  __HAL_LOCK(htim);
 8000a2c:	0010      	movs	r0, r2
 8000a2e:	2d01      	cmp	r5, #1
 8000a30:	d02e      	beq.n	8000a90 <HAL_TIM_SlaveConfigSynchro+0x70>
  htim->State = HAL_TIM_STATE_BUSY;
 8000a32:	001d      	movs	r5, r3
  __HAL_LOCK(htim);
 8000a34:	2601      	movs	r6, #1
  tmpsmcr &= ~TIM_SMCR_SMS;
 8000a36:	2707      	movs	r7, #7
  htim->State = HAL_TIM_STATE_BUSY;
 8000a38:	353d      	adds	r5, #61	@ 0x3d
  __HAL_LOCK(htim);
 8000a3a:	7026      	strb	r6, [r4, #0]
  htim->State = HAL_TIM_STATE_BUSY;
 8000a3c:	702a      	strb	r2, [r5, #0]
  tmpsmcr = htim->Instance->SMCR;
 8000a3e:	681b      	ldr	r3, [r3, #0]
  tmpsmcr &= ~TIM_SMCR_TS;
 8000a40:	326e      	adds	r2, #110	@ 0x6e
  tmpsmcr = htim->Instance->SMCR;
 8000a42:	6898      	ldr	r0, [r3, #8]
  tmpsmcr &= ~TIM_SMCR_TS;
 8000a44:	4390      	bics	r0, r2
  tmpsmcr |= sSlaveConfig->InputTrigger;
 8000a46:	684a      	ldr	r2, [r1, #4]
 8000a48:	4310      	orrs	r0, r2
  tmpsmcr &= ~TIM_SMCR_SMS;
 8000a4a:	43b8      	bics	r0, r7
  tmpsmcr |= sSlaveConfig->SlaveMode;
 8000a4c:	680f      	ldr	r7, [r1, #0]
 8000a4e:	4338      	orrs	r0, r7
  htim->Instance->SMCR = tmpsmcr;
 8000a50:	6098      	str	r0, [r3, #8]
  switch (sSlaveConfig->InputTrigger)
 8000a52:	2a50      	cmp	r2, #80	@ 0x50
 8000a54:	d03c      	beq.n	8000ad0 <HAL_TIM_SlaveConfigSynchro+0xb0>
 8000a56:	d81c      	bhi.n	8000a92 <HAL_TIM_SlaveConfigSynchro+0x72>
 8000a58:	2a40      	cmp	r2, #64	@ 0x40
 8000a5a:	d02a      	beq.n	8000ab2 <HAL_TIM_SlaveConfigSynchro+0x92>
 8000a5c:	d814      	bhi.n	8000a88 <HAL_TIM_SlaveConfigSynchro+0x68>
 8000a5e:	2a20      	cmp	r2, #32
 8000a60:	d003      	beq.n	8000a6a <HAL_TIM_SlaveConfigSynchro+0x4a>
 8000a62:	d80f      	bhi.n	8000a84 <HAL_TIM_SlaveConfigSynchro+0x64>
 8000a64:	2110      	movs	r1, #16
 8000a66:	438a      	bics	r2, r1
 8000a68:	d10e      	bne.n	8000a88 <HAL_TIM_SlaveConfigSynchro+0x68>
  __HAL_TIM_DISABLE_IT(htim, TIM_IT_TRIGGER);
 8000a6a:	2140      	movs	r1, #64	@ 0x40
 8000a6c:	68da      	ldr	r2, [r3, #12]
  __HAL_UNLOCK(htim);
 8000a6e:	2000      	movs	r0, #0
  __HAL_TIM_DISABLE_IT(htim, TIM_IT_TRIGGER);
 8000a70:	438a      	bics	r2, r1
 8000a72:	60da      	str	r2, [r3, #12]
  __HAL_TIM_DISABLE_DMA(htim, TIM_DMA_TRIGGER);
 8000a74:	68da      	ldr	r2, [r3, #12]
 8000a76:	4928      	ldr	r1, [pc, #160]	@ (8000b18 <HAL_TIM_SlaveConfigSynchro+0xf8>)
 8000a78:	400a      	ands	r2, r1
 8000a7a:	60da      	str	r2, [r3, #12]
  htim->State = HAL_TIM_STATE_READY;
 8000a7c:	2301      	movs	r3, #1
 8000a7e:	702b      	strb	r3, [r5, #0]
  __HAL_UNLOCK(htim);
 8000a80:	7020      	strb	r0, [r4, #0]
  return HAL_OK;
 8000a82:	e005      	b.n	8000a90 <HAL_TIM_SlaveConfigSynchro+0x70>
  switch (sSlaveConfig->InputTrigger)
 8000a84:	2a30      	cmp	r2, #48	@ 0x30
 8000a86:	d0f0      	beq.n	8000a6a <HAL_TIM_SlaveConfigSynchro+0x4a>
    htim->State = HAL_TIM_STATE_READY;
 8000a88:	2001      	movs	r0, #1
    __HAL_UNLOCK(htim);
 8000a8a:	2300      	movs	r3, #0
    htim->State = HAL_TIM_STATE_READY;
 8000a8c:	7028      	strb	r0, [r5, #0]
    __HAL_UNLOCK(htim);
 8000a8e:	7023      	strb	r3, [r4, #0]
}
 8000a90:	bdf0      	pop	{r4, r5, r6, r7, pc}
  switch (sSlaveConfig->InputTrigger)
 8000a92:	2a60      	cmp	r2, #96	@ 0x60
 8000a94:	d02d      	beq.n	8000af2 <HAL_TIM_SlaveConfigSynchro+0xd2>
 8000a96:	2a70      	cmp	r2, #112	@ 0x70
 8000a98:	d1f6      	bne.n	8000a88 <HAL_TIM_SlaveConfigSynchro+0x68>
  tmpsmcr = TIMx->SMCR;
 8000a9a:	6898      	ldr	r0, [r3, #8]
  tmpsmcr &= ~(TIM_SMCR_ETF | TIM_SMCR_ETPS | TIM_SMCR_ECE | TIM_SMCR_ETP);
 8000a9c:	4a1f      	ldr	r2, [pc, #124]	@ (8000b1c <HAL_TIM_SlaveConfigSynchro+0xfc>)
  tmpsmcr |= (uint32_t)(TIM_ExtTRGPrescaler | (TIM_ExtTRGPolarity | (ExtTRGFilter << 8U)));
 8000a9e:	688e      	ldr	r6, [r1, #8]
  tmpsmcr &= ~(TIM_SMCR_ETF | TIM_SMCR_ETPS | TIM_SMCR_ECE | TIM_SMCR_ETP);
 8000aa0:	4010      	ands	r0, r2
  tmpsmcr |= (uint32_t)(TIM_ExtTRGPrescaler | (TIM_ExtTRGPolarity | (ExtTRGFilter << 8U)));
 8000aa2:	68ca      	ldr	r2, [r1, #12]
 8000aa4:	6909      	ldr	r1, [r1, #16]
 8000aa6:	4332      	orrs	r2, r6
 8000aa8:	0209      	lsls	r1, r1, #8
 8000aaa:	430a      	orrs	r2, r1
 8000aac:	4302      	orrs	r2, r0
  TIMx->SMCR = tmpsmcr;
 8000aae:	609a      	str	r2, [r3, #8]
      break;
 8000ab0:	e7db      	b.n	8000a6a <HAL_TIM_SlaveConfigSynchro+0x4a>
      if (sSlaveConfig->SlaveMode == TIM_SLAVEMODE_GATED)
 8000ab2:	2f05      	cmp	r7, #5
 8000ab4:	d0e8      	beq.n	8000a88 <HAL_TIM_SlaveConfigSynchro+0x68>
      tmpccer = htim->Instance->CCER;
 8000ab6:	6a18      	ldr	r0, [r3, #32]
      htim->Instance->CCER &= ~TIM_CCER_CC1E;
 8000ab8:	6a1a      	ldr	r2, [r3, #32]
 8000aba:	43b2      	bics	r2, r6
 8000abc:	621a      	str	r2, [r3, #32]
      tmpccmr1 &= ~TIM_CCMR1_IC1F;
 8000abe:	22f0      	movs	r2, #240	@ 0xf0
      tmpccmr1 = htim->Instance->CCMR1;
 8000ac0:	699e      	ldr	r6, [r3, #24]
      tmpccmr1 &= ~TIM_CCMR1_IC1F;
 8000ac2:	4396      	bics	r6, r2
      tmpccmr1 |= ((sSlaveConfig->TriggerFilter) << 4U);
 8000ac4:	690a      	ldr	r2, [r1, #16]
 8000ac6:	0112      	lsls	r2, r2, #4
 8000ac8:	4332      	orrs	r2, r6
      htim->Instance->CCMR1 = tmpccmr1;
 8000aca:	619a      	str	r2, [r3, #24]
      htim->Instance->CCER = tmpccer;
 8000acc:	6218      	str	r0, [r3, #32]
      break;
 8000ace:	e7cc      	b.n	8000a6a <HAL_TIM_SlaveConfigSynchro+0x4a>
                               sSlaveConfig->TriggerPolarity,
 8000ad0:	6888      	ldr	r0, [r1, #8]
                               sSlaveConfig->TriggerFilter);
 8000ad2:	690a      	ldr	r2, [r1, #16]
  tmpccer = TIMx->CCER;
 8000ad4:	6a19      	ldr	r1, [r3, #32]
  TIMx->CCER &= ~TIM_CCER_CC1E;
 8000ad6:	6a1f      	ldr	r7, [r3, #32]
  tmpccmr1 |= (TIM_ICFilter << 4U);
 8000ad8:	0112      	lsls	r2, r2, #4
  TIMx->CCER &= ~TIM_CCER_CC1E;
 8000ada:	43b7      	bics	r7, r6
 8000adc:	621f      	str	r7, [r3, #32]
  tmpccmr1 &= ~TIM_CCMR1_IC1F;
 8000ade:	27f0      	movs	r7, #240	@ 0xf0
  tmpccmr1 = TIMx->CCMR1;
 8000ae0:	699e      	ldr	r6, [r3, #24]
  tmpccmr1 &= ~TIM_CCMR1_IC1F;
 8000ae2:	43be      	bics	r6, r7
  tmpccmr1 |= (TIM_ICFilter << 4U);
 8000ae4:	4332      	orrs	r2, r6
  tmpccer &= ~(TIM_CCER_CC1P | TIM_CCER_CC1NP);
 8000ae6:	260a      	movs	r6, #10
 8000ae8:	43b1      	bics	r1, r6
  tmpccer |= TIM_ICPolarity;
 8000aea:	4301      	orrs	r1, r0
  TIMx->CCMR1 = tmpccmr1;
 8000aec:	619a      	str	r2, [r3, #24]
  TIMx->CCER = tmpccer;
 8000aee:	6219      	str	r1, [r3, #32]
      break;
 8000af0:	e7bb      	b.n	8000a6a <HAL_TIM_SlaveConfigSynchro+0x4a>
  TIMx->CCER &= ~TIM_CCER_CC2E;
 8000af2:	2710      	movs	r7, #16
  tmpccer = TIMx->CCER;
 8000af4:	6a18      	ldr	r0, [r3, #32]
  TIMx->CCER &= ~TIM_CCER_CC2E;
 8000af6:	6a1e      	ldr	r6, [r3, #32]
                               sSlaveConfig->TriggerPolarity,
 8000af8:	688a      	ldr	r2, [r1, #8]
  TIMx->CCER &= ~TIM_CCER_CC2E;
 8000afa:	43be      	bics	r6, r7
                               sSlaveConfig->TriggerFilter);
 8000afc:	6909      	ldr	r1, [r1, #16]
  TIMx->CCER &= ~TIM_CCER_CC2E;
 8000afe:	621e      	str	r6, [r3, #32]
  tmpccmr1 = TIMx->CCMR1;
 8000b00:	699e      	ldr	r6, [r3, #24]
  tmpccmr1 &= ~TIM_CCMR1_IC2F;
 8000b02:	4f07      	ldr	r7, [pc, #28]	@ (8000b20 <HAL_TIM_SlaveConfigSynchro+0x100>)
  tmpccmr1 |= (TIM_ICFilter << 12U);
 8000b04:	0309      	lsls	r1, r1, #12
  tmpccmr1 &= ~TIM_CCMR1_IC2F;
 8000b06:	403e      	ands	r6, r7
  tmpccmr1 |= (TIM_ICFilter << 12U);
 8000b08:	4331      	orrs	r1, r6
  tmpccer &= ~(TIM_CCER_CC2P | TIM_CCER_CC2NP);
 8000b0a:	26a0      	movs	r6, #160	@ 0xa0
  tmpccer |= (TIM_ICPolarity << 4U);
 8000b0c:	0112      	lsls	r2, r2, #4
  tmpccer &= ~(TIM_CCER_CC2P | TIM_CCER_CC2NP);
 8000b0e:	43b0      	bics	r0, r6
  tmpccer |= (TIM_ICPolarity << 4U);
 8000b10:	4302      	orrs	r2, r0
  TIMx->CCMR1 = tmpccmr1 ;
 8000b12:	6199      	str	r1, [r3, #24]
  TIMx->CCER = tmpccer;
 8000b14:	621a      	str	r2, [r3, #32]
      break;
 8000b16:	e7a8      	b.n	8000a6a <HAL_TIM_SlaveConfigSynchro+0x4a>
 8000b18:	ffffbfff 	.word	0xffffbfff
 8000b1c:	ffff00ff 	.word	0xffff00ff
 8000b20:	ffff0fff 	.word	0xffff0fff

08000b24 <TIM_DMAError>:
  TIM_HandleTypeDef *htim = (TIM_HandleTypeDef *)((DMA_HandleTypeDef *)hdma)->Parent;
 8000b24:	6a43      	ldr	r3, [r0, #36]	@ 0x24
  if (hdma == htim->hdma[TIM_DMA_ID_CC1])
 8000b26:	2201      	movs	r2, #1
 8000b28:	6a59      	ldr	r1, [r3, #36]	@ 0x24
 8000b2a:	4281      	cmp	r1, r0
 8000b2c:	d105      	bne.n	8000b3a <TIM_DMAError+0x16>
    TIM_CHANNEL_STATE_SET(htim, TIM_CHANNEL_1, HAL_TIM_CHANNEL_STATE_READY);
 8000b2e:	0019      	movs	r1, r3
 8000b30:	313e      	adds	r1, #62	@ 0x3e
    htim->State = HAL_TIM_STATE_READY;
 8000b32:	700a      	strb	r2, [r1, #0]
  htim->Channel = HAL_TIM_ACTIVE_CHANNEL_CLEARED;
 8000b34:	2200      	movs	r2, #0
 8000b36:	771a      	strb	r2, [r3, #28]
}
 8000b38:	4770      	bx	lr
  else if (hdma == htim->hdma[TIM_DMA_ID_CC2])
 8000b3a:	6a99      	ldr	r1, [r3, #40]	@ 0x28
 8000b3c:	4281      	cmp	r1, r0
 8000b3e:	d102      	bne.n	8000b46 <TIM_DMAError+0x22>
    TIM_CHANNEL_STATE_SET(htim, TIM_CHANNEL_2, HAL_TIM_CHANNEL_STATE_READY);
 8000b40:	0019      	movs	r1, r3
 8000b42:	313f      	adds	r1, #63	@ 0x3f
 8000b44:	e7f5      	b.n	8000b32 <TIM_DMAError+0xe>
  else if (hdma == htim->hdma[TIM_DMA_ID_CC3])
 8000b46:	6ad9      	ldr	r1, [r3, #44]	@ 0x2c
 8000b48:	4281      	cmp	r1, r0
 8000b4a:	d102      	bne.n	8000b52 <TIM_DMAError+0x2e>
    TIM_CHANNEL_STATE_SET(htim, TIM_CHANNEL_3, HAL_TIM_CHANNEL_STATE_READY);
 8000b4c:	0019      	movs	r1, r3
 8000b4e:	3140      	adds	r1, #64	@ 0x40
 8000b50:	e7ef      	b.n	8000b32 <TIM_DMAError+0xe>
  else if (hdma == htim->hdma[TIM_DMA_ID_CC4])
 8000b52:	6b19      	ldr	r1, [r3, #48]	@ 0x30
 8000b54:	4281      	cmp	r1, r0
 8000b56:	d102      	bne.n	8000b5e <TIM_DMAError+0x3a>
    TIM_CHANNEL_STATE_SET(htim, TIM_CHANNEL_4, HAL_TIM_CHANNEL_STATE_READY);
 8000b58:	0019      	movs	r1, r3
 8000b5a:	3141      	adds	r1, #65	@ 0x41
 8000b5c:	e7e9      	b.n	8000b32 <TIM_DMAError+0xe>
    htim->State = HAL_TIM_STATE_READY;
 8000b5e:	0019      	movs	r1, r3
 8000b60:	313d      	adds	r1, #61	@ 0x3d
 8000b62:	e7e6      	b.n	8000b32 <TIM_DMAError+0xe>

08000b64 <TIM_Base_SetConfig>:
{
 8000b64:	b510      	push	{r4, lr}
  if (IS_TIM_COUNTER_MODE_SELECT_INSTANCE(TIMx))
 8000b66:	4c1b      	ldr	r4, [pc, #108]	@ (8000bd4 <TIM_Base_SetConfig+0x70>)
  tmpcr1 = TIMx->CR1;
 8000b68:	6803      	ldr	r3, [r0, #0]
  if (IS_TIM_COUNTER_MODE_SELECT_INSTANCE(TIMx))
 8000b6a:	42a0      	cmp	r0, r4
 8000b6c:	d00a      	beq.n	8000b84 <TIM_Base_SetConfig+0x20>
 8000b6e:	4a1a      	ldr	r2, [pc, #104]	@ (8000bd8 <TIM_Base_SetConfig+0x74>)
 8000b70:	4290      	cmp	r0, r2
 8000b72:	d007      	beq.n	8000b84 <TIM_Base_SetConfig+0x20>
  if (IS_TIM_CLOCK_DIVISION_INSTANCE(TIMx))
 8000b74:	4a19      	ldr	r2, [pc, #100]	@ (8000bdc <TIM_Base_SetConfig+0x78>)
 8000b76:	4290      	cmp	r0, r2
 8000b78:	d109      	bne.n	8000b8e <TIM_Base_SetConfig+0x2a>
    tmpcr1 &= ~TIM_CR1_CKD;
 8000b7a:	4a19      	ldr	r2, [pc, #100]	@ (8000be0 <TIM_Base_SetConfig+0x7c>)
 8000b7c:	401a      	ands	r2, r3
    tmpcr1 |= (uint32_t)Structure->ClockDivision;
 8000b7e:	68cb      	ldr	r3, [r1, #12]
 8000b80:	4313      	orrs	r3, r2
 8000b82:	e00a      	b.n	8000b9a <TIM_Base_SetConfig+0x36>
    tmpcr1 &= ~(TIM_CR1_DIR | TIM_CR1_CMS);
 8000b84:	2270      	movs	r2, #112	@ 0x70
 8000b86:	4393      	bics	r3, r2
    tmpcr1 |= Structure->CounterMode;
 8000b88:	684a      	ldr	r2, [r1, #4]
 8000b8a:	4313      	orrs	r3, r2
  if (IS_TIM_CLOCK_DIVISION_INSTANCE(TIMx))
 8000b8c:	e7f5      	b.n	8000b7a <TIM_Base_SetConfig+0x16>
 8000b8e:	4a15      	ldr	r2, [pc, #84]	@ (8000be4 <TIM_Base_SetConfig+0x80>)
 8000b90:	4290      	cmp	r0, r2
 8000b92:	d0f2      	beq.n	8000b7a <TIM_Base_SetConfig+0x16>
 8000b94:	4a14      	ldr	r2, [pc, #80]	@ (8000be8 <TIM_Base_SetConfig+0x84>)
 8000b96:	4290      	cmp	r0, r2
 8000b98:	d0ef      	beq.n	8000b7a <TIM_Base_SetConfig+0x16>
  MODIFY_REG(tmpcr1, TIM_CR1_ARPE, Structure->AutoReloadPreload);
 8000b9a:	2280      	movs	r2, #128	@ 0x80
 8000b9c:	4393      	bics	r3, r2
 8000b9e:	694a      	ldr	r2, [r1, #20]
 8000ba0:	4313      	orrs	r3, r2
  TIMx->CR1 = tmpcr1;
 8000ba2:	6003      	str	r3, [r0, #0]
  TIMx->ARR = (uint32_t)Structure->Period ;
 8000ba4:	688b      	ldr	r3, [r1, #8]
 8000ba6:	62c3      	str	r3, [r0, #44]	@ 0x2c
  TIMx->PSC = Structure->Prescaler;
 8000ba8:	680b      	ldr	r3, [r1, #0]
 8000baa:	6283      	str	r3, [r0, #40]	@ 0x28
  if (IS_TIM_REPETITION_COUNTER_INSTANCE(TIMx))
 8000bac:	42a0      	cmp	r0, r4
 8000bae:	d005      	beq.n	8000bbc <TIM_Base_SetConfig+0x58>
 8000bb0:	4b0c      	ldr	r3, [pc, #48]	@ (8000be4 <TIM_Base_SetConfig+0x80>)
 8000bb2:	4298      	cmp	r0, r3
 8000bb4:	d002      	beq.n	8000bbc <TIM_Base_SetConfig+0x58>
 8000bb6:	4b0c      	ldr	r3, [pc, #48]	@ (8000be8 <TIM_Base_SetConfig+0x84>)
 8000bb8:	4298      	cmp	r0, r3
 8000bba:	d101      	bne.n	8000bc0 <TIM_Base_SetConfig+0x5c>
    TIMx->RCR = Structure->RepetitionCounter;
 8000bbc:	690b      	ldr	r3, [r1, #16]
 8000bbe:	6303      	str	r3, [r0, #48]	@ 0x30
  TIMx->EGR = TIM_EGR_UG;
 8000bc0:	2201      	movs	r2, #1
 8000bc2:	6142      	str	r2, [r0, #20]
  if (HAL_IS_BIT_SET(TIMx->SR, TIM_FLAG_UPDATE))
 8000bc4:	6903      	ldr	r3, [r0, #16]
 8000bc6:	4213      	tst	r3, r2
 8000bc8:	d002      	beq.n	8000bd0 <TIM_Base_SetConfig+0x6c>
    CLEAR_BIT(TIMx->SR, TIM_FLAG_UPDATE);
 8000bca:	6903      	ldr	r3, [r0, #16]
 8000bcc:	4393      	bics	r3, r2
 8000bce:	6103      	str	r3, [r0, #16]
}
 8000bd0:	bd10      	pop	{r4, pc}
 8000bd2:	46c0      	nop			@ (mov r8, r8)
 8000bd4:	40012c00 	.word	0x40012c00
 8000bd8:	40000400 	.word	0x40000400
 8000bdc:	40002000 	.word	0x40002000
 8000be0:	fffffcff 	.word	0xfffffcff
 8000be4:	40014400 	.word	0x40014400
 8000be8:	40014800 	.word	0x40014800

08000bec <UART_DMAAbortOnError>:
  * @param  hdma DMA handle.
  * @retval None
  */
static void UART_DMAAbortOnError(DMA_HandleTypeDef *hdma)
{
  UART_HandleTypeDef *huart = (UART_HandleTypeDef *)(hdma->Parent);
 8000bec:	6a43      	ldr	r3, [r0, #36]	@ 0x24
  huart->RxXferCount = 0U;
 8000bee:	2200      	movs	r2, #0
 8000bf0:	0019      	movs	r1, r3
  huart->TxXferCount = 0U;
 8000bf2:	3352      	adds	r3, #82	@ 0x52
  huart->RxXferCount = 0U;
 8000bf4:	315a      	adds	r1, #90	@ 0x5a
 8000bf6:	800a      	strh	r2, [r1, #0]
  huart->TxXferCount = 0U;
 8000bf8:	801a      	strh	r2, [r3, #0]
  huart->ErrorCallback(huart);
#else
  /*Call legacy weak error callback*/
  HAL_UART_ErrorCallback(huart);
#endif /* USE_HAL_UART_REGISTER_CALLBACKS */
}
 8000bfa:	4770      	bx	lr

08000bfc <RTC_TickISR.constprop.0>:
}

/* ─── ISR tick ───────────────────────────────────────────────────────────── */
void RTC_TickISR(RTC_Handle_t *hrtc)
{
    hrtc->tick_flag = 1;
 8000bfc:	2101      	movs	r1, #1
 8000bfe:	4a03      	ldr	r2, [pc, #12]	@ (8000c0c <RTC_TickISR.constprop.0+0x10>)
 8000c00:	4b03      	ldr	r3, [pc, #12]	@ (8000c10 <RTC_TickISR.constprop.0+0x14>)
 8000c02:	7019      	strb	r1, [r3, #0]
    hrtc->unix_approx++;
 8000c04:	6fd3      	ldr	r3, [r2, #124]	@ 0x7c
 8000c06:	185b      	adds	r3, r3, r1
 8000c08:	67d3      	str	r3, [r2, #124]	@ 0x7c
}
 8000c0a:	4770      	bx	lr
 8000c0c:	20000544 	.word	0x20000544
 8000c10:	200005c4 	.word	0x200005c4

08000c14 <HAL_TIMEx_MasterConfigSynchronization.constprop.0>:
  * @param  sMasterConfig pointer to a TIM_MasterConfigTypeDef structure that
  *         contains the selected trigger output (TRGO) and the Master/Slave
  *         mode.
  * @retval HAL status
  */
HAL_StatusTypeDef HAL_TIMEx_MasterConfigSynchronization(TIM_HandleTypeDef *htim,
 8000c14:	b530      	push	{r4, r5, lr}
  assert_param(IS_TIM_MASTER_INSTANCE(htim->Instance));
  assert_param(IS_TIM_TRGO_SOURCE(sMasterConfig->MasterOutputTrigger));
  assert_param(IS_TIM_MSM_STATE(sMasterConfig->MasterSlaveMode));

  /* Check input state */
  __HAL_LOCK(htim);
 8000c16:	0004      	movs	r4, r0
 8000c18:	2202      	movs	r2, #2
 8000c1a:	343c      	adds	r4, #60	@ 0x3c
 8000c1c:	7821      	ldrb	r1, [r4, #0]
HAL_StatusTypeDef HAL_TIMEx_MasterConfigSynchronization(TIM_HandleTypeDef *htim,
 8000c1e:	0003      	movs	r3, r0
  __HAL_LOCK(htim);
 8000c20:	0010      	movs	r0, r2
 8000c22:	2901      	cmp	r1, #1
 8000c24:	d015      	beq.n	8000c52 <HAL_TIMEx_MasterConfigSynchronization.constprop.0+0x3e>

  /* Change the handler state */
  htim->State = HAL_TIM_STATE_BUSY;
 8000c26:	0018      	movs	r0, r3

  /* Get the TIMx SMCR register value */
  tmpsmcr = htim->Instance->SMCR;

  /* Reset the MMS Bits */
  tmpcr2 &= ~TIM_CR2_MMS;
 8000c28:	2570      	movs	r5, #112	@ 0x70
  htim->State = HAL_TIM_STATE_BUSY;
 8000c2a:	303d      	adds	r0, #61	@ 0x3d
 8000c2c:	7002      	strb	r2, [r0, #0]
  tmpcr2 = htim->Instance->CR2;
 8000c2e:	681b      	ldr	r3, [r3, #0]
 8000c30:	6859      	ldr	r1, [r3, #4]
  tmpsmcr = htim->Instance->SMCR;
 8000c32:	689a      	ldr	r2, [r3, #8]
  tmpcr2 &= ~TIM_CR2_MMS;
 8000c34:	43a9      	bics	r1, r5
  /* Select the TRGO source */
  tmpcr2 |=  sMasterConfig->MasterOutputTrigger;

  /* Update TIMx CR2 */
  htim->Instance->CR2 = tmpcr2;
 8000c36:	6059      	str	r1, [r3, #4]

  if (IS_TIM_SLAVE_INSTANCE(htim->Instance))
 8000c38:	4906      	ldr	r1, [pc, #24]	@ (8000c54 <HAL_TIMEx_MasterConfigSynchronization.constprop.0+0x40>)
 8000c3a:	428b      	cmp	r3, r1
 8000c3c:	d002      	beq.n	8000c44 <HAL_TIMEx_MasterConfigSynchronization.constprop.0+0x30>
 8000c3e:	4906      	ldr	r1, [pc, #24]	@ (8000c58 <HAL_TIMEx_MasterConfigSynchronization.constprop.0+0x44>)
 8000c40:	428b      	cmp	r3, r1
 8000c42:	d102      	bne.n	8000c4a <HAL_TIMEx_MasterConfigSynchronization.constprop.0+0x36>
  {
    /* Reset the MSM Bit */
    tmpsmcr &= ~TIM_SMCR_MSM;
 8000c44:	2180      	movs	r1, #128	@ 0x80
 8000c46:	438a      	bics	r2, r1
    /* Set master mode */
    tmpsmcr |= sMasterConfig->MasterSlaveMode;

    /* Update TIMx SMCR */
    htim->Instance->SMCR = tmpsmcr;
 8000c48:	609a      	str	r2, [r3, #8]
  }

  /* Change the htim state */
  htim->State = HAL_TIM_STATE_READY;
 8000c4a:	2301      	movs	r3, #1
 8000c4c:	7003      	strb	r3, [r0, #0]

  __HAL_UNLOCK(htim);
 8000c4e:	2000      	movs	r0, #0
 8000c50:	7020      	strb	r0, [r4, #0]

  return HAL_OK;
}
 8000c52:	bd30      	pop	{r4, r5, pc}
 8000c54:	40012c00 	.word	0x40012c00
 8000c58:	40000400 	.word	0x40000400

08000c5c <UART_EndRxTransfer.constprop.0>:
static void UART_EndRxTransfer(UART_HandleTypeDef *huart)
 8000c5c:	b530      	push	{r4, r5, lr}
  __ASM volatile ("MRS %0, primask" : "=r" (result) :: "memory");
 8000c5e:	f3ef 8410 	mrs	r4, PRIMASK
  __ASM volatile ("MSR primask, %0" : : "r" (priMask) : "memory");
 8000c62:	2101      	movs	r1, #1
 8000c64:	f381 8810 	msr	PRIMASK, r1
  ATOMIC_CLEAR_BIT(huart->Instance->CR1, (USART_CR1_RXNEIE | USART_CR1_PEIE));
 8000c68:	4b13      	ldr	r3, [pc, #76]	@ (8000cb8 <UART_EndRxTransfer.constprop.0+0x5c>)
 8000c6a:	4d14      	ldr	r5, [pc, #80]	@ (8000cbc <UART_EndRxTransfer.constprop.0+0x60>)
 8000c6c:	6818      	ldr	r0, [r3, #0]
 8000c6e:	6802      	ldr	r2, [r0, #0]
 8000c70:	402a      	ands	r2, r5
 8000c72:	6002      	str	r2, [r0, #0]
 8000c74:	f384 8810 	msr	PRIMASK, r4
  __ASM volatile ("MRS %0, primask" : "=r" (result) :: "memory");
 8000c78:	f3ef 8410 	mrs	r4, PRIMASK
  __ASM volatile ("MSR primask, %0" : : "r" (priMask) : "memory");
 8000c7c:	f381 8810 	msr	PRIMASK, r1
  ATOMIC_CLEAR_BIT(huart->Instance->CR3, USART_CR3_EIE);
 8000c80:	6818      	ldr	r0, [r3, #0]
 8000c82:	6882      	ldr	r2, [r0, #8]
 8000c84:	438a      	bics	r2, r1
 8000c86:	6082      	str	r2, [r0, #8]
 8000c88:	f384 8810 	msr	PRIMASK, r4
  if (huart->ReceptionType == HAL_UART_RECEPTION_TOIDLE)
 8000c8c:	6e1a      	ldr	r2, [r3, #96]	@ 0x60
 8000c8e:	428a      	cmp	r2, r1
 8000c90:	d10a      	bne.n	8000ca8 <UART_EndRxTransfer.constprop.0+0x4c>
  __ASM volatile ("MRS %0, primask" : "=r" (result) :: "memory");
 8000c92:	f3ef 8010 	mrs	r0, PRIMASK
  __ASM volatile ("MSR primask, %0" : : "r" (priMask) : "memory");
 8000c96:	f382 8810 	msr	PRIMASK, r2
    ATOMIC_CLEAR_BIT(huart->Instance->CR1, USART_CR1_IDLEIE);
 8000c9a:	2410      	movs	r4, #16
 8000c9c:	6819      	ldr	r1, [r3, #0]
 8000c9e:	680a      	ldr	r2, [r1, #0]
 8000ca0:	43a2      	bics	r2, r4
 8000ca2:	600a      	str	r2, [r1, #0]
 8000ca4:	f380 8810 	msr	PRIMASK, r0
  huart->RxState = HAL_UART_STATE_READY;
 8000ca8:	2120      	movs	r1, #32
 8000caa:	1d1a      	adds	r2, r3, #4
 8000cac:	67d1      	str	r1, [r2, #124]	@ 0x7c
  huart->ReceptionType = HAL_UART_RECEPTION_STANDARD;
 8000cae:	2200      	movs	r2, #0
 8000cb0:	661a      	str	r2, [r3, #96]	@ 0x60
  huart->RxISR = NULL;
 8000cb2:	669a      	str	r2, [r3, #104]	@ 0x68
}
 8000cb4:	bd30      	pop	{r4, r5, pc}
 8000cb6:	46c0      	nop			@ (mov r8, r8)
 8000cb8:	200004b4 	.word	0x200004b4
 8000cbc:	fffffedf 	.word	0xfffffedf

08000cc0 <UART_WaitOnFlagUntilTimeout.constprop.0>:
      if ((READ_BIT(huart->Instance->CR1, USART_CR1_RE) != 0U) && (Flag != UART_FLAG_TXE) && (Flag != UART_FLAG_TC))
 8000cc0:	2204      	movs	r2, #4
HAL_StatusTypeDef UART_WaitOnFlagUntilTimeout(UART_HandleTypeDef *huart, uint32_t Flag, FlagStatus Status,
 8000cc2:	b5f8      	push	{r3, r4, r5, r6, r7, lr}
      if (((HAL_GetTick() - Tickstart) > Timeout) || (Timeout == 0U))
 8000cc4:	2780      	movs	r7, #128	@ 0x80
      if ((READ_BIT(huart->Instance->CR1, USART_CR1_RE) != 0U) && (Flag != UART_FLAG_TXE) && (Flag != UART_FLAG_TC))
 8000cc6:	4694      	mov	ip, r2
  while ((__HAL_UART_GET_FLAG(huart, Flag) ? SET : RESET) == Status)
 8000cc8:	4c18      	ldr	r4, [pc, #96]	@ (8000d2c <UART_WaitOnFlagUntilTimeout.constprop.0+0x6c>)
      if (((HAL_GetTick() - Tickstart) > Timeout) || (Timeout == 0U))
 8000cca:	04bf      	lsls	r7, r7, #18
  while ((__HAL_UART_GET_FLAG(huart, Flag) ? SET : RESET) == Status)
 8000ccc:	6823      	ldr	r3, [r4, #0]
 8000cce:	4d18      	ldr	r5, [pc, #96]	@ (8000d30 <UART_WaitOnFlagUntilTimeout.constprop.0+0x70>)
 8000cd0:	69da      	ldr	r2, [r3, #28]
 8000cd2:	4002      	ands	r2, r0
 8000cd4:	4290      	cmp	r0, r2
 8000cd6:	d101      	bne.n	8000cdc <UART_WaitOnFlagUntilTimeout.constprop.0+0x1c>
  return HAL_OK;
 8000cd8:	2000      	movs	r0, #0
 8000cda:	e016      	b.n	8000d0a <UART_WaitOnFlagUntilTimeout.constprop.0+0x4a>
 8000cdc:	6f6a      	ldr	r2, [r5, #116]	@ 0x74
      if (((HAL_GetTick() - Tickstart) > Timeout) || (Timeout == 0U))
 8000cde:	1a52      	subs	r2, r2, r1
 8000ce0:	42ba      	cmp	r2, r7
 8000ce2:	d221      	bcs.n	8000d28 <UART_WaitOnFlagUntilTimeout.constprop.0+0x68>
      if ((READ_BIT(huart->Instance->CR1, USART_CR1_RE) != 0U) && (Flag != UART_FLAG_TXE) && (Flag != UART_FLAG_TC))
 8000ce4:	4666      	mov	r6, ip
 8000ce6:	681a      	ldr	r2, [r3, #0]
 8000ce8:	4232      	tst	r2, r6
 8000cea:	d0f1      	beq.n	8000cd0 <UART_WaitOnFlagUntilTimeout.constprop.0+0x10>
        if (__HAL_UART_GET_FLAG(huart, UART_FLAG_ORE) == SET)
 8000cec:	69da      	ldr	r2, [r3, #28]
 8000cee:	2508      	movs	r5, #8
 8000cf0:	0016      	movs	r6, r2
 8000cf2:	402e      	ands	r6, r5
 8000cf4:	422a      	tst	r2, r5
 8000cf6:	d009      	beq.n	8000d0c <UART_WaitOnFlagUntilTimeout.constprop.0+0x4c>
          __HAL_UART_CLEAR_FLAG(huart, UART_CLEAR_OREF);
 8000cf8:	621d      	str	r5, [r3, #32]
          UART_EndRxTransfer(huart);
 8000cfa:	f7ff ffaf 	bl	8000c5c <UART_EndRxTransfer.constprop.0>
          huart->ErrorCode = HAL_UART_ERROR_ORE;
 8000cfe:	1963      	adds	r3, r4, r5
 8000d00:	67dd      	str	r5, [r3, #124]	@ 0x7c
          __HAL_UNLOCK(huart);
 8000d02:	2300      	movs	r3, #0
          return HAL_ERROR;
 8000d04:	2001      	movs	r0, #1
          __HAL_UNLOCK(huart);
 8000d06:	3478      	adds	r4, #120	@ 0x78
 8000d08:	7023      	strb	r3, [r4, #0]
}
 8000d0a:	bdf8      	pop	{r3, r4, r5, r6, r7, pc}
        if (__HAL_UART_GET_FLAG(huart, UART_FLAG_RTOF) == SET)
 8000d0c:	2280      	movs	r2, #128	@ 0x80
 8000d0e:	69dd      	ldr	r5, [r3, #28]
 8000d10:	0112      	lsls	r2, r2, #4
 8000d12:	4215      	tst	r5, r2
 8000d14:	d0db      	beq.n	8000cce <UART_WaitOnFlagUntilTimeout.constprop.0+0xe>
          __HAL_UART_CLEAR_FLAG(huart, UART_CLEAR_RTOF);
 8000d16:	621a      	str	r2, [r3, #32]
          UART_EndRxTransfer(huart);
 8000d18:	f7ff ffa0 	bl	8000c5c <UART_EndRxTransfer.constprop.0>
          huart->ErrorCode = HAL_UART_ERROR_RTO;
 8000d1c:	0023      	movs	r3, r4
 8000d1e:	2220      	movs	r2, #32
 8000d20:	3308      	adds	r3, #8
          __HAL_UNLOCK(huart);
 8000d22:	3478      	adds	r4, #120	@ 0x78
          huart->ErrorCode = HAL_UART_ERROR_RTO;
 8000d24:	67da      	str	r2, [r3, #124]	@ 0x7c
          __HAL_UNLOCK(huart);
 8000d26:	7026      	strb	r6, [r4, #0]
        return HAL_TIMEOUT;
 8000d28:	2003      	movs	r0, #3
 8000d2a:	e7ee      	b.n	8000d0a <UART_WaitOnFlagUntilTimeout.constprop.0+0x4a>
 8000d2c:	200004b4 	.word	0x200004b4
 8000d30:	20000080 	.word	0x20000080

08000d34 <BMA253_MotionISR.constprop.0>:
    return HAL_OK;
}

void BMA253_MotionISR(BMA253_Handle_t *hbma)
{
    hbma->motion_detected = 1;
 8000d34:	2201      	movs	r2, #1
 8000d36:	4b01      	ldr	r3, [pc, #4]	@ (8000d3c <BMA253_MotionISR.constprop.0+0x8>)
 8000d38:	701a      	strb	r2, [r3, #0]
}
 8000d3a:	4770      	bx	lr
 8000d3c:	20000572 	.word	0x20000572

08000d40 <BLE_TxRaw.constprop.0>:
}

/* ─── Low-level TX (bypasses HAL lock to avoid conflict with RX IT) ──────── */
static void BLE_TxRaw(BLE_Handle_t *hble, const uint8_t *data, uint16_t len)
{
    USART_TypeDef *U = hble->huart->Instance;
 8000d40:	4b0e      	ldr	r3, [pc, #56]	@ (8000d7c <BLE_TxRaw.constprop.0+0x3c>)
static void BLE_TxRaw(BLE_Handle_t *hble, const uint8_t *data, uint16_t len)
 8000d42:	b570      	push	{r4, r5, r6, lr}
    USART_TypeDef *U = hble->huart->Instance;
 8000d44:	6b9b      	ldr	r3, [r3, #56]	@ 0x38
    for (uint16_t i = 0; i < len; i++) {
        uint32_t guard = 0;
        while (!(U->ISR & USART_ISR_TXE)) { if (++guard > 200000U) return; }
 8000d46:	2580      	movs	r5, #128	@ 0x80
    USART_TypeDef *U = hble->huart->Instance;
 8000d48:	681a      	ldr	r2, [r3, #0]
    for (uint16_t i = 0; i < len; i++) {
 8000d4a:	2300      	movs	r3, #0
 8000d4c:	b29c      	uxth	r4, r3
 8000d4e:	42a1      	cmp	r1, r4
 8000d50:	d80c      	bhi.n	8000d6c <BLE_TxRaw.constprop.0+0x2c>
        U->TDR = data[i];
    }
    uint32_t guard = 0;
    while (!(U->ISR & USART_ISR_TC)) { if (++guard > 200000U) return; }
 8000d52:	2140      	movs	r1, #64	@ 0x40
 8000d54:	4b0a      	ldr	r3, [pc, #40]	@ (8000d80 <BLE_TxRaw.constprop.0+0x40>)
 8000d56:	69d0      	ldr	r0, [r2, #28]
 8000d58:	4208      	tst	r0, r1
 8000d5a:	d106      	bne.n	8000d6a <BLE_TxRaw.constprop.0+0x2a>
 8000d5c:	3b01      	subs	r3, #1
 8000d5e:	2b00      	cmp	r3, #0
 8000d60:	d1f9      	bne.n	8000d56 <BLE_TxRaw.constprop.0+0x16>
 8000d62:	e002      	b.n	8000d6a <BLE_TxRaw.constprop.0+0x2a>
        while (!(U->ISR & USART_ISR_TXE)) { if (++guard > 200000U) return; }
 8000d64:	3c01      	subs	r4, #1
 8000d66:	2c00      	cmp	r4, #0
 8000d68:	d101      	bne.n	8000d6e <BLE_TxRaw.constprop.0+0x2e>
}
 8000d6a:	bd70      	pop	{r4, r5, r6, pc}
 8000d6c:	4c04      	ldr	r4, [pc, #16]	@ (8000d80 <BLE_TxRaw.constprop.0+0x40>)
        while (!(U->ISR & USART_ISR_TXE)) { if (++guard > 200000U) return; }
 8000d6e:	69d6      	ldr	r6, [r2, #28]
 8000d70:	422e      	tst	r6, r5
 8000d72:	d0f7      	beq.n	8000d64 <BLE_TxRaw.constprop.0+0x24>
        U->TDR = data[i];
 8000d74:	5cc4      	ldrb	r4, [r0, r3]
 8000d76:	3301      	adds	r3, #1
 8000d78:	8514      	strh	r4, [r2, #40]	@ 0x28
 8000d7a:	e7e7      	b.n	8000d4c <BLE_TxRaw.constprop.0+0xc>
 8000d7c:	2000053c 	.word	0x2000053c
 8000d80:	00030d41 	.word	0x00030d41

08000d84 <HX711_ReadRawAveraged.constprop.0>:
    }
    return a[n >> 1U];
}

/* ─── Median-filtered averaged read ─────────────────────────────────────── */
uint8_t HX711_ReadRawAveraged(HX711_Handle_t *hx, int32_t *out)
 8000d84:	2303      	movs	r3, #3
 8000d86:	b5f0      	push	{r4, r5, r6, r7, lr}
 8000d88:	b089      	sub	sp, #36	@ 0x24
 8000d8a:	9302      	str	r3, [sp, #8]
        if (DOUT_READ() == GPIO_PIN_SET) raw |= (1UL << bit);
 8000d8c:	3b02      	subs	r3, #2
{
    int32_t buf[HX711_AVG_SAMPLES];
    uint8_t got = 0U;
 8000d8e:	2400      	movs	r4, #0
  assert_param(IS_GPIO_PIN(GPIO_Pin));
  assert_param(IS_GPIO_PIN_ACTION(PinState));

  if (PinState != GPIO_PIN_RESET)
  {
    GPIOx->BSRR = (uint32_t)GPIO_Pin;
 8000d90:	2220      	movs	r2, #32
        if (DOUT_READ() == GPIO_PIN_SET) raw |= (1UL << bit);
 8000d92:	469c      	mov	ip, r3
uint8_t HX711_ReadRawAveraged(HX711_Handle_t *hx, int32_t *out)
 8000d94:	9003      	str	r0, [sp, #12]
  if ((GPIOx->IDR & GPIO_Pin) != (uint32_t)GPIO_PIN_RESET)
 8000d96:	2790      	movs	r7, #144	@ 0x90
 8000d98:	2510      	movs	r5, #16
 8000d9a:	4866      	ldr	r0, [pc, #408]	@ (8000f34 <HX711_ReadRawAveraged.constprop.0+0x1b0>)
 8000d9c:	05ff      	lsls	r7, r7, #23
 8000d9e:	6f41      	ldr	r1, [r0, #116]	@ 0x74
    uint32_t deadline = HAL_GetTick() + HX711_TIMEOUT_MS;
 8000da0:	3196      	adds	r1, #150	@ 0x96
 8000da2:	693e      	ldr	r6, [r7, #16]
 8000da4:	0033      	movs	r3, r6
 8000da6:	402b      	ands	r3, r5
 8000da8:	422e      	tst	r6, r5
 8000daa:	d051      	beq.n	8000e50 <HX711_ReadRawAveraged.constprop.0+0xcc>
 8000dac:	6f43      	ldr	r3, [r0, #116]	@ 0x74
        if (HAL_GetTick() >= deadline) return 0U;
 8000dae:	4299      	cmp	r1, r3
 8000db0:	d8f7      	bhi.n	8000da2 <HX711_ReadRawAveraged.constprop.0+0x1e>

    for (uint8_t i = 0U; i < HX711_AVG_SAMPLES; i++) {
 8000db2:	9b02      	ldr	r3, [sp, #8]
 8000db4:	3b01      	subs	r3, #1
 8000db6:	b2db      	uxtb	r3, r3
 8000db8:	9302      	str	r3, [sp, #8]
 8000dba:	2b00      	cmp	r3, #0
 8000dbc:	d1eb      	bne.n	8000d96 <HX711_ReadRawAveraged.constprop.0+0x12>
        int32_t s;
        if (HX711_ReadRawSafe(hx, &s)) buf[got++] = s;
    }
    if (got == 0U) { hx->last_read_ok = 0U; return 0U; }
 8000dbe:	2c00      	cmp	r4, #0
 8000dc0:	d100      	bne.n	8000dc4 <HX711_ReadRawAveraged.constprop.0+0x40>
 8000dc2:	e09a      	b.n	8000efa <HX711_ReadRawAveraged.constprop.0+0x176>
 8000dc4:	a805      	add	r0, sp, #20
 8000dc6:	0019      	movs	r1, r3
            a[(uint8_t)(j + 1U)] = a[(uint8_t)j];
 8000dc8:	0006      	movs	r6, r0
    for (uint8_t i = 1U; i < n; i++) {
 8000dca:	1c4b      	adds	r3, r1, #1
 8000dcc:	b2db      	uxtb	r3, r3
 8000dce:	429c      	cmp	r4, r3
 8000dd0:	d900      	bls.n	8000dd4 <HX711_ReadRawAveraged.constprop.0+0x50>
 8000dd2:	e097      	b.n	8000f04 <HX711_ReadRawAveraged.constprop.0+0x180>
    return a[n >> 1U];
 8000dd4:	2210      	movs	r2, #16
 8000dd6:	0863      	lsrs	r3, r4, #1
 8000dd8:	009b      	lsls	r3, r3, #2
 8000dda:	189b      	adds	r3, r3, r2
 8000ddc:	aa04      	add	r2, sp, #16
 8000dde:	189b      	adds	r3, r3, r2
 8000de0:	3b0c      	subs	r3, #12
 8000de2:	681d      	ldr	r5, [r3, #0]

    int32_t med  = median_i32(buf, got);
    int32_t band = (med >= 0) ? (med / 100) : (-med / 100);
 8000de4:	2d00      	cmp	r5, #0
 8000de6:	da00      	bge.n	8000dea <HX711_ReadRawAveraged.constprop.0+0x66>
 8000de8:	e0a0      	b.n	8000f2c <HX711_ReadRawAveraged.constprop.0+0x1a8>
 8000dea:	2164      	movs	r1, #100	@ 0x64
 8000dec:	0028      	movs	r0, r5
 8000dee:	f004 f9e9 	bl	80051c4 <__divsi3>
    if (band < 200) band = 200;
 8000df2:	0003      	movs	r3, r0
 8000df4:	28c8      	cmp	r0, #200	@ 0xc8
 8000df6:	da00      	bge.n	8000dfa <HX711_ReadRawAveraged.constprop.0+0x76>
 8000df8:	23c8      	movs	r3, #200	@ 0xc8

    int64_t sum = 0;
    uint8_t cnt = 0U;
    for (uint8_t i = 0U; i < got; i++) {
        int32_t d = buf[i] - med;
 8000dfa:	ae05      	add	r6, sp, #20
    if (band < 200) band = 200;
 8000dfc:	2200      	movs	r2, #0
    int64_t sum = 0;
 8000dfe:	2000      	movs	r0, #0
 8000e00:	2100      	movs	r1, #0
        int32_t d = buf[i] - med;
 8000e02:	46b4      	mov	ip, r6
 8000e04:	4667      	mov	r7, ip
 8000e06:	0096      	lsls	r6, r2, #2
 8000e08:	59f6      	ldr	r6, [r6, r7]
 8000e0a:	1b77      	subs	r7, r6, r5
        if (d < 0) d = -d;
 8000e0c:	d500      	bpl.n	8000e10 <HX711_ReadRawAveraged.constprop.0+0x8c>
 8000e0e:	1baf      	subs	r7, r5, r6
        if (d <= band) { sum += buf[i]; cnt++; }
 8000e10:	42bb      	cmp	r3, r7
 8000e12:	db0a      	blt.n	8000e2a <HX711_ReadRawAveraged.constprop.0+0xa6>
 8000e14:	9600      	str	r6, [sp, #0]
 8000e16:	17f6      	asrs	r6, r6, #31
 8000e18:	9601      	str	r6, [sp, #4]
 8000e1a:	9e00      	ldr	r6, [sp, #0]
 8000e1c:	9f01      	ldr	r7, [sp, #4]
 8000e1e:	1980      	adds	r0, r0, r6
 8000e20:	4179      	adcs	r1, r7
 8000e22:	9e02      	ldr	r6, [sp, #8]
 8000e24:	3601      	adds	r6, #1
 8000e26:	b2f6      	uxtb	r6, r6
 8000e28:	9602      	str	r6, [sp, #8]
    for (uint8_t i = 0U; i < got; i++) {
 8000e2a:	3201      	adds	r2, #1
 8000e2c:	b2d6      	uxtb	r6, r2
 8000e2e:	42b4      	cmp	r4, r6
 8000e30:	d8e8      	bhi.n	8000e04 <HX711_ReadRawAveraged.constprop.0+0x80>
    }

    int32_t result = (cnt > 0U) ? (int32_t)(sum / (int64_t)cnt) : med;
 8000e32:	9b02      	ldr	r3, [sp, #8]
 8000e34:	2b00      	cmp	r3, #0
 8000e36:	d004      	beq.n	8000e42 <HX711_ReadRawAveraged.constprop.0+0xbe>
 8000e38:	001a      	movs	r2, r3
 8000e3a:	2300      	movs	r3, #0
 8000e3c:	f004 fae8 	bl	8005410 <__aeabi_ldivmod>
 8000e40:	0005      	movs	r5, r0
    hx->last_raw     = result;
    hx->last_read_ok = 1U;
 8000e42:	2401      	movs	r4, #1
    hx->last_raw     = result;
 8000e44:	4b3c      	ldr	r3, [pc, #240]	@ (8000f38 <HX711_ReadRawAveraged.constprop.0+0x1b4>)
 8000e46:	609d      	str	r5, [r3, #8]
    hx->last_read_ok = 1U;
 8000e48:	739c      	strb	r4, [r3, #14]
    *out = result;
 8000e4a:	9b03      	ldr	r3, [sp, #12]
 8000e4c:	601d      	str	r5, [r3, #0]
    return 1U;
 8000e4e:	e056      	b.n	8000efe <HX711_ReadRawAveraged.constprop.0+0x17a>
    GPIOx->BSRR = (uint32_t)GPIO_Pin;
 8000e50:	2090      	movs	r0, #144	@ 0x90
 8000e52:	2117      	movs	r1, #23
  if ((GPIOx->IDR & GPIO_Pin) != (uint32_t)GPIO_PIN_RESET)
 8000e54:	2510      	movs	r5, #16
    GPIOx->BSRR = (uint32_t)GPIO_Pin;
 8000e56:	05c0      	lsls	r0, r0, #23
 8000e58:	6182      	str	r2, [r0, #24]
        SCK_HIGH(); HX711_DELAY();
 8000e5a:	46c0      	nop			@ (mov r8, r8)
 8000e5c:	46c0      	nop			@ (mov r8, r8)
 8000e5e:	46c0      	nop			@ (mov r8, r8)
 8000e60:	46c0      	nop			@ (mov r8, r8)
 8000e62:	46c0      	nop			@ (mov r8, r8)
 8000e64:	46c0      	nop			@ (mov r8, r8)
 8000e66:	46c0      	nop			@ (mov r8, r8)
 8000e68:	46c0      	nop			@ (mov r8, r8)
 8000e6a:	46c0      	nop			@ (mov r8, r8)
 8000e6c:	46c0      	nop			@ (mov r8, r8)
 8000e6e:	46c0      	nop			@ (mov r8, r8)
 8000e70:	46c0      	nop			@ (mov r8, r8)
  if ((GPIOx->IDR & GPIO_Pin) != (uint32_t)GPIO_PIN_RESET)
 8000e72:	6906      	ldr	r6, [r0, #16]
 8000e74:	422e      	tst	r6, r5
 8000e76:	d002      	beq.n	8000e7e <HX711_ReadRawAveraged.constprop.0+0xfa>
        if (DOUT_READ() == GPIO_PIN_SET) raw |= (1UL << bit);
 8000e78:	4666      	mov	r6, ip
 8000e7a:	408e      	lsls	r6, r1
 8000e7c:	4333      	orrs	r3, r6
  }
  else
  {
    GPIOx->BRR = (uint32_t)GPIO_Pin;
 8000e7e:	6282      	str	r2, [r0, #40]	@ 0x28
        SCK_LOW();  HX711_DELAY();
 8000e80:	46c0      	nop			@ (mov r8, r8)
 8000e82:	46c0      	nop			@ (mov r8, r8)
 8000e84:	46c0      	nop			@ (mov r8, r8)
 8000e86:	46c0      	nop			@ (mov r8, r8)
 8000e88:	46c0      	nop			@ (mov r8, r8)
 8000e8a:	46c0      	nop			@ (mov r8, r8)
 8000e8c:	46c0      	nop			@ (mov r8, r8)
 8000e8e:	46c0      	nop			@ (mov r8, r8)
 8000e90:	46c0      	nop			@ (mov r8, r8)
 8000e92:	46c0      	nop			@ (mov r8, r8)
 8000e94:	46c0      	nop			@ (mov r8, r8)
 8000e96:	46c0      	nop			@ (mov r8, r8)
    for (int8_t bit = 23; bit >= 0; bit--) {
 8000e98:	3901      	subs	r1, #1
 8000e9a:	d2dd      	bcs.n	8000e58 <HX711_ReadRawAveraged.constprop.0+0xd4>
    GPIOx->BSRR = (uint32_t)GPIO_Pin;
 8000e9c:	2090      	movs	r0, #144	@ 0x90
    for (uint8_t p = 0U; p < hx->gain_pulses; p++) {
 8000e9e:	2100      	movs	r1, #0
 8000ea0:	4e25      	ldr	r6, [pc, #148]	@ (8000f38 <HX711_ReadRawAveraged.constprop.0+0x1b4>)
 8000ea2:	05c0      	lsls	r0, r0, #23
 8000ea4:	7b35      	ldrb	r5, [r6, #12]
 8000ea6:	428d      	cmp	r5, r1
 8000ea8:	d80a      	bhi.n	8000ec0 <HX711_ReadRawAveraged.constprop.0+0x13c>
    if (raw & 0x800000UL) raw |= 0xFF000000UL;
 8000eaa:	0219      	lsls	r1, r3, #8
 8000eac:	d502      	bpl.n	8000eb4 <HX711_ReadRawAveraged.constprop.0+0x130>
 8000eae:	21ff      	movs	r1, #255	@ 0xff
 8000eb0:	0609      	lsls	r1, r1, #24
 8000eb2:	430b      	orrs	r3, r1
        if (HX711_ReadRawSafe(hx, &s)) buf[got++] = s;
 8000eb4:	1c61      	adds	r1, r4, #1
 8000eb6:	a805      	add	r0, sp, #20
 8000eb8:	00a4      	lsls	r4, r4, #2
 8000eba:	5023      	str	r3, [r4, r0]
 8000ebc:	b2cc      	uxtb	r4, r1
 8000ebe:	e778      	b.n	8000db2 <HX711_ReadRawAveraged.constprop.0+0x2e>
 8000ec0:	6182      	str	r2, [r0, #24]
        SCK_HIGH(); HX711_DELAY();
 8000ec2:	46c0      	nop			@ (mov r8, r8)
 8000ec4:	46c0      	nop			@ (mov r8, r8)
 8000ec6:	46c0      	nop			@ (mov r8, r8)
 8000ec8:	46c0      	nop			@ (mov r8, r8)
 8000eca:	46c0      	nop			@ (mov r8, r8)
 8000ecc:	46c0      	nop			@ (mov r8, r8)
 8000ece:	46c0      	nop			@ (mov r8, r8)
 8000ed0:	46c0      	nop			@ (mov r8, r8)
 8000ed2:	46c0      	nop			@ (mov r8, r8)
 8000ed4:	46c0      	nop			@ (mov r8, r8)
 8000ed6:	46c0      	nop			@ (mov r8, r8)
 8000ed8:	46c0      	nop			@ (mov r8, r8)
    GPIOx->BRR = (uint32_t)GPIO_Pin;
 8000eda:	6282      	str	r2, [r0, #40]	@ 0x28
        SCK_LOW();  HX711_DELAY();
 8000edc:	46c0      	nop			@ (mov r8, r8)
 8000ede:	46c0      	nop			@ (mov r8, r8)
 8000ee0:	46c0      	nop			@ (mov r8, r8)
 8000ee2:	46c0      	nop			@ (mov r8, r8)
 8000ee4:	46c0      	nop			@ (mov r8, r8)
 8000ee6:	46c0      	nop			@ (mov r8, r8)
 8000ee8:	46c0      	nop			@ (mov r8, r8)
 8000eea:	46c0      	nop			@ (mov r8, r8)
 8000eec:	46c0      	nop			@ (mov r8, r8)
 8000eee:	46c0      	nop			@ (mov r8, r8)
 8000ef0:	46c0      	nop			@ (mov r8, r8)
 8000ef2:	46c0      	nop			@ (mov r8, r8)
    for (uint8_t p = 0U; p < hx->gain_pulses; p++) {
 8000ef4:	3101      	adds	r1, #1
 8000ef6:	b2c9      	uxtb	r1, r1
 8000ef8:	e7d4      	b.n	8000ea4 <HX711_ReadRawAveraged.constprop.0+0x120>
    if (got == 0U) { hx->last_read_ok = 0U; return 0U; }
 8000efa:	4b0f      	ldr	r3, [pc, #60]	@ (8000f38 <HX711_ReadRawAveraged.constprop.0+0x1b4>)
 8000efc:	739c      	strb	r4, [r3, #14]
}
 8000efe:	0020      	movs	r0, r4
 8000f00:	b009      	add	sp, #36	@ 0x24
 8000f02:	bdf0      	pop	{r4, r5, r6, r7, pc}
        int32_t key = a[i];
 8000f04:	6847      	ldr	r7, [r0, #4]
 8000f06:	b24a      	sxtb	r2, r1
            a[(uint8_t)(j + 1U)] = a[(uint8_t)j];
 8000f08:	1c53      	adds	r3, r2, #1
 8000f0a:	b2db      	uxtb	r3, r3
 8000f0c:	009b      	lsls	r3, r3, #2
 8000f0e:	18f3      	adds	r3, r6, r3
        while (j >= 0 && a[(uint8_t)j] > key) {
 8000f10:	0615      	lsls	r5, r2, #24
 8000f12:	d405      	bmi.n	8000f20 <HX711_ReadRawAveraged.constprop.0+0x19c>
 8000f14:	3a01      	subs	r2, #1
 8000f16:	0095      	lsls	r5, r2, #2
 8000f18:	19ad      	adds	r5, r5, r6
 8000f1a:	686d      	ldr	r5, [r5, #4]
 8000f1c:	42af      	cmp	r7, r5
 8000f1e:	db03      	blt.n	8000f28 <HX711_ReadRawAveraged.constprop.0+0x1a4>
        a[(uint8_t)(j + 1U)] = key;
 8000f20:	601f      	str	r7, [r3, #0]
 8000f22:	3101      	adds	r1, #1
 8000f24:	3004      	adds	r0, #4
 8000f26:	e750      	b.n	8000dca <HX711_ReadRawAveraged.constprop.0+0x46>
            a[(uint8_t)(j + 1U)] = a[(uint8_t)j];
 8000f28:	601d      	str	r5, [r3, #0]
 8000f2a:	e7ed      	b.n	8000f08 <HX711_ReadRawAveraged.constprop.0+0x184>
    int32_t band = (med >= 0) ? (med / 100) : (-med / 100);
 8000f2c:	2164      	movs	r1, #100	@ 0x64
 8000f2e:	4268      	negs	r0, r5
 8000f30:	e75d      	b.n	8000dee <HX711_ReadRawAveraged.constprop.0+0x6a>
 8000f32:	46c0      	nop			@ (mov r8, r8)
 8000f34:	20000080 	.word	0x20000080
 8000f38:	2000053c 	.word	0x2000053c

08000f3c <Device_PostEvent.part.0.constprop.0>:
    ctx->pending_event = EVT_NONE;
    ctx->evt_head      = 0;
    ctx->evt_tail      = 0;
}

void Device_PostEvent(DeviceContext_t *ctx, DeviceEvent_t evt)
 8000f3c:	b530      	push	{r4, r5, lr}
{
    if (evt == EVT_NONE) return;
    uint8_t next = (uint8_t)((ctx->evt_head + 1U) % DEV_EVENT_QUEUE_LEN);
 8000f3e:	2507      	movs	r5, #7
 8000f40:	4906      	ldr	r1, [pc, #24]	@ (8000f5c <Device_PostEvent.part.0.constprop.0+0x20>)
 8000f42:	4a07      	ldr	r2, [pc, #28]	@ (8000f60 <Device_PostEvent.part.0.constprop.0+0x24>)
 8000f44:	780c      	ldrb	r4, [r1, #0]
 8000f46:	1c63      	adds	r3, r4, #1
 8000f48:	402b      	ands	r3, r5
    if (next == ctx->evt_tail) return;        /* queue full — drop oldest-safe */
 8000f4a:	0015      	movs	r5, r2
 8000f4c:	3597      	adds	r5, #151	@ 0x97
 8000f4e:	782d      	ldrb	r5, [r5, #0]
 8000f50:	429d      	cmp	r5, r3
 8000f52:	d002      	beq.n	8000f5a <Device_PostEvent.part.0.constprop.0+0x1e>
    ctx->evt_queue[ctx->evt_head] = evt;
 8000f54:	328e      	adds	r2, #142	@ 0x8e
 8000f56:	5510      	strb	r0, [r2, r4]
    ctx->evt_head = next;
 8000f58:	700b      	strb	r3, [r1, #0]
}
 8000f5a:	bd30      	pop	{r4, r5, pc}
 8000f5c:	200005d2 	.word	0x200005d2
 8000f60:	2000053c 	.word	0x2000053c

08000f64 <I2C_TransferConfig.constprop.0>:
  uint32_t tmp = ((uint32_t)(((uint32_t)DevAddress & I2C_CR2_SADD) | \
                             (((uint32_t)Size << I2C_CR2_NBYTES_Pos) & I2C_CR2_NBYTES) | \
                             (uint32_t)Mode | (uint32_t)Request) & (~0x80000000U));

  /* update CR2 register */
  MODIFY_REG(hi2c->Instance->CR2, \
 8000f64:	6800      	ldr	r0, [r0, #0]
 8000f66:	431a      	orrs	r2, r3
                             (((uint32_t)Size << I2C_CR2_NBYTES_Pos) & I2C_CR2_NBYTES) | \
 8000f68:	0409      	lsls	r1, r1, #16
  MODIFY_REG(hi2c->Instance->CR2, \
 8000f6a:	4311      	orrs	r1, r2
 8000f6c:	4a06      	ldr	r2, [pc, #24]	@ (8000f88 <I2C_TransferConfig.constprop.0+0x24>)
static void I2C_TransferConfig(I2C_HandleTypeDef *hi2c, uint16_t DevAddress, uint8_t Size, uint32_t Mode,
 8000f6e:	b510      	push	{r4, lr}
  MODIFY_REG(hi2c->Instance->CR2, \
 8000f70:	0d5b      	lsrs	r3, r3, #21
 8000f72:	6844      	ldr	r4, [r0, #4]
 8000f74:	4313      	orrs	r3, r2
 8000f76:	439c      	bics	r4, r3
 8000f78:	23a2      	movs	r3, #162	@ 0xa2
 8000f7a:	0049      	lsls	r1, r1, #1
 8000f7c:	0849      	lsrs	r1, r1, #1
 8000f7e:	4321      	orrs	r1, r4
 8000f80:	430b      	orrs	r3, r1
 8000f82:	6043      	str	r3, [r0, #4]
             ((I2C_CR2_SADD | I2C_CR2_NBYTES | I2C_CR2_RELOAD | I2C_CR2_AUTOEND | \
               (I2C_CR2_RD_WRN & (uint32_t)(Request >> (31U - I2C_CR2_RD_WRN_Pos))) | \
               I2C_CR2_START | I2C_CR2_STOP)), tmp);
}
 8000f84:	bd10      	pop	{r4, pc}
 8000f86:	46c0      	nop			@ (mov r8, r8)
 8000f88:	03ff63ff 	.word	0x03ff63ff

08000f8c <I2C_WaitOnSTOPFlagUntilTimeout.constprop.0>:
static HAL_StatusTypeDef I2C_WaitOnSTOPFlagUntilTimeout(I2C_HandleTypeDef *hi2c, uint32_t Timeout,
 8000f8c:	b5f8      	push	{r3, r4, r5, r6, r7, lr}
 8000f8e:	0004      	movs	r4, r0
 8000f90:	000e      	movs	r6, r1
  while (__HAL_I2C_GET_FLAG(hi2c, I2C_FLAG_STOPF) == RESET)
 8000f92:	2520      	movs	r5, #32
 8000f94:	6827      	ldr	r7, [r4, #0]
 8000f96:	69bb      	ldr	r3, [r7, #24]
 8000f98:	422b      	tst	r3, r5
 8000f9a:	d001      	beq.n	8000fa0 <I2C_WaitOnSTOPFlagUntilTimeout.constprop.0+0x14>
  return HAL_OK;
 8000f9c:	2000      	movs	r0, #0
 8000f9e:	e01a      	b.n	8000fd6 <I2C_WaitOnSTOPFlagUntilTimeout.constprop.0+0x4a>
    if (I2C_IsErrorOccurred(hi2c, Timeout, Tickstart) != HAL_OK)
 8000fa0:	0032      	movs	r2, r6
 8000fa2:	2164      	movs	r1, #100	@ 0x64
 8000fa4:	0020      	movs	r0, r4
 8000fa6:	f7ff fc61 	bl	800086c <I2C_IsErrorOccurred>
 8000faa:	2800      	cmp	r0, #0
 8000fac:	d112      	bne.n	8000fd4 <I2C_WaitOnSTOPFlagUntilTimeout.constprop.0+0x48>
 8000fae:	4b0a      	ldr	r3, [pc, #40]	@ (8000fd8 <I2C_WaitOnSTOPFlagUntilTimeout.constprop.0+0x4c>)
 8000fb0:	6f5b      	ldr	r3, [r3, #116]	@ 0x74
    if (((HAL_GetTick() - Tickstart) > Timeout) || (Timeout == 0U))
 8000fb2:	1b9b      	subs	r3, r3, r6
 8000fb4:	2b64      	cmp	r3, #100	@ 0x64
 8000fb6:	d9ed      	bls.n	8000f94 <I2C_WaitOnSTOPFlagUntilTimeout.constprop.0+0x8>
      if ((__HAL_I2C_GET_FLAG(hi2c, I2C_FLAG_STOPF) == RESET))
 8000fb8:	69bb      	ldr	r3, [r7, #24]
 8000fba:	001a      	movs	r2, r3
 8000fbc:	402a      	ands	r2, r5
 8000fbe:	422b      	tst	r3, r5
 8000fc0:	d1e8      	bne.n	8000f94 <I2C_WaitOnSTOPFlagUntilTimeout.constprop.0+0x8>
        hi2c->ErrorCode |= HAL_I2C_ERROR_TIMEOUT;
 8000fc2:	6c63      	ldr	r3, [r4, #68]	@ 0x44
 8000fc4:	432b      	orrs	r3, r5
 8000fc6:	6463      	str	r3, [r4, #68]	@ 0x44
        hi2c->State = HAL_I2C_STATE_READY;
 8000fc8:	0023      	movs	r3, r4
        __HAL_UNLOCK(hi2c);
 8000fca:	3440      	adds	r4, #64	@ 0x40
        hi2c->State = HAL_I2C_STATE_READY;
 8000fcc:	3341      	adds	r3, #65	@ 0x41
 8000fce:	701d      	strb	r5, [r3, #0]
        hi2c->Mode = HAL_I2C_MODE_NONE;
 8000fd0:	705a      	strb	r2, [r3, #1]
        __HAL_UNLOCK(hi2c);
 8000fd2:	7022      	strb	r2, [r4, #0]
      return HAL_ERROR;
 8000fd4:	2001      	movs	r0, #1
}
 8000fd6:	bdf8      	pop	{r3, r4, r5, r6, r7, pc}
 8000fd8:	20000080 	.word	0x20000080

08000fdc <HAL_I2C_Master_Transmit.constprop.0>:
HAL_StatusTypeDef HAL_I2C_Master_Transmit(I2C_HandleTypeDef *hi2c, uint16_t DevAddress, uint8_t *pData,
 8000fdc:	b5f0      	push	{r4, r5, r6, r7, lr}
  if (hi2c->State == HAL_I2C_STATE_READY)
 8000fde:	0007      	movs	r7, r0
HAL_StatusTypeDef HAL_I2C_Master_Transmit(I2C_HandleTypeDef *hi2c, uint16_t DevAddress, uint8_t *pData,
 8000fe0:	b087      	sub	sp, #28
 8000fe2:	9205      	str	r2, [sp, #20]
  if (hi2c->State == HAL_I2C_STATE_READY)
 8000fe4:	3741      	adds	r7, #65	@ 0x41
 8000fe6:	783b      	ldrb	r3, [r7, #0]
HAL_StatusTypeDef HAL_I2C_Master_Transmit(I2C_HandleTypeDef *hi2c, uint16_t DevAddress, uint8_t *pData,
 8000fe8:	0004      	movs	r4, r0
 8000fea:	000e      	movs	r6, r1
    __HAL_LOCK(hi2c);
 8000fec:	2002      	movs	r0, #2
  if (hi2c->State == HAL_I2C_STATE_READY)
 8000fee:	2b20      	cmp	r3, #32
 8000ff0:	d17a      	bne.n	80010e8 <HAL_I2C_Master_Transmit.constprop.0+0x10c>
    __HAL_LOCK(hi2c);
 8000ff2:	0023      	movs	r3, r4
 8000ff4:	3340      	adds	r3, #64	@ 0x40
 8000ff6:	781a      	ldrb	r2, [r3, #0]
 8000ff8:	2a01      	cmp	r2, #1
 8000ffa:	d075      	beq.n	80010e8 <HAL_I2C_Master_Transmit.constprop.0+0x10c>
 8000ffc:	2201      	movs	r2, #1
    if (I2C_WaitOnFlagUntilTimeout(hi2c, I2C_FLAG_BUSY, SET, I2C_TIMEOUT_BUSY, tickstart) != HAL_OK)
 8000ffe:	2180      	movs	r1, #128	@ 0x80
    __HAL_LOCK(hi2c);
 8001000:	701a      	strb	r2, [r3, #0]
 8001002:	4b54      	ldr	r3, [pc, #336]	@ (8001154 <HAL_I2C_Master_Transmit.constprop.0+0x178>)
    if (I2C_WaitOnFlagUntilTimeout(hi2c, I2C_FLAG_BUSY, SET, I2C_TIMEOUT_BUSY, tickstart) != HAL_OK)
 8001004:	0020      	movs	r0, r4
 8001006:	6f5d      	ldr	r5, [r3, #116]	@ 0x74
 8001008:	9304      	str	r3, [sp, #16]
 800100a:	9500      	str	r5, [sp, #0]
 800100c:	2319      	movs	r3, #25
 800100e:	0209      	lsls	r1, r1, #8
 8001010:	f7ff fcb0 	bl	8000974 <I2C_WaitOnFlagUntilTimeout>
 8001014:	2800      	cmp	r0, #0
 8001016:	d166      	bne.n	80010e6 <HAL_I2C_Master_Transmit.constprop.0+0x10a>
    hi2c->State     = HAL_I2C_STATE_BUSY_TX;
 8001018:	2321      	movs	r3, #33	@ 0x21
 800101a:	703b      	strb	r3, [r7, #0]
    hi2c->Mode      = HAL_I2C_MODE_MASTER;
 800101c:	0023      	movs	r3, r4
 800101e:	3342      	adds	r3, #66	@ 0x42
 8001020:	9303      	str	r3, [sp, #12]
 8001022:	2310      	movs	r3, #16
 8001024:	9a03      	ldr	r2, [sp, #12]
 8001026:	7013      	strb	r3, [r2, #0]
    hi2c->XferCount = Size;
 8001028:	9b05      	ldr	r3, [sp, #20]
    hi2c->ErrorCode = HAL_I2C_ERROR_NONE;
 800102a:	6460      	str	r0, [r4, #68]	@ 0x44
    hi2c->XferCount = Size;
 800102c:	8563      	strh	r3, [r4, #42]	@ 0x2a
    if (hi2c->XferCount > MAX_NBYTE_SIZE)
 800102e:	8d63      	ldrh	r3, [r4, #42]	@ 0x2a
    hi2c->pBuffPtr  = pData;
 8001030:	6266      	str	r6, [r4, #36]	@ 0x24
    hi2c->XferISR   = NULL;
 8001032:	6360      	str	r0, [r4, #52]	@ 0x34
    if (hi2c->XferCount > MAX_NBYTE_SIZE)
 8001034:	2bff      	cmp	r3, #255	@ 0xff
 8001036:	d92e      	bls.n	8001096 <HAL_I2C_Master_Transmit.constprop.0+0xba>
 8001038:	21ff      	movs	r1, #255	@ 0xff
      xfermode = I2C_RELOAD_MODE;
 800103a:	2280      	movs	r2, #128	@ 0x80
 800103c:	8521      	strh	r1, [r4, #40]	@ 0x28
 800103e:	0452      	lsls	r2, r2, #17
      hi2c->Instance->TXDR = *hi2c->pBuffPtr;
 8001040:	7830      	ldrb	r0, [r6, #0]
 8001042:	6823      	ldr	r3, [r4, #0]
      hi2c->XferSize--;
 8001044:	3901      	subs	r1, #1
      hi2c->Instance->TXDR = *hi2c->pBuffPtr;
 8001046:	6298      	str	r0, [r3, #40]	@ 0x28
      hi2c->XferCount--;
 8001048:	8d63      	ldrh	r3, [r4, #42]	@ 0x2a
      hi2c->XferSize--;
 800104a:	b289      	uxth	r1, r1
      hi2c->XferCount--;
 800104c:	3b01      	subs	r3, #1
 800104e:	b29b      	uxth	r3, r3
      hi2c->pBuffPtr++;
 8001050:	3601      	adds	r6, #1
      hi2c->XferCount--;
 8001052:	8563      	strh	r3, [r4, #42]	@ 0x2a
      hi2c->XferSize--;
 8001054:	8521      	strh	r1, [r4, #40]	@ 0x28
      I2C_TransferConfig(hi2c, DevAddress, (uint8_t)(hi2c->XferSize + 1U), xfermode,
 8001056:	4b40      	ldr	r3, [pc, #256]	@ (8001158 <HAL_I2C_Master_Transmit.constprop.0+0x17c>)
 8001058:	3101      	adds	r1, #1
      hi2c->pBuffPtr++;
 800105a:	6266      	str	r6, [r4, #36]	@ 0x24
      I2C_TransferConfig(hi2c, DevAddress, (uint8_t)(hi2c->XferSize + 1U), xfermode,
 800105c:	b2c9      	uxtb	r1, r1
 800105e:	0020      	movs	r0, r4
 8001060:	f7ff ff80 	bl	8000f64 <I2C_TransferConfig.constprop.0>
  while (__HAL_I2C_GET_FLAG(hi2c, I2C_FLAG_TXIS) == RESET)
 8001064:	2702      	movs	r7, #2
    while (hi2c->XferCount > 0U)
 8001066:	8d63      	ldrh	r3, [r4, #42]	@ 0x2a
 8001068:	2b00      	cmp	r3, #0
 800106a:	d13f      	bne.n	80010ec <HAL_I2C_Master_Transmit.constprop.0+0x110>
    if (I2C_WaitOnSTOPFlagUntilTimeout(hi2c, Timeout, tickstart) != HAL_OK)
 800106c:	0029      	movs	r1, r5
 800106e:	0020      	movs	r0, r4
 8001070:	f7ff ff8c 	bl	8000f8c <I2C_WaitOnSTOPFlagUntilTimeout.constprop.0>
 8001074:	2800      	cmp	r0, #0
 8001076:	d136      	bne.n	80010e6 <HAL_I2C_Master_Transmit.constprop.0+0x10a>
    __HAL_I2C_CLEAR_FLAG(hi2c, I2C_FLAG_STOPF);
 8001078:	2120      	movs	r1, #32
 800107a:	6823      	ldr	r3, [r4, #0]
    I2C_RESET_CR2(hi2c);
 800107c:	4d37      	ldr	r5, [pc, #220]	@ (800115c <HAL_I2C_Master_Transmit.constprop.0+0x180>)
    __HAL_I2C_CLEAR_FLAG(hi2c, I2C_FLAG_STOPF);
 800107e:	61d9      	str	r1, [r3, #28]
    I2C_RESET_CR2(hi2c);
 8001080:	685a      	ldr	r2, [r3, #4]
 8001082:	402a      	ands	r2, r5
 8001084:	605a      	str	r2, [r3, #4]
    hi2c->State = HAL_I2C_STATE_READY;
 8001086:	0023      	movs	r3, r4
 8001088:	3341      	adds	r3, #65	@ 0x41
 800108a:	7019      	strb	r1, [r3, #0]
    hi2c->Mode  = HAL_I2C_MODE_NONE;
 800108c:	9b03      	ldr	r3, [sp, #12]
    __HAL_UNLOCK(hi2c);
 800108e:	3440      	adds	r4, #64	@ 0x40
    hi2c->Mode  = HAL_I2C_MODE_NONE;
 8001090:	7018      	strb	r0, [r3, #0]
    __HAL_UNLOCK(hi2c);
 8001092:	7020      	strb	r0, [r4, #0]
    return HAL_OK;
 8001094:	e028      	b.n	80010e8 <HAL_I2C_Master_Transmit.constprop.0+0x10c>
      hi2c->XferSize = hi2c->XferCount;
 8001096:	8d61      	ldrh	r1, [r4, #42]	@ 0x2a
 8001098:	b289      	uxth	r1, r1
 800109a:	8521      	strh	r1, [r4, #40]	@ 0x28
    if (hi2c->XferSize > 0U)
 800109c:	2900      	cmp	r1, #0
 800109e:	d002      	beq.n	80010a6 <HAL_I2C_Master_Transmit.constprop.0+0xca>
 80010a0:	2280      	movs	r2, #128	@ 0x80
 80010a2:	0492      	lsls	r2, r2, #18
 80010a4:	e7cc      	b.n	8001040 <HAL_I2C_Master_Transmit.constprop.0+0x64>
      I2C_TransferConfig(hi2c, DevAddress, (uint8_t)hi2c->XferSize, xfermode,
 80010a6:	2280      	movs	r2, #128	@ 0x80
 80010a8:	4b2b      	ldr	r3, [pc, #172]	@ (8001158 <HAL_I2C_Master_Transmit.constprop.0+0x17c>)
 80010aa:	0492      	lsls	r2, r2, #18
 80010ac:	e7d7      	b.n	800105e <HAL_I2C_Master_Transmit.constprop.0+0x82>
    if (I2C_IsErrorOccurred(hi2c, Timeout, Tickstart) != HAL_OK)
 80010ae:	002a      	movs	r2, r5
 80010b0:	2164      	movs	r1, #100	@ 0x64
 80010b2:	0020      	movs	r0, r4
 80010b4:	f7ff fbda 	bl	800086c <I2C_IsErrorOccurred>
 80010b8:	2800      	cmp	r0, #0
 80010ba:	d114      	bne.n	80010e6 <HAL_I2C_Master_Transmit.constprop.0+0x10a>
 80010bc:	9b04      	ldr	r3, [sp, #16]
 80010be:	6f5b      	ldr	r3, [r3, #116]	@ 0x74
      if (((HAL_GetTick() - Tickstart) > Timeout) || (Timeout == 0U))
 80010c0:	1b5b      	subs	r3, r3, r5
 80010c2:	2b64      	cmp	r3, #100	@ 0x64
 80010c4:	d912      	bls.n	80010ec <HAL_I2C_Master_Transmit.constprop.0+0x110>
        if ((__HAL_I2C_GET_FLAG(hi2c, I2C_FLAG_TXIS) == RESET))
 80010c6:	69b3      	ldr	r3, [r6, #24]
 80010c8:	001a      	movs	r2, r3
 80010ca:	403a      	ands	r2, r7
 80010cc:	423b      	tst	r3, r7
 80010ce:	d10d      	bne.n	80010ec <HAL_I2C_Master_Transmit.constprop.0+0x110>
          hi2c->ErrorCode |= HAL_I2C_ERROR_TIMEOUT;
 80010d0:	2120      	movs	r1, #32
 80010d2:	6c63      	ldr	r3, [r4, #68]	@ 0x44
 80010d4:	430b      	orrs	r3, r1
 80010d6:	6463      	str	r3, [r4, #68]	@ 0x44
          hi2c->State = HAL_I2C_STATE_READY;
 80010d8:	0023      	movs	r3, r4
 80010da:	3341      	adds	r3, #65	@ 0x41
 80010dc:	7019      	strb	r1, [r3, #0]
          hi2c->Mode = HAL_I2C_MODE_NONE;
 80010de:	9b03      	ldr	r3, [sp, #12]
          __HAL_UNLOCK(hi2c);
 80010e0:	3440      	adds	r4, #64	@ 0x40
          hi2c->Mode = HAL_I2C_MODE_NONE;
 80010e2:	701a      	strb	r2, [r3, #0]
          __HAL_UNLOCK(hi2c);
 80010e4:	7022      	strb	r2, [r4, #0]
      return HAL_ERROR;
 80010e6:	2001      	movs	r0, #1
}
 80010e8:	b007      	add	sp, #28
 80010ea:	bdf0      	pop	{r4, r5, r6, r7, pc}
  while (__HAL_I2C_GET_FLAG(hi2c, I2C_FLAG_TXIS) == RESET)
 80010ec:	6826      	ldr	r6, [r4, #0]
 80010ee:	69b3      	ldr	r3, [r6, #24]
 80010f0:	423b      	tst	r3, r7
 80010f2:	d0dc      	beq.n	80010ae <HAL_I2C_Master_Transmit.constprop.0+0xd2>
      hi2c->Instance->TXDR = *hi2c->pBuffPtr;
 80010f4:	6a63      	ldr	r3, [r4, #36]	@ 0x24
 80010f6:	781a      	ldrb	r2, [r3, #0]
      hi2c->pBuffPtr++;
 80010f8:	3301      	adds	r3, #1
      hi2c->Instance->TXDR = *hi2c->pBuffPtr;
 80010fa:	62b2      	str	r2, [r6, #40]	@ 0x28
      hi2c->pBuffPtr++;
 80010fc:	6263      	str	r3, [r4, #36]	@ 0x24
      hi2c->XferCount--;
 80010fe:	8d63      	ldrh	r3, [r4, #42]	@ 0x2a
      hi2c->XferSize--;
 8001100:	8d22      	ldrh	r2, [r4, #40]	@ 0x28
      hi2c->XferCount--;
 8001102:	3b01      	subs	r3, #1
 8001104:	b29b      	uxth	r3, r3
 8001106:	8563      	strh	r3, [r4, #42]	@ 0x2a
      hi2c->XferSize--;
 8001108:	3a01      	subs	r2, #1
      if ((hi2c->XferCount != 0U) && (hi2c->XferSize == 0U))
 800110a:	8d63      	ldrh	r3, [r4, #42]	@ 0x2a
      hi2c->XferSize--;
 800110c:	b292      	uxth	r2, r2
 800110e:	8522      	strh	r2, [r4, #40]	@ 0x28
      if ((hi2c->XferCount != 0U) && (hi2c->XferSize == 0U))
 8001110:	2b00      	cmp	r3, #0
 8001112:	d0a8      	beq.n	8001066 <HAL_I2C_Master_Transmit.constprop.0+0x8a>
 8001114:	2a00      	cmp	r2, #0
 8001116:	d1a6      	bne.n	8001066 <HAL_I2C_Master_Transmit.constprop.0+0x8a>
        if (I2C_WaitOnFlagUntilTimeout(hi2c, I2C_FLAG_TCR, RESET, Timeout, tickstart) != HAL_OK)
 8001118:	2364      	movs	r3, #100	@ 0x64
 800111a:	2180      	movs	r1, #128	@ 0x80
 800111c:	0020      	movs	r0, r4
 800111e:	9500      	str	r5, [sp, #0]
 8001120:	f7ff fc28 	bl	8000974 <I2C_WaitOnFlagUntilTimeout>
 8001124:	1e03      	subs	r3, r0, #0
 8001126:	d1de      	bne.n	80010e6 <HAL_I2C_Master_Transmit.constprop.0+0x10a>
        if (hi2c->XferCount > MAX_NBYTE_SIZE)
 8001128:	8d62      	ldrh	r2, [r4, #42]	@ 0x2a
 800112a:	2aff      	cmp	r2, #255	@ 0xff
 800112c:	d908      	bls.n	8001140 <HAL_I2C_Master_Transmit.constprop.0+0x164>
          hi2c->XferSize = MAX_NBYTE_SIZE;
 800112e:	33ff      	adds	r3, #255	@ 0xff
  MODIFY_REG(hi2c->Instance->CR2, \
 8001130:	6872      	ldr	r2, [r6, #4]
          hi2c->XferSize = MAX_NBYTE_SIZE;
 8001132:	8523      	strh	r3, [r4, #40]	@ 0x28
  MODIFY_REG(hi2c->Instance->CR2, \
 8001134:	4b0a      	ldr	r3, [pc, #40]	@ (8001160 <HAL_I2C_Master_Transmit.constprop.0+0x184>)
 8001136:	401a      	ands	r2, r3
 8001138:	4b0a      	ldr	r3, [pc, #40]	@ (8001164 <HAL_I2C_Master_Transmit.constprop.0+0x188>)
 800113a:	4313      	orrs	r3, r2
 800113c:	6073      	str	r3, [r6, #4]
}
 800113e:	e792      	b.n	8001066 <HAL_I2C_Master_Transmit.constprop.0+0x8a>
          I2C_TransferConfig(hi2c, DevAddress, (uint8_t)hi2c->XferSize, I2C_AUTOEND_MODE,
 8001140:	2280      	movs	r2, #128	@ 0x80
          hi2c->XferSize = hi2c->XferCount;
 8001142:	8d61      	ldrh	r1, [r4, #42]	@ 0x2a
          I2C_TransferConfig(hi2c, DevAddress, (uint8_t)hi2c->XferSize, I2C_AUTOEND_MODE,
 8001144:	0020      	movs	r0, r4
          hi2c->XferSize = hi2c->XferCount;
 8001146:	b289      	uxth	r1, r1
 8001148:	8521      	strh	r1, [r4, #40]	@ 0x28
          I2C_TransferConfig(hi2c, DevAddress, (uint8_t)hi2c->XferSize, I2C_AUTOEND_MODE,
 800114a:	0492      	lsls	r2, r2, #18
 800114c:	b2c9      	uxtb	r1, r1
 800114e:	f7ff ff09 	bl	8000f64 <I2C_TransferConfig.constprop.0>
 8001152:	e788      	b.n	8001066 <HAL_I2C_Master_Transmit.constprop.0+0x8a>
 8001154:	20000080 	.word	0x20000080
 8001158:	80002000 	.word	0x80002000
 800115c:	fe00e800 	.word	0xfe00e800
 8001160:	fc009c00 	.word	0xfc009c00
 8001164:	01ff00a2 	.word	0x01ff00a2

08001168 <RTC_Read.constprop.0>:
HAL_StatusTypeDef RTC_Read(RTC_Handle_t *hrtc)
 8001168:	210f      	movs	r1, #15
 800116a:	b5f0      	push	{r4, r5, r6, r7, lr}
    if (PCF_ReadRegs(hrtc->hi2c, PCF_REG_VL_SEC, raw, 7) != HAL_OK) return HAL_ERROR;
 800116c:	4bbd      	ldr	r3, [pc, #756]	@ (8001464 <RTC_Read.constprop.0+0x2fc>)
HAL_StatusTypeDef RTC_Read(RTC_Handle_t *hrtc)
 800116e:	b08d      	sub	sp, #52	@ 0x34
    if (PCF_ReadRegs(hrtc->hi2c, PCF_REG_VL_SEC, raw, 7) != HAL_OK) return HAL_ERROR;
 8001170:	6f9c      	ldr	r4, [r3, #120]	@ 0x78
 8001172:	ab06      	add	r3, sp, #24
 8001174:	18c9      	adds	r1, r1, r3
 8001176:	2302      	movs	r3, #2
    HAL_StatusTypeDef s = HAL_I2C_Master_Transmit(hi2c, RTC_I2C_ADDR, &reg, 1, RTC_TIMEOUT_MS);
 8001178:	2201      	movs	r2, #1
 800117a:	0020      	movs	r0, r4
 800117c:	700b      	strb	r3, [r1, #0]
 800117e:	f7ff ff2d 	bl	8000fdc <HAL_I2C_Master_Transmit.constprop.0>
    if (s != HAL_OK) return s;
 8001182:	2800      	cmp	r0, #0
 8001184:	d002      	beq.n	800118c <RTC_Read.constprop.0+0x24>
    if (PCF_ReadRegs(hrtc->hi2c, PCF_REG_VL_SEC, raw, 7) != HAL_OK) return HAL_ERROR;
 8001186:	2001      	movs	r0, #1
}
 8001188:	b00d      	add	sp, #52	@ 0x34
 800118a:	bdf0      	pop	{r4, r5, r6, r7, pc}
  if (hi2c->State == HAL_I2C_STATE_READY)
 800118c:	0023      	movs	r3, r4
 800118e:	3341      	adds	r3, #65	@ 0x41
 8001190:	9304      	str	r3, [sp, #16]
 8001192:	781b      	ldrb	r3, [r3, #0]
 8001194:	2b20      	cmp	r3, #32
 8001196:	d1f6      	bne.n	8001186 <RTC_Read.constprop.0+0x1e>
    __HAL_LOCK(hi2c);
 8001198:	0023      	movs	r3, r4
 800119a:	3340      	adds	r3, #64	@ 0x40
 800119c:	781a      	ldrb	r2, [r3, #0]
 800119e:	2a01      	cmp	r2, #1
 80011a0:	d0f1      	beq.n	8001186 <RTC_Read.constprop.0+0x1e>
 80011a2:	2501      	movs	r5, #1
    if (I2C_WaitOnFlagUntilTimeout(hi2c, I2C_FLAG_BUSY, SET, I2C_TIMEOUT_BUSY, tickstart) != HAL_OK)
 80011a4:	2180      	movs	r1, #128	@ 0x80
    __HAL_LOCK(hi2c);
 80011a6:	701d      	strb	r5, [r3, #0]
 80011a8:	4baf      	ldr	r3, [pc, #700]	@ (8001468 <RTC_Read.constprop.0+0x300>)
    if (I2C_WaitOnFlagUntilTimeout(hi2c, I2C_FLAG_BUSY, SET, I2C_TIMEOUT_BUSY, tickstart) != HAL_OK)
 80011aa:	002a      	movs	r2, r5
 80011ac:	6f5b      	ldr	r3, [r3, #116]	@ 0x74
 80011ae:	0020      	movs	r0, r4
 80011b0:	9303      	str	r3, [sp, #12]
 80011b2:	9300      	str	r3, [sp, #0]
 80011b4:	0209      	lsls	r1, r1, #8
 80011b6:	2319      	movs	r3, #25
 80011b8:	f7ff fbdc 	bl	8000974 <I2C_WaitOnFlagUntilTimeout>
 80011bc:	2800      	cmp	r0, #0
 80011be:	d1e2      	bne.n	8001186 <RTC_Read.constprop.0+0x1e>
    hi2c->State     = HAL_I2C_STATE_BUSY_RX;
 80011c0:	2322      	movs	r3, #34	@ 0x22
 80011c2:	9a04      	ldr	r2, [sp, #16]
 80011c4:	7013      	strb	r3, [r2, #0]
    hi2c->Mode      = HAL_I2C_MODE_MASTER;
 80011c6:	0023      	movs	r3, r4
 80011c8:	2210      	movs	r2, #16
 80011ca:	3342      	adds	r3, #66	@ 0x42
 80011cc:	701a      	strb	r2, [r3, #0]
    hi2c->pBuffPtr  = pData;
 80011ce:	ab0a      	add	r3, sp, #40	@ 0x28
 80011d0:	6263      	str	r3, [r4, #36]	@ 0x24
    hi2c->XferCount = Size;
 80011d2:	2307      	movs	r3, #7
    hi2c->ErrorCode = HAL_I2C_ERROR_NONE;
 80011d4:	6460      	str	r0, [r4, #68]	@ 0x44
    hi2c->XferCount = Size;
 80011d6:	8563      	strh	r3, [r4, #42]	@ 0x2a
    if (hi2c->XferCount > MAX_NBYTE_SIZE)
 80011d8:	8d63      	ldrh	r3, [r4, #42]	@ 0x2a
    hi2c->XferISR   = NULL;
 80011da:	6360      	str	r0, [r4, #52]	@ 0x34
    if (hi2c->XferCount > MAX_NBYTE_SIZE)
 80011dc:	2bff      	cmp	r3, #255	@ 0xff
 80011de:	d909      	bls.n	80011f4 <RTC_Read.constprop.0+0x8c>
  MODIFY_REG(hi2c->Instance->CR2, \
 80011e0:	6821      	ldr	r1, [r4, #0]
 80011e2:	4ba2      	ldr	r3, [pc, #648]	@ (800146c <RTC_Read.constprop.0+0x304>)
 80011e4:	684a      	ldr	r2, [r1, #4]
      hi2c->XferSize = 1U;
 80011e6:	8525      	strh	r5, [r4, #40]	@ 0x28
  MODIFY_REG(hi2c->Instance->CR2, \
 80011e8:	401a      	ands	r2, r3
 80011ea:	4ba1      	ldr	r3, [pc, #644]	@ (8001470 <RTC_Read.constprop.0+0x308>)
 80011ec:	4313      	orrs	r3, r2
 80011ee:	604b      	str	r3, [r1, #4]
    if ((__HAL_I2C_GET_FLAG(hi2c, I2C_FLAG_STOPF) == SET) && (status == HAL_OK))
 80011f0:	2720      	movs	r7, #32
 80011f2:	e07d      	b.n	80012f0 <RTC_Read.constprop.0+0x188>
      I2C_TransferConfig(hi2c, DevAddress, (uint8_t)hi2c->XferSize, I2C_AUTOEND_MODE,
 80011f4:	2280      	movs	r2, #128	@ 0x80
      hi2c->XferSize = hi2c->XferCount;
 80011f6:	8d61      	ldrh	r1, [r4, #42]	@ 0x2a
      I2C_TransferConfig(hi2c, DevAddress, (uint8_t)hi2c->XferSize, I2C_AUTOEND_MODE,
 80011f8:	0020      	movs	r0, r4
      hi2c->XferSize = hi2c->XferCount;
 80011fa:	b289      	uxth	r1, r1
 80011fc:	8521      	strh	r1, [r4, #40]	@ 0x28
      I2C_TransferConfig(hi2c, DevAddress, (uint8_t)hi2c->XferSize, I2C_AUTOEND_MODE,
 80011fe:	4b9d      	ldr	r3, [pc, #628]	@ (8001474 <RTC_Read.constprop.0+0x30c>)
 8001200:	b2c9      	uxtb	r1, r1
 8001202:	0492      	lsls	r2, r2, #18
 8001204:	f7ff feae 	bl	8000f64 <I2C_TransferConfig.constprop.0>
 8001208:	e7f2      	b.n	80011f0 <RTC_Read.constprop.0+0x88>
    if (I2C_IsErrorOccurred(hi2c, Timeout, Tickstart) != HAL_OK)
 800120a:	2164      	movs	r1, #100	@ 0x64
 800120c:	0020      	movs	r0, r4
 800120e:	9a03      	ldr	r2, [sp, #12]
 8001210:	f7ff fb2c 	bl	800086c <I2C_IsErrorOccurred>
    if ((__HAL_I2C_GET_FLAG(hi2c, I2C_FLAG_STOPF) == SET) && (status == HAL_OK))
 8001214:	69b3      	ldr	r3, [r6, #24]
    if (I2C_IsErrorOccurred(hi2c, Timeout, Tickstart) != HAL_OK)
 8001216:	0005      	movs	r5, r0
    if ((__HAL_I2C_GET_FLAG(hi2c, I2C_FLAG_STOPF) == SET) && (status == HAL_OK))
 8001218:	423b      	tst	r3, r7
 800121a:	d11f      	bne.n	800125c <RTC_Read.constprop.0+0xf4>
    if (I2C_IsErrorOccurred(hi2c, Timeout, Tickstart) != HAL_OK)
 800121c:	1e6b      	subs	r3, r5, #1
 800121e:	419d      	sbcs	r5, r3
 8001220:	b2ed      	uxtb	r5, r5
 8001222:	4b91      	ldr	r3, [pc, #580]	@ (8001468 <RTC_Read.constprop.0+0x300>)
    if ((((HAL_GetTick() - Tickstart) > Timeout) || (Timeout == 0U)) && (status == HAL_OK))
 8001224:	9a03      	ldr	r2, [sp, #12]
 8001226:	6f5b      	ldr	r3, [r3, #116]	@ 0x74
 8001228:	1a9b      	subs	r3, r3, r2
 800122a:	2b64      	cmp	r3, #100	@ 0x64
 800122c:	d90e      	bls.n	800124c <RTC_Read.constprop.0+0xe4>
 800122e:	2d00      	cmp	r5, #0
 8001230:	d10b      	bne.n	800124a <RTC_Read.constprop.0+0xe2>
      if ((__HAL_I2C_GET_FLAG(hi2c, I2C_FLAG_RXNE) == RESET))
 8001232:	2204      	movs	r2, #4
 8001234:	69b3      	ldr	r3, [r6, #24]
 8001236:	4213      	tst	r3, r2
 8001238:	d108      	bne.n	800124c <RTC_Read.constprop.0+0xe4>
        hi2c->ErrorCode |= HAL_I2C_ERROR_TIMEOUT;
 800123a:	6c63      	ldr	r3, [r4, #68]	@ 0x44
 800123c:	433b      	orrs	r3, r7
 800123e:	6463      	str	r3, [r4, #68]	@ 0x44
        hi2c->State = HAL_I2C_STATE_READY;
 8001240:	9b04      	ldr	r3, [sp, #16]
 8001242:	701f      	strb	r7, [r3, #0]
        __HAL_UNLOCK(hi2c);
 8001244:	0023      	movs	r3, r4
 8001246:	3340      	adds	r3, #64	@ 0x40
 8001248:	701d      	strb	r5, [r3, #0]
HAL_StatusTypeDef RTC_Read(RTC_Handle_t *hrtc)
 800124a:	2501      	movs	r5, #1
  while ((__HAL_I2C_GET_FLAG(hi2c, I2C_FLAG_RXNE) == RESET) && (status == HAL_OK))
 800124c:	2204      	movs	r2, #4
 800124e:	6826      	ldr	r6, [r4, #0]
 8001250:	69b3      	ldr	r3, [r6, #24]
 8001252:	4213      	tst	r3, r2
 8001254:	d11e      	bne.n	8001294 <RTC_Read.constprop.0+0x12c>
 8001256:	2d00      	cmp	r5, #0
 8001258:	d0d7      	beq.n	800120a <RTC_Read.constprop.0+0xa2>
 800125a:	e794      	b.n	8001186 <RTC_Read.constprop.0+0x1e>
    if ((__HAL_I2C_GET_FLAG(hi2c, I2C_FLAG_STOPF) == SET) && (status == HAL_OK))
 800125c:	2800      	cmp	r0, #0
 800125e:	d113      	bne.n	8001288 <RTC_Read.constprop.0+0x120>
      if ((__HAL_I2C_GET_FLAG(hi2c, I2C_FLAG_RXNE) == SET) && (hi2c->XferSize > 0U))
 8001260:	69b3      	ldr	r3, [r6, #24]
      if (__HAL_I2C_GET_FLAG(hi2c, I2C_FLAG_AF) == SET)
 8001262:	2310      	movs	r3, #16
 8001264:	69b2      	ldr	r2, [r6, #24]
 8001266:	421a      	tst	r2, r3
 8001268:	d010      	beq.n	800128c <RTC_Read.constprop.0+0x124>
        __HAL_I2C_CLEAR_FLAG(hi2c, I2C_FLAG_AF);
 800126a:	61f3      	str	r3, [r6, #28]
        hi2c->ErrorCode = HAL_I2C_ERROR_AF;
 800126c:	3b0c      	subs	r3, #12
 800126e:	6463      	str	r3, [r4, #68]	@ 0x44
        __HAL_I2C_CLEAR_FLAG(hi2c, I2C_FLAG_STOPF);
 8001270:	61f7      	str	r7, [r6, #28]
        I2C_RESET_CR2(hi2c);
 8001272:	6873      	ldr	r3, [r6, #4]
 8001274:	4a80      	ldr	r2, [pc, #512]	@ (8001478 <RTC_Read.constprop.0+0x310>)
 8001276:	4013      	ands	r3, r2
 8001278:	6073      	str	r3, [r6, #4]
        hi2c->State = HAL_I2C_STATE_READY;
 800127a:	9b04      	ldr	r3, [sp, #16]
 800127c:	701f      	strb	r7, [r3, #0]
        hi2c->Mode = HAL_I2C_MODE_NONE;
 800127e:	0023      	movs	r3, r4
 8001280:	3342      	adds	r3, #66	@ 0x42
 8001282:	7018      	strb	r0, [r3, #0]
        __HAL_UNLOCK(hi2c);
 8001284:	3b02      	subs	r3, #2
 8001286:	7018      	strb	r0, [r3, #0]
 8001288:	2501      	movs	r5, #1
 800128a:	e7ca      	b.n	8001222 <RTC_Read.constprop.0+0xba>
        hi2c->ErrorCode = HAL_I2C_ERROR_NONE;
 800128c:	6460      	str	r0, [r4, #68]	@ 0x44
 800128e:	e7c8      	b.n	8001222 <RTC_Read.constprop.0+0xba>
  HAL_StatusTypeDef status = HAL_OK;
 8001290:	2500      	movs	r5, #0
 8001292:	e7db      	b.n	800124c <RTC_Read.constprop.0+0xe4>
      if (I2C_WaitOnRXNEFlagUntilTimeout(hi2c, Timeout, tickstart) != HAL_OK)
 8001294:	2d00      	cmp	r5, #0
 8001296:	d000      	beq.n	800129a <RTC_Read.constprop.0+0x132>
 8001298:	e775      	b.n	8001186 <RTC_Read.constprop.0+0x1e>
      *hi2c->pBuffPtr = (uint8_t)hi2c->Instance->RXDR;
 800129a:	6a72      	ldr	r2, [r6, #36]	@ 0x24
 800129c:	6a63      	ldr	r3, [r4, #36]	@ 0x24
 800129e:	701a      	strb	r2, [r3, #0]
      hi2c->XferCount--;
 80012a0:	8d62      	ldrh	r2, [r4, #42]	@ 0x2a
      hi2c->pBuffPtr++;
 80012a2:	6a63      	ldr	r3, [r4, #36]	@ 0x24
      hi2c->XferCount--;
 80012a4:	3a01      	subs	r2, #1
      hi2c->pBuffPtr++;
 80012a6:	3301      	adds	r3, #1
      hi2c->XferCount--;
 80012a8:	b292      	uxth	r2, r2
      hi2c->pBuffPtr++;
 80012aa:	6263      	str	r3, [r4, #36]	@ 0x24
      hi2c->XferSize--;
 80012ac:	8d23      	ldrh	r3, [r4, #40]	@ 0x28
      hi2c->XferCount--;
 80012ae:	8562      	strh	r2, [r4, #42]	@ 0x2a
      hi2c->XferSize--;
 80012b0:	3b01      	subs	r3, #1
      if ((hi2c->XferCount != 0U) && (hi2c->XferSize == 0U))
 80012b2:	8d62      	ldrh	r2, [r4, #42]	@ 0x2a
      hi2c->XferSize--;
 80012b4:	b29b      	uxth	r3, r3
 80012b6:	8523      	strh	r3, [r4, #40]	@ 0x28
      if ((hi2c->XferCount != 0U) && (hi2c->XferSize == 0U))
 80012b8:	2a00      	cmp	r2, #0
 80012ba:	d019      	beq.n	80012f0 <RTC_Read.constprop.0+0x188>
 80012bc:	2b00      	cmp	r3, #0
 80012be:	d117      	bne.n	80012f0 <RTC_Read.constprop.0+0x188>
        if (I2C_WaitOnFlagUntilTimeout(hi2c, I2C_FLAG_TCR, RESET, Timeout, tickstart) != HAL_OK)
 80012c0:	9b03      	ldr	r3, [sp, #12]
 80012c2:	002a      	movs	r2, r5
 80012c4:	9300      	str	r3, [sp, #0]
 80012c6:	2180      	movs	r1, #128	@ 0x80
 80012c8:	2364      	movs	r3, #100	@ 0x64
 80012ca:	0020      	movs	r0, r4
 80012cc:	f7ff fb52 	bl	8000974 <I2C_WaitOnFlagUntilTimeout>
 80012d0:	2800      	cmp	r0, #0
 80012d2:	d000      	beq.n	80012d6 <RTC_Read.constprop.0+0x16e>
 80012d4:	e757      	b.n	8001186 <RTC_Read.constprop.0+0x1e>
        if (hi2c->XferCount > MAX_NBYTE_SIZE)
 80012d6:	8d63      	ldrh	r3, [r4, #42]	@ 0x2a
 80012d8:	2bff      	cmp	r3, #255	@ 0xff
 80012da:	d800      	bhi.n	80012de <RTC_Read.constprop.0+0x176>
 80012dc:	e0ad      	b.n	800143a <RTC_Read.constprop.0+0x2d2>
          hi2c->XferSize = MAX_NBYTE_SIZE;
 80012de:	23ff      	movs	r3, #255	@ 0xff
  MODIFY_REG(hi2c->Instance->CR2, \
 80012e0:	6821      	ldr	r1, [r4, #0]
          hi2c->XferSize = MAX_NBYTE_SIZE;
 80012e2:	8523      	strh	r3, [r4, #40]	@ 0x28
  MODIFY_REG(hi2c->Instance->CR2, \
 80012e4:	684a      	ldr	r2, [r1, #4]
 80012e6:	4b65      	ldr	r3, [pc, #404]	@ (800147c <RTC_Read.constprop.0+0x314>)
 80012e8:	401a      	ands	r2, r3
 80012ea:	4b65      	ldr	r3, [pc, #404]	@ (8001480 <RTC_Read.constprop.0+0x318>)
 80012ec:	4313      	orrs	r3, r2
 80012ee:	604b      	str	r3, [r1, #4]
    while (hi2c->XferCount > 0U)
 80012f0:	8d63      	ldrh	r3, [r4, #42]	@ 0x2a
 80012f2:	2b00      	cmp	r3, #0
 80012f4:	d1cc      	bne.n	8001290 <RTC_Read.constprop.0+0x128>
    if (I2C_WaitOnSTOPFlagUntilTimeout(hi2c, Timeout, tickstart) != HAL_OK)
 80012f6:	0020      	movs	r0, r4
 80012f8:	9903      	ldr	r1, [sp, #12]
 80012fa:	f7ff fe47 	bl	8000f8c <I2C_WaitOnSTOPFlagUntilTimeout.constprop.0>
 80012fe:	2800      	cmp	r0, #0
 8001300:	d000      	beq.n	8001304 <RTC_Read.constprop.0+0x19c>
 8001302:	e740      	b.n	8001186 <RTC_Read.constprop.0+0x1e>
    __HAL_I2C_CLEAR_FLAG(hi2c, I2C_FLAG_STOPF);
 8001304:	2120      	movs	r1, #32
 8001306:	6823      	ldr	r3, [r4, #0]
    I2C_RESET_CR2(hi2c);
 8001308:	4d5b      	ldr	r5, [pc, #364]	@ (8001478 <RTC_Read.constprop.0+0x310>)
    __HAL_I2C_CLEAR_FLAG(hi2c, I2C_FLAG_STOPF);
 800130a:	61d9      	str	r1, [r3, #28]
    I2C_RESET_CR2(hi2c);
 800130c:	685a      	ldr	r2, [r3, #4]
static uint8_t BCD2DEC(uint8_t b) { return (uint8_t)((b >> 4) * 10U + (b & 0x0FU)); }
 800130e:	2607      	movs	r6, #7
 8001310:	402a      	ands	r2, r5
 8001312:	605a      	str	r2, [r3, #4]
    hi2c->State = HAL_I2C_STATE_READY;
 8001314:	0023      	movs	r3, r4
 8001316:	3341      	adds	r3, #65	@ 0x41
 8001318:	7019      	strb	r1, [r3, #0]
    hi2c->Mode  = HAL_I2C_MODE_NONE;
 800131a:	7058      	strb	r0, [r3, #1]
 800131c:	230a      	movs	r3, #10
 800131e:	270f      	movs	r7, #15
    __HAL_UNLOCK(hi2c);
 8001320:	3440      	adds	r4, #64	@ 0x40
 8001322:	7020      	strb	r0, [r4, #0]
    hrtc->now.seconds = BCD2DEC(raw[0] & 0x7FU);
 8001324:	ac0a      	add	r4, sp, #40	@ 0x28
 8001326:	7821      	ldrb	r1, [r4, #0]
static uint8_t BCD2DEC(uint8_t b) { return (uint8_t)((b >> 4) * 10U + (b & 0x0FU)); }
 8001328:	090a      	lsrs	r2, r1, #4
 800132a:	4032      	ands	r2, r6
 800132c:	435a      	muls	r2, r3
 800132e:	4039      	ands	r1, r7
 8001330:	1852      	adds	r2, r2, r1
 8001332:	9206      	str	r2, [sp, #24]
    hrtc->now.seconds = BCD2DEC(raw[0] & 0x7FU);
 8001334:	4953      	ldr	r1, [pc, #332]	@ (8001484 <RTC_Read.constprop.0+0x31c>)
 8001336:	9d06      	ldr	r5, [sp, #24]
 8001338:	4a4a      	ldr	r2, [pc, #296]	@ (8001464 <RTC_Read.constprop.0+0x2fc>)
 800133a:	700d      	strb	r5, [r1, #0]
    hrtc->now.minutes = BCD2DEC(raw[1] & 0x7FU);
 800133c:	7865      	ldrb	r5, [r4, #1]
static uint8_t BCD2DEC(uint8_t b) { return (uint8_t)((b >> 4) * 10U + (b & 0x0FU)); }
 800133e:	0929      	lsrs	r1, r5, #4
 8001340:	4031      	ands	r1, r6
 8001342:	4359      	muls	r1, r3
 8001344:	403d      	ands	r5, r7
 8001346:	1949      	adds	r1, r1, r5
 8001348:	9105      	str	r1, [sp, #20]
    hrtc->now.minutes = BCD2DEC(raw[1] & 0x7FU);
 800134a:	0011      	movs	r1, r2
 800134c:	9d05      	ldr	r5, [sp, #20]
 800134e:	317d      	adds	r1, #125	@ 0x7d
 8001350:	700d      	strb	r5, [r1, #0]
    hrtc->now.hours   = BCD2DEC(raw[2] & 0x3FU);
 8001352:	78a1      	ldrb	r1, [r4, #2]
 8001354:	468c      	mov	ip, r1
static uint8_t BCD2DEC(uint8_t b) { return (uint8_t)((b >> 4) * 10U + (b & 0x0FU)); }
 8001356:	090d      	lsrs	r5, r1, #4
 8001358:	2103      	movs	r1, #3
 800135a:	400d      	ands	r5, r1
 800135c:	4661      	mov	r1, ip
 800135e:	435d      	muls	r5, r3
 8001360:	4039      	ands	r1, r7
 8001362:	468c      	mov	ip, r1
 8001364:	0029      	movs	r1, r5
    hrtc->now.hours   = BCD2DEC(raw[2] & 0x3FU);
 8001366:	0015      	movs	r5, r2
static uint8_t BCD2DEC(uint8_t b) { return (uint8_t)((b >> 4) * 10U + (b & 0x0FU)); }
 8001368:	4461      	add	r1, ip
    hrtc->now.hours   = BCD2DEC(raw[2] & 0x3FU);
 800136a:	357e      	adds	r5, #126	@ 0x7e
 800136c:	7029      	strb	r1, [r5, #0]
static uint8_t BCD2DEC(uint8_t b) { return (uint8_t)((b >> 4) * 10U + (b & 0x0FU)); }
 800136e:	9104      	str	r1, [sp, #16]
    hrtc->now.date    = BCD2DEC(raw[3] & 0x3FU);
 8001370:	78e1      	ldrb	r1, [r4, #3]
 8001372:	468c      	mov	ip, r1
static uint8_t BCD2DEC(uint8_t b) { return (uint8_t)((b >> 4) * 10U + (b & 0x0FU)); }
 8001374:	090d      	lsrs	r5, r1, #4
 8001376:	2103      	movs	r1, #3
 8001378:	400d      	ands	r5, r1
 800137a:	4661      	mov	r1, ip
 800137c:	435d      	muls	r5, r3
 800137e:	4039      	ands	r1, r7
 8001380:	468c      	mov	ip, r1
 8001382:	0029      	movs	r1, r5
    hrtc->now.date    = BCD2DEC(raw[3] & 0x3FU);
 8001384:	0015      	movs	r5, r2
static uint8_t BCD2DEC(uint8_t b) { return (uint8_t)((b >> 4) * 10U + (b & 0x0FU)); }
 8001386:	4461      	add	r1, ip
    hrtc->now.date    = BCD2DEC(raw[3] & 0x3FU);
 8001388:	3580      	adds	r5, #128	@ 0x80
 800138a:	7029      	strb	r1, [r5, #0]
static uint8_t BCD2DEC(uint8_t b) { return (uint8_t)((b >> 4) * 10U + (b & 0x0FU)); }
 800138c:	9103      	str	r1, [sp, #12]
    hrtc->now.day     = BCD2DEC(raw[4] & 0x07U);
 800138e:	7925      	ldrb	r5, [r4, #4]
 8001390:	4035      	ands	r5, r6
 8001392:	0016      	movs	r6, r2
 8001394:	367f      	adds	r6, #127	@ 0x7f
 8001396:	7035      	strb	r5, [r6, #0]
    hrtc->now.month   = BCD2DEC(raw[5] & 0x1FU);
 8001398:	7961      	ldrb	r1, [r4, #5]
static uint8_t BCD2DEC(uint8_t b) { return (uint8_t)((b >> 4) * 10U + (b & 0x0FU)); }
 800139a:	2601      	movs	r6, #1
 800139c:	090d      	lsrs	r5, r1, #4
 800139e:	4039      	ands	r1, r7
 80013a0:	468c      	mov	ip, r1
 80013a2:	4035      	ands	r5, r6
 80013a4:	426d      	negs	r5, r5
 80013a6:	401d      	ands	r5, r3
 80013a8:	44ac      	add	ip, r5
    hrtc->now.month   = BCD2DEC(raw[5] & 0x1FU);
 80013aa:	0015      	movs	r5, r2
 80013ac:	4661      	mov	r1, ip
 80013ae:	3581      	adds	r5, #129	@ 0x81
 80013b0:	7029      	strb	r1, [r5, #0]
    hrtc->now.year    = BCD2DEC(raw[6]);
 80013b2:	79a4      	ldrb	r4, [r4, #6]
 * small loop over s_days_in_month[12] (12 bytes already in .rodata above).
 * Total flash saving: 26 - ~12 loop instructions ≈ 14 bytes.
 */
uint32_t RTC_ToUnix(const RTC_DateTime_t *dt)
{
    uint32_t year = 2000UL + dt->year;
 80013b4:	21fa      	movs	r1, #250	@ 0xfa
static uint8_t BCD2DEC(uint8_t b) { return (uint8_t)((b >> 4) * 10U + (b & 0x0FU)); }
 80013b6:	0925      	lsrs	r5, r4, #4
 80013b8:	436b      	muls	r3, r5
 80013ba:	403c      	ands	r4, r7
 80013bc:	191b      	adds	r3, r3, r4
    hrtc->now.year    = BCD2DEC(raw[6]);
 80013be:	0014      	movs	r4, r2
static uint8_t BCD2DEC(uint8_t b) { return (uint8_t)((b >> 4) * 10U + (b & 0x0FU)); }
 80013c0:	b2db      	uxtb	r3, r3
    hrtc->now.year    = BCD2DEC(raw[6]);
 80013c2:	3482      	adds	r4, #130	@ 0x82
 80013c4:	7023      	strb	r3, [r4, #0]

    /* Leap-year correction: every completed year since 1969 that was a
     * leap year adds an extra day.  Standard epoch formula. */
    uint32_t days = (year - 1970UL) * 365UL
                  + (year - 1969UL) / 4UL;
 80013c6:	246e      	movs	r4, #110	@ 0x6e
    uint32_t year = 2000UL + dt->year;
 80013c8:	00c9      	lsls	r1, r1, #3
 80013ca:	185f      	adds	r7, r3, r1
                  + (year - 1969UL) / 4UL;
 80013cc:	34ff      	adds	r4, #255	@ 0xff
 80013ce:	437c      	muls	r4, r7
 80013d0:	331f      	adds	r3, #31
    uint32_t days = (year - 1970UL) * 365UL
 80013d2:	492d      	ldr	r1, [pc, #180]	@ (8001488 <RTC_Read.constprop.0+0x320>)
                  + (year - 1969UL) / 4UL;
 80013d4:	089b      	lsrs	r3, r3, #2
 80013d6:	191b      	adds	r3, r3, r4

    /* Accumulate days for completed months using the shared table */
    uint8_t  leap = ((year % 4UL == 0UL) && (year % 100UL != 0UL || year % 400UL == 0UL)) ? 1U : 0U;
 80013d8:	003d      	movs	r5, r7
    uint32_t days = (year - 1970UL) * 365UL
 80013da:	185b      	adds	r3, r3, r1
    uint8_t  leap = ((year % 4UL == 0UL) && (year % 100UL != 0UL || year % 400UL == 0UL)) ? 1U : 0U;
 80013dc:	2103      	movs	r1, #3
 80013de:	0004      	movs	r4, r0
 80013e0:	400d      	ands	r5, r1
 80013e2:	420f      	tst	r7, r1
 80013e4:	d110      	bne.n	8001408 <RTC_Read.constprop.0+0x2a0>
 80013e6:	4929      	ldr	r1, [pc, #164]	@ (800148c <RTC_Read.constprop.0+0x324>)
 80013e8:	3402      	adds	r4, #2
 80013ea:	4379      	muls	r1, r7
 80013ec:	000f      	movs	r7, r1
 80013ee:	41e7      	rors	r7, r4
 80013f0:	9707      	str	r7, [sp, #28]
 80013f2:	0034      	movs	r4, r6
 80013f4:	4f26      	ldr	r7, [pc, #152]	@ (8001490 <RTC_Read.constprop.0+0x328>)
 80013f6:	9e07      	ldr	r6, [sp, #28]
 80013f8:	42be      	cmp	r6, r7
 80013fa:	d805      	bhi.n	8001408 <RTC_Read.constprop.0+0x2a0>
 80013fc:	3403      	adds	r4, #3
 80013fe:	41e1      	rors	r1, r4
 8001400:	4c24      	ldr	r4, [pc, #144]	@ (8001494 <RTC_Read.constprop.0+0x32c>)
 8001402:	428c      	cmp	r4, r1
 8001404:	416d      	adcs	r5, r5
 8001406:	b2ec      	uxtb	r4, r5
    for (uint8_t m = 1U; m < dt->month; m++) {
 8001408:	2101      	movs	r1, #1
        days += s_days_in_month[m - 1U];
        if (m == 2U && leap) days += 1U;
 800140a:	1e66      	subs	r6, r4, #1
 800140c:	41b4      	sbcs	r4, r6
 800140e:	4d22      	ldr	r5, [pc, #136]	@ (8001498 <RTC_Read.constprop.0+0x330>)
    for (uint8_t m = 1U; m < dt->month; m++) {
 8001410:	4561      	cmp	r1, ip
 8001412:	d31d      	bcc.n	8001450 <RTC_Read.constprop.0+0x2e8>
    }

    days += dt->date - 1U;

    return days  * 86400UL
         + (uint32_t)dt->hours   * 3600UL
 8001414:	21e1      	movs	r1, #225	@ 0xe1
 8001416:	9c04      	ldr	r4, [sp, #16]
 8001418:	0109      	lsls	r1, r1, #4
 800141a:	4361      	muls	r1, r4
         + (uint32_t)dt->minutes * 60UL
 800141c:	243c      	movs	r4, #60	@ 0x3c
 800141e:	9d05      	ldr	r5, [sp, #20]
    hrtc->unix_approx = RTC_ToUnix(&hrtc->now);
 8001420:	3208      	adds	r2, #8
         + (uint32_t)dt->minutes * 60UL
 8001422:	436c      	muls	r4, r5
         + dt->seconds;
 8001424:	1909      	adds	r1, r1, r4
 8001426:	9c06      	ldr	r4, [sp, #24]
 8001428:	1909      	adds	r1, r1, r4
    days += dt->date - 1U;
 800142a:	9c03      	ldr	r4, [sp, #12]
 800142c:	3c01      	subs	r4, #1
 800142e:	18e3      	adds	r3, r4, r3
    return days  * 86400UL
 8001430:	4c1a      	ldr	r4, [pc, #104]	@ (800149c <RTC_Read.constprop.0+0x334>)
 8001432:	4363      	muls	r3, r4
         + dt->seconds;
 8001434:	18cb      	adds	r3, r1, r3
    hrtc->unix_approx = RTC_ToUnix(&hrtc->now);
 8001436:	67d3      	str	r3, [r2, #124]	@ 0x7c
    return HAL_OK;
 8001438:	e6a6      	b.n	8001188 <RTC_Read.constprop.0+0x20>
          I2C_TransferConfig(hi2c, DevAddress, (uint8_t)hi2c->XferSize, I2C_AUTOEND_MODE,
 800143a:	2280      	movs	r2, #128	@ 0x80
          hi2c->XferSize = hi2c->XferCount;
 800143c:	8d61      	ldrh	r1, [r4, #42]	@ 0x2a
          I2C_TransferConfig(hi2c, DevAddress, (uint8_t)hi2c->XferSize, I2C_AUTOEND_MODE,
 800143e:	002b      	movs	r3, r5
          hi2c->XferSize = hi2c->XferCount;
 8001440:	b289      	uxth	r1, r1
 8001442:	8521      	strh	r1, [r4, #40]	@ 0x28
          I2C_TransferConfig(hi2c, DevAddress, (uint8_t)hi2c->XferSize, I2C_AUTOEND_MODE,
 8001444:	0020      	movs	r0, r4
 8001446:	b2c9      	uxtb	r1, r1
 8001448:	0492      	lsls	r2, r2, #18
 800144a:	f7ff fd8b 	bl	8000f64 <I2C_TransferConfig.constprop.0>
 800144e:	e74f      	b.n	80012f0 <RTC_Read.constprop.0+0x188>
        days += s_days_in_month[m - 1U];
 8001450:	782e      	ldrb	r6, [r5, #0]
 8001452:	199b      	adds	r3, r3, r6
        if (m == 2U && leap) days += 1U;
 8001454:	2902      	cmp	r1, #2
 8001456:	d100      	bne.n	800145a <RTC_Read.constprop.0+0x2f2>
 8001458:	191b      	adds	r3, r3, r4
    for (uint8_t m = 1U; m < dt->month; m++) {
 800145a:	3101      	adds	r1, #1
 800145c:	b2c9      	uxtb	r1, r1
 800145e:	3501      	adds	r5, #1
 8001460:	e7d6      	b.n	8001410 <RTC_Read.constprop.0+0x2a8>
 8001462:	46c0      	nop			@ (mov r8, r8)
 8001464:	2000053c 	.word	0x2000053c
 8001468:	20000080 	.word	0x20000080
 800146c:	fc009800 	.word	0xfc009800
 8001470:	010124a2 	.word	0x010124a2
 8001474:	80002400 	.word	0x80002400
 8001478:	fe00e800 	.word	0xfe00e800
 800147c:	fc009c00 	.word	0xfc009c00
 8001480:	01ff00a2 	.word	0x01ff00a2
 8001484:	200005b8 	.word	0x200005b8
 8001488:	fff50736 	.word	0xfff50736
 800148c:	c28f5c29 	.word	0xc28f5c29
 8001490:	028f5c28 	.word	0x028f5c28
 8001494:	00a3d70a 	.word	0x00a3d70a
 8001498:	08007368 	.word	0x08007368
 800149c:	00015180 	.word	0x00015180

080014a0 <FLASH_WaitForLastOperation.constprop.0>:
     Even if the FLASH operation fails, the BUSY flag will be reset and an error
     flag will be set */
     
  uint32_t tickstart = HAL_GetTick();
     
  while(__HAL_FLASH_GET_FLAG(FLASH_FLAG_BSY)) 
 80014a0:	2001      	movs	r0, #1
 80014a2:	491a      	ldr	r1, [pc, #104]	@ (800150c <FLASH_WaitForLastOperation.constprop.0+0x6c>)
HAL_StatusTypeDef FLASH_WaitForLastOperation(uint32_t Timeout)
 80014a4:	b530      	push	{r4, r5, lr}
  while(__HAL_FLASH_GET_FLAG(FLASH_FLAG_BSY)) 
 80014a6:	4b1a      	ldr	r3, [pc, #104]	@ (8001510 <FLASH_WaitForLastOperation.constprop.0+0x70>)
 80014a8:	6f4c      	ldr	r4, [r1, #116]	@ 0x74
  { 
    if (Timeout != HAL_MAX_DELAY)
    {
      if((Timeout == 0U) || ((HAL_GetTick()-tickstart) > Timeout))
 80014aa:	4d1a      	ldr	r5, [pc, #104]	@ (8001514 <FLASH_WaitForLastOperation.constprop.0+0x74>)
  while(__HAL_FLASH_GET_FLAG(FLASH_FLAG_BSY)) 
 80014ac:	68da      	ldr	r2, [r3, #12]
 80014ae:	4202      	tst	r2, r0
 80014b0:	d126      	bne.n	8001500 <FLASH_WaitForLastOperation.constprop.0+0x60>
      }
    }
  }
  
  /* Check FLASH End of Operation flag  */
  if (__HAL_FLASH_GET_FLAG(FLASH_FLAG_EOP))
 80014b2:	2220      	movs	r2, #32
 80014b4:	68d9      	ldr	r1, [r3, #12]
 80014b6:	4211      	tst	r1, r2
 80014b8:	d000      	beq.n	80014bc <FLASH_WaitForLastOperation.constprop.0+0x1c>
  {
    /* Clear FLASH End of Operation pending bit */
    __HAL_FLASH_CLEAR_FLAG(FLASH_FLAG_EOP);
 80014ba:	60da      	str	r2, [r3, #12]
  }
  
  if(__HAL_FLASH_GET_FLAG(FLASH_FLAG_WRPERR)  || 
 80014bc:	68d9      	ldr	r1, [r3, #12]
 80014be:	2210      	movs	r2, #16
 80014c0:	0008      	movs	r0, r1
 80014c2:	4010      	ands	r0, r2
 80014c4:	4211      	tst	r1, r2
 80014c6:	d102      	bne.n	80014ce <FLASH_WaitForLastOperation.constprop.0+0x2e>
     __HAL_FLASH_GET_FLAG(FLASH_FLAG_PGERR))
 80014c8:	68da      	ldr	r2, [r3, #12]
  if(__HAL_FLASH_GET_FLAG(FLASH_FLAG_WRPERR)  || 
 80014ca:	0752      	lsls	r2, r2, #29
 80014cc:	d517      	bpl.n	80014fe <FLASH_WaitForLastOperation.constprop.0+0x5e>
  */
static void FLASH_SetErrorCode(void)
{
  uint32_t flags = 0U;
  
  if(__HAL_FLASH_GET_FLAG(FLASH_FLAG_WRPERR))
 80014ce:	68d8      	ldr	r0, [r3, #12]
 80014d0:	2110      	movs	r1, #16
 80014d2:	0002      	movs	r2, r0
 80014d4:	400a      	ands	r2, r1
 80014d6:	4208      	tst	r0, r1
 80014d8:	d005      	beq.n	80014e6 <FLASH_WaitForLastOperation.constprop.0+0x46>
  {
    pFlash.ErrorCode |= HAL_FLASH_ERROR_WRP;
 80014da:	2202      	movs	r2, #2
 80014dc:	480e      	ldr	r0, [pc, #56]	@ (8001518 <FLASH_WaitForLastOperation.constprop.0+0x78>)
 80014de:	6a44      	ldr	r4, [r0, #36]	@ 0x24
 80014e0:	4322      	orrs	r2, r4
 80014e2:	6242      	str	r2, [r0, #36]	@ 0x24
    flags |= FLASH_FLAG_WRPERR;
 80014e4:	000a      	movs	r2, r1
  }
  if(__HAL_FLASH_GET_FLAG(FLASH_FLAG_PGERR))
 80014e6:	2004      	movs	r0, #4
 80014e8:	68d9      	ldr	r1, [r3, #12]
 80014ea:	4201      	tst	r1, r0
 80014ec:	d005      	beq.n	80014fa <FLASH_WaitForLastOperation.constprop.0+0x5a>
  {
    pFlash.ErrorCode |= HAL_FLASH_ERROR_PROG;
 80014ee:	2101      	movs	r1, #1
 80014f0:	4c09      	ldr	r4, [pc, #36]	@ (8001518 <FLASH_WaitForLastOperation.constprop.0+0x78>)
    flags |= FLASH_FLAG_PGERR;
 80014f2:	4302      	orrs	r2, r0
    pFlash.ErrorCode |= HAL_FLASH_ERROR_PROG;
 80014f4:	6a65      	ldr	r5, [r4, #36]	@ 0x24
 80014f6:	4329      	orrs	r1, r5
 80014f8:	6261      	str	r1, [r4, #36]	@ 0x24
    return HAL_ERROR;
 80014fa:	2001      	movs	r0, #1
  }
  /* Clear FLASH error pending bits */
  __HAL_FLASH_CLEAR_FLAG(flags);
 80014fc:	60da      	str	r2, [r3, #12]
}
 80014fe:	bd30      	pop	{r4, r5, pc}
 8001500:	6f4a      	ldr	r2, [r1, #116]	@ 0x74
      if((Timeout == 0U) || ((HAL_GetTick()-tickstart) > Timeout))
 8001502:	1b12      	subs	r2, r2, r4
 8001504:	42aa      	cmp	r2, r5
 8001506:	d9d1      	bls.n	80014ac <FLASH_WaitForLastOperation.constprop.0+0xc>
        return HAL_TIMEOUT;
 8001508:	2003      	movs	r0, #3
 800150a:	e7f8      	b.n	80014fe <FLASH_WaitForLastOperation.constprop.0+0x5e>
 800150c:	20000080 	.word	0x20000080
 8001510:	40022000 	.word	0x40022000
 8001514:	0000c350 	.word	0x0000c350
 8001518:	20000100 	.word	0x20000100

0800151c <Buzzer_ToneOn.constprop.0>:
    if (!s_htim || freq_hz == 0) return;
 800151c:	491b      	ldr	r1, [pc, #108]	@ (800158c <Buzzer_ToneOn.constprop.0+0x70>)
static void Buzzer_ToneOn(uint16_t freq_hz)
 800151e:	b510      	push	{r4, lr}
    if (!s_htim || freq_hz == 0) return;
 8001520:	680a      	ldr	r2, [r1, #0]
 8001522:	2a00      	cmp	r2, #0
 8001524:	d029      	beq.n	800157a <Buzzer_ToneOn.constprop.0+0x5e>
    s_htim->Instance->ARR = arr;
 8001526:	20f4      	movs	r0, #244	@ 0xf4
 8001528:	6813      	ldr	r3, [r2, #0]
 800152a:	30ff      	adds	r0, #255	@ 0xff
 800152c:	62d8      	str	r0, [r3, #44]	@ 0x2c
    s_htim->Instance->CCR2 = arr * BUZZER_DUTY / 100;
 800152e:	38fa      	subs	r0, #250	@ 0xfa
 8001530:	6398      	str	r0, [r3, #56]	@ 0x38
  if (TIM_CHANNEL_STATE_GET(htim, Channel) != HAL_TIM_CHANNEL_STATE_READY)
 8001532:	323f      	adds	r2, #63	@ 0x3f
 8001534:	7810      	ldrb	r0, [r2, #0]
 8001536:	2801      	cmp	r0, #1
 8001538:	d11d      	bne.n	8001576 <Buzzer_ToneOn.constprop.0+0x5a>
  TIM_CHANNEL_STATE_SET(htim, Channel, HAL_TIM_CHANNEL_STATE_BUSY);
 800153a:	3001      	adds	r0, #1
 800153c:	7010      	strb	r0, [r2, #0]
  TIMx->CCER &= ~tmp;
 800153e:	2210      	movs	r2, #16
 8001540:	6a18      	ldr	r0, [r3, #32]
 8001542:	4390      	bics	r0, r2
 8001544:	6218      	str	r0, [r3, #32]
  TIMx->CCER |= (uint32_t)(ChannelState << (Channel & 0x1FU)); /* 0x1FU = 31 bits max shift */
 8001546:	6a18      	ldr	r0, [r3, #32]
 8001548:	4302      	orrs	r2, r0
  if (IS_TIM_BREAK_INSTANCE(htim->Instance) != RESET)
 800154a:	4811      	ldr	r0, [pc, #68]	@ (8001590 <Buzzer_ToneOn.constprop.0+0x74>)
  TIMx->CCER |= (uint32_t)(ChannelState << (Channel & 0x1FU)); /* 0x1FU = 31 bits max shift */
 800154c:	621a      	str	r2, [r3, #32]
  if (IS_TIM_BREAK_INSTANCE(htim->Instance) != RESET)
 800154e:	4283      	cmp	r3, r0
 8001550:	d005      	beq.n	800155e <Buzzer_ToneOn.constprop.0+0x42>
 8001552:	4a10      	ldr	r2, [pc, #64]	@ (8001594 <Buzzer_ToneOn.constprop.0+0x78>)
 8001554:	4293      	cmp	r3, r2
 8001556:	d002      	beq.n	800155e <Buzzer_ToneOn.constprop.0+0x42>
 8001558:	4a0f      	ldr	r2, [pc, #60]	@ (8001598 <Buzzer_ToneOn.constprop.0+0x7c>)
 800155a:	4293      	cmp	r3, r2
 800155c:	d10e      	bne.n	800157c <Buzzer_ToneOn.constprop.0+0x60>
    __HAL_TIM_MOE_ENABLE(htim);
 800155e:	2280      	movs	r2, #128	@ 0x80
 8001560:	6c5c      	ldr	r4, [r3, #68]	@ 0x44
 8001562:	0212      	lsls	r2, r2, #8
 8001564:	4322      	orrs	r2, r4
 8001566:	645a      	str	r2, [r3, #68]	@ 0x44
  if (IS_TIM_SLAVE_INSTANCE(htim->Instance))
 8001568:	4283      	cmp	r3, r0
 800156a:	d10a      	bne.n	8001582 <Buzzer_ToneOn.constprop.0+0x66>
    tmpsmcr = htim->Instance->SMCR & TIM_SMCR_SMS;
 800156c:	2007      	movs	r0, #7
 800156e:	689a      	ldr	r2, [r3, #8]
 8001570:	4002      	ands	r2, r0
    if (!IS_TIM_SLAVEMODE_TRIGGER_ENABLED(tmpsmcr))
 8001572:	2a06      	cmp	r2, #6
 8001574:	d105      	bne.n	8001582 <Buzzer_ToneOn.constprop.0+0x66>
    s_tone_on = 1;
 8001576:	2301      	movs	r3, #1
 8001578:	710b      	strb	r3, [r1, #4]
}
 800157a:	bd10      	pop	{r4, pc}
  if (IS_TIM_SLAVE_INSTANCE(htim->Instance))
 800157c:	4a07      	ldr	r2, [pc, #28]	@ (800159c <Buzzer_ToneOn.constprop.0+0x80>)
 800157e:	4293      	cmp	r3, r2
 8001580:	d0f4      	beq.n	800156c <Buzzer_ToneOn.constprop.0+0x50>
    __HAL_TIM_ENABLE(htim);
 8001582:	2201      	movs	r2, #1
 8001584:	6818      	ldr	r0, [r3, #0]
 8001586:	4302      	orrs	r2, r0
 8001588:	601a      	str	r2, [r3, #0]
 800158a:	e7f4      	b.n	8001576 <Buzzer_ToneOn.constprop.0+0x5a>
 800158c:	20000080 	.word	0x20000080
 8001590:	40012c00 	.word	0x40012c00
 8001594:	40014400 	.word	0x40014400
 8001598:	40014800 	.word	0x40014800
 800159c:	40000400 	.word	0x40000400

080015a0 <Buzzer_Play>:

uint8_t Buzzer_IsBusy(void) { return s_busy; }

void Buzzer_Play(Buzzer_Pattern_t pattern)
{
 80015a0:	b510      	push	{r4, lr}
 80015a2:	0004      	movs	r4, r0
    if ((uint8_t)pattern >= sizeof(s_patterns) / sizeof(s_patterns[0])) return;
 80015a4:	280b      	cmp	r0, #11
 80015a6:	d819      	bhi.n	80015dc <Buzzer_Play+0x3c>
    Buzzer_Stop();
 80015a8:	f7fe fe78 	bl	800029c <Buzzer_Stop>
    s_steps        = s_patterns[pattern];
 80015ac:	4b0c      	ldr	r3, [pc, #48]	@ (80015e0 <Buzzer_Play+0x40>)
 80015ae:	00a4      	lsls	r4, r4, #2
 80015b0:	191b      	adds	r3, r3, r4
    s_step_idx     = 0;
 80015b2:	2400      	movs	r4, #0
    s_steps        = s_patterns[pattern];
 80015b4:	6ada      	ldr	r2, [r3, #44]	@ 0x2c
    s_step_idx     = 0;
 80015b6:	480b      	ldr	r0, [pc, #44]	@ (80015e4 <Buzzer_Play+0x44>)
 80015b8:	4b0b      	ldr	r3, [pc, #44]	@ (80015e8 <Buzzer_Play+0x48>)
 80015ba:	7004      	strb	r4, [r0, #0]
    s_rep_cnt      = 0;
 80015bc:	0018      	movs	r0, r3
    s_steps        = s_patterns[pattern];
 80015be:	490b      	ldr	r1, [pc, #44]	@ (80015ec <Buzzer_Play+0x4c>)
    s_rep_cnt      = 0;
 80015c0:	3029      	adds	r0, #41	@ 0x29
 80015c2:	7004      	strb	r4, [r0, #0]
 80015c4:	6f48      	ldr	r0, [r1, #116]	@ 0x74
    s_steps        = s_patterns[pattern];
 80015c6:	608a      	str	r2, [r1, #8]
    s_step_start_ms = HAL_GetTick();
 80015c8:	62d8      	str	r0, [r3, #44]	@ 0x2c
    s_busy         = 1;
 80015ca:	2301      	movs	r3, #1
 80015cc:	730b      	strb	r3, [r1, #12]

    if (s_steps && s_steps[0].on_ms) {
 80015ce:	42a2      	cmp	r2, r4
 80015d0:	d004      	beq.n	80015dc <Buzzer_Play+0x3c>
 80015d2:	8813      	ldrh	r3, [r2, #0]
 80015d4:	42a3      	cmp	r3, r4
 80015d6:	d001      	beq.n	80015dc <Buzzer_Play+0x3c>
        Buzzer_ToneOn(BUZZER_DEFAULT_FREQ);
 80015d8:	f7ff ffa0 	bl	800151c <Buzzer_ToneOn.constprop.0>
    }
}
 80015dc:	bd10      	pop	{r4, pc}
 80015de:	46c0      	nop			@ (mov r8, r8)
 80015e0:	08007348 	.word	0x08007348
 80015e4:	20000128 	.word	0x20000128
 80015e8:	20000100 	.word	0x20000100
 80015ec:	20000080 	.word	0x20000080

080015f0 <HX711_WaitReady.constprop.0>:
static uint8_t HX711_WaitReady(uint32_t timeout_ms)
 80015f0:	b530      	push	{r4, r5, lr}
    while ((HAL_GetTick() - t0) < timeout_ms) {
 80015f2:	21c8      	movs	r1, #200	@ 0xc8
  if ((GPIOx->IDR & GPIO_Pin) != (uint32_t)GPIO_PIN_RESET)
 80015f4:	2490      	movs	r4, #144	@ 0x90
 80015f6:	2510      	movs	r5, #16
 80015f8:	4a07      	ldr	r2, [pc, #28]	@ (8001618 <HX711_WaitReady.constprop.0+0x28>)
 80015fa:	0049      	lsls	r1, r1, #1
 80015fc:	6f50      	ldr	r0, [r2, #116]	@ 0x74
 80015fe:	05e4      	lsls	r4, r4, #23
 8001600:	6f53      	ldr	r3, [r2, #116]	@ 0x74
 8001602:	1a1b      	subs	r3, r3, r0
 8001604:	428b      	cmp	r3, r1
 8001606:	d301      	bcc.n	800160c <HX711_WaitReady.constprop.0+0x1c>
    return 0U;
 8001608:	2000      	movs	r0, #0
}
 800160a:	bd30      	pop	{r4, r5, pc}
 800160c:	6923      	ldr	r3, [r4, #16]
 800160e:	422b      	tst	r3, r5
 8001610:	d1f6      	bne.n	8001600 <HX711_WaitReady.constprop.0+0x10>
            return 1U;
 8001612:	2001      	movs	r0, #1
 8001614:	e7f9      	b.n	800160a <HX711_WaitReady.constprop.0+0x1a>
 8001616:	46c0      	nop			@ (mov r8, r8)
 8001618:	20000080 	.word	0x20000080

0800161c <HAL_GPIO_DeInit.constprop.0>:
  uint32_t position = 0x00u;
 800161c:	2300      	movs	r3, #0
void HAL_GPIO_DeInit(GPIO_TypeDef  *GPIOx, uint32_t GPIO_Pin)
 800161e:	b5f7      	push	{r0, r1, r2, r4, r5, r6, r7, lr}
    iocurrent = (GPIO_Pin) & (1uL << position);
 8001620:	2501      	movs	r5, #1
 8001622:	0004      	movs	r4, r0
 8001624:	409d      	lsls	r5, r3
 8001626:	402c      	ands	r4, r5
    if (iocurrent != 0x00u)
 8001628:	4228      	tst	r0, r5
 800162a:	d041      	beq.n	80016b0 <HAL_GPIO_DeInit.constprop.0+0x94>
 800162c:	4a23      	ldr	r2, [pc, #140]	@ (80016bc <HAL_GPIO_DeInit.constprop.0+0xa0>)
      tmp = SYSCFG->EXTICR[position >> 2u];
 800162e:	0899      	lsrs	r1, r3, #2
 8001630:	0089      	lsls	r1, r1, #2
 8001632:	1889      	adds	r1, r1, r2
 8001634:	688a      	ldr	r2, [r1, #8]
      tmp &= (0x0FuL << (4u * (position & 0x03u)));
 8001636:	270f      	movs	r7, #15
      tmp = SYSCFG->EXTICR[position >> 2u];
 8001638:	4694      	mov	ip, r2
      tmp &= (0x0FuL << (4u * (position & 0x03u)));
 800163a:	2203      	movs	r2, #3
 800163c:	401a      	ands	r2, r3
 800163e:	0092      	lsls	r2, r2, #2
 8001640:	4666      	mov	r6, ip
 8001642:	4097      	lsls	r7, r2
 8001644:	403e      	ands	r6, r7
 8001646:	46b4      	mov	ip, r6
      if (tmp == (GPIO_GET_INDEX(GPIOx) << (4u * (position & 0x03u))))
 8001648:	2601      	movs	r6, #1
 800164a:	4096      	lsls	r6, r2
 800164c:	45b4      	cmp	ip, r6
 800164e:	d10f      	bne.n	8001670 <HAL_GPIO_DeInit.constprop.0+0x54>
        EXTI->IMR &= ~((uint32_t)iocurrent);
 8001650:	4a1b      	ldr	r2, [pc, #108]	@ (80016c0 <HAL_GPIO_DeInit.constprop.0+0xa4>)
 8001652:	6816      	ldr	r6, [r2, #0]
 8001654:	43a6      	bics	r6, r4
 8001656:	6016      	str	r6, [r2, #0]
        EXTI->EMR &= ~((uint32_t)iocurrent);
 8001658:	6856      	ldr	r6, [r2, #4]
 800165a:	43a6      	bics	r6, r4
 800165c:	6056      	str	r6, [r2, #4]
        EXTI->FTSR &= ~((uint32_t)iocurrent);
 800165e:	68d6      	ldr	r6, [r2, #12]
 8001660:	43a6      	bics	r6, r4
 8001662:	60d6      	str	r6, [r2, #12]
        EXTI->RTSR &= ~((uint32_t)iocurrent);
 8001664:	6896      	ldr	r6, [r2, #8]
 8001666:	43a6      	bics	r6, r4
 8001668:	6096      	str	r6, [r2, #8]
        SYSCFG->EXTICR[position >> 2u] &= ~tmp;
 800166a:	688a      	ldr	r2, [r1, #8]
 800166c:	43ba      	bics	r2, r7
 800166e:	608a      	str	r2, [r1, #8]
      GPIOx->MODER &= ~(GPIO_MODER_MODER0 << (position * 2u));
 8001670:	2603      	movs	r6, #3
 8001672:	005c      	lsls	r4, r3, #1
 8001674:	40a6      	lsls	r6, r4
 8001676:	4a13      	ldr	r2, [pc, #76]	@ (80016c4 <HAL_GPIO_DeInit.constprop.0+0xa8>)
 8001678:	0034      	movs	r4, r6
 800167a:	6811      	ldr	r1, [r2, #0]
 800167c:	43b1      	bics	r1, r6
 800167e:	6011      	str	r1, [r2, #0]
      GPIOx->AFR[position >> 3u] &= ~(0xFu << ((uint32_t)(position & 0x07u) * 4u)) ;
 8001680:	08d9      	lsrs	r1, r3, #3
 8001682:	0089      	lsls	r1, r1, #2
 8001684:	1889      	adds	r1, r1, r2
 8001686:	6a0e      	ldr	r6, [r1, #32]
 8001688:	9601      	str	r6, [sp, #4]
 800168a:	2607      	movs	r6, #7
 800168c:	401e      	ands	r6, r3
 800168e:	00b6      	lsls	r6, r6, #2
 8001690:	46b4      	mov	ip, r6
 8001692:	260f      	movs	r6, #15
 8001694:	4667      	mov	r7, ip
 8001696:	40be      	lsls	r6, r7
 8001698:	9f01      	ldr	r7, [sp, #4]
 800169a:	43b7      	bics	r7, r6
 800169c:	620f      	str	r7, [r1, #32]
      GPIOx->PUPDR &= ~(GPIO_PUPDR_PUPDR0 << (position * 2u));
 800169e:	68d1      	ldr	r1, [r2, #12]
 80016a0:	43a1      	bics	r1, r4
 80016a2:	60d1      	str	r1, [r2, #12]
      GPIOx->OTYPER  &= ~(GPIO_OTYPER_OT_0 << position) ;
 80016a4:	6851      	ldr	r1, [r2, #4]
 80016a6:	43a9      	bics	r1, r5
 80016a8:	6051      	str	r1, [r2, #4]
      GPIOx->OSPEEDR &= ~(GPIO_OSPEEDER_OSPEEDR0 << (position * 2u));
 80016aa:	6891      	ldr	r1, [r2, #8]
 80016ac:	43a1      	bics	r1, r4
 80016ae:	6091      	str	r1, [r2, #8]
  while ((GPIO_Pin >> position) != 0x00u)
 80016b0:	0002      	movs	r2, r0
    position++;
 80016b2:	3301      	adds	r3, #1
  while ((GPIO_Pin >> position) != 0x00u)
 80016b4:	40da      	lsrs	r2, r3
 80016b6:	d1b3      	bne.n	8001620 <HAL_GPIO_DeInit.constprop.0+0x4>
}
 80016b8:	bdf7      	pop	{r0, r1, r2, r4, r5, r6, r7, pc}
 80016ba:	46c0      	nop			@ (mov r8, r8)
 80016bc:	40010000 	.word	0x40010000
 80016c0:	40010400 	.word	0x40010400
 80016c4:	48000400 	.word	0x48000400

080016c8 <HAL_I2C_Init.constprop.0>:
HAL_StatusTypeDef HAL_I2C_Init(I2C_HandleTypeDef *hi2c)
 80016c8:	b570      	push	{r4, r5, r6, lr}
  if (hi2c->State == HAL_I2C_STATE_RESET)
 80016ca:	4b3c      	ldr	r3, [pc, #240]	@ (80017bc <HAL_I2C_Init.constprop.0+0xf4>)
 80016cc:	4d3c      	ldr	r5, [pc, #240]	@ (80017c0 <HAL_I2C_Init.constprop.0+0xf8>)
 80016ce:	781b      	ldrb	r3, [r3, #0]
  if(hi2c->Instance==I2C1)
 80016d0:	6b2c      	ldr	r4, [r5, #48]	@ 0x30
HAL_StatusTypeDef HAL_I2C_Init(I2C_HandleTypeDef *hi2c)
 80016d2:	b088      	sub	sp, #32
  if (hi2c->State == HAL_I2C_STATE_RESET)
 80016d4:	b2d9      	uxtb	r1, r3
 80016d6:	2b00      	cmp	r3, #0
 80016d8:	d128      	bne.n	800172c <HAL_I2C_Init.constprop.0+0x64>
    hi2c->Lock = HAL_UNLOCKED;
 80016da:	002b      	movs	r3, r5
  GPIO_InitTypeDef GPIO_InitStruct = {0};
 80016dc:	2214      	movs	r2, #20
 80016de:	3370      	adds	r3, #112	@ 0x70
 80016e0:	a803      	add	r0, sp, #12
 80016e2:	7019      	strb	r1, [r3, #0]
 80016e4:	f005 fdd5 	bl	8007292 <memset>
  if(hi2c->Instance==I2C1)
 80016e8:	4b36      	ldr	r3, [pc, #216]	@ (80017c4 <HAL_I2C_Init.constprop.0+0xfc>)
 80016ea:	429c      	cmp	r4, r3
 80016ec:	d11e      	bne.n	800172c <HAL_I2C_Init.constprop.0+0x64>
    __HAL_RCC_GPIOB_CLK_ENABLE();
 80016ee:	2280      	movs	r2, #128	@ 0x80
 80016f0:	4e35      	ldr	r6, [pc, #212]	@ (80017c8 <HAL_I2C_Init.constprop.0+0x100>)
 80016f2:	02d2      	lsls	r2, r2, #11
 80016f4:	6973      	ldr	r3, [r6, #20]
    HAL_GPIO_Init(GPIOB, &GPIO_InitStruct);
 80016f6:	4835      	ldr	r0, [pc, #212]	@ (80017cc <HAL_I2C_Init.constprop.0+0x104>)
    __HAL_RCC_GPIOB_CLK_ENABLE();
 80016f8:	4313      	orrs	r3, r2
 80016fa:	6173      	str	r3, [r6, #20]
 80016fc:	6973      	ldr	r3, [r6, #20]
    HAL_GPIO_Init(GPIOB, &GPIO_InitStruct);
 80016fe:	a903      	add	r1, sp, #12
    __HAL_RCC_GPIOB_CLK_ENABLE();
 8001700:	4013      	ands	r3, r2
 8001702:	9302      	str	r3, [sp, #8]
 8001704:	9b02      	ldr	r3, [sp, #8]
    GPIO_InitStruct.Pin = GPIO_PIN_6|GPIO_PIN_7;
 8001706:	23c0      	movs	r3, #192	@ 0xc0
 8001708:	9303      	str	r3, [sp, #12]
    GPIO_InitStruct.Mode = GPIO_MODE_AF_OD;
 800170a:	3bae      	subs	r3, #174	@ 0xae
 800170c:	9304      	str	r3, [sp, #16]
    GPIO_InitStruct.Speed = GPIO_SPEED_FREQ_HIGH;
 800170e:	3b0f      	subs	r3, #15
 8001710:	9306      	str	r3, [sp, #24]
    GPIO_InitStruct.Alternate = GPIO_AF1_I2C1;
 8001712:	3b02      	subs	r3, #2
 8001714:	9307      	str	r3, [sp, #28]
    HAL_GPIO_Init(GPIOB, &GPIO_InitStruct);
 8001716:	f7fe ffae 	bl	8000676 <HAL_GPIO_Init>
    __HAL_RCC_I2C1_CLK_ENABLE();
 800171a:	2280      	movs	r2, #128	@ 0x80
 800171c:	69f3      	ldr	r3, [r6, #28]
 800171e:	0392      	lsls	r2, r2, #14
 8001720:	4313      	orrs	r3, r2
 8001722:	61f3      	str	r3, [r6, #28]
 8001724:	69f3      	ldr	r3, [r6, #28]
 8001726:	4013      	ands	r3, r2
 8001728:	9301      	str	r3, [sp, #4]
 800172a:	9b01      	ldr	r3, [sp, #4]
  hi2c->State = HAL_I2C_STATE_BUSY;
 800172c:	002b      	movs	r3, r5
 800172e:	2224      	movs	r2, #36	@ 0x24
 8001730:	3371      	adds	r3, #113	@ 0x71
 8001732:	701a      	strb	r2, [r3, #0]
  __HAL_I2C_DISABLE(hi2c);
 8001734:	6823      	ldr	r3, [r4, #0]
 8001736:	3a23      	subs	r2, #35	@ 0x23
 8001738:	4393      	bics	r3, r2
 800173a:	6023      	str	r3, [r4, #0]
  hi2c->Instance->TIMINGR = hi2c->Init.Timing & TIMING_CLEAR_MASK;
 800173c:	4a24      	ldr	r2, [pc, #144]	@ (80017d0 <HAL_I2C_Init.constprop.0+0x108>)
 800173e:	6b6b      	ldr	r3, [r5, #52]	@ 0x34
  if (hi2c->Init.AddressingMode == I2C_ADDRESSINGMODE_7BIT)
 8001740:	6be9      	ldr	r1, [r5, #60]	@ 0x3c
  hi2c->Instance->TIMINGR = hi2c->Init.Timing & TIMING_CLEAR_MASK;
 8001742:	4013      	ands	r3, r2
 8001744:	6123      	str	r3, [r4, #16]
  hi2c->Instance->OAR1 &= ~I2C_OAR1_OA1EN;
 8001746:	68a3      	ldr	r3, [r4, #8]
 8001748:	4a22      	ldr	r2, [pc, #136]	@ (80017d4 <HAL_I2C_Init.constprop.0+0x10c>)
    hi2c->Instance->OAR1 = (I2C_OAR1_OA1EN | hi2c->Init.OwnAddress1);
 800174a:	6ba8      	ldr	r0, [r5, #56]	@ 0x38
  hi2c->Instance->OAR1 &= ~I2C_OAR1_OA1EN;
 800174c:	4013      	ands	r3, r2
 800174e:	60a3      	str	r3, [r4, #8]
  if (hi2c->Init.AddressingMode == I2C_ADDRESSINGMODE_7BIT)
 8001750:	2901      	cmp	r1, #1
 8001752:	d107      	bne.n	8001764 <HAL_I2C_Init.constprop.0+0x9c>
    hi2c->Instance->OAR1 = (I2C_OAR1_OA1EN | hi2c->Init.OwnAddress1);
 8001754:	2380      	movs	r3, #128	@ 0x80
 8001756:	021b      	lsls	r3, r3, #8
 8001758:	4303      	orrs	r3, r0
 800175a:	60a3      	str	r3, [r4, #8]
    CLEAR_BIT(hi2c->Instance->CR2, I2C_CR2_ADD10);
 800175c:	6863      	ldr	r3, [r4, #4]
 800175e:	491e      	ldr	r1, [pc, #120]	@ (80017d8 <HAL_I2C_Init.constprop.0+0x110>)
 8001760:	400b      	ands	r3, r1
 8001762:	e009      	b.n	8001778 <HAL_I2C_Init.constprop.0+0xb0>
    hi2c->Instance->OAR1 = (I2C_OAR1_OA1EN | I2C_OAR1_OA1MODE | hi2c->Init.OwnAddress1);
 8001764:	2384      	movs	r3, #132	@ 0x84
 8001766:	021b      	lsls	r3, r3, #8
 8001768:	4303      	orrs	r3, r0
 800176a:	60a3      	str	r3, [r4, #8]
  if (hi2c->Init.AddressingMode == I2C_ADDRESSINGMODE_10BIT)
 800176c:	2902      	cmp	r1, #2
 800176e:	d1f5      	bne.n	800175c <HAL_I2C_Init.constprop.0+0x94>
    SET_BIT(hi2c->Instance->CR2, I2C_CR2_ADD10);
 8001770:	2380      	movs	r3, #128	@ 0x80
 8001772:	6861      	ldr	r1, [r4, #4]
 8001774:	011b      	lsls	r3, r3, #4
 8001776:	430b      	orrs	r3, r1
    CLEAR_BIT(hi2c->Instance->CR2, I2C_CR2_ADD10);
 8001778:	6063      	str	r3, [r4, #4]
  hi2c->Instance->CR2 |= (I2C_CR2_AUTOEND | I2C_CR2_NACK);
 800177a:	6861      	ldr	r1, [r4, #4]
 800177c:	4b17      	ldr	r3, [pc, #92]	@ (80017dc <HAL_I2C_Init.constprop.0+0x114>)
  hi2c->ErrorCode = HAL_I2C_ERROR_NONE;
 800177e:	2000      	movs	r0, #0
  hi2c->Instance->CR2 |= (I2C_CR2_AUTOEND | I2C_CR2_NACK);
 8001780:	430b      	orrs	r3, r1
 8001782:	6063      	str	r3, [r4, #4]
  hi2c->Instance->OAR2 &= ~I2C_DUALADDRESS_ENABLE;
 8001784:	68e3      	ldr	r3, [r4, #12]
 8001786:	4013      	ands	r3, r2
 8001788:	60e3      	str	r3, [r4, #12]
  hi2c->Instance->OAR2 = (hi2c->Init.DualAddressMode | hi2c->Init.OwnAddress2 | \
 800178a:	6c6a      	ldr	r2, [r5, #68]	@ 0x44
 800178c:	6c2b      	ldr	r3, [r5, #64]	@ 0x40
 800178e:	4313      	orrs	r3, r2
                          (hi2c->Init.OwnAddress2Masks << 8));
 8001790:	6caa      	ldr	r2, [r5, #72]	@ 0x48
 8001792:	0212      	lsls	r2, r2, #8
  hi2c->Instance->OAR2 = (hi2c->Init.DualAddressMode | hi2c->Init.OwnAddress2 | \
 8001794:	4313      	orrs	r3, r2
 8001796:	60e3      	str	r3, [r4, #12]
  hi2c->Instance->CR1 = (hi2c->Init.GeneralCallMode | hi2c->Init.NoStretchMode);
 8001798:	6d2a      	ldr	r2, [r5, #80]	@ 0x50
 800179a:	6ceb      	ldr	r3, [r5, #76]	@ 0x4c
 800179c:	4313      	orrs	r3, r2
 800179e:	6023      	str	r3, [r4, #0]
  __HAL_I2C_ENABLE(hi2c);
 80017a0:	2301      	movs	r3, #1
 80017a2:	6822      	ldr	r2, [r4, #0]
 80017a4:	4313      	orrs	r3, r2
 80017a6:	6023      	str	r3, [r4, #0]
  hi2c->State = HAL_I2C_STATE_READY;
 80017a8:	002b      	movs	r3, r5
 80017aa:	2220      	movs	r2, #32
 80017ac:	3371      	adds	r3, #113	@ 0x71
  hi2c->ErrorCode = HAL_I2C_ERROR_NONE;
 80017ae:	6768      	str	r0, [r5, #116]	@ 0x74
  hi2c->State = HAL_I2C_STATE_READY;
 80017b0:	701a      	strb	r2, [r3, #0]
  hi2c->PreviousState = I2C_STATE_NONE;
 80017b2:	6628      	str	r0, [r5, #96]	@ 0x60
  hi2c->Mode = HAL_I2C_MODE_NONE;
 80017b4:	3572      	adds	r5, #114	@ 0x72
 80017b6:	7028      	strb	r0, [r5, #0]
}
 80017b8:	b008      	add	sp, #32
 80017ba:	bd70      	pop	{r4, r5, r6, pc}
 80017bc:	20000171 	.word	0x20000171
 80017c0:	20000100 	.word	0x20000100
 80017c4:	40005400 	.word	0x40005400
 80017c8:	40021000 	.word	0x40021000
 80017cc:	48000400 	.word	0x48000400
 80017d0:	f0ffffff 	.word	0xf0ffffff
 80017d4:	ffff7fff 	.word	0xffff7fff
 80017d8:	fffff7ff 	.word	0xfffff7ff
 80017dc:	02008000 	.word	0x02008000

080017e0 <HAL_I2CEx_ConfigAnalogFilter.constprop.0>:
  * @param  hi2c Pointer to a I2C_HandleTypeDef structure that contains
  *                the configuration information for the specified I2Cx peripheral.
  * @param  AnalogFilter New state of the Analog filter.
  * @retval HAL status
  */
HAL_StatusTypeDef HAL_I2CEx_ConfigAnalogFilter(I2C_HandleTypeDef *hi2c, uint32_t AnalogFilter)
 80017e0:	b570      	push	{r4, r5, r6, lr}
{
  /* Check the parameters */
  assert_param(IS_I2C_ALL_INSTANCE(hi2c->Instance));
  assert_param(IS_I2C_ANALOG_FILTER(AnalogFilter));

  if (hi2c->State == HAL_I2C_STATE_READY)
 80017e2:	4910      	ldr	r1, [pc, #64]	@ (8001824 <HAL_I2CEx_ConfigAnalogFilter.constprop.0+0x44>)
  {
    /* Process Locked */
    __HAL_LOCK(hi2c);
 80017e4:	2002      	movs	r0, #2
  if (hi2c->State == HAL_I2C_STATE_READY)
 80017e6:	780a      	ldrb	r2, [r1, #0]
 80017e8:	4b0f      	ldr	r3, [pc, #60]	@ (8001828 <HAL_I2CEx_ConfigAnalogFilter.constprop.0+0x48>)
 80017ea:	b2d5      	uxtb	r5, r2
 80017ec:	2a20      	cmp	r2, #32
 80017ee:	d117      	bne.n	8001820 <HAL_I2CEx_ConfigAnalogFilter.constprop.0+0x40>
    __HAL_LOCK(hi2c);
 80017f0:	001c      	movs	r4, r3
 80017f2:	3470      	adds	r4, #112	@ 0x70
 80017f4:	7822      	ldrb	r2, [r4, #0]
 80017f6:	2a01      	cmp	r2, #1
 80017f8:	d012      	beq.n	8001820 <HAL_I2CEx_ConfigAnalogFilter.constprop.0+0x40>

    hi2c->State = HAL_I2C_STATE_BUSY;
 80017fa:	2224      	movs	r2, #36	@ 0x24

    /* Disable the selected I2C peripheral */
    __HAL_I2C_DISABLE(hi2c);
 80017fc:	6b1b      	ldr	r3, [r3, #48]	@ 0x30
    hi2c->State = HAL_I2C_STATE_BUSY;
 80017fe:	700a      	strb	r2, [r1, #0]
    __HAL_I2C_DISABLE(hi2c);
 8001800:	6818      	ldr	r0, [r3, #0]
 8001802:	3a23      	subs	r2, #35	@ 0x23
 8001804:	4390      	bics	r0, r2
 8001806:	6018      	str	r0, [r3, #0]

    /* Reset I2Cx ANOFF bit */
    hi2c->Instance->CR1 &= ~(I2C_CR1_ANFOFF);
 8001808:	6818      	ldr	r0, [r3, #0]
 800180a:	4e08      	ldr	r6, [pc, #32]	@ (800182c <HAL_I2CEx_ConfigAnalogFilter.constprop.0+0x4c>)
 800180c:	4030      	ands	r0, r6
 800180e:	6018      	str	r0, [r3, #0]

    /* Set analog filter bit*/
    hi2c->Instance->CR1 |= AnalogFilter;
 8001810:	6818      	ldr	r0, [r3, #0]
 8001812:	6018      	str	r0, [r3, #0]

    __HAL_I2C_ENABLE(hi2c);
 8001814:	6818      	ldr	r0, [r3, #0]
 8001816:	4302      	orrs	r2, r0

    hi2c->State = HAL_I2C_STATE_READY;

    /* Process Unlocked */
    __HAL_UNLOCK(hi2c);
 8001818:	2000      	movs	r0, #0
    __HAL_I2C_ENABLE(hi2c);
 800181a:	601a      	str	r2, [r3, #0]
    hi2c->State = HAL_I2C_STATE_READY;
 800181c:	700d      	strb	r5, [r1, #0]
    __HAL_UNLOCK(hi2c);
 800181e:	7020      	strb	r0, [r4, #0]
  }
  else
  {
    return HAL_BUSY;
  }
}
 8001820:	bd70      	pop	{r4, r5, r6, pc}
 8001822:	46c0      	nop			@ (mov r8, r8)
 8001824:	20000171 	.word	0x20000171
 8001828:	20000100 	.word	0x20000100
 800182c:	ffffefff 	.word	0xffffefff

08001830 <HAL_I2CEx_ConfigDigitalFilter.constprop.0>:
  * @param  hi2c Pointer to a I2C_HandleTypeDef structure that contains
  *                the configuration information for the specified I2Cx peripheral.
  * @param  DigitalFilter Coefficient of digital noise filter between Min_Data=0x00 and Max_Data=0x0F.
  * @retval HAL status
  */
HAL_StatusTypeDef HAL_I2CEx_ConfigDigitalFilter(I2C_HandleTypeDef *hi2c, uint32_t DigitalFilter)
 8001830:	b570      	push	{r4, r5, r6, lr}

  /* Check the parameters */
  assert_param(IS_I2C_ALL_INSTANCE(hi2c->Instance));
  assert_param(IS_I2C_DIGITAL_FILTER(DigitalFilter));

  if (hi2c->State == HAL_I2C_STATE_READY)
 8001832:	490f      	ldr	r1, [pc, #60]	@ (8001870 <HAL_I2CEx_ConfigDigitalFilter.constprop.0+0x40>)
  {
    /* Process Locked */
    __HAL_LOCK(hi2c);
 8001834:	2002      	movs	r0, #2
  if (hi2c->State == HAL_I2C_STATE_READY)
 8001836:	780a      	ldrb	r2, [r1, #0]
 8001838:	4b0e      	ldr	r3, [pc, #56]	@ (8001874 <HAL_I2CEx_ConfigDigitalFilter.constprop.0+0x44>)
 800183a:	b2d5      	uxtb	r5, r2
 800183c:	2a20      	cmp	r2, #32
 800183e:	d115      	bne.n	800186c <HAL_I2CEx_ConfigDigitalFilter.constprop.0+0x3c>
    __HAL_LOCK(hi2c);
 8001840:	001c      	movs	r4, r3
 8001842:	3470      	adds	r4, #112	@ 0x70
 8001844:	7822      	ldrb	r2, [r4, #0]
 8001846:	2a01      	cmp	r2, #1
 8001848:	d010      	beq.n	800186c <HAL_I2CEx_ConfigDigitalFilter.constprop.0+0x3c>

    hi2c->State = HAL_I2C_STATE_BUSY;
 800184a:	2224      	movs	r2, #36	@ 0x24

    /* Disable the selected I2C peripheral */
    __HAL_I2C_DISABLE(hi2c);
 800184c:	6b1b      	ldr	r3, [r3, #48]	@ 0x30
    hi2c->State = HAL_I2C_STATE_BUSY;
 800184e:	700a      	strb	r2, [r1, #0]
    __HAL_I2C_DISABLE(hi2c);
 8001850:	6818      	ldr	r0, [r3, #0]
 8001852:	3a23      	subs	r2, #35	@ 0x23
 8001854:	4390      	bics	r0, r2
 8001856:	6018      	str	r0, [r3, #0]

    /* Get the old register value */
    tmpreg = hi2c->Instance->CR1;
 8001858:	6818      	ldr	r0, [r3, #0]

    /* Reset I2Cx DNF bits [11:8] */
    tmpreg &= ~(I2C_CR1_DNF);
 800185a:	4e07      	ldr	r6, [pc, #28]	@ (8001878 <HAL_I2CEx_ConfigDigitalFilter.constprop.0+0x48>)
 800185c:	4030      	ands	r0, r6

    /* Set I2Cx DNF coefficient */
    tmpreg |= DigitalFilter << 8U;

    /* Store the new register value */
    hi2c->Instance->CR1 = tmpreg;
 800185e:	6018      	str	r0, [r3, #0]

    __HAL_I2C_ENABLE(hi2c);
 8001860:	6818      	ldr	r0, [r3, #0]
 8001862:	4302      	orrs	r2, r0

    hi2c->State = HAL_I2C_STATE_READY;

    /* Process Unlocked */
    __HAL_UNLOCK(hi2c);
 8001864:	2000      	movs	r0, #0
    __HAL_I2C_ENABLE(hi2c);
 8001866:	601a      	str	r2, [r3, #0]
    hi2c->State = HAL_I2C_STATE_READY;
 8001868:	700d      	strb	r5, [r1, #0]
    __HAL_UNLOCK(hi2c);
 800186a:	7020      	strb	r0, [r4, #0]
  }
  else
  {
    return HAL_BUSY;
  }
}
 800186c:	bd70      	pop	{r4, r5, r6, pc}
 800186e:	46c0      	nop			@ (mov r8, r8)
 8001870:	20000171 	.word	0x20000171
 8001874:	20000100 	.word	0x20000100
 8001878:	fffff0ff 	.word	0xfffff0ff

0800187c <HAL_UART_Receive_IT.constprop.0.isra.0>:
  if (huart->RxState == HAL_UART_STATE_READY)
 800187c:	1d02      	adds	r2, r0, #4
 800187e:	6fd3      	ldr	r3, [r2, #124]	@ 0x7c
HAL_StatusTypeDef HAL_UART_Receive_IT(UART_HandleTypeDef *huart, uint8_t *pData, uint16_t Size)
 8001880:	b530      	push	{r4, r5, lr}
  if (huart->RxState == HAL_UART_STATE_READY)
 8001882:	2b20      	cmp	r3, #32
 8001884:	d154      	bne.n	8001930 <HAL_UART_Receive_IT.constprop.0.isra.0+0xb4>
    huart->ReceptionType = HAL_UART_RECEPTION_STANDARD;
 8001886:	2300      	movs	r3, #0
 8001888:	6603      	str	r3, [r0, #96]	@ 0x60
    if (READ_BIT(huart->Instance->CR2, USART_CR2_RTOEN) != 0U)
 800188a:	6803      	ldr	r3, [r0, #0]
 800188c:	685b      	ldr	r3, [r3, #4]
 800188e:	021b      	lsls	r3, r3, #8
 8001890:	d50c      	bpl.n	80018ac <HAL_UART_Receive_IT.constprop.0.isra.0+0x30>
  __ASM volatile ("MRS %0, primask" : "=r" (result) :: "memory");
 8001892:	f3ef 8410 	mrs	r4, PRIMASK
  __ASM volatile ("MSR primask, %0" : : "r" (priMask) : "memory");
 8001896:	2301      	movs	r3, #1
 8001898:	f383 8810 	msr	PRIMASK, r3
      ATOMIC_SET_BIT(huart->Instance->CR1, USART_CR1_RTOIE);
 800189c:	2380      	movs	r3, #128	@ 0x80
 800189e:	6801      	ldr	r1, [r0, #0]
 80018a0:	04db      	lsls	r3, r3, #19
 80018a2:	680d      	ldr	r5, [r1, #0]
 80018a4:	432b      	orrs	r3, r5
 80018a6:	600b      	str	r3, [r1, #0]
 80018a8:	f384 8810 	msr	PRIMASK, r4
  huart->pRxBuffPtr  = pData;
 80018ac:	4b29      	ldr	r3, [pc, #164]	@ (8001954 <HAL_UART_Receive_IT.constprop.0.isra.0+0xd8>)
  huart->RxXferSize  = Size;
 80018ae:	2101      	movs	r1, #1
  huart->pRxBuffPtr  = pData;
 80018b0:	6543      	str	r3, [r0, #84]	@ 0x54
  huart->RxXferSize  = Size;
 80018b2:	0003      	movs	r3, r0
 80018b4:	3358      	adds	r3, #88	@ 0x58
 80018b6:	8019      	strh	r1, [r3, #0]
  huart->RxXferCount = Size;
 80018b8:	8059      	strh	r1, [r3, #2]
  UART_MASK_COMPUTATION(huart);
 80018ba:	2480      	movs	r4, #128	@ 0x80
  huart->RxISR       = NULL;
 80018bc:	2300      	movs	r3, #0
  UART_MASK_COMPUTATION(huart);
 80018be:	6881      	ldr	r1, [r0, #8]
  huart->RxISR       = NULL;
 80018c0:	6683      	str	r3, [r0, #104]	@ 0x68
  UART_MASK_COMPUTATION(huart);
 80018c2:	0164      	lsls	r4, r4, #5
 80018c4:	42a1      	cmp	r1, r4
 80018c6:	d134      	bne.n	8001932 <HAL_UART_Receive_IT.constprop.0.isra.0+0xb6>
 80018c8:	6903      	ldr	r3, [r0, #16]
 80018ca:	4259      	negs	r1, r3
 80018cc:	414b      	adcs	r3, r1
 80018ce:	021b      	lsls	r3, r3, #8
 80018d0:	33ff      	adds	r3, #255	@ 0xff
 80018d2:	0001      	movs	r1, r0
 80018d4:	315c      	adds	r1, #92	@ 0x5c
 80018d6:	800b      	strh	r3, [r1, #0]
  huart->ErrorCode = HAL_UART_ERROR_NONE;
 80018d8:	0003      	movs	r3, r0
 80018da:	2100      	movs	r1, #0
 80018dc:	3308      	adds	r3, #8
 80018de:	67d9      	str	r1, [r3, #124]	@ 0x7c
  huart->RxState = HAL_UART_STATE_BUSY_RX;
 80018e0:	2322      	movs	r3, #34	@ 0x22
 80018e2:	67d3      	str	r3, [r2, #124]	@ 0x7c
  __ASM volatile ("MRS %0, primask" : "=r" (result) :: "memory");
 80018e4:	f3ef 8110 	mrs	r1, PRIMASK
  __ASM volatile ("MSR primask, %0" : : "r" (priMask) : "memory");
 80018e8:	3b21      	subs	r3, #33	@ 0x21
 80018ea:	f383 8810 	msr	PRIMASK, r3
  ATOMIC_SET_BIT(huart->Instance->CR3, USART_CR3_EIE);
 80018ee:	6802      	ldr	r2, [r0, #0]
 80018f0:	6894      	ldr	r4, [r2, #8]
 80018f2:	4323      	orrs	r3, r4
 80018f4:	6093      	str	r3, [r2, #8]
 80018f6:	f381 8810 	msr	PRIMASK, r1
  if ((huart->Init.WordLength == UART_WORDLENGTH_9B) && (huart->Init.Parity == UART_PARITY_NONE))
 80018fa:	2180      	movs	r1, #128	@ 0x80
 80018fc:	6884      	ldr	r4, [r0, #8]
 80018fe:	6902      	ldr	r2, [r0, #16]
    huart->RxISR = UART_RxISR_8BIT;
 8001900:	4b15      	ldr	r3, [pc, #84]	@ (8001958 <HAL_UART_Receive_IT.constprop.0.isra.0+0xdc>)
  if ((huart->Init.WordLength == UART_WORDLENGTH_9B) && (huart->Init.Parity == UART_PARITY_NONE))
 8001902:	0149      	lsls	r1, r1, #5
 8001904:	428c      	cmp	r4, r1
 8001906:	d103      	bne.n	8001910 <HAL_UART_Receive_IT.constprop.0.isra.0+0x94>
    huart->RxISR = UART_RxISR_16BIT;
 8001908:	4b14      	ldr	r3, [pc, #80]	@ (800195c <HAL_UART_Receive_IT.constprop.0.isra.0+0xe0>)
  if ((huart->Init.WordLength == UART_WORDLENGTH_9B) && (huart->Init.Parity == UART_PARITY_NONE))
 800190a:	2a00      	cmp	r2, #0
 800190c:	d000      	beq.n	8001910 <HAL_UART_Receive_IT.constprop.0.isra.0+0x94>
    huart->RxISR = UART_RxISR_8BIT;
 800190e:	4b12      	ldr	r3, [pc, #72]	@ (8001958 <HAL_UART_Receive_IT.constprop.0.isra.0+0xdc>)
 8001910:	6683      	str	r3, [r0, #104]	@ 0x68
 8001912:	2301      	movs	r3, #1
  if (huart->Init.Parity != UART_PARITY_NONE)
 8001914:	2a00      	cmp	r2, #0
 8001916:	d014      	beq.n	8001942 <HAL_UART_Receive_IT.constprop.0.isra.0+0xc6>
  __ASM volatile ("MRS %0, primask" : "=r" (result) :: "memory");
 8001918:	f3ef 8110 	mrs	r1, PRIMASK
  __ASM volatile ("MSR primask, %0" : : "r" (priMask) : "memory");
 800191c:	f383 8810 	msr	PRIMASK, r3
    ATOMIC_SET_BIT(huart->Instance->CR1, USART_CR1_PEIE | USART_CR1_RXNEIE);
 8001920:	6802      	ldr	r2, [r0, #0]
 8001922:	3320      	adds	r3, #32
 8001924:	6810      	ldr	r0, [r2, #0]
 8001926:	33ff      	adds	r3, #255	@ 0xff
    ATOMIC_SET_BIT(huart->Instance->CR1, USART_CR1_RXNEIE);
 8001928:	4303      	orrs	r3, r0
 800192a:	6013      	str	r3, [r2, #0]
 800192c:	f381 8810 	msr	PRIMASK, r1
}
 8001930:	bd30      	pop	{r4, r5, pc}
  UART_MASK_COMPUTATION(huart);
 8001932:	2900      	cmp	r1, #0
 8001934:	d1cd      	bne.n	80018d2 <HAL_UART_Receive_IT.constprop.0.isra.0+0x56>
 8001936:	6901      	ldr	r1, [r0, #16]
 8001938:	23ff      	movs	r3, #255	@ 0xff
 800193a:	2900      	cmp	r1, #0
 800193c:	d0c9      	beq.n	80018d2 <HAL_UART_Receive_IT.constprop.0.isra.0+0x56>
 800193e:	3b80      	subs	r3, #128	@ 0x80
 8001940:	e7c7      	b.n	80018d2 <HAL_UART_Receive_IT.constprop.0.isra.0+0x56>
  __ASM volatile ("MRS %0, primask" : "=r" (result) :: "memory");
 8001942:	f3ef 8110 	mrs	r1, PRIMASK
  __ASM volatile ("MSR primask, %0" : : "r" (priMask) : "memory");
 8001946:	f383 8810 	msr	PRIMASK, r3
    ATOMIC_SET_BIT(huart->Instance->CR1, USART_CR1_RXNEIE);
 800194a:	6802      	ldr	r2, [r0, #0]
 800194c:	2320      	movs	r3, #32
 800194e:	6810      	ldr	r0, [r2, #0]
 8001950:	e7ea      	b.n	8001928 <HAL_UART_Receive_IT.constprop.0.isra.0+0xac>
 8001952:	46c0      	nop			@ (mov r8, r8)
 8001954:	20000578 	.word	0x20000578
 8001958:	08001a3d 	.word	0x08001a3d
 800195c:	08001b15 	.word	0x08001b15

08001960 <BLE_RxISR.constprop.0>:
void BLE_RxISR(BLE_Handle_t *hble)
 8001960:	b570      	push	{r4, r5, r6, lr}
    uint8_t byte = hble->rx_byte;
 8001962:	4b33      	ldr	r3, [pc, #204]	@ (8001a30 <BLE_RxISR.constprop.0+0xd0>)
 8001964:	4c33      	ldr	r4, [pc, #204]	@ (8001a34 <BLE_RxISR.constprop.0+0xd4>)
 8001966:	781d      	ldrb	r5, [r3, #0]
 8001968:	4b33      	ldr	r3, [pc, #204]	@ (8001a38 <BLE_RxISR.constprop.0+0xd8>)
    HAL_UART_Receive_IT(hble->huart, &hble->rx_byte, 1);
 800196a:	6ba0      	ldr	r0, [r4, #56]	@ 0x38
 800196c:	6f5b      	ldr	r3, [r3, #116]	@ 0x74
    hble->rx_last_ms = HAL_GetTick();
 800196e:	6763      	str	r3, [r4, #116]	@ 0x74
    HAL_UART_Receive_IT(hble->huart, &hble->rx_byte, 1);
 8001970:	f7ff ff84 	bl	800187c <HAL_UART_Receive_IT.constprop.0.isra.0>
    if (hble->pkt_ready) return;
 8001974:	0023      	movs	r3, r4
 8001976:	3358      	adds	r3, #88	@ 0x58
 8001978:	781b      	ldrb	r3, [r3, #0]
 800197a:	2b00      	cmp	r3, #0
 800197c:	d12a      	bne.n	80019d4 <BLE_RxISR.constprop.0+0x74>
    if (!hble->pkt_in_frame && byte != BLE_SOF && !hble->line_ready) {
 800197e:	0023      	movs	r3, r4
 8001980:	3357      	adds	r3, #87	@ 0x57
 8001982:	781b      	ldrb	r3, [r3, #0]
 8001984:	2b00      	cmp	r3, #0
 8001986:	d12c      	bne.n	80019e2 <BLE_RxISR.constprop.0+0x82>
 8001988:	0023      	movs	r3, r4
 800198a:	2daa      	cmp	r5, #170	@ 0xaa
 800198c:	d025      	beq.n	80019da <BLE_RxISR.constprop.0+0x7a>
 800198e:	3372      	adds	r3, #114	@ 0x72
 8001990:	7819      	ldrb	r1, [r3, #0]
 8001992:	2900      	cmp	r1, #0
 8001994:	d11e      	bne.n	80019d4 <BLE_RxISR.constprop.0+0x74>
        if (byte == '\r' || byte == '\n') {
 8001996:	2d0d      	cmp	r5, #13
 8001998:	d001      	beq.n	800199e <BLE_RxISR.constprop.0+0x3e>
 800199a:	2d0a      	cmp	r5, #10
 800199c:	d10c      	bne.n	80019b8 <BLE_RxISR.constprop.0+0x58>
            if (hble->line_len > 0U) {
 800199e:	0023      	movs	r3, r4
 80019a0:	3371      	adds	r3, #113	@ 0x71
 80019a2:	781b      	ldrb	r3, [r3, #0]
 80019a4:	2b00      	cmp	r3, #0
 80019a6:	d015      	beq.n	80019d4 <BLE_RxISR.constprop.0+0x74>
                hble->line_buf[hble->line_len] = '\0';
 80019a8:	2200      	movs	r2, #0
 80019aa:	18e3      	adds	r3, r4, r3
 80019ac:	333a      	adds	r3, #58	@ 0x3a
 80019ae:	77da      	strb	r2, [r3, #31]
                hble->line_ready = 1;
 80019b0:	2301      	movs	r3, #1
 80019b2:	3472      	adds	r4, #114	@ 0x72
            hble->pkt_in_frame = 0;
 80019b4:	7023      	strb	r3, [r4, #0]
 80019b6:	e00d      	b.n	80019d4 <BLE_RxISR.constprop.0+0x74>
        } else if (byte >= 0x20U && byte < 0x7FU) {
 80019b8:	002b      	movs	r3, r5
 80019ba:	3b20      	subs	r3, #32
 80019bc:	2b5e      	cmp	r3, #94	@ 0x5e
 80019be:	d809      	bhi.n	80019d4 <BLE_RxISR.constprop.0+0x74>
            if (hble->line_len < (BLE_STR_LINE_MAX - 1U)) {
 80019c0:	0022      	movs	r2, r4
 80019c2:	3271      	adds	r2, #113	@ 0x71
 80019c4:	7813      	ldrb	r3, [r2, #0]
 80019c6:	2b16      	cmp	r3, #22
 80019c8:	d805      	bhi.n	80019d6 <BLE_RxISR.constprop.0+0x76>
                hble->line_buf[hble->line_len++] = (char)byte;
 80019ca:	1c59      	adds	r1, r3, #1
 80019cc:	18e3      	adds	r3, r4, r3
 80019ce:	333a      	adds	r3, #58	@ 0x3a
 80019d0:	7011      	strb	r1, [r2, #0]
 80019d2:	77dd      	strb	r5, [r3, #31]
}
 80019d4:	bd70      	pop	{r4, r5, r6, pc}
                hble->line_len = 0;
 80019d6:	7011      	strb	r1, [r2, #0]
 80019d8:	e7fc      	b.n	80019d4 <BLE_RxISR.constprop.0+0x74>
        hble->pkt_len      = 0;
 80019da:	2280      	movs	r2, #128	@ 0x80
 80019dc:	3356      	adds	r3, #86	@ 0x56
 80019de:	0052      	lsls	r2, r2, #1
 80019e0:	801a      	strh	r2, [r3, #0]
    if (hble->pkt_len < BLE_PKT_MAX_LEN) {
 80019e2:	0023      	movs	r3, r4
 80019e4:	3356      	adds	r3, #86	@ 0x56
 80019e6:	7819      	ldrb	r1, [r3, #0]
 80019e8:	2918      	cmp	r1, #24
 80019ea:	d903      	bls.n	80019f4 <BLE_RxISR.constprop.0+0x94>
        hble->pkt_len      = 0;
 80019ec:	2300      	movs	r3, #0
 80019ee:	3456      	adds	r4, #86	@ 0x56
 80019f0:	8023      	strh	r3, [r4, #0]
        return;
 80019f2:	e7ef      	b.n	80019d4 <BLE_RxISR.constprop.0+0x74>
        hble->pkt_buf[hble->pkt_len++] = byte;
 80019f4:	1c4a      	adds	r2, r1, #1
 80019f6:	b2d2      	uxtb	r2, r2
 80019f8:	701a      	strb	r2, [r3, #0]
 80019fa:	0023      	movs	r3, r4
 80019fc:	333d      	adds	r3, #61	@ 0x3d
 80019fe:	545d      	strb	r5, [r3, r1]
    if (hble->pkt_len >= 3U) {
 8001a00:	2a02      	cmp	r2, #2
 8001a02:	d9e7      	bls.n	80019d4 <BLE_RxISR.constprop.0+0x74>
        uint8_t expected = 5U + hble->pkt_buf[2];
 8001a04:	0021      	movs	r1, r4
 8001a06:	313f      	adds	r1, #63	@ 0x3f
 8001a08:	7809      	ldrb	r1, [r1, #0]
 8001a0a:	3105      	adds	r1, #5
 8001a0c:	b2c9      	uxtb	r1, r1
        if (expected > BLE_PKT_MAX_LEN) {
 8001a0e:	2919      	cmp	r1, #25
 8001a10:	d8ec      	bhi.n	80019ec <BLE_RxISR.constprop.0+0x8c>
        if (hble->pkt_len == expected) {
 8001a12:	428a      	cmp	r2, r1
 8001a14:	d1de      	bne.n	80019d4 <BLE_RxISR.constprop.0+0x74>
            if (hble->pkt_buf[hble->pkt_len - 1U] == BLE_EOF)
 8001a16:	189b      	adds	r3, r3, r2
 8001a18:	3b01      	subs	r3, #1
 8001a1a:	781b      	ldrb	r3, [r3, #0]
 8001a1c:	2b55      	cmp	r3, #85	@ 0x55
 8001a1e:	d103      	bne.n	8001a28 <BLE_RxISR.constprop.0+0xc8>
                hble->pkt_ready = 1;
 8001a20:	0023      	movs	r3, r4
 8001a22:	2201      	movs	r2, #1
 8001a24:	3358      	adds	r3, #88	@ 0x58
 8001a26:	701a      	strb	r2, [r3, #0]
            hble->pkt_in_frame = 0;
 8001a28:	2300      	movs	r3, #0
 8001a2a:	3457      	adds	r4, #87	@ 0x57
 8001a2c:	e7c2      	b.n	80019b4 <BLE_RxISR.constprop.0+0x54>
 8001a2e:	46c0      	nop			@ (mov r8, r8)
 8001a30:	20000578 	.word	0x20000578
 8001a34:	2000053c 	.word	0x2000053c
 8001a38:	20000080 	.word	0x20000080

08001a3c <UART_RxISR_8BIT>:
  * @brief RX interrupt handler for 7 or 8 bits data word length .
  * @param huart UART handle.
  * @retval None
  */
static void UART_RxISR_8BIT(UART_HandleTypeDef *huart)
{
 8001a3c:	b5f8      	push	{r3, r4, r5, r6, r7, lr}
  uint16_t uhMask = huart->Mask;
 8001a3e:	0003      	movs	r3, r0
  uint16_t  uhdata;

  /* Check that a Rx process is ongoing */
  if (huart->RxState == HAL_UART_STATE_BUSY_RX)
 8001a40:	1d01      	adds	r1, r0, #4
 8001a42:	6fcc      	ldr	r4, [r1, #124]	@ 0x7c
  uint16_t uhMask = huart->Mask;
 8001a44:	335c      	adds	r3, #92	@ 0x5c
 8001a46:	881a      	ldrh	r2, [r3, #0]
  {
    uhdata = (uint16_t) READ_REG(huart->Instance->RDR);
 8001a48:	6803      	ldr	r3, [r0, #0]
  if (huart->RxState == HAL_UART_STATE_BUSY_RX)
 8001a4a:	2c22      	cmp	r4, #34	@ 0x22
 8001a4c:	d156      	bne.n	8001afc <UART_RxISR_8BIT+0xc0>
    uhdata = (uint16_t) READ_REG(huart->Instance->RDR);
 8001a4e:	8c9b      	ldrh	r3, [r3, #36]	@ 0x24
    *huart->pRxBuffPtr = (uint8_t)(uhdata & (uint8_t)uhMask);
 8001a50:	6d44      	ldr	r4, [r0, #84]	@ 0x54
 8001a52:	4013      	ands	r3, r2
    huart->pRxBuffPtr++;
    huart->RxXferCount--;
 8001a54:	0002      	movs	r2, r0
    *huart->pRxBuffPtr = (uint8_t)(uhdata & (uint8_t)uhMask);
 8001a56:	7023      	strb	r3, [r4, #0]
    huart->pRxBuffPtr++;
 8001a58:	6d43      	ldr	r3, [r0, #84]	@ 0x54
    huart->RxXferCount--;
 8001a5a:	325a      	adds	r2, #90	@ 0x5a
    huart->pRxBuffPtr++;
 8001a5c:	3301      	adds	r3, #1
 8001a5e:	6543      	str	r3, [r0, #84]	@ 0x54
    huart->RxXferCount--;
 8001a60:	8813      	ldrh	r3, [r2, #0]
 8001a62:	3b01      	subs	r3, #1
 8001a64:	b29b      	uxth	r3, r3
 8001a66:	8013      	strh	r3, [r2, #0]

    if (huart->RxXferCount == 0U)
 8001a68:	8813      	ldrh	r3, [r2, #0]
 8001a6a:	b29c      	uxth	r4, r3
 8001a6c:	2b00      	cmp	r3, #0
 8001a6e:	d13d      	bne.n	8001aec <UART_RxISR_8BIT+0xb0>
  __ASM volatile ("MRS %0, primask" : "=r" (result) :: "memory");
 8001a70:	f3ef 8610 	mrs	r6, PRIMASK
  __ASM volatile ("MSR primask, %0" : : "r" (priMask) : "memory");
 8001a74:	3301      	adds	r3, #1
 8001a76:	f383 8810 	msr	PRIMASK, r3
    {
      /* Disable the UART Parity Error Interrupt and RXNE interrupts */
      ATOMIC_CLEAR_BIT(huart->Instance->CR1, (USART_CR1_RXNEIE | USART_CR1_PEIE));
 8001a7a:	6805      	ldr	r5, [r0, #0]
 8001a7c:	4f22      	ldr	r7, [pc, #136]	@ (8001b08 <UART_RxISR_8BIT+0xcc>)
 8001a7e:	682a      	ldr	r2, [r5, #0]
 8001a80:	403a      	ands	r2, r7
 8001a82:	602a      	str	r2, [r5, #0]
 8001a84:	f386 8810 	msr	PRIMASK, r6
  __ASM volatile ("MRS %0, primask" : "=r" (result) :: "memory");
 8001a88:	f3ef 8610 	mrs	r6, PRIMASK
  __ASM volatile ("MSR primask, %0" : : "r" (priMask) : "memory");
 8001a8c:	f383 8810 	msr	PRIMASK, r3

      /* Disable the UART Error Interrupt: (Frame error, noise error, overrun error) */
      ATOMIC_CLEAR_BIT(huart->Instance->CR3, USART_CR3_EIE);
 8001a90:	6805      	ldr	r5, [r0, #0]
 8001a92:	68aa      	ldr	r2, [r5, #8]
 8001a94:	439a      	bics	r2, r3
 8001a96:	60aa      	str	r2, [r5, #8]
 8001a98:	f386 8810 	msr	PRIMASK, r6

      /* Rx process is completed, restore huart->RxState to Ready */
      huart->RxState = HAL_UART_STATE_READY;
 8001a9c:	2220      	movs	r2, #32
 8001a9e:	67ca      	str	r2, [r1, #124]	@ 0x7c

      /* Initialize type of RxEvent to Transfer Complete */
      huart->RxEventType = HAL_UART_RXEVENT_TC;

      /* Check that USART RTOEN bit is set */
      if (READ_BIT(huart->Instance->CR2, USART_CR2_RTOEN) != 0U)
 8001aa0:	6802      	ldr	r2, [r0, #0]
      huart->RxEventType = HAL_UART_RXEVENT_TC;
 8001aa2:	6644      	str	r4, [r0, #100]	@ 0x64
      if (READ_BIT(huart->Instance->CR2, USART_CR2_RTOEN) != 0U)
 8001aa4:	6852      	ldr	r2, [r2, #4]
      huart->RxISR = NULL;
 8001aa6:	6684      	str	r4, [r0, #104]	@ 0x68
      if (READ_BIT(huart->Instance->CR2, USART_CR2_RTOEN) != 0U)
 8001aa8:	0212      	lsls	r2, r2, #8
 8001aaa:	d50a      	bpl.n	8001ac2 <UART_RxISR_8BIT+0x86>
  __ASM volatile ("MRS %0, primask" : "=r" (result) :: "memory");
 8001aac:	f3ef 8110 	mrs	r1, PRIMASK
  __ASM volatile ("MSR primask, %0" : : "r" (priMask) : "memory");
 8001ab0:	f383 8810 	msr	PRIMASK, r3
      {
        /* Enable the UART Receiver Timeout Interrupt */
        ATOMIC_CLEAR_BIT(huart->Instance->CR1, USART_CR1_RTOIE);
 8001ab4:	6802      	ldr	r2, [r0, #0]
 8001ab6:	4c15      	ldr	r4, [pc, #84]	@ (8001b0c <UART_RxISR_8BIT+0xd0>)
 8001ab8:	6813      	ldr	r3, [r2, #0]
 8001aba:	4023      	ands	r3, r4
 8001abc:	6013      	str	r3, [r2, #0]
 8001abe:	f381 8810 	msr	PRIMASK, r1
      }

      /* Check current reception Mode :
         If Reception till IDLE event has been selected : */
      if (huart->ReceptionType == HAL_UART_RECEPTION_TOIDLE)
 8001ac2:	6e03      	ldr	r3, [r0, #96]	@ 0x60
 8001ac4:	2b01      	cmp	r3, #1
 8001ac6:	d112      	bne.n	8001aee <UART_RxISR_8BIT+0xb2>
      {
        /* Set reception type to Standard */
        huart->ReceptionType = HAL_UART_RECEPTION_STANDARD;
 8001ac8:	2200      	movs	r2, #0
 8001aca:	6602      	str	r2, [r0, #96]	@ 0x60
  __ASM volatile ("MRS %0, primask" : "=r" (result) :: "memory");
 8001acc:	f3ef 8410 	mrs	r4, PRIMASK
  __ASM volatile ("MSR primask, %0" : : "r" (priMask) : "memory");
 8001ad0:	f383 8810 	msr	PRIMASK, r3

        /* Disable IDLE interrupt */
        ATOMIC_CLEAR_BIT(huart->Instance->CR1, USART_CR1_IDLEIE);
 8001ad4:	6801      	ldr	r1, [r0, #0]
 8001ad6:	330f      	adds	r3, #15
 8001ad8:	680a      	ldr	r2, [r1, #0]
 8001ada:	439a      	bics	r2, r3
 8001adc:	600a      	str	r2, [r1, #0]
 8001ade:	f384 8810 	msr	PRIMASK, r4

        if (__HAL_UART_GET_FLAG(huart, UART_FLAG_IDLE) == SET)
 8001ae2:	6802      	ldr	r2, [r0, #0]
 8001ae4:	69d1      	ldr	r1, [r2, #28]
 8001ae6:	4219      	tst	r1, r3
 8001ae8:	d000      	beq.n	8001aec <UART_RxISR_8BIT+0xb0>
        {
          /* Clear IDLE Flag */
          __HAL_UART_CLEAR_FLAG(huart, UART_CLEAR_IDLEF);
 8001aea:	6213      	str	r3, [r2, #32]
  else
  {
    /* Clear RXNE interrupt flag */
    __HAL_UART_SEND_REQ(huart, UART_RXDATA_FLUSH_REQUEST);
  }
}
 8001aec:	bdf8      	pop	{r3, r4, r5, r6, r7, pc}
}

/* UART RX complete: feed the BLE byte-framer (JDY BLE module on USART1). */
void HAL_UART_RxCpltCallback(UART_HandleTypeDef *huart)
{
  if (huart->Instance == USART1) {
 8001aee:	4b08      	ldr	r3, [pc, #32]	@ (8001b10 <UART_RxISR_8BIT+0xd4>)
 8001af0:	6802      	ldr	r2, [r0, #0]
 8001af2:	429a      	cmp	r2, r3
 8001af4:	d1fa      	bne.n	8001aec <UART_RxISR_8BIT+0xb0>
    BLE_RxISR(&g_app.ble);
 8001af6:	f7ff ff33 	bl	8001960 <BLE_RxISR.constprop.0>
  }
}
 8001afa:	e7f7      	b.n	8001aec <UART_RxISR_8BIT+0xb0>
    __HAL_UART_SEND_REQ(huart, UART_RXDATA_FLUSH_REQUEST);
 8001afc:	2208      	movs	r2, #8
 8001afe:	6999      	ldr	r1, [r3, #24]
 8001b00:	430a      	orrs	r2, r1
 8001b02:	619a      	str	r2, [r3, #24]
}
 8001b04:	e7f2      	b.n	8001aec <UART_RxISR_8BIT+0xb0>
 8001b06:	46c0      	nop			@ (mov r8, r8)
 8001b08:	fffffedf 	.word	0xfffffedf
 8001b0c:	fbffffff 	.word	0xfbffffff
 8001b10:	40013800 	.word	0x40013800

08001b14 <UART_RxISR_16BIT>:
  *         interruptions have been enabled by HAL_UART_Receive_IT()
  * @param huart UART handle.
  * @retval None
  */
static void UART_RxISR_16BIT(UART_HandleTypeDef *huart)
{
 8001b14:	b5f8      	push	{r3, r4, r5, r6, r7, lr}
  uint16_t *tmp;
  uint16_t uhMask = huart->Mask;
 8001b16:	0003      	movs	r3, r0
  uint16_t  uhdata;

  /* Check that a Rx process is ongoing */
  if (huart->RxState == HAL_UART_STATE_BUSY_RX)
 8001b18:	1d02      	adds	r2, r0, #4
 8001b1a:	6fd1      	ldr	r1, [r2, #124]	@ 0x7c
  uint16_t uhMask = huart->Mask;
 8001b1c:	335c      	adds	r3, #92	@ 0x5c
 8001b1e:	881c      	ldrh	r4, [r3, #0]
  {
    uhdata = (uint16_t) READ_REG(huart->Instance->RDR);
 8001b20:	6803      	ldr	r3, [r0, #0]
  if (huart->RxState == HAL_UART_STATE_BUSY_RX)
 8001b22:	2922      	cmp	r1, #34	@ 0x22
 8001b24:	d155      	bne.n	8001bd2 <UART_RxISR_16BIT+0xbe>
    uhdata = (uint16_t) READ_REG(huart->Instance->RDR);
 8001b26:	8c99      	ldrh	r1, [r3, #36]	@ 0x24
    tmp = (uint16_t *) huart->pRxBuffPtr ;
 8001b28:	6d43      	ldr	r3, [r0, #84]	@ 0x54
    *tmp = (uint16_t)(uhdata & uhMask);
 8001b2a:	4021      	ands	r1, r4
 8001b2c:	8019      	strh	r1, [r3, #0]
    huart->pRxBuffPtr += 2U;
    huart->RxXferCount--;
 8001b2e:	0001      	movs	r1, r0
    huart->pRxBuffPtr += 2U;
 8001b30:	3302      	adds	r3, #2
 8001b32:	6543      	str	r3, [r0, #84]	@ 0x54
    huart->RxXferCount--;
 8001b34:	315a      	adds	r1, #90	@ 0x5a
 8001b36:	880b      	ldrh	r3, [r1, #0]
 8001b38:	3b01      	subs	r3, #1
 8001b3a:	b29b      	uxth	r3, r3
 8001b3c:	800b      	strh	r3, [r1, #0]

    if (huart->RxXferCount == 0U)
 8001b3e:	880b      	ldrh	r3, [r1, #0]
 8001b40:	b29c      	uxth	r4, r3
 8001b42:	2b00      	cmp	r3, #0
 8001b44:	d13d      	bne.n	8001bc2 <UART_RxISR_16BIT+0xae>
  __ASM volatile ("MRS %0, primask" : "=r" (result) :: "memory");
 8001b46:	f3ef 8610 	mrs	r6, PRIMASK
  __ASM volatile ("MSR primask, %0" : : "r" (priMask) : "memory");
 8001b4a:	3301      	adds	r3, #1
 8001b4c:	f383 8810 	msr	PRIMASK, r3
    {
      /* Disable the UART Parity Error Interrupt and RXNE interrupt*/
      ATOMIC_CLEAR_BIT(huart->Instance->CR1, (USART_CR1_RXNEIE | USART_CR1_PEIE));
 8001b50:	6805      	ldr	r5, [r0, #0]
 8001b52:	4f22      	ldr	r7, [pc, #136]	@ (8001bdc <UART_RxISR_16BIT+0xc8>)
 8001b54:	6829      	ldr	r1, [r5, #0]
 8001b56:	4039      	ands	r1, r7
 8001b58:	6029      	str	r1, [r5, #0]
 8001b5a:	f386 8810 	msr	PRIMASK, r6
  __ASM volatile ("MRS %0, primask" : "=r" (result) :: "memory");
 8001b5e:	f3ef 8610 	mrs	r6, PRIMASK
  __ASM volatile ("MSR primask, %0" : : "r" (priMask) : "memory");
 8001b62:	f383 8810 	msr	PRIMASK, r3

      /* Disable the UART Error Interrupt: (Frame error, noise error, overrun error) */
      ATOMIC_CLEAR_BIT(huart->Instance->CR3, USART_CR3_EIE);
 8001b66:	6805      	ldr	r5, [r0, #0]
 8001b68:	68a9      	ldr	r1, [r5, #8]
 8001b6a:	4399      	bics	r1, r3
 8001b6c:	60a9      	str	r1, [r5, #8]
 8001b6e:	f386 8810 	msr	PRIMASK, r6

      /* Rx process is completed, restore huart->RxState to Ready */
      huart->RxState = HAL_UART_STATE_READY;
 8001b72:	2120      	movs	r1, #32
 8001b74:	67d1      	str	r1, [r2, #124]	@ 0x7c

      /* Initialize type of RxEvent to Transfer Complete */
      huart->RxEventType = HAL_UART_RXEVENT_TC;

      /* Check that USART RTOEN bit is set */
      if (READ_BIT(huart->Instance->CR2, USART_CR2_RTOEN) != 0U)
 8001b76:	6802      	ldr	r2, [r0, #0]
      huart->RxEventType = HAL_UART_RXEVENT_TC;
 8001b78:	6644      	str	r4, [r0, #100]	@ 0x64
      if (READ_BIT(huart->Instance->CR2, USART_CR2_RTOEN) != 0U)
 8001b7a:	6852      	ldr	r2, [r2, #4]
      huart->RxISR = NULL;
 8001b7c:	6684      	str	r4, [r0, #104]	@ 0x68
      if (READ_BIT(huart->Instance->CR2, USART_CR2_RTOEN) != 0U)
 8001b7e:	0212      	lsls	r2, r2, #8
 8001b80:	d50a      	bpl.n	8001b98 <UART_RxISR_16BIT+0x84>
  __ASM volatile ("MRS %0, primask" : "=r" (result) :: "memory");
 8001b82:	f3ef 8110 	mrs	r1, PRIMASK
  __ASM volatile ("MSR primask, %0" : : "r" (priMask) : "memory");
 8001b86:	f383 8810 	msr	PRIMASK, r3
      {
        /* Enable the UART Receiver Timeout Interrupt */
        ATOMIC_CLEAR_BIT(huart->Instance->CR1, USART_CR1_RTOIE);
 8001b8a:	6802      	ldr	r2, [r0, #0]
 8001b8c:	4c14      	ldr	r4, [pc, #80]	@ (8001be0 <UART_RxISR_16BIT+0xcc>)
 8001b8e:	6813      	ldr	r3, [r2, #0]
 8001b90:	4023      	ands	r3, r4
 8001b92:	6013      	str	r3, [r2, #0]
 8001b94:	f381 8810 	msr	PRIMASK, r1
      }

      /* Check current reception Mode :
         If Reception till IDLE event has been selected : */
      if (huart->ReceptionType == HAL_UART_RECEPTION_TOIDLE)
 8001b98:	6e03      	ldr	r3, [r0, #96]	@ 0x60
 8001b9a:	2b01      	cmp	r3, #1
 8001b9c:	d112      	bne.n	8001bc4 <UART_RxISR_16BIT+0xb0>
      {
        /* Set reception type to Standard */
        huart->ReceptionType = HAL_UART_RECEPTION_STANDARD;
 8001b9e:	2200      	movs	r2, #0
 8001ba0:	6602      	str	r2, [r0, #96]	@ 0x60
  __ASM volatile ("MRS %0, primask" : "=r" (result) :: "memory");
 8001ba2:	f3ef 8410 	mrs	r4, PRIMASK
  __ASM volatile ("MSR primask, %0" : : "r" (priMask) : "memory");
 8001ba6:	f383 8810 	msr	PRIMASK, r3

        /* Disable IDLE interrupt */
        ATOMIC_CLEAR_BIT(huart->Instance->CR1, USART_CR1_IDLEIE);
 8001baa:	6801      	ldr	r1, [r0, #0]
 8001bac:	330f      	adds	r3, #15
 8001bae:	680a      	ldr	r2, [r1, #0]
 8001bb0:	439a      	bics	r2, r3
 8001bb2:	600a      	str	r2, [r1, #0]
 8001bb4:	f384 8810 	msr	PRIMASK, r4

        if (__HAL_UART_GET_FLAG(huart, UART_FLAG_IDLE) == SET)
 8001bb8:	6802      	ldr	r2, [r0, #0]
 8001bba:	69d1      	ldr	r1, [r2, #28]
 8001bbc:	4219      	tst	r1, r3
 8001bbe:	d000      	beq.n	8001bc2 <UART_RxISR_16BIT+0xae>
        {
          /* Clear IDLE Flag */
          __HAL_UART_CLEAR_FLAG(huart, UART_CLEAR_IDLEF);
 8001bc0:	6213      	str	r3, [r2, #32]
  else
  {
    /* Clear RXNE interrupt flag */
    __HAL_UART_SEND_REQ(huart, UART_RXDATA_FLUSH_REQUEST);
  }
}
 8001bc2:	bdf8      	pop	{r3, r4, r5, r6, r7, pc}
  if (huart->Instance == USART1) {
 8001bc4:	4b07      	ldr	r3, [pc, #28]	@ (8001be4 <UART_RxISR_16BIT+0xd0>)
 8001bc6:	6802      	ldr	r2, [r0, #0]
 8001bc8:	429a      	cmp	r2, r3
 8001bca:	d1fa      	bne.n	8001bc2 <UART_RxISR_16BIT+0xae>
    BLE_RxISR(&g_app.ble);
 8001bcc:	f7ff fec8 	bl	8001960 <BLE_RxISR.constprop.0>
}
 8001bd0:	e7f7      	b.n	8001bc2 <UART_RxISR_16BIT+0xae>
    __HAL_UART_SEND_REQ(huart, UART_RXDATA_FLUSH_REQUEST);
 8001bd2:	2208      	movs	r2, #8
 8001bd4:	6999      	ldr	r1, [r3, #24]
 8001bd6:	430a      	orrs	r2, r1
 8001bd8:	619a      	str	r2, [r3, #24]
}
 8001bda:	e7f2      	b.n	8001bc2 <UART_RxISR_16BIT+0xae>
 8001bdc:	fffffedf 	.word	0xfffffedf
 8001be0:	fbffffff 	.word	0xfbffffff
 8001be4:	40013800 	.word	0x40013800

08001be8 <HAL_InitTick.constprop.0.isra.0>:
  if (HAL_SYSTICK_Config(SystemCoreClock / (1000U / uwTickFreq)) > 0U)
 8001be8:	21fa      	movs	r1, #250	@ 0xfa
 8001bea:	4b0f      	ldr	r3, [pc, #60]	@ (8001c28 <HAL_InitTick.constprop.0.isra.0+0x40>)
__weak HAL_StatusTypeDef HAL_InitTick(uint32_t TickPriority)
 8001bec:	b510      	push	{r4, lr}
  if (HAL_SYSTICK_Config(SystemCoreClock / (1000U / uwTickFreq)) > 0U)
 8001bee:	6858      	ldr	r0, [r3, #4]
 8001bf0:	0089      	lsls	r1, r1, #2
 8001bf2:	f003 fa5d 	bl	80050b0 <__udivsi3>
           function <b>SysTick_Config</b> is not included. In this case, the file <b><i>device</i>.h</b>
           must contain a vendor-specific implementation of this function.
 */
__STATIC_INLINE uint32_t SysTick_Config(uint32_t ticks)
{
  if ((ticks - 1UL) > SysTick_LOAD_RELOAD_Msk)
 8001bf6:	2380      	movs	r3, #128	@ 0x80
 8001bf8:	3801      	subs	r0, #1
 8001bfa:	045b      	lsls	r3, r3, #17
 8001bfc:	4298      	cmp	r0, r3
 8001bfe:	d212      	bcs.n	8001c26 <HAL_InitTick.constprop.0.isra.0+0x3e>
    SCB->SHP[_SHP_IDX(IRQn)] = ((uint32_t)(SCB->SHP[_SHP_IDX(IRQn)] & ~(0xFFUL << _BIT_SHIFT(IRQn))) |
 8001c00:	21c0      	movs	r1, #192	@ 0xc0
  {
    return (1UL);                                                   /* Reload value impossible */
  }

  SysTick->LOAD  = (uint32_t)(ticks - 1UL);                         /* set reload register */
 8001c02:	4c0a      	ldr	r4, [pc, #40]	@ (8001c2c <HAL_InitTick.constprop.0.isra.0+0x44>)
    SCB->SHP[_SHP_IDX(IRQn)] = ((uint32_t)(SCB->SHP[_SHP_IDX(IRQn)] & ~(0xFFUL << _BIT_SHIFT(IRQn))) |
 8001c04:	4a0a      	ldr	r2, [pc, #40]	@ (8001c30 <HAL_InitTick.constprop.0.isra.0+0x48>)
  SysTick->LOAD  = (uint32_t)(ticks - 1UL);                         /* set reload register */
 8001c06:	6060      	str	r0, [r4, #4]
    SCB->SHP[_SHP_IDX(IRQn)] = ((uint32_t)(SCB->SHP[_SHP_IDX(IRQn)] & ~(0xFFUL << _BIT_SHIFT(IRQn))) |
 8001c08:	6a13      	ldr	r3, [r2, #32]
 8001c0a:	0609      	lsls	r1, r1, #24
 8001c0c:	021b      	lsls	r3, r3, #8
 8001c0e:	0a1b      	lsrs	r3, r3, #8
 8001c10:	430b      	orrs	r3, r1
 8001c12:	6213      	str	r3, [r2, #32]
  NVIC_SetPriority (SysTick_IRQn, (1UL << __NVIC_PRIO_BITS) - 1UL); /* set Priority for Systick Interrupt */
  SysTick->VAL   = 0UL;                                             /* Load the SysTick Counter Value */
 8001c14:	2300      	movs	r3, #0
 8001c16:	60a3      	str	r3, [r4, #8]
  SysTick->CTRL  = SysTick_CTRL_CLKSOURCE_Msk |
 8001c18:	3307      	adds	r3, #7
 8001c1a:	6023      	str	r3, [r4, #0]
    SCB->SHP[_SHP_IDX(IRQn)] = ((uint32_t)(SCB->SHP[_SHP_IDX(IRQn)] & ~(0xFFUL << _BIT_SHIFT(IRQn))) |
 8001c1c:	6a13      	ldr	r3, [r2, #32]
 8001c1e:	021b      	lsls	r3, r3, #8
 8001c20:	0a1b      	lsrs	r3, r3, #8
 8001c22:	4319      	orrs	r1, r3
 8001c24:	6211      	str	r1, [r2, #32]
}
 8001c26:	bd10      	pop	{r4, pc}
 8001c28:	20000000 	.word	0x20000000
 8001c2c:	e000e010 	.word	0xe000e010
 8001c30:	e000ed00 	.word	0xe000ed00

08001c34 <HAL_FLASH_Unlock.isra.0>:
  if(READ_BIT(FLASH->CR, FLASH_CR_LOCK) != RESET)
 8001c34:	4b04      	ldr	r3, [pc, #16]	@ (8001c48 <HAL_FLASH_Unlock.isra.0+0x14>)
 8001c36:	691a      	ldr	r2, [r3, #16]
 8001c38:	0612      	lsls	r2, r2, #24
 8001c3a:	d504      	bpl.n	8001c46 <HAL_FLASH_Unlock.isra.0+0x12>
    WRITE_REG(FLASH->KEYR, FLASH_KEY1);
 8001c3c:	4a03      	ldr	r2, [pc, #12]	@ (8001c4c <HAL_FLASH_Unlock.isra.0+0x18>)
 8001c3e:	605a      	str	r2, [r3, #4]
    WRITE_REG(FLASH->KEYR, FLASH_KEY2);
 8001c40:	4a03      	ldr	r2, [pc, #12]	@ (8001c50 <HAL_FLASH_Unlock.isra.0+0x1c>)
 8001c42:	605a      	str	r2, [r3, #4]
    if(READ_BIT(FLASH->CR, FLASH_CR_LOCK) != RESET)
 8001c44:	691b      	ldr	r3, [r3, #16]
}
 8001c46:	4770      	bx	lr
 8001c48:	40022000 	.word	0x40022000
 8001c4c:	45670123 	.word	0x45670123
 8001c50:	cdef89ab 	.word	0xcdef89ab

08001c54 <HAL_ADC_Stop.isra.0>:
  __HAL_LOCK(hadc);
 8001c54:	0001      	movs	r1, r0
HAL_StatusTypeDef HAL_ADC_Stop(ADC_HandleTypeDef* hadc)
 8001c56:	b570      	push	{r4, r5, r6, lr}
  __HAL_LOCK(hadc);
 8001c58:	3134      	adds	r1, #52	@ 0x34
 8001c5a:	780b      	ldrb	r3, [r1, #0]
 8001c5c:	2b01      	cmp	r3, #1
 8001c5e:	d02a      	beq.n	8001cb6 <HAL_ADC_Stop.isra.0+0x62>
 8001c60:	2301      	movs	r3, #1
  /* Check the parameters */
  assert_param(IS_ADC_ALL_INSTANCE(hadc->Instance));
    
  /* Verification if ADC is not already stopped on regular group to bypass    */
  /* this function if not needed.                                             */
  if (ADC_IS_CONVERSION_ONGOING_REGULAR(hadc))
 8001c62:	2204      	movs	r2, #4
  __HAL_LOCK(hadc);
 8001c64:	700b      	strb	r3, [r1, #0]
  if (ADC_IS_CONVERSION_ONGOING_REGULAR(hadc))
 8001c66:	6803      	ldr	r3, [r0, #0]
 8001c68:	689c      	ldr	r4, [r3, #8]
 8001c6a:	4214      	tst	r4, r2
 8001c6c:	d124      	bne.n	8001cb8 <HAL_ADC_Stop.isra.0+0x64>
  if (ADC_IS_ENABLE(hadc) != RESET)
 8001c6e:	2403      	movs	r4, #3
 8001c70:	689a      	ldr	r2, [r3, #8]
 8001c72:	4022      	ands	r2, r4
 8001c74:	2a01      	cmp	r2, #1
 8001c76:	d115      	bne.n	8001ca4 <HAL_ADC_Stop.isra.0+0x50>
 8001c78:	681c      	ldr	r4, [r3, #0]
 8001c7a:	4214      	tst	r4, r2
 8001c7c:	d102      	bne.n	8001c84 <HAL_ADC_Stop.isra.0+0x30>
 8001c7e:	68da      	ldr	r2, [r3, #12]
 8001c80:	0412      	lsls	r2, r2, #16
 8001c82:	d50f      	bpl.n	8001ca4 <HAL_ADC_Stop.isra.0+0x50>
    if (ADC_DISABLING_CONDITIONS(hadc) != RESET)
 8001c84:	2405      	movs	r4, #5
 8001c86:	689a      	ldr	r2, [r3, #8]
 8001c88:	4022      	ands	r2, r4
 8001c8a:	2a01      	cmp	r2, #1
 8001c8c:	d12b      	bne.n	8001ce6 <HAL_ADC_Stop.isra.0+0x92>
      __HAL_ADC_DISABLE(hadc);
 8001c8e:	689d      	ldr	r5, [r3, #8]
 8001c90:	3c03      	subs	r4, #3
 8001c92:	432c      	orrs	r4, r5
 8001c94:	609c      	str	r4, [r3, #8]
 8001c96:	2403      	movs	r4, #3
  return uwTick;
 8001c98:	4d1e      	ldr	r5, [pc, #120]	@ (8001d14 <HAL_ADC_Stop.isra.0+0xc0>)
 8001c9a:	601c      	str	r4, [r3, #0]
 8001c9c:	6f6e      	ldr	r6, [r5, #116]	@ 0x74
    while(HAL_IS_BIT_SET(hadc->Instance->CR, ADC_CR_ADEN))
 8001c9e:	689c      	ldr	r4, [r3, #8]
 8001ca0:	4214      	tst	r4, r2
 8001ca2:	d129      	bne.n	8001cf8 <HAL_ADC_Stop.isra.0+0xa4>
      ADC_STATE_CLR_SET(hadc->State,
 8001ca4:	6b82      	ldr	r2, [r0, #56]	@ 0x38
 8001ca6:	4b1c      	ldr	r3, [pc, #112]	@ (8001d18 <HAL_ADC_Stop.isra.0+0xc4>)
 8001ca8:	401a      	ands	r2, r3
 8001caa:	3304      	adds	r3, #4
 8001cac:	33ff      	adds	r3, #255	@ 0xff
 8001cae:	4313      	orrs	r3, r2
 8001cb0:	6383      	str	r3, [r0, #56]	@ 0x38
  __HAL_UNLOCK(hadc);
 8001cb2:	2300      	movs	r3, #0
 8001cb4:	700b      	strb	r3, [r1, #0]
}
 8001cb6:	bd70      	pop	{r4, r5, r6, pc}
  {
    
    /* Stop potential conversion on going on regular group */
    /* Software is allowed to set ADSTP only when ADSTART=1 and ADDIS=0 */
    if (HAL_IS_BIT_SET(hadc->Instance->CR, ADC_CR_ADSTART) && 
 8001cb8:	689c      	ldr	r4, [r3, #8]
 8001cba:	4214      	tst	r4, r2
 8001cbc:	d006      	beq.n	8001ccc <HAL_ADC_Stop.isra.0+0x78>
        HAL_IS_BIT_CLR(hadc->Instance->CR, ADC_CR_ADDIS)                  )
 8001cbe:	689a      	ldr	r2, [r3, #8]
    if (HAL_IS_BIT_SET(hadc->Instance->CR, ADC_CR_ADSTART) && 
 8001cc0:	0792      	lsls	r2, r2, #30
 8001cc2:	d403      	bmi.n	8001ccc <HAL_ADC_Stop.isra.0+0x78>
    {
      /* Stop conversions on regular group */
      hadc->Instance->CR |= ADC_CR_ADSTP;
 8001cc4:	2210      	movs	r2, #16
 8001cc6:	689c      	ldr	r4, [r3, #8]
 8001cc8:	4322      	orrs	r2, r4
 8001cca:	609a      	str	r2, [r3, #8]
    
    /* Wait for conversion effectively stopped */
    /* Get tick count */
    tickstart = HAL_GetTick();
      
    while((hadc->Instance->CR & ADC_CR_ADSTART) != RESET)
 8001ccc:	2404      	movs	r4, #4
 8001cce:	4d11      	ldr	r5, [pc, #68]	@ (8001d14 <HAL_ADC_Stop.isra.0+0xc0>)
 8001cd0:	6f6e      	ldr	r6, [r5, #116]	@ 0x74
 8001cd2:	689a      	ldr	r2, [r3, #8]
 8001cd4:	4222      	tst	r2, r4
 8001cd6:	d0ca      	beq.n	8001c6e <HAL_ADC_Stop.isra.0+0x1a>
 8001cd8:	6f6a      	ldr	r2, [r5, #116]	@ 0x74
    {
      if((HAL_GetTick() - tickstart) > ADC_STOP_CONVERSION_TIMEOUT)
 8001cda:	1b92      	subs	r2, r2, r6
 8001cdc:	2a02      	cmp	r2, #2
 8001cde:	d9f8      	bls.n	8001cd2 <HAL_ADC_Stop.isra.0+0x7e>
      {
        /* New check to avoid false timeout detection in case of preemption */
        if((hadc->Instance->CR & ADC_CR_ADSTART) != RESET)
 8001ce0:	689a      	ldr	r2, [r3, #8]
 8001ce2:	4222      	tst	r2, r4
 8001ce4:	d0f5      	beq.n	8001cd2 <HAL_ADC_Stop.isra.0+0x7e>
      SET_BIT(hadc->State, HAL_ADC_STATE_ERROR_INTERNAL);
 8001ce6:	2310      	movs	r3, #16
 8001ce8:	6b82      	ldr	r2, [r0, #56]	@ 0x38
 8001cea:	4313      	orrs	r3, r2
 8001cec:	6383      	str	r3, [r0, #56]	@ 0x38
      SET_BIT(hadc->ErrorCode, HAL_ADC_ERROR_INTERNAL);
 8001cee:	2301      	movs	r3, #1
 8001cf0:	6bc2      	ldr	r2, [r0, #60]	@ 0x3c
          SET_BIT(hadc->ErrorCode, HAL_ADC_ERROR_INTERNAL);
 8001cf2:	4313      	orrs	r3, r2
 8001cf4:	63c3      	str	r3, [r0, #60]	@ 0x3c
 8001cf6:	e7dc      	b.n	8001cb2 <HAL_ADC_Stop.isra.0+0x5e>
 8001cf8:	6f6c      	ldr	r4, [r5, #116]	@ 0x74
      if((HAL_GetTick() - tickstart) > ADC_DISABLE_TIMEOUT)
 8001cfa:	1ba4      	subs	r4, r4, r6
 8001cfc:	2c02      	cmp	r4, #2
 8001cfe:	d9ce      	bls.n	8001c9e <HAL_ADC_Stop.isra.0+0x4a>
        if(HAL_IS_BIT_SET(hadc->Instance->CR, ADC_CR_ADEN))
 8001d00:	689c      	ldr	r4, [r3, #8]
 8001d02:	4214      	tst	r4, r2
 8001d04:	d0cb      	beq.n	8001c9e <HAL_ADC_Stop.isra.0+0x4a>
          SET_BIT(hadc->State, HAL_ADC_STATE_ERROR_INTERNAL);
 8001d06:	2310      	movs	r3, #16
 8001d08:	6b84      	ldr	r4, [r0, #56]	@ 0x38
 8001d0a:	4323      	orrs	r3, r4
 8001d0c:	6383      	str	r3, [r0, #56]	@ 0x38
          SET_BIT(hadc->ErrorCode, HAL_ADC_ERROR_INTERNAL);
 8001d0e:	6bc3      	ldr	r3, [r0, #60]	@ 0x3c
 8001d10:	e7ef      	b.n	8001cf2 <HAL_ADC_Stop.isra.0+0x9e>
 8001d12:	46c0      	nop			@ (mov r8, r8)
 8001d14:	20000080 	.word	0x20000080
 8001d18:	fffffefe 	.word	0xfffffefe

08001d1c <HAL_ADC_Start.isra.0>:
HAL_StatusTypeDef HAL_ADC_Start(ADC_HandleTypeDef* hadc)
 8001d1c:	b573      	push	{r0, r1, r4, r5, r6, lr}
  if (ADC_IS_CONVERSION_ONGOING_REGULAR(hadc) == RESET)
 8001d1e:	6805      	ldr	r5, [r0, #0]
 8001d20:	2304      	movs	r3, #4
 8001d22:	68aa      	ldr	r2, [r5, #8]
HAL_StatusTypeDef HAL_ADC_Start(ADC_HandleTypeDef* hadc)
 8001d24:	0004      	movs	r4, r0
  if (ADC_IS_CONVERSION_ONGOING_REGULAR(hadc) == RESET)
 8001d26:	0011      	movs	r1, r2
 8001d28:	4019      	ands	r1, r3
 8001d2a:	421a      	tst	r2, r3
 8001d2c:	d119      	bne.n	8001d62 <HAL_ADC_Start.isra.0+0x46>
    __HAL_LOCK(hadc);
 8001d2e:	0006      	movs	r6, r0
 8001d30:	3634      	adds	r6, #52	@ 0x34
 8001d32:	7833      	ldrb	r3, [r6, #0]
 8001d34:	2b01      	cmp	r3, #1
 8001d36:	d014      	beq.n	8001d62 <HAL_ADC_Start.isra.0+0x46>
 8001d38:	2301      	movs	r3, #1
 8001d3a:	7033      	strb	r3, [r6, #0]
    if (hadc->Init.LowPowerAutoPowerOff != ENABLE)
 8001d3c:	7e43      	ldrb	r3, [r0, #25]
 8001d3e:	2b01      	cmp	r3, #1
 8001d40:	d110      	bne.n	8001d64 <HAL_ADC_Start.isra.0+0x48>
      ADC_STATE_CLR_SET(hadc->State,
 8001d42:	6ba2      	ldr	r2, [r4, #56]	@ 0x38
 8001d44:	4b26      	ldr	r3, [pc, #152]	@ (8001de0 <HAL_ADC_Start.isra.0+0xc4>)
 8001d46:	401a      	ands	r2, r3
 8001d48:	2380      	movs	r3, #128	@ 0x80
 8001d4a:	005b      	lsls	r3, r3, #1
 8001d4c:	4313      	orrs	r3, r2
 8001d4e:	63a3      	str	r3, [r4, #56]	@ 0x38
      ADC_CLEAR_ERRORCODE(hadc);
 8001d50:	2300      	movs	r3, #0
 8001d52:	63e3      	str	r3, [r4, #60]	@ 0x3c
      __HAL_UNLOCK(hadc);
 8001d54:	7033      	strb	r3, [r6, #0]
      __HAL_ADC_CLEAR_FLAG(hadc, (ADC_FLAG_EOC | ADC_FLAG_EOS | ADC_FLAG_OVR));
 8001d56:	331c      	adds	r3, #28
 8001d58:	602b      	str	r3, [r5, #0]
      hadc->Instance->CR |= ADC_CR_ADSTART;
 8001d5a:	68aa      	ldr	r2, [r5, #8]
 8001d5c:	3b18      	subs	r3, #24
 8001d5e:	4313      	orrs	r3, r2
 8001d60:	60ab      	str	r3, [r5, #8]
}
 8001d62:	bd73      	pop	{r0, r1, r4, r5, r6, pc}
  if (ADC_IS_ENABLE(hadc) == RESET)
 8001d64:	2203      	movs	r2, #3
  __IO uint32_t wait_loop_index = 0U;
 8001d66:	9101      	str	r1, [sp, #4]
  if (ADC_IS_ENABLE(hadc) == RESET)
 8001d68:	68ab      	ldr	r3, [r5, #8]
 8001d6a:	4013      	ands	r3, r2
 8001d6c:	2b01      	cmp	r3, #1
 8001d6e:	d105      	bne.n	8001d7c <HAL_ADC_Start.isra.0+0x60>
 8001d70:	682a      	ldr	r2, [r5, #0]
 8001d72:	421a      	tst	r2, r3
 8001d74:	d1e5      	bne.n	8001d42 <HAL_ADC_Start.isra.0+0x26>
 8001d76:	68eb      	ldr	r3, [r5, #12]
 8001d78:	041b      	lsls	r3, r3, #16
 8001d7a:	d4e2      	bmi.n	8001d42 <HAL_ADC_Start.isra.0+0x26>
    if (ADC_ENABLING_CONDITIONS(hadc) == RESET)
 8001d7c:	68aa      	ldr	r2, [r5, #8]
 8001d7e:	4b19      	ldr	r3, [pc, #100]	@ (8001de4 <HAL_ADC_Start.isra.0+0xc8>)
 8001d80:	421a      	tst	r2, r3
 8001d82:	d008      	beq.n	8001d96 <HAL_ADC_Start.isra.0+0x7a>
      SET_BIT(hadc->State, HAL_ADC_STATE_ERROR_INTERNAL);
 8001d84:	2310      	movs	r3, #16
 8001d86:	6ba2      	ldr	r2, [r4, #56]	@ 0x38
 8001d88:	4313      	orrs	r3, r2
 8001d8a:	63a3      	str	r3, [r4, #56]	@ 0x38
      SET_BIT(hadc->ErrorCode, HAL_ADC_ERROR_INTERNAL);
 8001d8c:	2301      	movs	r3, #1
 8001d8e:	6be2      	ldr	r2, [r4, #60]	@ 0x3c
          SET_BIT(hadc->ErrorCode, HAL_ADC_ERROR_INTERNAL);
 8001d90:	4313      	orrs	r3, r2
 8001d92:	63e3      	str	r3, [r4, #60]	@ 0x3c
 8001d94:	e7e5      	b.n	8001d62 <HAL_ADC_Start.isra.0+0x46>
    __HAL_ADC_ENABLE(hadc);
 8001d96:	2301      	movs	r3, #1
 8001d98:	68aa      	ldr	r2, [r5, #8]
    wait_loop_index = (ADC_STAB_DELAY_US * (SystemCoreClock / 1000000U));
 8001d9a:	4913      	ldr	r1, [pc, #76]	@ (8001de8 <HAL_ADC_Start.isra.0+0xcc>)
    __HAL_ADC_ENABLE(hadc);
 8001d9c:	4313      	orrs	r3, r2
 8001d9e:	60ab      	str	r3, [r5, #8]
    wait_loop_index = (ADC_STAB_DELAY_US * (SystemCoreClock / 1000000U));
 8001da0:	4b12      	ldr	r3, [pc, #72]	@ (8001dec <HAL_ADC_Start.isra.0+0xd0>)
 8001da2:	6858      	ldr	r0, [r3, #4]
 8001da4:	f003 f984 	bl	80050b0 <__udivsi3>
 8001da8:	9001      	str	r0, [sp, #4]
    while(wait_loop_index != 0U)
 8001daa:	9b01      	ldr	r3, [sp, #4]
 8001dac:	2b00      	cmp	r3, #0
 8001dae:	d112      	bne.n	8001dd6 <HAL_ADC_Start.isra.0+0xba>
 8001db0:	490f      	ldr	r1, [pc, #60]	@ (8001df0 <HAL_ADC_Start.isra.0+0xd4>)
    while(__HAL_ADC_GET_FLAG(hadc, ADC_FLAG_RDY) == RESET)
 8001db2:	3301      	adds	r3, #1
 8001db4:	6f48      	ldr	r0, [r1, #116]	@ 0x74
 8001db6:	682a      	ldr	r2, [r5, #0]
 8001db8:	421a      	tst	r2, r3
 8001dba:	d1c2      	bne.n	8001d42 <HAL_ADC_Start.isra.0+0x26>
 8001dbc:	6f4a      	ldr	r2, [r1, #116]	@ 0x74
      if((HAL_GetTick() - tickstart) > ADC_ENABLE_TIMEOUT)
 8001dbe:	1a12      	subs	r2, r2, r0
 8001dc0:	2a02      	cmp	r2, #2
 8001dc2:	d9f8      	bls.n	8001db6 <HAL_ADC_Start.isra.0+0x9a>
        if(__HAL_ADC_GET_FLAG(hadc, ADC_FLAG_RDY) == RESET)
 8001dc4:	682a      	ldr	r2, [r5, #0]
 8001dc6:	421a      	tst	r2, r3
 8001dc8:	d1f5      	bne.n	8001db6 <HAL_ADC_Start.isra.0+0x9a>
          SET_BIT(hadc->State, HAL_ADC_STATE_ERROR_INTERNAL);
 8001dca:	2210      	movs	r2, #16
 8001dcc:	6ba1      	ldr	r1, [r4, #56]	@ 0x38
 8001dce:	430a      	orrs	r2, r1
 8001dd0:	63a2      	str	r2, [r4, #56]	@ 0x38
          SET_BIT(hadc->ErrorCode, HAL_ADC_ERROR_INTERNAL);
 8001dd2:	6be2      	ldr	r2, [r4, #60]	@ 0x3c
 8001dd4:	e7dc      	b.n	8001d90 <HAL_ADC_Start.isra.0+0x74>
      wait_loop_index--;
 8001dd6:	9b01      	ldr	r3, [sp, #4]
 8001dd8:	3b01      	subs	r3, #1
 8001dda:	9301      	str	r3, [sp, #4]
 8001ddc:	e7e5      	b.n	8001daa <HAL_ADC_Start.isra.0+0x8e>
 8001dde:	46c0      	nop			@ (mov r8, r8)
 8001de0:	fffff0fe 	.word	0xfffff0fe
 8001de4:	80000017 	.word	0x80000017
 8001de8:	000f4240 	.word	0x000f4240
 8001dec:	20000000 	.word	0x20000000
 8001df0:	20000080 	.word	0x20000080

08001df4 <Battery_Update.constprop.0>:
    hbat->valid      = 0;
}

void Battery_Update(Battery_Handle_t *hbat)
{
    uint32_t sum = 0;
 8001df4:	2300      	movs	r3, #0
void Battery_Update(Battery_Handle_t *hbat)
 8001df6:	b5f0      	push	{r4, r5, r6, r7, lr}
 8001df8:	2504      	movs	r5, #4
 8001dfa:	b087      	sub	sp, #28
    uint32_t sum = 0;
 8001dfc:	9301      	str	r3, [sp, #4]
    hbat->hadc->Instance->CHSELR = 0U;
 8001dfe:	2300      	movs	r3, #0
 8001e00:	4c2b      	ldr	r4, [pc, #172]	@ (8001eb0 <Battery_Update.constprop.0+0xbc>)
    HAL_ADC_ConfigChannel(hbat->hadc, &sConfig);
 8001e02:	a903      	add	r1, sp, #12
    hbat->hadc->Instance->CHSELR = 0U;
 8001e04:	6a26      	ldr	r6, [r4, #32]
    for (uint8_t i = 0; i < 4; i++) {
 8001e06:	3d01      	subs	r5, #1
    hbat->hadc->Instance->CHSELR = 0U;
 8001e08:	6837      	ldr	r7, [r6, #0]
    HAL_ADC_ConfigChannel(hbat->hadc, &sConfig);
 8001e0a:	0030      	movs	r0, r6
    hbat->hadc->Instance->CHSELR = 0U;
 8001e0c:	62bb      	str	r3, [r7, #40]	@ 0x28
    sConfig.Channel      = ADC_CHANNEL_7;
 8001e0e:	3307      	adds	r3, #7
 8001e10:	9303      	str	r3, [sp, #12]
    sConfig.Rank         = ADC_RANK_CHANNEL_NUMBER;
 8001e12:	2380      	movs	r3, #128	@ 0x80
 8001e14:	015b      	lsls	r3, r3, #5
 8001e16:	9304      	str	r3, [sp, #16]
    sConfig.SamplingTime = ADC_SAMPLETIME_71CYCLES_5;
 8001e18:	2306      	movs	r3, #6
 8001e1a:	9305      	str	r3, [sp, #20]
    HAL_ADC_ConfigChannel(hbat->hadc, &sConfig);
 8001e1c:	f7fe fb86 	bl	800052c <HAL_ADC_ConfigChannel>
    HAL_ADC_Start(hbat->hadc);
 8001e20:	0030      	movs	r0, r6
 8001e22:	f7ff ff7b 	bl	8001d1c <HAL_ADC_Start.isra.0>
    HAL_ADC_PollForConversion(hbat->hadc, 100);
 8001e26:	2164      	movs	r1, #100	@ 0x64
 8001e28:	0030      	movs	r0, r6
 8001e2a:	f7fe fb23 	bl	8000474 <HAL_ADC_PollForConversion>
  return hadc->Instance->DR;
 8001e2e:	6c3f      	ldr	r7, [r7, #64]	@ 0x40
    HAL_ADC_Stop(hbat->hadc);
 8001e30:	0030      	movs	r0, r6
 8001e32:	f7ff ff0f 	bl	8001c54 <HAL_ADC_Stop.isra.0>
        sum += Battery_ReadADC(hbat);
 8001e36:	9b01      	ldr	r3, [sp, #4]
 8001e38:	b2bf      	uxth	r7, r7
 8001e3a:	19db      	adds	r3, r3, r7
    for (uint8_t i = 0; i < 4; i++) {
 8001e3c:	b2ed      	uxtb	r5, r5
        sum += Battery_ReadADC(hbat);
 8001e3e:	9301      	str	r3, [sp, #4]
    for (uint8_t i = 0; i < 4; i++) {
 8001e40:	2d00      	cmp	r5, #0
 8001e42:	d1dc      	bne.n	8001dfe <Battery_Update.constprop.0+0xa>
    /* v_adc_mv = adc_avg * 3300 / 4096
     * voltage_mv = v_adc_mv * BAT_DIVIDER_RATIO_X10 / 10
     * Combined: voltage_mv = adc_avg * 3300 * BAT_DIVIDER_RATIO_X10 / (4096 * 10)
     */
    uint32_t v_adc_mv  = (uint32_t)adc_avg * BAT_ADC_VREF_MV / BAT_ADC_RESOLUTION;
    uint32_t voltage   = v_adc_mv * BAT_DIVIDER_RATIO_X10 / 10U;
 8001e44:	2014      	movs	r0, #20
    uint32_t v_adc_mv  = (uint32_t)adc_avg * BAT_ADC_VREF_MV / BAT_ADC_RESOLUTION;
 8001e46:	4a1b      	ldr	r2, [pc, #108]	@ (8001eb4 <Battery_Update.constprop.0+0xc0>)
    uint16_t adc_avg = (uint16_t)(sum >> 2);
 8001e48:	089b      	lsrs	r3, r3, #2
    uint32_t v_adc_mv  = (uint32_t)adc_avg * BAT_ADC_VREF_MV / BAT_ADC_RESOLUTION;
 8001e4a:	b29b      	uxth	r3, r3
 8001e4c:	4353      	muls	r3, r2
 8001e4e:	0b1b      	lsrs	r3, r3, #12
    uint32_t voltage   = v_adc_mv * BAT_DIVIDER_RATIO_X10 / 10U;
 8001e50:	4358      	muls	r0, r3

    if (voltage > BAT_FULL_MV)  voltage = BAT_FULL_MV;
 8001e52:	4b19      	ldr	r3, [pc, #100]	@ (8001eb8 <Battery_Update.constprop.0+0xc4>)
 8001e54:	4298      	cmp	r0, r3
 8001e56:	d81f      	bhi.n	8001e98 <Battery_Update.constprop.0+0xa4>
    if (voltage < BAT_EMPTY_MV) voltage = BAT_EMPTY_MV;
 8001e58:	4b18      	ldr	r3, [pc, #96]	@ (8001ebc <Battery_Update.constprop.0+0xc8>)
 8001e5a:	4298      	cmp	r0, r3
 8001e5c:	d91e      	bls.n	8001e9c <Battery_Update.constprop.0+0xa8>
    uint32_t voltage   = v_adc_mv * BAT_DIVIDER_RATIO_X10 / 10U;
 8001e5e:	210a      	movs	r1, #10
 8001e60:	f003 f926 	bl	80050b0 <__udivsi3>
    hbat->voltage_mv = (uint16_t)voltage;

    uint32_t range   = BAT_FULL_MV - BAT_EMPTY_MV;
    hbat->percent    = (uint8_t)(((uint32_t)(hbat->voltage_mv - BAT_EMPTY_MV) * 100U) / range);
 8001e64:	2564      	movs	r5, #100	@ 0x64
 8001e66:	2196      	movs	r1, #150	@ 0x96
    hbat->voltage_mv = (uint16_t)voltage;
 8001e68:	84e0      	strh	r0, [r4, #38]	@ 0x26
    hbat->percent    = (uint8_t)(((uint32_t)(hbat->voltage_mv - BAT_EMPTY_MV) * 100U) / range);
 8001e6a:	4368      	muls	r0, r5
 8001e6c:	4b14      	ldr	r3, [pc, #80]	@ (8001ec0 <Battery_Update.constprop.0+0xcc>)
 8001e6e:	00c9      	lsls	r1, r1, #3
 8001e70:	18c0      	adds	r0, r0, r3
 8001e72:	f003 f91d 	bl	80050b0 <__udivsi3>
  if ((GPIOx->IDR & GPIO_Pin) != (uint32_t)GPIO_PIN_RESET)
 8001e76:	4b13      	ldr	r3, [pc, #76]	@ (8001ec4 <Battery_Update.constprop.0+0xd0>)
 8001e78:	1d62      	adds	r2, r4, #5
 8001e7a:	77d0      	strb	r0, [r2, #31]
 8001e7c:	6918      	ldr	r0, [r3, #16]
 8001e7e:	2102      	movs	r1, #2
 8001e80:	691e      	ldr	r6, [r3, #16]
 8001e82:	0023      	movs	r3, r4
 8001e84:	3328      	adds	r3, #40	@ 0x28
 8001e86:	420e      	tst	r6, r1
 8001e88:	d10a      	bne.n	8001ea0 <Battery_Update.constprop.0+0xac>

    uint8_t chrg  = (HAL_GPIO_ReadPin(CHRG_STAT_GPIO_Port,  CHRG_STAT_Pin)  == GPIO_PIN_RESET) ? 1U : 0U;
    uint8_t stdby = (HAL_GPIO_ReadPin(STDBY_STAT_GPIO_Port, STDBY_STAT_Pin) == GPIO_PIN_RESET) ? 1U : 0U;

    if (stdby) {
        hbat->status  = BAT_STATUS_FULL;
 8001e8a:	7019      	strb	r1, [r3, #0]
        hbat->percent = 100;
 8001e8c:	77d5      	strb	r5, [r2, #31]
    } else if (chrg) {
        hbat->status = BAT_STATUS_CHARGING;
    } else {
        hbat->status = BAT_STATUS_DISCHARGING;
    }
    hbat->valid = 1;
 8001e8e:	2301      	movs	r3, #1
 8001e90:	3429      	adds	r4, #41	@ 0x29
 8001e92:	7023      	strb	r3, [r4, #0]
}
 8001e94:	b007      	add	sp, #28
 8001e96:	bdf0      	pop	{r4, r5, r6, r7, pc}
    if (voltage > BAT_FULL_MV)  voltage = BAT_FULL_MV;
 8001e98:	480b      	ldr	r0, [pc, #44]	@ (8001ec8 <Battery_Update.constprop.0+0xd4>)
 8001e9a:	e7e3      	b.n	8001e64 <Battery_Update.constprop.0+0x70>
    if (voltage < BAT_EMPTY_MV) voltage = BAT_EMPTY_MV;
 8001e9c:	480b      	ldr	r0, [pc, #44]	@ (8001ecc <Battery_Update.constprop.0+0xd8>)
 8001e9e:	e7e1      	b.n	8001e64 <Battery_Update.constprop.0+0x70>
    } else if (chrg) {
 8001ea0:	2101      	movs	r1, #1
 8001ea2:	000a      	movs	r2, r1
 8001ea4:	4382      	bics	r2, r0
 8001ea6:	d001      	beq.n	8001eac <Battery_Update.constprop.0+0xb8>
        hbat->status = BAT_STATUS_CHARGING;
 8001ea8:	7019      	strb	r1, [r3, #0]
 8001eaa:	e7f0      	b.n	8001e8e <Battery_Update.constprop.0+0x9a>
        hbat->status = BAT_STATUS_DISCHARGING;
 8001eac:	701a      	strb	r2, [r3, #0]
 8001eae:	e7ee      	b.n	8001e8e <Battery_Update.constprop.0+0x9a>
 8001eb0:	2000053c 	.word	0x2000053c
 8001eb4:	00000ce4 	.word	0x00000ce4
 8001eb8:	0000a419 	.word	0x0000a419
 8001ebc:	0000752f 	.word	0x0000752f
 8001ec0:	fffb6c20 	.word	0xfffb6c20
 8001ec4:	48000400 	.word	0x48000400
 8001ec8:	00001068 	.word	0x00001068
 8001ecc:	00000bb8 	.word	0x00000bb8

08001ed0 <NTC_ReadTemp_x10.constprop.0>:
 * Returns temperature in tenths of °C.
 * ===========================================================================
 */
int16_t NTC_ReadTemp_x10(NTC_Handle_t *hntc)
{
    g_ntc_fault = 0;
 8001ed0:	2300      	movs	r3, #0
int16_t NTC_ReadTemp_x10(NTC_Handle_t *hntc)
 8001ed2:	b5f0      	push	{r4, r5, r6, r7, lr}
    g_ntc_fault = 0;
 8001ed4:	2604      	movs	r6, #4
 8001ed6:	4c49      	ldr	r4, [pc, #292]	@ (8001ffc <NTC_ReadTemp_x10.constprop.0+0x12c>)
int16_t NTC_ReadTemp_x10(NTC_Handle_t *hntc)
 8001ed8:	b087      	sub	sp, #28

    /* ── 1. Average 4 samples ────────────────────────────────────────── */
    uint32_t sum = 0U;
 8001eda:	9301      	str	r3, [sp, #4]
    g_ntc_fault = 0;
 8001edc:	7123      	strb	r3, [r4, #4]
    g_ntc_chselr_before = hntc->hadc->Instance->CHSELR;
 8001ede:	4d48      	ldr	r5, [pc, #288]	@ (8002000 <NTC_ReadTemp_x10.constprop.0+0x130>)
    HAL_ADC_ConfigChannel(hntc->hadc, &sConfig);
 8001ee0:	a903      	add	r1, sp, #12
    g_ntc_chselr_before = hntc->hadc->Instance->CHSELR;
 8001ee2:	69ab      	ldr	r3, [r5, #24]
 8001ee4:	681f      	ldr	r7, [r3, #0]
 8001ee6:	9300      	str	r3, [sp, #0]
 8001ee8:	6abb      	ldr	r3, [r7, #40]	@ 0x28
    HAL_ADC_ConfigChannel(hntc->hadc, &sConfig);
 8001eea:	9800      	ldr	r0, [sp, #0]
    g_ntc_chselr_before = hntc->hadc->Instance->CHSELR;
 8001eec:	60a3      	str	r3, [r4, #8]
    hntc->hadc->Instance->CHSELR = 0U;
 8001eee:	2300      	movs	r3, #0
 8001ef0:	62bb      	str	r3, [r7, #40]	@ 0x28
    sConfig.Channel      = ADC_CHANNEL_3;             /* PA3 = NTC_TEMP     */
 8001ef2:	3303      	adds	r3, #3
 8001ef4:	9303      	str	r3, [sp, #12]
    sConfig.Rank         = ADC_RANK_CHANNEL_NUMBER;
 8001ef6:	2380      	movs	r3, #128	@ 0x80
 8001ef8:	015b      	lsls	r3, r3, #5
 8001efa:	9304      	str	r3, [sp, #16]
    sConfig.SamplingTime = ADC_SAMPLETIME_239CYCLES_5; /* max time for 100nF */
 8001efc:	2307      	movs	r3, #7
 8001efe:	9305      	str	r3, [sp, #20]
    HAL_ADC_ConfigChannel(hntc->hadc, &sConfig);
 8001f00:	f7fe fb14 	bl	800052c <HAL_ADC_ConfigChannel>
    g_ntc_chselr_after = hntc->hadc->Instance->CHSELR;
 8001f04:	6abb      	ldr	r3, [r7, #40]	@ 0x28
    HAL_ADC_Start(hntc->hadc);
 8001f06:	9800      	ldr	r0, [sp, #0]
    g_ntc_chselr_after = hntc->hadc->Instance->CHSELR;
 8001f08:	60e3      	str	r3, [r4, #12]
    HAL_ADC_Start(hntc->hadc);
 8001f0a:	f7ff ff07 	bl	8001d1c <HAL_ADC_Start.isra.0>
    if (HAL_ADC_PollForConversion(hntc->hadc, 10U) != HAL_OK) {
 8001f0e:	210a      	movs	r1, #10
 8001f10:	9800      	ldr	r0, [sp, #0]
 8001f12:	f7fe faaf 	bl	8000474 <HAL_ADC_PollForConversion>
 8001f16:	2800      	cmp	r0, #0
 8001f18:	d024      	beq.n	8001f64 <NTC_ReadTemp_x10.constprop.0+0x94>
        HAL_ADC_Stop(hntc->hadc);
 8001f1a:	9800      	ldr	r0, [sp, #0]
 8001f1c:	f7ff fe9a 	bl	8001c54 <HAL_ADC_Stop.isra.0>
        g_ntc_fault    = 5;
 8001f20:	2305      	movs	r3, #5
        return 2048U;
 8001f22:	2780      	movs	r7, #128	@ 0x80
        g_ntc_fault    = 5;
 8001f24:	7123      	strb	r3, [r4, #4]
        g_ntc_raw_adc  = 9999;   /* sentinel: timeout */
 8001f26:	4b37      	ldr	r3, [pc, #220]	@ (8002004 <NTC_ReadTemp_x10.constprop.0+0x134>)
        return 2048U;
 8001f28:	013f      	lsls	r7, r7, #4
        g_ntc_raw_adc  = 9999;   /* sentinel: timeout */
 8001f2a:	8223      	strh	r3, [r4, #16]
    for (uint8_t i = 0U; i < 4U; i++) {
        sum += NTC_ReadADC(hntc);
 8001f2c:	9b01      	ldr	r3, [sp, #4]
    for (uint8_t i = 0U; i < 4U; i++) {
 8001f2e:	3e01      	subs	r6, #1
        sum += NTC_ReadADC(hntc);
 8001f30:	19db      	adds	r3, r3, r7
        HAL_Delay(2);
 8001f32:	2002      	movs	r0, #2
    for (uint8_t i = 0U; i < 4U; i++) {
 8001f34:	b2f6      	uxtb	r6, r6
        sum += NTC_ReadADC(hntc);
 8001f36:	9301      	str	r3, [sp, #4]
        HAL_Delay(2);
 8001f38:	f7fe fa92 	bl	8000460 <HAL_Delay>
    for (uint8_t i = 0U; i < 4U; i++) {
 8001f3c:	2e00      	cmp	r6, #0
 8001f3e:	d1ce      	bne.n	8001ede <NTC_ReadTemp_x10.constprop.0+0xe>
    }
    uint16_t adc_avg = (uint16_t)(sum >> 2);
 8001f40:	9b01      	ldr	r3, [sp, #4]
 8001f42:	089a      	lsrs	r2, r3, #2
 8001f44:	b291      	uxth	r1, r2
    g_ntc_adc_avg = adc_avg;

    /* ── 2. Fault detection ──────────────────────────────────────────── */
    if (adc_avg < 10U) {
        g_ntc_fault = 1;   /* open / floating */
 8001f46:	2301      	movs	r3, #1
    g_ntc_adc_avg = adc_avg;
 8001f48:	8261      	strh	r1, [r4, #18]
    if (adc_avg < 10U) {
 8001f4a:	2909      	cmp	r1, #9
 8001f4c:	d904      	bls.n	8001f58 <NTC_ReadTemp_x10.constprop.0+0x88>
        hntc->valid = 0;
        return hntc->last_temp_x10;
    }
    if (adc_avg > (NTC_ADC_RESOLUTION - 11U)) {
 8001f4e:	4b2e      	ldr	r3, [pc, #184]	@ (8002008 <NTC_ReadTemp_x10.constprop.0+0x138>)
 8001f50:	482e      	ldr	r0, [pc, #184]	@ (800200c <NTC_ReadTemp_x10.constprop.0+0x13c>)
 8001f52:	4299      	cmp	r1, r3
 8001f54:	d90d      	bls.n	8001f72 <NTC_ReadTemp_x10.constprop.0+0xa2>
        g_ntc_fault = 2;   /* shorted to Vcc */
 8001f56:	2302      	movs	r3, #2
 8001f58:	7123      	strb	r3, [r4, #4]
        hntc->valid = 0;
        return hntc->last_temp_x10;
 8001f5a:	231c      	movs	r3, #28
 8001f5c:	5ee8      	ldrsh	r0, [r5, r3]
        hntc->valid = 0;
 8001f5e:	77ae      	strb	r6, [r5, #30]
    hntc->last_temp_x10 = (int16_t)temp_x10;
    hntc->valid         = 1;
    g_ntc_temp_x10      = hntc->last_temp_x10;

    return hntc->last_temp_x10;
}
 8001f60:	b007      	add	sp, #28
 8001f62:	bdf0      	pop	{r4, r5, r6, r7, pc}
 8001f64:	6c3f      	ldr	r7, [r7, #64]	@ 0x40
    HAL_ADC_Stop(hntc->hadc);
 8001f66:	9800      	ldr	r0, [sp, #0]
    uint16_t val = (uint16_t)HAL_ADC_GetValue(hntc->hadc);
 8001f68:	b2bf      	uxth	r7, r7
    HAL_ADC_Stop(hntc->hadc);
 8001f6a:	f7ff fe73 	bl	8001c54 <HAL_ADC_Stop.isra.0>
    g_ntc_raw_adc = val;
 8001f6e:	8227      	strh	r7, [r4, #16]
    return val;
 8001f70:	e7dc      	b.n	8001f2c <NTC_ReadTemp_x10.constprop.0+0x5c>
        if (adc_avg >= s_ntc_lut[idx + 1U]) {
 8001f72:	8847      	ldrh	r7, [r0, #2]
 8001f74:	0033      	movs	r3, r6
 8001f76:	3601      	adds	r6, #1
 8001f78:	3002      	adds	r0, #2
 8001f7a:	b2f6      	uxtb	r6, r6
 8001f7c:	428f      	cmp	r7, r1
 8001f7e:	d904      	bls.n	8001f8a <NTC_ReadTemp_x10.constprop.0+0xba>
    for (; idx < (NTC_LUT_ENTRIES - 1U); idx++) {
 8001f80:	2e11      	cmp	r6, #17
 8001f82:	d1f6      	bne.n	8001f72 <NTC_ReadTemp_x10.constprop.0+0xa2>
        g_ntc_fault = 3;
 8001f84:	2303      	movs	r3, #3
 8001f86:	7123      	strb	r3, [r4, #4]
        idx = NTC_LUT_ENTRIES - 2U;
 8001f88:	330d      	adds	r3, #13
    int32_t t_lo_x10  = ((int32_t)NTC_LUT_TEMP_MIN
 8001f8a:	2632      	movs	r6, #50	@ 0x32
                         + (int32_t)idx        * (int32_t)NTC_LUT_TEMP_STEP) * 10;
 8001f8c:	1e59      	subs	r1, r3, #1
                         + (int32_t)(idx + 1U) * (int32_t)NTC_LUT_TEMP_STEP) * 10;
 8001f8e:	1c5f      	adds	r7, r3, #1
    int32_t t_lo_x10  = ((int32_t)NTC_LUT_TEMP_MIN
 8001f90:	434e      	muls	r6, r1
                         + (int32_t)(idx + 1U) * (int32_t)NTC_LUT_TEMP_STEP) * 10;
 8001f92:	b2ff      	uxtb	r7, r7
    int32_t adc_lo    = (int32_t)s_ntc_lut[idx];
 8001f94:	491d      	ldr	r1, [pc, #116]	@ (800200c <NTC_ReadTemp_x10.constprop.0+0x13c>)
    g_ntc_lut_idx = idx;
 8001f96:	7523      	strb	r3, [r4, #20]
    int32_t adc_hi    = (int32_t)s_ntc_lut[idx + 1U];
 8001f98:	0078      	lsls	r0, r7, #1
    int32_t adc_lo    = (int32_t)s_ntc_lut[idx];
 8001f9a:	005b      	lsls	r3, r3, #1
 8001f9c:	5a5b      	ldrh	r3, [r3, r1]
    int32_t adc_hi    = (int32_t)s_ntc_lut[idx + 1U];
 8001f9e:	5a40      	ldrh	r0, [r0, r1]
    int32_t adc_range = adc_lo - adc_hi;
 8001fa0:	1a19      	subs	r1, r3, r0
    if (adc_range == 0) {
 8001fa2:	4283      	cmp	r3, r0
 8001fa4:	d105      	bne.n	8001fb2 <NTC_ReadTemp_x10.constprop.0+0xe2>
        hntc->last_temp_x10 = (int16_t)t_lo_x10;
 8001fa6:	b230      	sxth	r0, r6
    hntc->valid         = 1;
 8001fa8:	2301      	movs	r3, #1
    hntc->last_temp_x10 = (int16_t)temp_x10;
 8001faa:	83a8      	strh	r0, [r5, #28]
    hntc->valid         = 1;
 8001fac:	77ab      	strb	r3, [r5, #30]
    g_ntc_temp_x10      = hntc->last_temp_x10;
 8001fae:	82e0      	strh	r0, [r4, #22]
    return hntc->last_temp_x10;
 8001fb0:	e7d6      	b.n	8001f60 <NTC_ReadTemp_x10.constprop.0+0x90>
    int32_t frac = ((adc_lo - (int32_t)adc_avg) * 100) / adc_range;
 8001fb2:	2064      	movs	r0, #100	@ 0x64
 8001fb4:	b292      	uxth	r2, r2
 8001fb6:	1a9b      	subs	r3, r3, r2
 8001fb8:	4358      	muls	r0, r3
 8001fba:	f003 f903 	bl	80051c4 <__divsi3>
    if (frac < 0 || frac > 100) {
 8001fbe:	2864      	cmp	r0, #100	@ 0x64
 8001fc0:	d810      	bhi.n	8001fe4 <NTC_ReadTemp_x10.constprop.0+0x114>
    if (frac > 100) { frac = 100; }
 8001fc2:	2864      	cmp	r0, #100	@ 0x64
 8001fc4:	dd00      	ble.n	8001fc8 <NTC_ReadTemp_x10.constprop.0+0xf8>
 8001fc6:	2064      	movs	r0, #100	@ 0x64
                         + (int32_t)(idx + 1U) * (int32_t)NTC_LUT_TEMP_STEP) * 10;
 8001fc8:	2205      	movs	r2, #5
    int32_t t_hi_x10  = ((int32_t)NTC_LUT_TEMP_MIN
 8001fca:	230a      	movs	r3, #10
                         + (int32_t)(idx + 1U) * (int32_t)NTC_LUT_TEMP_STEP) * 10;
 8001fcc:	437a      	muls	r2, r7
 8001fce:	3a05      	subs	r2, #5
    int32_t t_hi_x10  = ((int32_t)NTC_LUT_TEMP_MIN
 8001fd0:	4353      	muls	r3, r2
    int32_t temp_x10 = t_lo_x10 + ((t_hi_x10 - t_lo_x10) * frac) / 100;
 8001fd2:	1b9b      	subs	r3, r3, r6
    g_ntc_frac = frac;
 8001fd4:	61a0      	str	r0, [r4, #24]
    int32_t temp_x10 = t_lo_x10 + ((t_hi_x10 - t_lo_x10) * frac) / 100;
 8001fd6:	2164      	movs	r1, #100	@ 0x64
 8001fd8:	4358      	muls	r0, r3
 8001fda:	f003 f8f3 	bl	80051c4 <__divsi3>
 8001fde:	1980      	adds	r0, r0, r6
    hntc->last_temp_x10 = (int16_t)temp_x10;
 8001fe0:	b200      	sxth	r0, r0
 8001fe2:	e7e1      	b.n	8001fa8 <NTC_ReadTemp_x10.constprop.0+0xd8>
        g_ntc_fault = (g_ntc_fault == 0) ? 4U : g_ntc_fault;
 8001fe4:	7922      	ldrb	r2, [r4, #4]
 8001fe6:	2304      	movs	r3, #4
 8001fe8:	2a00      	cmp	r2, #0
 8001fea:	d001      	beq.n	8001ff0 <NTC_ReadTemp_x10.constprop.0+0x120>
 8001fec:	7923      	ldrb	r3, [r4, #4]
 8001fee:	b2db      	uxtb	r3, r3
 8001ff0:	7123      	strb	r3, [r4, #4]
    if (frac <   0) { frac =   0; }
 8001ff2:	2800      	cmp	r0, #0
 8001ff4:	dae5      	bge.n	8001fc2 <NTC_ReadTemp_x10.constprop.0+0xf2>
 8001ff6:	2000      	movs	r0, #0
 8001ff8:	e7e6      	b.n	8001fc8 <NTC_ReadTemp_x10.constprop.0+0xf8>
 8001ffa:	46c0      	nop			@ (mov r8, r8)
 8001ffc:	20000180 	.word	0x20000180
 8002000:	2000053c 	.word	0x2000053c
 8002004:	0000270f 	.word	0x0000270f
 8002008:	00000ff5 	.word	0x00000ff5
 800200c:	080073a4 	.word	0x080073a4

08002010 <TDS_ReadPPM.constprop.0>:
    htds->last_ppm = 0;
    htds->valid    = 0;
    HAL_GPIO_WritePin(TDS_DRIVE_GPIO_Port, TDS_DRIVE_Pin, GPIO_PIN_RESET);
}

uint16_t TDS_ReadPPM(TDS_Handle_t *htds, int16_t temp_x10)
 8002010:	b5f0      	push	{r4, r5, r6, r7, lr}
    GPIOx->BSRR = (uint32_t)GPIO_Pin;
 8002012:	2690      	movs	r6, #144	@ 0x90
 8002014:	240a      	movs	r4, #10
 8002016:	b087      	sub	sp, #28
 8002018:	9001      	str	r0, [sp, #4]
 800201a:	05f6      	lsls	r6, r6, #23
 800201c:	2340      	movs	r3, #64	@ 0x40
 800201e:	001d      	movs	r5, r3
{
    /* AC-drive: 10 toggle cycles before sample */
    for (uint8_t i = 0; i < 10; i++) {
        HAL_GPIO_WritePin(TDS_DRIVE_GPIO_Port, TDS_DRIVE_Pin, GPIO_PIN_SET);
        HAL_Delay(1);
 8002020:	2001      	movs	r0, #1
 8002022:	61b3      	str	r3, [r6, #24]
    for (uint8_t i = 0; i < 10; i++) {
 8002024:	3c01      	subs	r4, #1
        HAL_Delay(1);
 8002026:	f7fe fa1b 	bl	8000460 <HAL_Delay>
    for (uint8_t i = 0; i < 10; i++) {
 800202a:	b2e4      	uxtb	r4, r4
        HAL_GPIO_WritePin(TDS_DRIVE_GPIO_Port, TDS_DRIVE_Pin, GPIO_PIN_RESET);
        HAL_Delay(1);
 800202c:	2001      	movs	r0, #1
    GPIOx->BRR = (uint32_t)GPIO_Pin;
 800202e:	62b5      	str	r5, [r6, #40]	@ 0x28
 8002030:	f7fe fa16 	bl	8000460 <HAL_Delay>
    for (uint8_t i = 0; i < 10; i++) {
 8002034:	2c00      	cmp	r4, #0
 8002036:	d1f1      	bne.n	800201c <TDS_ReadPPM.constprop.0+0xc>
    }

    HAL_GPIO_WritePin(TDS_DRIVE_GPIO_Port, TDS_DRIVE_Pin, GPIO_PIN_SET);
    HAL_Delay(1);
 8002038:	2001      	movs	r0, #1
    GPIOx->BSRR = (uint32_t)GPIO_Pin;
 800203a:	61b5      	str	r5, [r6, #24]
 800203c:	f7fe fa10 	bl	8000460 <HAL_Delay>
    sConfig.Channel      = ADC_CHANNEL_2;
 8002040:	2302      	movs	r3, #2
 8002042:	9303      	str	r3, [sp, #12]
    sConfig.Rank         = ADC_RANK_CHANNEL_NUMBER;
 8002044:	2380      	movs	r3, #128	@ 0x80
 8002046:	015b      	lsls	r3, r3, #5
 8002048:	9304      	str	r3, [sp, #16]
    sConfig.SamplingTime = ADC_SAMPLETIME_71CYCLES_5;
 800204a:	2306      	movs	r3, #6
    htds->hadc->Instance->CHSELR = 0U;
 800204c:	4a34      	ldr	r2, [pc, #208]	@ (8002120 <TDS_ReadPPM.constprop.0+0x110>)
    HAL_ADC_ConfigChannel(htds->hadc, &sConfig);
 800204e:	a903      	add	r1, sp, #12
    htds->hadc->Instance->CHSELR = 0U;
 8002050:	6915      	ldr	r5, [r2, #16]
    sConfig.SamplingTime = ADC_SAMPLETIME_71CYCLES_5;
 8002052:	9305      	str	r3, [sp, #20]
    htds->hadc->Instance->CHSELR = 0U;
 8002054:	682f      	ldr	r7, [r5, #0]
    HAL_ADC_ConfigChannel(htds->hadc, &sConfig);
 8002056:	0028      	movs	r0, r5
    htds->hadc->Instance->CHSELR = 0U;
 8002058:	62bc      	str	r4, [r7, #40]	@ 0x28
 800205a:	9200      	str	r2, [sp, #0]
    HAL_ADC_ConfigChannel(htds->hadc, &sConfig);
 800205c:	f7fe fa66 	bl	800052c <HAL_ADC_ConfigChannel>
    HAL_ADC_Start(htds->hadc);
 8002060:	0028      	movs	r0, r5
 8002062:	f7ff fe5b 	bl	8001d1c <HAL_ADC_Start.isra.0>
    HAL_ADC_PollForConversion(htds->hadc, 100);
 8002066:	2164      	movs	r1, #100	@ 0x64
 8002068:	0028      	movs	r0, r5
 800206a:	f7fe fa03 	bl	8000474 <HAL_ADC_PollForConversion>
    HAL_ADC_Stop(htds->hadc);
 800206e:	0028      	movs	r0, r5
 8002070:	6c3c      	ldr	r4, [r7, #64]	@ 0x40
 8002072:	f7ff fdef 	bl	8001c54 <HAL_ADC_Stop.isra.0>
    GPIOx->BRR = (uint32_t)GPIO_Pin;
 8002076:	2340      	movs	r3, #64	@ 0x40
    int32_t temp_c10 = (int32_t)temp_x10;
    int32_t coeff_x1000 = 1000 + (temp_c10 - 250) * 2; /* = 1000*(1 + 0.02*(T-25)) */
    if (coeff_x1000 <= 0) coeff_x1000 = 1;

    /* Compensated voltage in mV × 1000 / coeff → keep in mV */
    uint32_t comp_mv = (voltage_mv * 1000U) / (uint32_t)coeff_x1000;
 8002078:	20fa      	movs	r0, #250	@ 0xfa
 800207a:	62b3      	str	r3, [r6, #40]	@ 0x28
    uint32_t voltage_mv = (uint32_t)adc_raw * TDS_ADC_VREF_MV / TDS_ADC_RESOLUTION;
 800207c:	b2a3      	uxth	r3, r4
 800207e:	4c29      	ldr	r4, [pc, #164]	@ (8002124 <TDS_ReadPPM.constprop.0+0x114>)
    int32_t coeff_x1000 = 1000 + (temp_c10 - 250) * 2; /* = 1000*(1 + 0.02*(T-25)) */
 8002080:	9901      	ldr	r1, [sp, #4]
    uint32_t voltage_mv = (uint32_t)adc_raw * TDS_ADC_VREF_MV / TDS_ADC_RESOLUTION;
 8002082:	435c      	muls	r4, r3
    uint32_t comp_mv = (voltage_mv * 1000U) / (uint32_t)coeff_x1000;
 8002084:	0080      	lsls	r0, r0, #2
    uint32_t voltage_mv = (uint32_t)adc_raw * TDS_ADC_VREF_MV / TDS_ADC_RESOLUTION;
 8002086:	0b24      	lsrs	r4, r4, #12
    int32_t coeff_x1000 = 1000 + (temp_c10 - 250) * 2; /* = 1000*(1 + 0.02*(T-25)) */
 8002088:	31fa      	adds	r1, #250	@ 0xfa
    uint32_t comp_mv = (voltage_mv * 1000U) / (uint32_t)coeff_x1000;
 800208a:	4360      	muls	r0, r4
    int32_t coeff_x1000 = 1000 + (temp_c10 - 250) * 2; /* = 1000*(1 + 0.02*(T-25)) */
 800208c:	0049      	lsls	r1, r1, #1
    if (coeff_x1000 <= 0) coeff_x1000 = 1;
 800208e:	2900      	cmp	r1, #0
 8002090:	dc00      	bgt.n	8002094 <TDS_ReadPPM.constprop.0+0x84>
 8002092:	2101      	movs	r1, #1
    uint32_t comp_mv = (voltage_mv * 1000U) / (uint32_t)coeff_x1000;
 8002094:	f003 f80c 	bl	80050b0 <__udivsi3>
     * Scale everything ×1000 to keep integer, then divide at end.
     *
     * Use float soft-fp here — this does NOT pull in printf/scanf/sscanf,
     * only the soft-float multiply/add runtime (~300 B, already present).
     */
    float v   = (float)comp_mv / 1000.0f;
 8002098:	f004 fa02 	bl	80064a0 <__aeabi_ui2f>
 800209c:	4922      	ldr	r1, [pc, #136]	@ (8002128 <TDS_ReadPPM.constprop.0+0x118>)
 800209e:	f003 fc03 	bl	80058a8 <__aeabi_fdiv>
    float ppm = (133.42f * v * v * v
 80020a2:	4922      	ldr	r1, [pc, #136]	@ (800212c <TDS_ReadPPM.constprop.0+0x11c>)
    float v   = (float)comp_mv / 1000.0f;
 80020a4:	1c04      	adds	r4, r0, #0
    float ppm = (133.42f * v * v * v
 80020a6:	f003 fdcd 	bl	8005c44 <__aeabi_fmul>
 80020aa:	1c21      	adds	r1, r4, #0
 80020ac:	f003 fdca 	bl	8005c44 <__aeabi_fmul>
 80020b0:	1c21      	adds	r1, r4, #0
 80020b2:	f003 fdc7 	bl	8005c44 <__aeabi_fmul>
               - 255.86f * v * v
 80020b6:	491e      	ldr	r1, [pc, #120]	@ (8002130 <TDS_ReadPPM.constprop.0+0x120>)
    float ppm = (133.42f * v * v * v
 80020b8:	1c05      	adds	r5, r0, #0
               - 255.86f * v * v
 80020ba:	1c20      	adds	r0, r4, #0
 80020bc:	f003 fdc2 	bl	8005c44 <__aeabi_fmul>
 80020c0:	1c21      	adds	r1, r4, #0
 80020c2:	f003 fdbf 	bl	8005c44 <__aeabi_fmul>
 80020c6:	1c01      	adds	r1, r0, #0
 80020c8:	1c28      	adds	r0, r5, #0
 80020ca:	f003 ff15 	bl	8005ef8 <__aeabi_fsub>
               + 857.39f * v) * 0.5f;
 80020ce:	4919      	ldr	r1, [pc, #100]	@ (8002134 <TDS_ReadPPM.constprop.0+0x124>)
               - 255.86f * v * v
 80020d0:	1c05      	adds	r5, r0, #0
               + 857.39f * v) * 0.5f;
 80020d2:	1c20      	adds	r0, r4, #0
 80020d4:	f003 fdb6 	bl	8005c44 <__aeabi_fmul>
 80020d8:	1c01      	adds	r1, r0, #0
 80020da:	1c28      	adds	r0, r5, #0
 80020dc:	f003 f9f2 	bl	80054c4 <__aeabi_fadd>
    float ppm = (133.42f * v * v * v
 80020e0:	21fc      	movs	r1, #252	@ 0xfc
 80020e2:	0589      	lsls	r1, r1, #22
 80020e4:	f003 fdae 	bl	8005c44 <__aeabi_fmul>

    if (ppm < 0.0f) ppm = 0.0f;
 80020e8:	2100      	movs	r1, #0
    float ppm = (133.42f * v * v * v
 80020ea:	1c04      	adds	r4, r0, #0
    if (ppm < 0.0f) ppm = 0.0f;
 80020ec:	f003 f968 	bl	80053c0 <__aeabi_fcmplt>
 80020f0:	2800      	cmp	r0, #0
 80020f2:	d110      	bne.n	8002116 <TDS_ReadPPM.constprop.0+0x106>
    if (ppm > 65535.0f) ppm = 65535.0f;
 80020f4:	4910      	ldr	r1, [pc, #64]	@ (8002138 <TDS_ReadPPM.constprop.0+0x128>)
 80020f6:	1c20      	adds	r0, r4, #0
 80020f8:	f003 f976 	bl	80053e8 <__aeabi_fcmpgt>
 80020fc:	2800      	cmp	r0, #0
 80020fe:	d10c      	bne.n	800211a <TDS_ReadPPM.constprop.0+0x10a>

    htds->last_ppm = (uint16_t)ppm;
 8002100:	1c20      	adds	r0, r4, #0
 8002102:	f003 f9a9 	bl	8005458 <__aeabi_f2uiz>
 8002106:	9b00      	ldr	r3, [sp, #0]
 8002108:	b280      	uxth	r0, r0
 800210a:	8298      	strh	r0, [r3, #20]
    htds->valid    = 1;
 800210c:	2301      	movs	r3, #1
 800210e:	9a00      	ldr	r2, [sp, #0]
 8002110:	7593      	strb	r3, [r2, #22]
    return htds->last_ppm;
}
 8002112:	b007      	add	sp, #28
 8002114:	bdf0      	pop	{r4, r5, r6, r7, pc}
    if (ppm < 0.0f) ppm = 0.0f;
 8002116:	2400      	movs	r4, #0
 8002118:	e7f2      	b.n	8002100 <TDS_ReadPPM.constprop.0+0xf0>
    if (ppm > 65535.0f) ppm = 65535.0f;
 800211a:	4c07      	ldr	r4, [pc, #28]	@ (8002138 <TDS_ReadPPM.constprop.0+0x128>)
 800211c:	e7f0      	b.n	8002100 <TDS_ReadPPM.constprop.0+0xf0>
 800211e:	46c0      	nop			@ (mov r8, r8)
 8002120:	2000053c 	.word	0x2000053c
 8002124:	00000ce4 	.word	0x00000ce4
 8002128:	447a0000 	.word	0x447a0000
 800212c:	43056b85 	.word	0x43056b85
 8002130:	437fdc29 	.word	0x437fdc29
 8002134:	445658f6 	.word	0x445658f6
 8002138:	477fff00 	.word	0x477fff00

0800213c <HAL_TIM_PWM_PulseFinishedHalfCpltCallback.isra.0>:
}
 800213c:	4770      	bx	lr

0800213e <TIM_DMADelayPulseHalfCplt>:
  htim->Channel = HAL_TIM_ACTIVE_CHANNEL_CLEARED;
 800213e:	2200      	movs	r2, #0
 8002140:	6a43      	ldr	r3, [r0, #36]	@ 0x24
 8002142:	771a      	strb	r2, [r3, #28]
}
 8002144:	4770      	bx	lr

08002146 <Flash_WriteBytes.isra.0>:
    HAL_StatusTypeDef s = HAL_FLASHEx_Erase(&erase, &page_err);
    HAL_FLASH_Lock();
    return s;
}

static HAL_StatusTypeDef Flash_WriteBytes(uint32_t addr,
 8002146:	b5f0      	push	{r4, r5, r6, r7, lr}
 8002148:	b087      	sub	sp, #28
 800214a:	000f      	movs	r7, r1
 800214c:	9004      	str	r0, [sp, #16]
 800214e:	9203      	str	r2, [sp, #12]
                                           const uint8_t *data, uint32_t len)
{
    HAL_FLASH_Unlock();
    HAL_StatusTypeDef s = HAL_OK;
    for (uint32_t i = 0; i < len; i += 2) {
 8002150:	2500      	movs	r5, #0
    HAL_FLASH_Unlock();
 8002152:	f7ff fd6f 	bl	8001c34 <HAL_FLASH_Unlock.isra.0>
        uint16_t hw = (uint16_t)data[i];
 8002156:	783b      	ldrb	r3, [r7, #0]
        if (i + 1 < len) hw |= (uint16_t)((uint16_t)data[i + 1] << 8);
 8002158:	9a03      	ldr	r2, [sp, #12]
        uint16_t hw = (uint16_t)data[i];
 800215a:	9301      	str	r3, [sp, #4]
        if (i + 1 < len) hw |= (uint16_t)((uint16_t)data[i + 1] << 8);
 800215c:	1c6b      	adds	r3, r5, #1
 800215e:	429a      	cmp	r2, r3
 8002160:	d904      	bls.n	800216c <Flash_WriteBytes.isra.0+0x26>
 8002162:	787b      	ldrb	r3, [r7, #1]
 8002164:	9a01      	ldr	r2, [sp, #4]
 8002166:	021b      	lsls	r3, r3, #8
 8002168:	431a      	orrs	r2, r3
 800216a:	9201      	str	r2, [sp, #4]
  __HAL_LOCK(&pFlash);
 800216c:	4b18      	ldr	r3, [pc, #96]	@ (80021d0 <Flash_WriteBytes.isra.0+0x8a>)
 800216e:	4e19      	ldr	r6, [pc, #100]	@ (80021d4 <Flash_WriteBytes.isra.0+0x8e>)
 8002170:	9305      	str	r3, [sp, #20]
 8002172:	7ff3      	ldrb	r3, [r6, #31]
 8002174:	4c18      	ldr	r4, [pc, #96]	@ (80021d8 <Flash_WriteBytes.isra.0+0x92>)
 8002176:	2b01      	cmp	r3, #1
 8002178:	d01c      	beq.n	80021b4 <Flash_WriteBytes.isra.0+0x6e>
 800217a:	2301      	movs	r3, #1
 800217c:	77f3      	strb	r3, [r6, #31]
    status = FLASH_WaitForLastOperation(FLASH_TIMEOUT_VALUE);
 800217e:	f7ff f98f 	bl	80014a0 <FLASH_WaitForLastOperation.constprop.0>
 8002182:	9002      	str	r0, [sp, #8]
  if(status == HAL_OK)
 8002184:	2800      	cmp	r0, #0
 8002186:	d113      	bne.n	80021b0 <Flash_WriteBytes.isra.0+0x6a>
    SET_BIT(FLASH->CR, FLASH_CR_PG);
 8002188:	2201      	movs	r2, #1
  pFlash.ErrorCode = HAL_FLASH_ERROR_NONE;
 800218a:	9905      	ldr	r1, [sp, #20]
 800218c:	6248      	str	r0, [r1, #36]	@ 0x24
    SET_BIT(FLASH->CR, FLASH_CR_PG);
 800218e:	6923      	ldr	r3, [r4, #16]
  *(__IO uint16_t*)Address = Data;
 8002190:	9904      	ldr	r1, [sp, #16]
    SET_BIT(FLASH->CR, FLASH_CR_PG);
 8002192:	4313      	orrs	r3, r2
 8002194:	6123      	str	r3, [r4, #16]
  *(__IO uint16_t*)Address = Data;
 8002196:	194b      	adds	r3, r1, r5
 8002198:	9901      	ldr	r1, [sp, #4]
 800219a:	8019      	strh	r1, [r3, #0]
        status = FLASH_WaitForLastOperation(FLASH_TIMEOUT_VALUE);
 800219c:	f7ff f980 	bl	80014a0 <FLASH_WaitForLastOperation.constprop.0>
        CLEAR_BIT(FLASH->CR, FLASH_CR_PG);
 80021a0:	2201      	movs	r2, #1
 80021a2:	6923      	ldr	r3, [r4, #16]
 80021a4:	4393      	bics	r3, r2
 80021a6:	6123      	str	r3, [r4, #16]
      if (status != HAL_OK)
 80021a8:	2800      	cmp	r0, #0
 80021aa:	d009      	beq.n	80021c0 <Flash_WriteBytes.isra.0+0x7a>
  __HAL_UNLOCK(&pFlash);
 80021ac:	9b02      	ldr	r3, [sp, #8]
 80021ae:	e000      	b.n	80021b2 <Flash_WriteBytes.isra.0+0x6c>
 80021b0:	2300      	movs	r3, #0
 80021b2:	77f3      	strb	r3, [r6, #31]
  SET_BIT(FLASH->CR, FLASH_CR_LOCK);
 80021b4:	2380      	movs	r3, #128	@ 0x80
 80021b6:	6922      	ldr	r2, [r4, #16]
 80021b8:	4313      	orrs	r3, r2
 80021ba:	6123      	str	r3, [r4, #16]
        s = HAL_FLASH_Program(FLASH_TYPEPROGRAM_HALFWORD, addr + i, hw);
        if (s != HAL_OK) break;
    }
    HAL_FLASH_Lock();
    return s;
}
 80021bc:	b007      	add	sp, #28
 80021be:	bdf0      	pop	{r4, r5, r6, r7, pc}
    for (uint32_t i = 0; i < len; i += 2) {
 80021c0:	9b03      	ldr	r3, [sp, #12]
 80021c2:	3502      	adds	r5, #2
  __HAL_UNLOCK(&pFlash);
 80021c4:	77f0      	strb	r0, [r6, #31]
 80021c6:	3702      	adds	r7, #2
 80021c8:	42ab      	cmp	r3, r5
 80021ca:	d8c4      	bhi.n	8002156 <Flash_WriteBytes.isra.0+0x10>
 80021cc:	e7f2      	b.n	80021b4 <Flash_WriteBytes.isra.0+0x6e>
 80021ce:	46c0      	nop			@ (mov r8, r8)
 80021d0:	20000100 	.word	0x20000100
 80021d4:	20000101 	.word	0x20000101
 80021d8:	40022000 	.word	0x40022000

080021dc <Flash_ErasePage.isra.0>:
static HAL_StatusTypeDef Flash_ErasePage(uint32_t page_addr)
 80021dc:	b5f8      	push	{r3, r4, r5, r6, r7, lr}
 80021de:	0006      	movs	r6, r0
    HAL_FLASH_Unlock();
 80021e0:	f7ff fd28 	bl	8001c34 <HAL_FLASH_Unlock.isra.0>
{
  HAL_StatusTypeDef status = HAL_ERROR;
  uint32_t address = 0U;

  /* Process Locked */
  __HAL_LOCK(&pFlash);
 80021e4:	4b11      	ldr	r3, [pc, #68]	@ (800222c <Flash_ErasePage.isra.0+0x50>)
 80021e6:	4d12      	ldr	r5, [pc, #72]	@ (8002230 <Flash_ErasePage.isra.0+0x54>)
 80021e8:	7fda      	ldrb	r2, [r3, #31]
 80021ea:	4c12      	ldr	r4, [pc, #72]	@ (8002234 <Flash_ErasePage.isra.0+0x58>)
 80021ec:	2a01      	cmp	r2, #1
 80021ee:	d017      	beq.n	8002220 <Flash_ErasePage.isra.0+0x44>
 80021f0:	2201      	movs	r2, #1
 80021f2:	77da      	strb	r2, [r3, #31]
    assert_param(IS_FLASH_PROGRAM_ADDRESS(pEraseInit->PageAddress));
    assert_param(IS_FLASH_NB_PAGES(pEraseInit->PageAddress, pEraseInit->NbPages));
    
      /* Page Erase requested on address located on bank1 */
      /* Wait for last operation to be completed */
      if (FLASH_WaitForLastOperation((uint32_t)FLASH_TIMEOUT_VALUE) == HAL_OK)
 80021f4:	f7ff f954 	bl	80014a0 <FLASH_WaitForLastOperation.constprop.0>
 80021f8:	2800      	cmp	r0, #0
 80021fa:	d10e      	bne.n	800221a <Flash_ErasePage.isra.0+0x3e>
{
  /* Clean the error context */
  pFlash.ErrorCode = HAL_FLASH_ERROR_NONE;

    /* Proceed to erase the page */
    SET_BIT(FLASH->CR, FLASH_CR_PER);
 80021fc:	2702      	movs	r7, #2
  pFlash.ErrorCode = HAL_FLASH_ERROR_NONE;
 80021fe:	6268      	str	r0, [r5, #36]	@ 0x24
    SET_BIT(FLASH->CR, FLASH_CR_PER);
 8002200:	6923      	ldr	r3, [r4, #16]
 8002202:	433b      	orrs	r3, r7
 8002204:	6123      	str	r3, [r4, #16]
    WRITE_REG(FLASH->AR, PageAddress);
    SET_BIT(FLASH->CR, FLASH_CR_STRT);
 8002206:	2340      	movs	r3, #64	@ 0x40
    WRITE_REG(FLASH->AR, PageAddress);
 8002208:	6166      	str	r6, [r4, #20]
    SET_BIT(FLASH->CR, FLASH_CR_STRT);
 800220a:	6922      	ldr	r2, [r4, #16]
 800220c:	4313      	orrs	r3, r2
 800220e:	6123      	str	r3, [r4, #16]
          status = FLASH_WaitForLastOperation((uint32_t)FLASH_TIMEOUT_VALUE);
 8002210:	f7ff f946 	bl	80014a0 <FLASH_WaitForLastOperation.constprop.0>
          CLEAR_BIT(FLASH->CR, FLASH_CR_PER);
 8002214:	6923      	ldr	r3, [r4, #16]
 8002216:	43bb      	bics	r3, r7
 8002218:	6123      	str	r3, [r4, #16]
  __HAL_UNLOCK(&pFlash);
 800221a:	2300      	movs	r3, #0
 800221c:	3501      	adds	r5, #1
 800221e:	77eb      	strb	r3, [r5, #31]
  SET_BIT(FLASH->CR, FLASH_CR_LOCK);
 8002220:	2380      	movs	r3, #128	@ 0x80
 8002222:	6922      	ldr	r2, [r4, #16]
 8002224:	4313      	orrs	r3, r2
 8002226:	6123      	str	r3, [r4, #16]
}
 8002228:	bdf8      	pop	{r3, r4, r5, r6, r7, pc}
 800222a:	46c0      	nop			@ (mov r8, r8)
 800222c:	20000101 	.word	0x20000101
 8002230:	20000100 	.word	0x20000100
 8002234:	40022000 	.word	0x40022000

08002238 <Storage_FlushDrinkLog.constprop.0>:
    }
    log->events[log->count++] = *ev;
    log->dirty = 1;
}

void Storage_FlushDrinkLog(DrinkLog_t *log)
 8002238:	b570      	push	{r4, r5, r6, lr}
{
    if (!log->dirty) return;
 800223a:	24de      	movs	r4, #222	@ 0xde
 800223c:	4d07      	ldr	r5, [pc, #28]	@ (800225c <Storage_FlushDrinkLog.constprop.0+0x24>)
 800223e:	34ff      	adds	r4, #255	@ 0xff
 8002240:	5d2b      	ldrb	r3, [r5, r4]
 8002242:	2b00      	cmp	r3, #0
 8002244:	d009      	beq.n	800225a <Storage_FlushDrinkLog.constprop.0+0x22>
    Flash_ErasePage(STORAGE_LOG_A_ADDR);
 8002246:	4806      	ldr	r0, [pc, #24]	@ (8002260 <Storage_FlushDrinkLog.constprop.0+0x28>)
 8002248:	f7ff ffc8 	bl	80021dc <Flash_ErasePage.isra.0>
    Flash_WriteBytes(STORAGE_LOG_A_ADDR, (const uint8_t *)log,
 800224c:	22f4      	movs	r2, #244	@ 0xf4
 800224e:	4905      	ldr	r1, [pc, #20]	@ (8002264 <Storage_FlushDrinkLog.constprop.0+0x2c>)
 8002250:	4803      	ldr	r0, [pc, #12]	@ (8002260 <Storage_FlushDrinkLog.constprop.0+0x28>)
 8002252:	f7ff ff78 	bl	8002146 <Flash_WriteBytes.isra.0>
                     sizeof(DrinkLog_t));
    log->dirty = 0;
 8002256:	2300      	movs	r3, #0
 8002258:	552b      	strb	r3, [r5, r4]
}
 800225a:	bd70      	pop	{r4, r5, r6, pc}
 800225c:	2000053c 	.word	0x2000053c
 8002260:	08007400 	.word	0x08007400
 8002264:	20000628 	.word	0x20000628

08002268 <BLE_BuildPacket>:
}

/* ─── Build a complete framed packet ─────────────────────────────────────── */
uint8_t BLE_BuildPacket(uint8_t *buf, uint8_t cmd,
                         const uint8_t *payload, uint8_t len)
{
 8002268:	b5f8      	push	{r3, r4, r5, r6, r7, lr}
 800226a:	001c      	movs	r4, r3
 800226c:	0016      	movs	r6, r2
    buf[0] = BLE_SOF;
 800226e:	23aa      	movs	r3, #170	@ 0xaa
    buf[1] = cmd;
 8002270:	7041      	strb	r1, [r0, #1]
    buf[0] = BLE_SOF;
 8002272:	7003      	strb	r3, [r0, #0]
{
 8002274:	0005      	movs	r5, r0
 8002276:	000f      	movs	r7, r1
    buf[2] = len;
    memcpy(&buf[3], payload, len);        /* no-op when len=0 */
 8002278:	0022      	movs	r2, r4
    buf[2] = len;
 800227a:	7084      	strb	r4, [r0, #2]
    memcpy(&buf[3], payload, len);        /* no-op when len=0 */
 800227c:	0031      	movs	r1, r6
 800227e:	3003      	adds	r0, #3
 8002280:	f005 f84c 	bl	800731c <memcpy>
    /* calc_chk is safe: when len=0 the loop body doesn't run */
    buf[3U + len] = calc_chk(cmd, len, payload ? payload : buf /* dummy */);
 8002284:	0032      	movs	r2, r6
 8002286:	1ce3      	adds	r3, r4, #3
 8002288:	18eb      	adds	r3, r5, r3
    uint8_t chk = cmd ^ len;
 800228a:	4067      	eors	r7, r4
    for (uint8_t i = 0; i < len; i++) chk ^= payload[i];
 800228c:	1930      	adds	r0, r6, r4
 800228e:	4282      	cmp	r2, r0
 8002290:	d106      	bne.n	80022a0 <BLE_BuildPacket+0x38>
    buf[3U + len] = calc_chk(cmd, len, payload ? payload : buf /* dummy */);
 8002292:	701f      	strb	r7, [r3, #0]
    buf[4U + len] = BLE_EOF;
 8002294:	2355      	movs	r3, #85	@ 0x55
 8002296:	192d      	adds	r5, r5, r4
    return (uint8_t)(5U + len);
 8002298:	3405      	adds	r4, #5
    buf[4U + len] = BLE_EOF;
 800229a:	712b      	strb	r3, [r5, #4]
    return (uint8_t)(5U + len);
 800229c:	b2e0      	uxtb	r0, r4
}
 800229e:	bdf8      	pop	{r3, r4, r5, r6, r7, pc}
    for (uint8_t i = 0; i < len; i++) chk ^= payload[i];
 80022a0:	7816      	ldrb	r6, [r2, #0]
 80022a2:	3201      	adds	r2, #1
 80022a4:	4077      	eors	r7, r6
 80022a6:	e7f2      	b.n	800228e <BLE_BuildPacket+0x26>

080022a8 <App_SendACK.constprop.0>:
void App_SendACK(AppContext_t *app, uint8_t cmd_id, uint8_t success, uint8_t err_code)
 80022a8:	b500      	push	{lr}
 80022aa:	b089      	sub	sp, #36	@ 0x24
/* ─── Convenience builders ───────────────────────────────────────────────── */

uint8_t BLE_BuildACK(uint8_t *buf, uint8_t in_response_to,
                      uint8_t success, uint8_t error_code)
{
    uint8_t p[3] = { in_response_to, success, error_code };
 80022ac:	466b      	mov	r3, sp
 80022ae:	7018      	strb	r0, [r3, #0]
 80022b0:	7059      	strb	r1, [r3, #1]
 80022b2:	709a      	strb	r2, [r3, #2]
    return BLE_BuildPacket(buf, BLE_RSP_ACK, p, 3);
 80022b4:	2180      	movs	r1, #128	@ 0x80
 80022b6:	2303      	movs	r3, #3
 80022b8:	466a      	mov	r2, sp
 80022ba:	a801      	add	r0, sp, #4
 80022bc:	f7ff ffd4 	bl	8002268 <BLE_BuildPacket>
 80022c0:	0001      	movs	r1, r0

HAL_StatusTypeDef BLE_SendPacket(BLE_Handle_t *hble,
                                  const uint8_t *buf, uint8_t len)
{
    BLE_TxRaw(hble, buf, len);
 80022c2:	a801      	add	r0, sp, #4
 80022c4:	f7fe fd3c 	bl	8000d40 <BLE_TxRaw.constprop.0>
}
 80022c8:	b009      	add	sp, #36	@ 0x24
 80022ca:	bd00      	pop	{pc}

080022cc <App_Cmd_FactoryReset.constprop.0>:
{
    App_SendACK(app, BLE_CMD_SOFT_RESET, 1, BLE_ERR_OK);
    HAL_Delay(200); HAL_NVIC_SystemReset();
}

void App_Cmd_FactoryReset(AppContext_t *app)
 80022cc:	200a      	movs	r0, #10
 80022ce:	b510      	push	{r4, lr}
 80022d0:	f7fe fe34 	bl	8000f3c <Device_PostEvent.part.0.constprop.0>
{
    Device_PostEvent(&app->dev, EVT_CMD_FACTORY_RESET);
    WS2812B_SetPattern(LED_PATTERN_FACTORY_RESET_WARN);
 80022d4:	3004      	adds	r0, #4
 80022d6:	f7fe f89b 	bl	8000410 <WS2812B_SetPattern>
    Buzzer_Play(BUZZER_FACTORY_RESET);
 80022da:	3806      	subs	r0, #6
 80022dc:	f7ff f960 	bl	80015a0 <Buzzer_Play>
    HAL_Delay(5000);
 80022e0:	480c      	ldr	r0, [pc, #48]	@ (8002314 <App_Cmd_FactoryReset.constprop.0+0x48>)
 80022e2:	f7fe f8bd 	bl	8000460 <HAL_Delay>
    App_SendACK(app, BLE_CMD_FACTORY_RESET, 1, BLE_ERR_OK);
 80022e6:	2200      	movs	r2, #0
 80022e8:	2101      	movs	r1, #1
 80022ea:	2006      	movs	r0, #6
 80022ec:	f7ff ffdc 	bl	80022a8 <App_SendACK.constprop.0>
    HAL_Delay(200);
 80022f0:	20c8      	movs	r0, #200	@ 0xc8
 80022f2:	f7fe f8b5 	bl	8000460 <HAL_Delay>
    daily->dirty = 1;
}

void Storage_FactoryReset(void)
{
    Flash_ErasePage(STORAGE_SETTINGS_ADDR);
 80022f6:	4808      	ldr	r0, [pc, #32]	@ (8002318 <App_Cmd_FactoryReset.constprop.0+0x4c>)
 80022f8:	f7ff ff70 	bl	80021dc <Flash_ErasePage.isra.0>
    Flash_ErasePage(STORAGE_LOG_A_ADDR);
 80022fc:	4807      	ldr	r0, [pc, #28]	@ (800231c <App_Cmd_FactoryReset.constprop.0+0x50>)
 80022fe:	f7ff ff6d 	bl	80021dc <Flash_ErasePage.isra.0>
    Flash_ErasePage(STORAGE_LOG_B_ADDR);
 8002302:	4807      	ldr	r0, [pc, #28]	@ (8002320 <App_Cmd_FactoryReset.constprop.0+0x54>)
 8002304:	f7ff ff6a 	bl	80021dc <Flash_ErasePage.isra.0>
    Flash_ErasePage(STORAGE_DAILY_ADDR);
 8002308:	4806      	ldr	r0, [pc, #24]	@ (8002324 <App_Cmd_FactoryReset.constprop.0+0x58>)
 800230a:	f7ff ff67 	bl	80021dc <Flash_ErasePage.isra.0>
  * @retval None
  */
void HAL_NVIC_SystemReset(void)
{
  /* System Reset */
  NVIC_SystemReset();
 800230e:	f7fe f983 	bl	8000618 <__NVIC_SystemReset>
 8002312:	46c0      	nop			@ (mov r8, r8)
 8002314:	00001388 	.word	0x00001388
 8002318:	08007000 	.word	0x08007000
 800231c:	08007400 	.word	0x08007400
 8002320:	08007800 	.word	0x08007800
 8002324:	08007c00 	.word	0x08007c00

08002328 <PCF_WriteRegs>:
{
 8002328:	b57f      	push	{r0, r1, r2, r3, r4, r5, r6, lr}
 800232a:	0005      	movs	r5, r0
 800232c:	001c      	movs	r4, r3
 800232e:	0008      	movs	r0, r1
 8002330:	0011      	movs	r1, r2
    memcpy(&tx[1], buf, len);
 8002332:	001a      	movs	r2, r3
 8002334:	466b      	mov	r3, sp
    tx[0] = reg;
 8002336:	ae01      	add	r6, sp, #4
 8002338:	7030      	strb	r0, [r6, #0]
    return HAL_I2C_Master_Transmit(hi2c, RTC_I2C_ADDR, tx, (uint16_t)(len + 1U), RTC_TIMEOUT_MS);
 800233a:	3401      	adds	r4, #1
    memcpy(&tx[1], buf, len);
 800233c:	1d58      	adds	r0, r3, #5
 800233e:	f004 ffed 	bl	800731c <memcpy>
    return HAL_I2C_Master_Transmit(hi2c, RTC_I2C_ADDR, tx, (uint16_t)(len + 1U), RTC_TIMEOUT_MS);
 8002342:	0031      	movs	r1, r6
 8002344:	0028      	movs	r0, r5
 8002346:	b2e2      	uxtb	r2, r4
 8002348:	f7fe fe48 	bl	8000fdc <HAL_I2C_Master_Transmit.constprop.0>
}
 800234c:	b004      	add	sp, #16
 800234e:	bd70      	pop	{r4, r5, r6, pc}

08002350 <RTC_SetFromUnix.constprop.0.isra.0>:
HAL_StatusTypeDef RTC_SetFromUnix(RTC_Handle_t *hrtc, uint32_t unix_time)
 8002350:	b5f0      	push	{r4, r5, r6, r7, lr}
    uint32_t total_days = remaining / 86400UL;
 8002352:	4970      	ldr	r1, [pc, #448]	@ (8002514 <RTC_SetFromUnix.constprop.0.isra.0+0x1c4>)
HAL_StatusTypeDef RTC_SetFromUnix(RTC_Handle_t *hrtc, uint32_t unix_time)
 8002354:	b089      	sub	sp, #36	@ 0x24
 8002356:	9004      	str	r0, [sp, #16]
    uint32_t total_days = remaining / 86400UL;
 8002358:	f002 feaa 	bl	80050b0 <__udivsi3>
 800235c:	496d      	ldr	r1, [pc, #436]	@ (8002514 <RTC_SetFromUnix.constprop.0.isra.0+0x1c4>)
 800235e:	0004      	movs	r4, r0
 8002360:	9804      	ldr	r0, [sp, #16]
 8002362:	f002 ff2b 	bl	80051bc <__aeabi_uidivmod>
 8002366:	000d      	movs	r5, r1
    dt.hours   = (uint8_t)(remaining / 3600UL);
 8002368:	21e1      	movs	r1, #225	@ 0xe1
 800236a:	0028      	movs	r0, r5
 800236c:	0109      	lsls	r1, r1, #4
 800236e:	f002 fe9f 	bl	80050b0 <__udivsi3>
 8002372:	21e1      	movs	r1, #225	@ 0xe1
 8002374:	b2c3      	uxtb	r3, r0
 8002376:	0109      	lsls	r1, r1, #4
 8002378:	0028      	movs	r0, r5
 800237a:	9301      	str	r3, [sp, #4]
 800237c:	f002 ff1e 	bl	80051bc <__aeabi_uidivmod>
 8002380:	000d      	movs	r5, r1
    dt.minutes = (uint8_t)(remaining / 60U);
 8002382:	213c      	movs	r1, #60	@ 0x3c
 8002384:	0028      	movs	r0, r5
 8002386:	f002 fe93 	bl	80050b0 <__udivsi3>
    dt.seconds = (uint8_t)(remaining % 60U);
 800238a:	213c      	movs	r1, #60	@ 0x3c
    dt.minutes = (uint8_t)(remaining / 60U);
 800238c:	b2c3      	uxtb	r3, r0
    dt.seconds = (uint8_t)(remaining % 60U);
 800238e:	0028      	movs	r0, r5
    dt.minutes = (uint8_t)(remaining / 60U);
 8002390:	9302      	str	r3, [sp, #8]
    dt.seconds = (uint8_t)(remaining % 60U);
 8002392:	f002 ff13 	bl	80051bc <__aeabi_uidivmod>
    dt.day = (uint8_t)((total_days + 4UL) % 7UL);
 8002396:	1d20      	adds	r0, r4, #4
    dt.seconds = (uint8_t)(remaining % 60U);
 8002398:	b2cb      	uxtb	r3, r1
    dt.day = (uint8_t)((total_days + 4UL) % 7UL);
 800239a:	2107      	movs	r1, #7
    dt.seconds = (uint8_t)(remaining % 60U);
 800239c:	9303      	str	r3, [sp, #12]
    dt.day = (uint8_t)((total_days + 4UL) % 7UL);
 800239e:	f002 ff0d 	bl	80051bc <__aeabi_uidivmod>
        uint32_t dty = ((year % 4U == 0U) && (year % 100U != 0U || year % 400U == 0U)) ? 366UL : 365UL;
 80023a2:	2503      	movs	r5, #3
 80023a4:	2604      	movs	r6, #4
    dt.day = (uint8_t)((total_days + 4UL) % 7UL);
 80023a6:	b2cb      	uxtb	r3, r1
    uint32_t year = 1970;
 80023a8:	4a5b      	ldr	r2, [pc, #364]	@ (8002518 <RTC_SetFromUnix.constprop.0.isra.0+0x1c8>)
    dt.day = (uint8_t)((total_days + 4UL) % 7UL);
 80023aa:	9305      	str	r3, [sp, #20]
        uint32_t dty = ((year % 4U == 0U) && (year % 100U != 0U || year % 400U == 0U)) ? 366UL : 365UL;
 80023ac:	0013      	movs	r3, r2
 80023ae:	402b      	ands	r3, r5
 80023b0:	422a      	tst	r2, r5
 80023b2:	d117      	bne.n	80023e4 <RTC_SetFromUnix.constprop.0.isra.0+0x94>
 80023b4:	4859      	ldr	r0, [pc, #356]	@ (800251c <RTC_SetFromUnix.constprop.0.isra.0+0x1cc>)
 80023b6:	2702      	movs	r7, #2
 80023b8:	4350      	muls	r0, r2
 80023ba:	0001      	movs	r1, r0
 80023bc:	41f9      	rors	r1, r7
 80023be:	468c      	mov	ip, r1
 80023c0:	21b7      	movs	r1, #183	@ 0xb7
 80023c2:	4f57      	ldr	r7, [pc, #348]	@ (8002520 <RTC_SetFromUnix.constprop.0.isra.0+0x1d0>)
 80023c4:	0049      	lsls	r1, r1, #1
 80023c6:	45bc      	cmp	ip, r7
 80023c8:	d807      	bhi.n	80023da <RTC_SetFromUnix.constprop.0.isra.0+0x8a>
 80023ca:	41f0      	rors	r0, r6
 80023cc:	001f      	movs	r7, r3
 80023ce:	4955      	ldr	r1, [pc, #340]	@ (8002524 <RTC_SetFromUnix.constprop.0.isra.0+0x1d4>)
 80023d0:	4281      	cmp	r1, r0
 80023d2:	415f      	adcs	r7, r3
 80023d4:	0039      	movs	r1, r7
 80023d6:	316e      	adds	r1, #110	@ 0x6e
 80023d8:	31ff      	adds	r1, #255	@ 0xff
        if (total_days < dty) break;
 80023da:	428c      	cmp	r4, r1
 80023dc:	d304      	bcc.n	80023e8 <RTC_SetFromUnix.constprop.0.isra.0+0x98>
        total_days -= dty;
 80023de:	1a64      	subs	r4, r4, r1
        year++;
 80023e0:	3201      	adds	r2, #1
    for (;;) {
 80023e2:	e7e3      	b.n	80023ac <RTC_SetFromUnix.constprop.0.isra.0+0x5c>
        uint32_t dty = ((year % 4U == 0U) && (year % 100U != 0U || year % 400U == 0U)) ? 366UL : 365UL;
 80023e4:	216e      	movs	r1, #110	@ 0x6e
 80023e6:	e7f7      	b.n	80023d8 <RTC_SetFromUnix.constprop.0.isra.0+0x88>
    dt.year = (uint8_t)(year - 2000U);
 80023e8:	0015      	movs	r5, r2
    uint8_t leap = ((year % 4U == 0U) && (year % 100U != 0U || year % 400U == 0U)) ? 1U : 0U;
 80023ea:	2100      	movs	r1, #0
    dt.year = (uint8_t)(year - 2000U);
 80023ec:	3530      	adds	r5, #48	@ 0x30
 80023ee:	b2ed      	uxtb	r5, r5
    uint8_t leap = ((year % 4U == 0U) && (year % 100U != 0U || year % 400U == 0U)) ? 1U : 0U;
 80023f0:	428b      	cmp	r3, r1
 80023f2:	d10e      	bne.n	8002412 <RTC_SetFromUnix.constprop.0.isra.0+0xc2>
 80023f4:	4949      	ldr	r1, [pc, #292]	@ (800251c <RTC_SetFromUnix.constprop.0.isra.0+0x1cc>)
 80023f6:	484a      	ldr	r0, [pc, #296]	@ (8002520 <RTC_SetFromUnix.constprop.0.isra.0+0x1d0>)
 80023f8:	434a      	muls	r2, r1
 80023fa:	2102      	movs	r1, #2
 80023fc:	0016      	movs	r6, r2
 80023fe:	41ce      	rors	r6, r1
 8002400:	3901      	subs	r1, #1
 8002402:	4286      	cmp	r6, r0
 8002404:	d805      	bhi.n	8002412 <RTC_SetFromUnix.constprop.0.isra.0+0xc2>
 8002406:	3103      	adds	r1, #3
 8002408:	41ca      	rors	r2, r1
 800240a:	4946      	ldr	r1, [pc, #280]	@ (8002524 <RTC_SetFromUnix.constprop.0.isra.0+0x1d4>)
 800240c:	4291      	cmp	r1, r2
 800240e:	415b      	adcs	r3, r3
 8002410:	b2d9      	uxtb	r1, r3
    uint8_t month = 1U;
 8002412:	2601      	movs	r6, #1
 8002414:	4b44      	ldr	r3, [pc, #272]	@ (8002528 <RTC_SetFromUnix.constprop.0.isra.0+0x1d8>)
        uint8_t dim = s_days_in_month[month - 1U];
 8002416:	781a      	ldrb	r2, [r3, #0]
        if (month == 2U && leap) dim = 29U;
 8002418:	2e02      	cmp	r6, #2
 800241a:	d102      	bne.n	8002422 <RTC_SetFromUnix.constprop.0.isra.0+0xd2>
 800241c:	2900      	cmp	r1, #0
 800241e:	d000      	beq.n	8002422 <RTC_SetFromUnix.constprop.0.isra.0+0xd2>
 8002420:	221d      	movs	r2, #29
        if (total_days < (uint32_t)dim) break;
 8002422:	42a2      	cmp	r2, r4
 8002424:	d805      	bhi.n	8002432 <RTC_SetFromUnix.constprop.0.isra.0+0xe2>
        month++;
 8002426:	3601      	adds	r6, #1
 8002428:	b2f6      	uxtb	r6, r6
        total_days -= dim;
 800242a:	1aa4      	subs	r4, r4, r2
    while (month <= 12U) {
 800242c:	3301      	adds	r3, #1
 800242e:	2e0d      	cmp	r6, #13
 8002430:	d1f1      	bne.n	8002416 <RTC_SetFromUnix.constprop.0.isra.0+0xc6>
static uint8_t DEC2BCD(uint8_t d) { return (uint8_t)(((d / 10U) << 4) | (d % 10U)); }
 8002432:	9803      	ldr	r0, [sp, #12]
 8002434:	210a      	movs	r1, #10
 8002436:	f002 fe3b 	bl	80050b0 <__udivsi3>
 800243a:	210a      	movs	r1, #10
 800243c:	0107      	lsls	r7, r0, #4
 800243e:	9803      	ldr	r0, [sp, #12]
 8002440:	f002 febc 	bl	80051bc <__aeabi_uidivmod>
    raw[0] = DEC2BCD(dt->seconds);
 8002444:	ab06      	add	r3, sp, #24
static uint8_t DEC2BCD(uint8_t d) { return (uint8_t)(((d / 10U) << 4) | (d % 10U)); }
 8002446:	430f      	orrs	r7, r1
    raw[0] = DEC2BCD(dt->seconds);
 8002448:	701f      	strb	r7, [r3, #0]
static uint8_t DEC2BCD(uint8_t d) { return (uint8_t)(((d / 10U) << 4) | (d % 10U)); }
 800244a:	9802      	ldr	r0, [sp, #8]
 800244c:	210a      	movs	r1, #10
 800244e:	f002 fe2f 	bl	80050b0 <__udivsi3>
 8002452:	210a      	movs	r1, #10
 8002454:	0107      	lsls	r7, r0, #4
 8002456:	9802      	ldr	r0, [sp, #8]
 8002458:	f002 feb0 	bl	80051bc <__aeabi_uidivmod>
    raw[1] = DEC2BCD(dt->minutes);
 800245c:	ab06      	add	r3, sp, #24
static uint8_t DEC2BCD(uint8_t d) { return (uint8_t)(((d / 10U) << 4) | (d % 10U)); }
 800245e:	430f      	orrs	r7, r1
    raw[1] = DEC2BCD(dt->minutes);
 8002460:	705f      	strb	r7, [r3, #1]
static uint8_t DEC2BCD(uint8_t d) { return (uint8_t)(((d / 10U) << 4) | (d % 10U)); }
 8002462:	9801      	ldr	r0, [sp, #4]
 8002464:	210a      	movs	r1, #10
 8002466:	f002 fe23 	bl	80050b0 <__udivsi3>
 800246a:	210a      	movs	r1, #10
 800246c:	0107      	lsls	r7, r0, #4
 800246e:	9801      	ldr	r0, [sp, #4]
 8002470:	f002 fea4 	bl	80051bc <__aeabi_uidivmod>
    dt.date  = (uint8_t)(total_days + 1U);
 8002474:	3401      	adds	r4, #1
    raw[2] = DEC2BCD(dt->hours);
 8002476:	ab06      	add	r3, sp, #24
    dt.date  = (uint8_t)(total_days + 1U);
 8002478:	b2e4      	uxtb	r4, r4
static uint8_t DEC2BCD(uint8_t d) { return (uint8_t)(((d / 10U) << 4) | (d % 10U)); }
 800247a:	430f      	orrs	r7, r1
    raw[2] = DEC2BCD(dt->hours);
 800247c:	709f      	strb	r7, [r3, #2]
static uint8_t DEC2BCD(uint8_t d) { return (uint8_t)(((d / 10U) << 4) | (d % 10U)); }
 800247e:	210a      	movs	r1, #10
 8002480:	0020      	movs	r0, r4
 8002482:	f002 fe15 	bl	80050b0 <__udivsi3>
 8002486:	210a      	movs	r1, #10
 8002488:	0107      	lsls	r7, r0, #4
 800248a:	0020      	movs	r0, r4
 800248c:	f002 fe96 	bl	80051bc <__aeabi_uidivmod>
    raw[4] = DEC2BCD(dt->day);
 8002490:	9a05      	ldr	r2, [sp, #20]
    raw[3] = DEC2BCD(dt->date);
 8002492:	ab06      	add	r3, sp, #24
static uint8_t DEC2BCD(uint8_t d) { return (uint8_t)(((d / 10U) << 4) | (d % 10U)); }
 8002494:	430f      	orrs	r7, r1
    raw[4] = DEC2BCD(dt->day);
 8002496:	711a      	strb	r2, [r3, #4]
    raw[3] = DEC2BCD(dt->date);
 8002498:	70df      	strb	r7, [r3, #3]
static uint8_t DEC2BCD(uint8_t d) { return (uint8_t)(((d / 10U) << 4) | (d % 10U)); }
 800249a:	210a      	movs	r1, #10
 800249c:	0030      	movs	r0, r6
 800249e:	f002 fe07 	bl	80050b0 <__udivsi3>
 80024a2:	210a      	movs	r1, #10
 80024a4:	0107      	lsls	r7, r0, #4
 80024a6:	0030      	movs	r0, r6
 80024a8:	f002 fe88 	bl	80051bc <__aeabi_uidivmod>
    raw[5] = DEC2BCD(dt->month);
 80024ac:	ab06      	add	r3, sp, #24
static uint8_t DEC2BCD(uint8_t d) { return (uint8_t)(((d / 10U) << 4) | (d % 10U)); }
 80024ae:	430f      	orrs	r7, r1
    raw[5] = DEC2BCD(dt->month);
 80024b0:	715f      	strb	r7, [r3, #5]
static uint8_t DEC2BCD(uint8_t d) { return (uint8_t)(((d / 10U) << 4) | (d % 10U)); }
 80024b2:	210a      	movs	r1, #10
 80024b4:	0028      	movs	r0, r5
 80024b6:	f002 fdfb 	bl	80050b0 <__udivsi3>
 80024ba:	210a      	movs	r1, #10
 80024bc:	0107      	lsls	r7, r0, #4
 80024be:	0028      	movs	r0, r5
 80024c0:	f002 fe7c 	bl	80051bc <__aeabi_uidivmod>
    raw[6] = DEC2BCD(dt->year);
 80024c4:	ab06      	add	r3, sp, #24
static uint8_t DEC2BCD(uint8_t d) { return (uint8_t)(((d / 10U) << 4) | (d % 10U)); }
 80024c6:	430f      	orrs	r7, r1
    raw[6] = DEC2BCD(dt->year);
 80024c8:	719f      	strb	r7, [r3, #6]
    return PCF_WriteRegs(hrtc->hi2c, PCF_REG_VL_SEC, raw, 7);
 80024ca:	4f18      	ldr	r7, [pc, #96]	@ (800252c <RTC_SetFromUnix.constprop.0.isra.0+0x1dc>)
 80024cc:	aa06      	add	r2, sp, #24
 80024ce:	6fb8      	ldr	r0, [r7, #120]	@ 0x78
 80024d0:	2307      	movs	r3, #7
 80024d2:	2102      	movs	r1, #2
 80024d4:	f7ff ff28 	bl	8002328 <PCF_WriteRegs>
    hrtc->now         = dt;
 80024d8:	003b      	movs	r3, r7
 80024da:	9a03      	ldr	r2, [sp, #12]
 80024dc:	337c      	adds	r3, #124	@ 0x7c
 80024de:	701a      	strb	r2, [r3, #0]
 80024e0:	003b      	movs	r3, r7
 80024e2:	9a02      	ldr	r2, [sp, #8]
 80024e4:	337d      	adds	r3, #125	@ 0x7d
 80024e6:	701a      	strb	r2, [r3, #0]
 80024e8:	003b      	movs	r3, r7
 80024ea:	9a01      	ldr	r2, [sp, #4]
 80024ec:	337e      	adds	r3, #126	@ 0x7e
 80024ee:	701a      	strb	r2, [r3, #0]
 80024f0:	003b      	movs	r3, r7
 80024f2:	9a05      	ldr	r2, [sp, #20]
 80024f4:	337f      	adds	r3, #127	@ 0x7f
 80024f6:	701a      	strb	r2, [r3, #0]
 80024f8:	003b      	movs	r3, r7
 80024fa:	3380      	adds	r3, #128	@ 0x80
 80024fc:	701c      	strb	r4, [r3, #0]
 80024fe:	003b      	movs	r3, r7
 8002500:	3381      	adds	r3, #129	@ 0x81
 8002502:	701e      	strb	r6, [r3, #0]
 8002504:	003b      	movs	r3, r7
 8002506:	3382      	adds	r3, #130	@ 0x82
 8002508:	701d      	strb	r5, [r3, #0]
    hrtc->unix_approx = unix_time;
 800250a:	9b04      	ldr	r3, [sp, #16]
 800250c:	3708      	adds	r7, #8
 800250e:	67fb      	str	r3, [r7, #124]	@ 0x7c
}
 8002510:	b009      	add	sp, #36	@ 0x24
 8002512:	bdf0      	pop	{r4, r5, r6, r7, pc}
 8002514:	00015180 	.word	0x00015180
 8002518:	000007b2 	.word	0x000007b2
 800251c:	c28f5c29 	.word	0xc28f5c29
 8002520:	028f5c28 	.word	0x028f5c28
 8002524:	00a3d70a 	.word	0x00a3d70a
 8002528:	08007368 	.word	0x08007368
 800252c:	2000053c 	.word	0x2000053c

08002530 <Storage_SaveSettings.constprop.0>:
void Storage_SaveSettings(const DeviceSettings_t *in)
 8002530:	b570      	push	{r4, r5, r6, lr}
 8002532:	b092      	sub	sp, #72	@ 0x48
    memcpy(&tmp, in, sizeof(DeviceSettings_t));
 8002534:	2244      	movs	r2, #68	@ 0x44
 8002536:	4914      	ldr	r1, [pc, #80]	@ (8002588 <Storage_SaveSettings.constprop.0+0x58>)
 8002538:	a801      	add	r0, sp, #4
 800253a:	f004 feef 	bl	800731c <memcpy>
    tmp.magic = SETTINGS_MAGIC;
 800253e:	4b13      	ldr	r3, [pc, #76]	@ (800258c <Storage_SaveSettings.constprop.0+0x5c>)
 8002540:	2000      	movs	r0, #0
 8002542:	9300      	str	r3, [sp, #0]
    uint32_t crc = 0xFFFFFFFFUL;
 8002544:	2301      	movs	r3, #1
        crc ^= data[i];
 8002546:	2508      	movs	r5, #8
            crc = (crc & 1U) ? ((crc >> 1) ^ 0xEDB88320UL) : (crc >> 1);
 8002548:	2401      	movs	r4, #1
    uint32_t crc = 0xFFFFFFFFUL;
 800254a:	425b      	negs	r3, r3
        crc ^= data[i];
 800254c:	466a      	mov	r2, sp
 800254e:	5c82      	ldrb	r2, [r0, r2]
            crc = (crc & 1U) ? ((crc >> 1) ^ 0xEDB88320UL) : (crc >> 1);
 8002550:	4e0f      	ldr	r6, [pc, #60]	@ (8002590 <Storage_SaveSettings.constprop.0+0x60>)
        crc ^= data[i];
 8002552:	4053      	eors	r3, r2
 8002554:	002a      	movs	r2, r5
            crc = (crc & 1U) ? ((crc >> 1) ^ 0xEDB88320UL) : (crc >> 1);
 8002556:	0019      	movs	r1, r3
 8002558:	4021      	ands	r1, r4
 800255a:	4249      	negs	r1, r1
        for (uint8_t j = 0; j < 8; j++)
 800255c:	3a01      	subs	r2, #1
            crc = (crc & 1U) ? ((crc >> 1) ^ 0xEDB88320UL) : (crc >> 1);
 800255e:	4031      	ands	r1, r6
 8002560:	085b      	lsrs	r3, r3, #1
        for (uint8_t j = 0; j < 8; j++)
 8002562:	b2d2      	uxtb	r2, r2
            crc = (crc & 1U) ? ((crc >> 1) ^ 0xEDB88320UL) : (crc >> 1);
 8002564:	404b      	eors	r3, r1
        for (uint8_t j = 0; j < 8; j++)
 8002566:	2a00      	cmp	r2, #0
 8002568:	d1f5      	bne.n	8002556 <Storage_SaveSettings.constprop.0+0x26>
    for (uint16_t i = 0; i < len; i++) {
 800256a:	3001      	adds	r0, #1
 800256c:	2844      	cmp	r0, #68	@ 0x44
 800256e:	d1ed      	bne.n	800254c <Storage_SaveSettings.constprop.0+0x1c>
    return ~crc;
 8002570:	43db      	mvns	r3, r3
    Flash_ErasePage(STORAGE_SETTINGS_ADDR);
 8002572:	4808      	ldr	r0, [pc, #32]	@ (8002594 <Storage_SaveSettings.constprop.0+0x64>)
    tmp.crc   = Storage_CRC32((const uint8_t *)&tmp,
 8002574:	9311      	str	r3, [sp, #68]	@ 0x44
    Flash_ErasePage(STORAGE_SETTINGS_ADDR);
 8002576:	f7ff fe31 	bl	80021dc <Flash_ErasePage.isra.0>
    Flash_WriteBytes(STORAGE_SETTINGS_ADDR, (const uint8_t *)&tmp,
 800257a:	2248      	movs	r2, #72	@ 0x48
 800257c:	4669      	mov	r1, sp
 800257e:	4805      	ldr	r0, [pc, #20]	@ (8002594 <Storage_SaveSettings.constprop.0+0x64>)
 8002580:	f7ff fde1 	bl	8002146 <Flash_WriteBytes.isra.0>
}
 8002584:	b012      	add	sp, #72	@ 0x48
 8002586:	bd70      	pop	{r4, r5, r6, pc}
 8002588:	200005e4 	.word	0x200005e4
 800258c:	a55a1234 	.word	0xa55a1234
 8002590:	edb88320 	.word	0xedb88320
 8002594:	08007000 	.word	0x08007000

08002598 <App_Cmd_Calibration.constprop.0>:
void App_Cmd_Calibration(AppContext_t *app, const BLE_Packet_t *pkt)
 8002598:	b5f0      	push	{r4, r5, r6, r7, lr}
    if (pkt->len < 1U || pkt->payload[0] != 0U) {
 800259a:	7843      	ldrb	r3, [r0, #1]
void App_Cmd_Calibration(AppContext_t *app, const BLE_Packet_t *pkt)
 800259c:	0007      	movs	r7, r0
 800259e:	b087      	sub	sp, #28
    if (pkt->len < 1U || pkt->payload[0] != 0U) {
 80025a0:	2b00      	cmp	r3, #0
 80025a2:	d003      	beq.n	80025ac <App_Cmd_Calibration.constprop.0+0x14>
 80025a4:	7883      	ldrb	r3, [r0, #2]
 80025a6:	9300      	str	r3, [sp, #0]
 80025a8:	2b00      	cmp	r3, #0
 80025aa:	d006      	beq.n	80025ba <App_Cmd_Calibration.constprop.0+0x22>
        App_SendACK(app, pkt->cmd, 0, BLE_ERR_INVALID_STAGE); return;
 80025ac:	2202      	movs	r2, #2
 80025ae:	7838      	ldrb	r0, [r7, #0]
 80025b0:	2100      	movs	r1, #0
    App_SendACK(app, pkt->cmd, 1, BLE_ERR_OK);
 80025b2:	f7ff fe79 	bl	80022a8 <App_SendACK.constprop.0>
}
 80025b6:	b007      	add	sp, #28
 80025b8:	bdf0      	pop	{r4, r5, r6, r7, pc}
    if (!HX711_WaitReady(400U)) {
 80025ba:	f7ff f819 	bl	80015f0 <HX711_WaitReady.constprop.0>
 80025be:	1e04      	subs	r4, r0, #0
 80025c0:	d105      	bne.n	80025ce <App_Cmd_Calibration.constprop.0+0x36>
        WS2812B_SetPattern(LED_PATTERN_ALL_OFF);
 80025c2:	2001      	movs	r0, #1
 80025c4:	f7fd ff24 	bl	8000410 <WS2812B_SetPattern>
        App_SendACK(app, pkt->cmd, 0, BLE_ERR_OK); return;
 80025c8:	0022      	movs	r2, r4
 80025ca:	7838      	ldrb	r0, [r7, #0]
 80025cc:	e7f0      	b.n	80025b0 <App_Cmd_Calibration.constprop.0+0x18>
 80025ce:	2005      	movs	r0, #5
 80025d0:	f7fe fcb4 	bl	8000f3c <Device_PostEvent.part.0.constprop.0>
    WS2812B_SetPattern(LED_PATTERN_CALIBRATION);
 80025d4:	3002      	adds	r0, #2
 80025d6:	f7fd ff1b 	bl	8000410 <WS2812B_SetPattern>
 80025da:	2303      	movs	r3, #3
}

/* ─── Tare ───────────────────────────────────────────────────────────────── */
void HX711_Tare(HX711_Handle_t *hx)
{
    int64_t sum = 0;
 80025dc:	2400      	movs	r4, #0
 80025de:	2500      	movs	r5, #0
 80025e0:	9301      	str	r3, [sp, #4]
    uint8_t cnt = 0U;
    for (uint8_t i = 0U; i < HX711_TARE_SAMPLES; i++) {
        int32_t s;
        if (HX711_ReadRawAveraged(hx, &s)) { sum += s; cnt++; }
 80025e2:	a805      	add	r0, sp, #20
 80025e4:	f7fe fbce 	bl	8000d84 <HX711_ReadRawAveraged.constprop.0>
 80025e8:	2800      	cmp	r0, #0
 80025ea:	d00b      	beq.n	8002604 <App_Cmd_Calibration.constprop.0+0x6c>
 80025ec:	9b05      	ldr	r3, [sp, #20]
 80025ee:	9302      	str	r3, [sp, #8]
 80025f0:	17db      	asrs	r3, r3, #31
 80025f2:	9303      	str	r3, [sp, #12]
 80025f4:	9a02      	ldr	r2, [sp, #8]
 80025f6:	9b03      	ldr	r3, [sp, #12]
 80025f8:	18a4      	adds	r4, r4, r2
 80025fa:	415d      	adcs	r5, r3
 80025fc:	9b00      	ldr	r3, [sp, #0]
 80025fe:	3301      	adds	r3, #1
 8002600:	b2db      	uxtb	r3, r3
 8002602:	9300      	str	r3, [sp, #0]
        HAL_Delay(10U);
 8002604:	200a      	movs	r0, #10
 8002606:	f7fd ff2b 	bl	8000460 <HAL_Delay>
    for (uint8_t i = 0U; i < HX711_TARE_SAMPLES; i++) {
 800260a:	9b01      	ldr	r3, [sp, #4]
 800260c:	3b01      	subs	r3, #1
 800260e:	b2db      	uxtb	r3, r3
 8002610:	9301      	str	r3, [sp, #4]
 8002612:	2b00      	cmp	r3, #0
 8002614:	d1e5      	bne.n	80025e2 <App_Cmd_Calibration.constprop.0+0x4a>
    }
    if (cnt > 0U) hx->tare_offset = (int32_t)(sum / (int64_t)cnt);
 8002616:	9b00      	ldr	r3, [sp, #0]
 8002618:	4e0f      	ldr	r6, [pc, #60]	@ (8002658 <App_Cmd_Calibration.constprop.0+0xc0>)
 800261a:	2b00      	cmp	r3, #0
 800261c:	d006      	beq.n	800262c <App_Cmd_Calibration.constprop.0+0x94>
 800261e:	001a      	movs	r2, r3
 8002620:	0020      	movs	r0, r4
 8002622:	0029      	movs	r1, r5
 8002624:	9b01      	ldr	r3, [sp, #4]
 8002626:	f002 fef3 	bl	8005410 <__aeabi_ldivmod>
 800262a:	6030      	str	r0, [r6, #0]
    app->settings.tare_offset = (float)app->hx711.tare_offset;
 800262c:	6830      	ldr	r0, [r6, #0]
 800262e:	0034      	movs	r4, r6
 8002630:	f003 fee6 	bl	8006400 <__aeabi_i2f>
 8002634:	34e0      	adds	r4, #224	@ 0xe0
 8002636:	6020      	str	r0, [r4, #0]
    Storage_SaveSettings(&app->settings);
 8002638:	f7ff ff7a 	bl	8002530 <Storage_SaveSettings.constprop.0>
 800263c:	2006      	movs	r0, #6
 800263e:	f7fe fc7d 	bl	8000f3c <Device_PostEvent.part.0.constprop.0>
    Buzzer_Play(BUZZER_CALIBRATION_DONE);
 8002642:	3003      	adds	r0, #3
 8002644:	f7fe ffac 	bl	80015a0 <Buzzer_Play>
    WS2812B_SetPattern(LED_PATTERN_ALL_OFF);
 8002648:	2001      	movs	r0, #1
 800264a:	f7fd fee1 	bl	8000410 <WS2812B_SetPattern>
    App_SendACK(app, pkt->cmd, 1, BLE_ERR_OK);
 800264e:	2200      	movs	r2, #0
 8002650:	2101      	movs	r1, #1
 8002652:	7838      	ldrb	r0, [r7, #0]
 8002654:	e7ad      	b.n	80025b2 <App_Cmd_Calibration.constprop.0+0x1a>
 8002656:	46c0      	nop			@ (mov r8, r8)
 8002658:	2000053c 	.word	0x2000053c

0800265c <HAL_TIM_PWM_Start_DMA.constprop.0.isra.0>:
  if (TIM_CHANNEL_STATE_GET(htim, Channel) == HAL_TIM_CHANNEL_STATE_BUSY)
 800265c:	0003      	movs	r3, r0
HAL_StatusTypeDef HAL_TIM_PWM_Start_DMA(TIM_HandleTypeDef *htim, uint32_t Channel, const uint32_t *pData,
 800265e:	b5f0      	push	{r4, r5, r6, r7, lr}
  if (TIM_CHANNEL_STATE_GET(htim, Channel) == HAL_TIM_CHANNEL_STATE_BUSY)
 8002660:	333e      	adds	r3, #62	@ 0x3e
 8002662:	781a      	ldrb	r2, [r3, #0]
 8002664:	2a02      	cmp	r2, #2
 8002666:	d05a      	beq.n	800271e <HAL_TIM_PWM_Start_DMA.constprop.0.isra.0+0xc2>
  else if (TIM_CHANNEL_STATE_GET(htim, Channel) == HAL_TIM_CHANNEL_STATE_READY)
 8002668:	781a      	ldrb	r2, [r3, #0]
 800266a:	b2d5      	uxtb	r5, r2
 800266c:	2a01      	cmp	r2, #1
 800266e:	d156      	bne.n	800271e <HAL_TIM_PWM_Start_DMA.constprop.0.isra.0+0xc2>
      TIM_CHANNEL_STATE_SET(htim, Channel, HAL_TIM_CHANNEL_STATE_BUSY);
 8002670:	2402      	movs	r4, #2
 8002672:	701c      	strb	r4, [r3, #0]
      htim->hdma[TIM_DMA_ID_CC1]->XferCpltCallback = TIM_DMADelayPulseCplt;
 8002674:	6a41      	ldr	r1, [r0, #36]	@ 0x24
 8002676:	4b2f      	ldr	r3, [pc, #188]	@ (8002734 <HAL_TIM_PWM_Start_DMA.constprop.0.isra.0+0xd8>)
  __HAL_LOCK(hdma);
 8002678:	1c4a      	adds	r2, r1, #1
 800267a:	628b      	str	r3, [r1, #40]	@ 0x28
      htim->hdma[TIM_DMA_ID_CC1]->XferHalfCpltCallback = TIM_DMADelayPulseHalfCplt;
 800267c:	4b2e      	ldr	r3, [pc, #184]	@ (8002738 <HAL_TIM_PWM_Start_DMA.constprop.0.isra.0+0xdc>)
 800267e:	62cb      	str	r3, [r1, #44]	@ 0x2c
      htim->hdma[TIM_DMA_ID_CC1]->XferErrorCallback = TIM_DMAError ;
 8002680:	4b2e      	ldr	r3, [pc, #184]	@ (800273c <HAL_TIM_PWM_Start_DMA.constprop.0.isra.0+0xe0>)
 8002682:	630b      	str	r3, [r1, #48]	@ 0x30
      if (HAL_DMA_Start_IT(htim->hdma[TIM_DMA_ID_CC1], (uint32_t)pData, (uint32_t)&htim->Instance->CCR1,
 8002684:	6803      	ldr	r3, [r0, #0]
 8002686:	7fd0      	ldrb	r0, [r2, #31]
 8002688:	2801      	cmp	r0, #1
 800268a:	d048      	beq.n	800271e <HAL_TIM_PWM_Start_DMA.constprop.0.isra.0+0xc2>
  if (HAL_DMA_STATE_READY == hdma->State)
 800268c:	1908      	adds	r0, r1, r4
  __HAL_LOCK(hdma);
 800268e:	77d5      	strb	r5, [r2, #31]
  if (HAL_DMA_STATE_READY == hdma->State)
 8002690:	7fc5      	ldrb	r5, [r0, #31]
 8002692:	4684      	mov	ip, r0
 8002694:	2700      	movs	r7, #0
 8002696:	b2e8      	uxtb	r0, r5
 8002698:	2d01      	cmp	r5, #1
 800269a:	d13f      	bne.n	800271c <HAL_TIM_PWM_Start_DMA.constprop.0.isra.0+0xc0>
    hdma->State = HAL_DMA_STATE_BUSY;
 800269c:	4662      	mov	r2, ip
 800269e:	77d4      	strb	r4, [r2, #31]
    hdma->Instance->CCR &= ~DMA_CCR_EN;
 80026a0:	680a      	ldr	r2, [r1, #0]
    hdma->ErrorCode = HAL_DMA_ERROR_NONE;
 80026a2:	638f      	str	r7, [r1, #56]	@ 0x38
    hdma->Instance->CCR &= ~DMA_CCR_EN;
 80026a4:	6814      	ldr	r4, [r2, #0]
  hdma->DmaBaseAddress->IFCR  = (DMA_FLAG_GL1 << hdma->ChannelIndex);
 80026a6:	6c0f      	ldr	r7, [r1, #64]	@ 0x40
    hdma->Instance->CCR &= ~DMA_CCR_EN;
 80026a8:	4384      	bics	r4, r0
  hdma->DmaBaseAddress->IFCR  = (DMA_FLAG_GL1 << hdma->ChannelIndex);
 80026aa:	40b8      	lsls	r0, r7
    hdma->Instance->CCR &= ~DMA_CCR_EN;
 80026ac:	6014      	str	r4, [r2, #0]
  hdma->DmaBaseAddress->IFCR  = (DMA_FLAG_GL1 << hdma->ChannelIndex);
 80026ae:	6bcc      	ldr	r4, [r1, #60]	@ 0x3c
 80026b0:	001d      	movs	r5, r3
 80026b2:	6060      	str	r0, [r4, #4]
  hdma->Instance->CNDTR = DataLength;
 80026b4:	208c      	movs	r0, #140	@ 0x8c
  if ((hdma->Init.Direction) == DMA_MEMORY_TO_PERIPH)
 80026b6:	6849      	ldr	r1, [r1, #4]
  hdma->Instance->CNDTR = DataLength;
 80026b8:	0040      	lsls	r0, r0, #1
 80026ba:	4e21      	ldr	r6, [pc, #132]	@ (8002740 <HAL_TIM_PWM_Start_DMA.constprop.0.isra.0+0xe4>)
 80026bc:	3534      	adds	r5, #52	@ 0x34
 80026be:	6050      	str	r0, [r2, #4]
  if ((hdma->Init.Direction) == DMA_MEMORY_TO_PERIPH)
 80026c0:	2910      	cmp	r1, #16
 80026c2:	d128      	bne.n	8002716 <HAL_TIM_PWM_Start_DMA.constprop.0.isra.0+0xba>
    hdma->Instance->CPAR = DstAddress;
 80026c4:	6095      	str	r5, [r2, #8]
    hdma->Instance->CMAR = SrcAddress;
 80026c6:	60d6      	str	r6, [r2, #12]
      hdma->Instance->CCR |= (DMA_IT_TC | DMA_IT_HT | DMA_IT_TE);
 80026c8:	210e      	movs	r1, #14
 80026ca:	6810      	ldr	r0, [r2, #0]
 80026cc:	4301      	orrs	r1, r0
 80026ce:	6011      	str	r1, [r2, #0]
    hdma->Instance->CCR |= DMA_CCR_EN;
 80026d0:	2101      	movs	r1, #1
 80026d2:	6810      	ldr	r0, [r2, #0]
 80026d4:	4308      	orrs	r0, r1
 80026d6:	6010      	str	r0, [r2, #0]
      __HAL_TIM_ENABLE_DMA(htim, TIM_DMA_CC1);
 80026d8:	2280      	movs	r2, #128	@ 0x80
 80026da:	68d8      	ldr	r0, [r3, #12]
 80026dc:	0092      	lsls	r2, r2, #2
 80026de:	4302      	orrs	r2, r0
 80026e0:	60da      	str	r2, [r3, #12]
  TIMx->CCER &= ~tmp;
 80026e2:	6a1a      	ldr	r2, [r3, #32]
 80026e4:	438a      	bics	r2, r1
 80026e6:	621a      	str	r2, [r3, #32]
  TIMx->CCER |= (uint32_t)(ChannelState << (Channel & 0x1FU)); /* 0x1FU = 31 bits max shift */
 80026e8:	6a1a      	ldr	r2, [r3, #32]
 80026ea:	4311      	orrs	r1, r2
 80026ec:	6219      	str	r1, [r3, #32]
    if (IS_TIM_BREAK_INSTANCE(htim->Instance) != RESET)
 80026ee:	4915      	ldr	r1, [pc, #84]	@ (8002744 <HAL_TIM_PWM_Start_DMA.constprop.0.isra.0+0xe8>)
 80026f0:	428b      	cmp	r3, r1
 80026f2:	d115      	bne.n	8002720 <HAL_TIM_PWM_Start_DMA.constprop.0.isra.0+0xc4>
      __HAL_TIM_MOE_ENABLE(htim);
 80026f4:	2280      	movs	r2, #128	@ 0x80
 80026f6:	6c58      	ldr	r0, [r3, #68]	@ 0x44
 80026f8:	0212      	lsls	r2, r2, #8
 80026fa:	4302      	orrs	r2, r0
 80026fc:	645a      	str	r2, [r3, #68]	@ 0x44
    if (IS_TIM_SLAVE_INSTANCE(htim->Instance))
 80026fe:	428b      	cmp	r3, r1
 8002700:	d104      	bne.n	800270c <HAL_TIM_PWM_Start_DMA.constprop.0.isra.0+0xb0>
      tmpsmcr = htim->Instance->SMCR & TIM_SMCR_SMS;
 8002702:	2107      	movs	r1, #7
 8002704:	689a      	ldr	r2, [r3, #8]
 8002706:	400a      	ands	r2, r1
      if (!IS_TIM_SLAVEMODE_TRIGGER_ENABLED(tmpsmcr))
 8002708:	2a06      	cmp	r2, #6
 800270a:	d008      	beq.n	800271e <HAL_TIM_PWM_Start_DMA.constprop.0.isra.0+0xc2>
      __HAL_TIM_ENABLE(htim);
 800270c:	2201      	movs	r2, #1
 800270e:	6819      	ldr	r1, [r3, #0]
 8002710:	430a      	orrs	r2, r1
 8002712:	601a      	str	r2, [r3, #0]
 8002714:	e003      	b.n	800271e <HAL_TIM_PWM_Start_DMA.constprop.0.isra.0+0xc2>
    hdma->Instance->CPAR = SrcAddress;
 8002716:	6096      	str	r6, [r2, #8]
    hdma->Instance->CMAR = DstAddress;
 8002718:	60d5      	str	r5, [r2, #12]
 800271a:	e7d5      	b.n	80026c8 <HAL_TIM_PWM_Start_DMA.constprop.0.isra.0+0x6c>
    __HAL_UNLOCK(hdma);
 800271c:	77d7      	strb	r7, [r2, #31]
}
 800271e:	bdf0      	pop	{r4, r5, r6, r7, pc}
    if (IS_TIM_BREAK_INSTANCE(htim->Instance) != RESET)
 8002720:	4a09      	ldr	r2, [pc, #36]	@ (8002748 <HAL_TIM_PWM_Start_DMA.constprop.0.isra.0+0xec>)
 8002722:	4293      	cmp	r3, r2
 8002724:	d0e6      	beq.n	80026f4 <HAL_TIM_PWM_Start_DMA.constprop.0.isra.0+0x98>
 8002726:	4a09      	ldr	r2, [pc, #36]	@ (800274c <HAL_TIM_PWM_Start_DMA.constprop.0.isra.0+0xf0>)
 8002728:	4293      	cmp	r3, r2
 800272a:	d0e3      	beq.n	80026f4 <HAL_TIM_PWM_Start_DMA.constprop.0.isra.0+0x98>
    if (IS_TIM_SLAVE_INSTANCE(htim->Instance))
 800272c:	4a08      	ldr	r2, [pc, #32]	@ (8002750 <HAL_TIM_PWM_Start_DMA.constprop.0.isra.0+0xf4>)
 800272e:	4293      	cmp	r3, r2
 8002730:	d1ec      	bne.n	800270c <HAL_TIM_PWM_Start_DMA.constprop.0.isra.0+0xb0>
 8002732:	e7e6      	b.n	8002702 <HAL_TIM_PWM_Start_DMA.constprop.0.isra.0+0xa6>
 8002734:	08002c39 	.word	0x08002c39
 8002738:	0800213f 	.word	0x0800213f
 800273c:	08000b25 	.word	0x08000b25
 8002740:	20000284 	.word	0x20000284
 8002744:	40012c00 	.word	0x40012c00
 8002748:	40014400 	.word	0x40014400
 800274c:	40014800 	.word	0x40014800
 8002750:	40000400 	.word	0x40000400

08002754 <WS2812B_Send.part.0>:
void WS2812B_Send(void)
 8002754:	b5f8      	push	{r3, r4, r5, r6, r7, lr}
            ws2812b_dma_buf[idx++] = (grb & (1UL << bit))
 8002756:	2326      	movs	r3, #38	@ 0x26
    uint16_t idx = 0;
 8002758:	2200      	movs	r2, #0
            ws2812b_dma_buf[idx++] = (grb & (1UL << bit))
 800275a:	469c      	mov	ip, r3
 800275c:	4918      	ldr	r1, [pc, #96]	@ (80027c0 <WS2812B_Send.part.0+0x6c>)
        uint32_t grb = ((uint32_t)s_leds[led].g << 16)
 800275e:	784b      	ldrb	r3, [r1, #1]
                     | ((uint32_t)s_leds[led].r <<  8)
 8002760:	7808      	ldrb	r0, [r1, #0]
        uint32_t grb = ((uint32_t)s_leds[led].g << 16)
 8002762:	041b      	lsls	r3, r3, #16
                     | ((uint32_t)s_leds[led].r <<  8)
 8002764:	0200      	lsls	r0, r0, #8
 8002766:	4303      	orrs	r3, r0
                     |  (uint32_t)s_leds[led].b;
 8002768:	7888      	ldrb	r0, [r1, #2]
        uint32_t grb = ((uint32_t)s_leds[led].g << 16)
 800276a:	4303      	orrs	r3, r0
 800276c:	2000      	movs	r0, #0
                                     ? WS2812B_T1H : WS2812B_T0H;
 800276e:	2517      	movs	r5, #23
 8002770:	001e      	movs	r6, r3
 8002772:	1a2d      	subs	r5, r5, r0
 8002774:	40ee      	lsrs	r6, r5
            ws2812b_dma_buf[idx++] = (grb & (1UL << bit))
 8002776:	2701      	movs	r7, #1
                                     ? WS2812B_T1H : WS2812B_T0H;
 8002778:	0035      	movs	r5, r6
 800277a:	1814      	adds	r4, r2, r0
            ws2812b_dma_buf[idx++] = (grb & (1UL << bit))
 800277c:	2613      	movs	r6, #19
 800277e:	b2a4      	uxth	r4, r4
 8002780:	423d      	tst	r5, r7
 8002782:	d000      	beq.n	8002786 <WS2812B_Send.part.0+0x32>
 8002784:	4666      	mov	r6, ip
 8002786:	4d0f      	ldr	r5, [pc, #60]	@ (80027c4 <WS2812B_Send.part.0+0x70>)
 8002788:	0064      	lsls	r4, r4, #1
        for (int8_t bit = 23; bit >= 0; bit--) {
 800278a:	3001      	adds	r0, #1
            ws2812b_dma_buf[idx++] = (grb & (1UL << bit))
 800278c:	5366      	strh	r6, [r4, r5]
        for (int8_t bit = 23; bit >= 0; bit--) {
 800278e:	2818      	cmp	r0, #24
 8002790:	d1ed      	bne.n	800276e <WS2812B_Send.part.0+0x1a>
 8002792:	3218      	adds	r2, #24
 8002794:	b292      	uxth	r2, r2
    for (uint8_t led = 0; led < WS2812B_NUM_LEDS; led++) {
 8002796:	3103      	adds	r1, #3
 8002798:	2af0      	cmp	r2, #240	@ 0xf0
 800279a:	d1e0      	bne.n	800275e <WS2812B_Send.part.0+0xa>
        ws2812b_dma_buf[idx++] = 0U;
 800279c:	2100      	movs	r1, #0
 800279e:	3aa0      	subs	r2, #160	@ 0xa0
 80027a0:	4809      	ldr	r0, [pc, #36]	@ (80027c8 <WS2812B_Send.part.0+0x74>)
 80027a2:	f004 fd76 	bl	8007292 <memset>
    s_dirty = 0;
 80027a6:	2200      	movs	r2, #0
 80027a8:	4b08      	ldr	r3, [pc, #32]	@ (80027cc <WS2812B_Send.part.0+0x78>)
 80027aa:	701a      	strb	r2, [r3, #0]
    ws2812b_busy = 1;
 80027ac:	4b08      	ldr	r3, [pc, #32]	@ (80027d0 <WS2812B_Send.part.0+0x7c>)
 80027ae:	3201      	adds	r2, #1
 80027b0:	771a      	strb	r2, [r3, #28]
    ws2812b_send_count++;
 80027b2:	6a1a      	ldr	r2, [r3, #32]
    HAL_TIM_PWM_Start_DMA(s_htim, TIM_CHANNEL_1,
 80027b4:	6a58      	ldr	r0, [r3, #36]	@ 0x24
    ws2812b_send_count++;
 80027b6:	3201      	adds	r2, #1
 80027b8:	621a      	str	r2, [r3, #32]
    HAL_TIM_PWM_Start_DMA(s_htim, TIM_CHANNEL_1,
 80027ba:	f7ff ff4f 	bl	800265c <HAL_TIM_PWM_Start_DMA.constprop.0.isra.0>
}
 80027be:	bdf8      	pop	{r3, r4, r5, r6, r7, pc}
 80027c0:	200000d4 	.word	0x200000d4
 80027c4:	20000284 	.word	0x20000284
 80027c8:	20000464 	.word	0x20000464
 80027cc:	20000000 	.word	0x20000000
 80027d0:	20000180 	.word	0x20000180

080027d4 <SendIfDirty>:
uint8_t WS2812B_IsBusy(void) { return ws2812b_busy; }

/* ─── SendIfDirty helper ─────────────────────────────────────────────────── */
static void SendIfDirty(void)
{
 80027d4:	b510      	push	{r4, lr}
    if (s_dirty && !ws2812b_busy) WS2812B_Send();
 80027d6:	4b07      	ldr	r3, [pc, #28]	@ (80027f4 <SendIfDirty+0x20>)
 80027d8:	781b      	ldrb	r3, [r3, #0]
 80027da:	2b00      	cmp	r3, #0
 80027dc:	d008      	beq.n	80027f0 <SendIfDirty+0x1c>
 80027de:	4b06      	ldr	r3, [pc, #24]	@ (80027f8 <SendIfDirty+0x24>)
 80027e0:	7f1a      	ldrb	r2, [r3, #28]
 80027e2:	2a00      	cmp	r2, #0
 80027e4:	d104      	bne.n	80027f0 <SendIfDirty+0x1c>
    if (ws2812b_busy) return;
 80027e6:	7f1b      	ldrb	r3, [r3, #28]
 80027e8:	2b00      	cmp	r3, #0
 80027ea:	d101      	bne.n	80027f0 <SendIfDirty+0x1c>
 80027ec:	f7ff ffb2 	bl	8002754 <WS2812B_Send.part.0>
}
 80027f0:	bd10      	pop	{r4, pc}
 80027f2:	46c0      	nop			@ (mov r8, r8)
 80027f4:	20000000 	.word	0x20000000
 80027f8:	20000180 	.word	0x20000180

080027fc <WS2812B_Update.part.0>:
 80027fc:	4bc3      	ldr	r3, [pc, #780]	@ (8002b0c <WS2812B_Update.part.0+0x310>)

/* ─── WS2812B_Update — call every loop tick from App_Run() ──────────────── */
void WS2812B_Update(void)
 80027fe:	b5f0      	push	{r4, r5, r6, r7, lr}
    if (ws2812b_busy) return;

    uint32_t now = HAL_GetTick();
    uint32_t dt  = now - s_blink_tick;

    switch (s_pattern) {
 8002800:	0019      	movs	r1, r3
 8002802:	3172      	adds	r1, #114	@ 0x72
 8002804:	6f5c      	ldr	r4, [r3, #116]	@ 0x74
    uint32_t dt  = now - s_blink_tick;
 8002806:	6fda      	ldr	r2, [r3, #124]	@ 0x7c
    switch (s_pattern) {
 8002808:	780d      	ldrb	r5, [r1, #0]
void WS2812B_Update(void)
 800280a:	b089      	sub	sp, #36	@ 0x24
    uint32_t dt  = now - s_blink_tick;
 800280c:	1aa2      	subs	r2, r4, r2
    switch (s_pattern) {
 800280e:	2d0f      	cmp	r5, #15
 8002810:	d900      	bls.n	8002814 <WS2812B_Update.part.0+0x18>
 8002812:	e093      	b.n	800293c <WS2812B_Update.part.0+0x140>
 8002814:	0028      	movs	r0, r5
 8002816:	f002 fc41 	bl	800509c <__gnu_thumb1_case_uhi>
 800281a:	004c      	.short	0x004c
 800281c:	0010004c 	.word	0x0010004c
 8002820:	00100010 	.word	0x00100010
 8002824:	00380038 	.word	0x00380038
 8002828:	00950062 	.word	0x00950062
 800282c:	00dc00b6 	.word	0x00dc00b6
 8002830:	0131010f 	.word	0x0131010f
 8002834:	018f015b 	.word	0x018f015b
 8002838:	018f      	.short	0x018f
        return;

    case LED_PATTERN_HYDRATION_HIGH:
    case LED_PATTERN_HYDRATION_MID:
    case LED_PATTERN_HYDRATION_LOW: {
        RGB_t col = (s_pattern == LED_PATTERN_HYDRATION_HIGH) ? s_custom_remind :
 800283a:	2d02      	cmp	r5, #2
 800283c:	d006      	beq.n	800284c <WS2812B_Update.part.0+0x50>
 800283e:	2600      	movs	r6, #0
 8002840:	2764      	movs	r7, #100	@ 0x64
                    (s_pattern == LED_PATTERN_HYDRATION_MID)  ? RGB_AMBER : RGB_RED;
 8002842:	2d03      	cmp	r5, #3
 8002844:	d000      	beq.n	8002848 <WS2812B_Update.part.0+0x4c>
        RGB_t col = (s_pattern == LED_PATTERN_HYDRATION_HIGH) ? s_custom_remind :
 8002846:	0037      	movs	r7, r6
 8002848:	25ff      	movs	r5, #255	@ 0xff
 800284a:	e003      	b.n	8002854 <WS2812B_Update.part.0+0x58>
 800284c:	4ab0      	ldr	r2, [pc, #704]	@ (8002b10 <WS2812B_Update.part.0+0x314>)
 800284e:	7a15      	ldrb	r5, [r2, #8]
 8002850:	7a57      	ldrb	r7, [r2, #9]
 8002852:	7a96      	ldrb	r6, [r2, #10]
        if (now - s_pattern_tick > 3000U) {
 8002854:	6f98      	ldr	r0, [r3, #120]	@ 0x78
 8002856:	4aaf      	ldr	r2, [pc, #700]	@ (8002b14 <WS2812B_Update.part.0+0x318>)
 8002858:	1a20      	subs	r0, r4, r0
 800285a:	ac07      	add	r4, sp, #28
 800285c:	4290      	cmp	r0, r2
 800285e:	d906      	bls.n	800286e <WS2812B_Update.part.0+0x72>
    }

    case LED_PATTERN_LOW_BATTERY: {
        uint32_t p = now - s_pattern_tick;
        if (p > 2400U) {
            s_pattern = LED_PATTERN_ALL_OFF;
 8002860:	2201      	movs	r2, #1
 8002862:	3372      	adds	r3, #114	@ 0x72
 8002864:	701a      	strb	r2, [r3, #0]
            WS2812B_SetAll(RGB_OFF); SendIfDirty(); return;
 8002866:	2300      	movs	r3, #0
 8002868:	8023      	strh	r3, [r4, #0]
        }
        uint32_t phase = p % 800U;
        uint8_t  b     = (phase < 400U) ? (uint8_t)(phase * 200U / 400U)
                                        : (uint8_t)((800U - phase) * 200U / 400U);
        WS2812B_SetAll(SCALE_RGB(RGB_RED, b));
 800286a:	70a3      	strb	r3, [r4, #2]
 800286c:	e00b      	b.n	8002886 <WS2812B_Update.part.0+0x8a>
        uint8_t on = (uint8_t)(((now - s_pattern_tick) / 300U) % 2U == 0U);
 800286e:	2196      	movs	r1, #150	@ 0x96
 8002870:	0049      	lsls	r1, r1, #1
 8002872:	f002 fc1d 	bl	80050b0 <__udivsi3>
        WS2812B_SetAll(on ? col : RGB_OFF);
 8002876:	07c0      	lsls	r0, r0, #31
 8002878:	d502      	bpl.n	8002880 <WS2812B_Update.part.0+0x84>
 800287a:	2500      	movs	r5, #0
 800287c:	002f      	movs	r7, r5
 800287e:	002e      	movs	r6, r5
 8002880:	7025      	strb	r5, [r4, #0]
 8002882:	7067      	strb	r7, [r4, #1]
 8002884:	70a6      	strb	r6, [r4, #2]

    case LED_PATTERN_REGISTRATION: {
        uint32_t cycle = (now - s_pattern_tick) % 2000U;
        uint8_t  b     = (cycle < 1000U) ? (uint8_t)(cycle * 255U / 1000U)
                                          : (uint8_t)((2000U - cycle) * 255U / 1000U);
        WS2812B_SetAll(SCALE_RGB(RGB_BLUE, b));
 8002886:	9807      	ldr	r0, [sp, #28]
 8002888:	e021      	b.n	80028ce <WS2812B_Update.part.0+0xd2>
        RGB_t    col   = (s_pattern == LED_PATTERN_PURITY_ALERT) ? RGB_PURPLE : RGB_ORANGE;
 800288a:	2d05      	cmp	r5, #5
 800288c:	d116      	bne.n	80028bc <WS2812B_Update.part.0+0xc0>
 800288e:	2180      	movs	r1, #128	@ 0x80
 8002890:	2000      	movs	r0, #0
 8002892:	000d      	movs	r5, r1
        uint32_t phase = now - s_pattern_tick;
 8002894:	6f9a      	ldr	r2, [r3, #120]	@ 0x78
 8002896:	1aa2      	subs	r2, r4, r2
        uint8_t  on    = (uint8_t)((phase < 80U) || (phase >= 200U && phase < 280U));
 8002898:	2a4f      	cmp	r2, #79	@ 0x4f
 800289a:	d91b      	bls.n	80028d4 <WS2812B_Update.part.0+0xd8>
 800289c:	0014      	movs	r4, r2
 800289e:	3cc8      	subs	r4, #200	@ 0xc8
 80028a0:	2c4f      	cmp	r4, #79	@ 0x4f
 80028a2:	d917      	bls.n	80028d4 <WS2812B_Update.part.0+0xd8>
        if (phase > 400U) {
 80028a4:	21c8      	movs	r1, #200	@ 0xc8
 80028a6:	0049      	lsls	r1, r1, #1
 80028a8:	428a      	cmp	r2, r1
 80028aa:	d90b      	bls.n	80028c4 <WS2812B_Update.part.0+0xc8>
            s_pattern = LED_PATTERN_ALL_OFF;
 80028ac:	2201      	movs	r2, #1
 80028ae:	3372      	adds	r3, #114	@ 0x72
 80028b0:	701a      	strb	r2, [r3, #0]
            WS2812B_SetAll(RGB_OFF); SendIfDirty(); return;
 80028b2:	2200      	movs	r2, #0
 80028b4:	ab07      	add	r3, sp, #28
 80028b6:	801a      	strh	r2, [r3, #0]
 80028b8:	709a      	strb	r2, [r3, #2]
 80028ba:	e7e4      	b.n	8002886 <WS2812B_Update.part.0+0x8a>
        RGB_t    col   = (s_pattern == LED_PATTERN_PURITY_ALERT) ? RGB_PURPLE : RGB_ORANGE;
 80028bc:	2100      	movs	r1, #0
 80028be:	203c      	movs	r0, #60	@ 0x3c
 80028c0:	25ff      	movs	r5, #255	@ 0xff
 80028c2:	e7e7      	b.n	8002894 <WS2812B_Update.part.0+0x98>
        WS2812B_SetAll(on ? col : RGB_OFF);
 80028c4:	2200      	movs	r2, #0
 80028c6:	ab06      	add	r3, sp, #24
 80028c8:	801a      	strh	r2, [r3, #0]
 80028ca:	709a      	strb	r2, [r3, #2]
 80028cc:	9806      	ldr	r0, [sp, #24]
            s_pattern = LED_PATTERN_ALL_OFF;
            WS2812B_SetAll(RGB_OFF); SendIfDirty(); return;
        }
        uint8_t on  = (uint8_t)((p / 250U) % 2U == 0U);
        RGB_t   col = (s_pattern == LED_PATTERN_FACTORY_RESET_WARN) ? RGB_RED : RGB_WHITE;
        WS2812B_SetAll(on ? col : RGB_OFF);
 80028ce:	f7fd fd43 	bl	8000358 <WS2812B_SetAll>
        break;
 80028d2:	e033      	b.n	800293c <WS2812B_Update.part.0+0x140>
        WS2812B_SetAll(on ? col : RGB_OFF);
 80028d4:	ab06      	add	r3, sp, #24
 80028d6:	701d      	strb	r5, [r3, #0]
 80028d8:	7058      	strb	r0, [r3, #1]
 80028da:	7099      	strb	r1, [r3, #2]
 80028dc:	e7f6      	b.n	80028cc <WS2812B_Update.part.0+0xd0>
        if (dt > 120U) {
 80028de:	4d8e      	ldr	r5, [pc, #568]	@ (8002b18 <WS2812B_Update.part.0+0x31c>)
 80028e0:	2a78      	cmp	r2, #120	@ 0x78
 80028e2:	d906      	bls.n	80028f2 <WS2812B_Update.part.0+0xf6>
            s_wave_pos   = (uint8_t)((s_wave_pos + 1U) % WS2812B_NUM_LEDS);
 80028e4:	7868      	ldrb	r0, [r5, #1]
 80028e6:	210a      	movs	r1, #10
            s_blink_tick = now;
 80028e8:	67dc      	str	r4, [r3, #124]	@ 0x7c
            s_wave_pos   = (uint8_t)((s_wave_pos + 1U) % WS2812B_NUM_LEDS);
 80028ea:	3001      	adds	r0, #1
 80028ec:	f002 fc66 	bl	80051bc <__aeabi_uidivmod>
 80028f0:	7069      	strb	r1, [r5, #1]
        RGB_t    col   = (s_pattern == LED_PATTERN_PURITY_ALERT) ? RGB_PURPLE : RGB_ORANGE;
 80028f2:	2400      	movs	r4, #0
            uint8_t b    = (dist == 0U) ? 255U
 80028f4:	27ff      	movs	r7, #255	@ 0xff
 80028f6:	2664      	movs	r6, #100	@ 0x64
            uint8_t dist = (uint8_t)((WS2812B_NUM_LEDS + i - s_wave_pos) % WS2812B_NUM_LEDS);
 80028f8:	210a      	movs	r1, #10
 80028fa:	7868      	ldrb	r0, [r5, #1]
 80028fc:	b2e3      	uxtb	r3, r4
 80028fe:	1a08      	subs	r0, r1, r0
 8002900:	1900      	adds	r0, r0, r4
 8002902:	9301      	str	r3, [sp, #4]
 8002904:	f002 fc5a 	bl	80051bc <__aeabi_uidivmod>
            uint8_t b    = (dist == 0U) ? 255U
 8002908:	003b      	movs	r3, r7
 800290a:	2900      	cmp	r1, #0
 800290c:	d005      	beq.n	800291a <WS2812B_Update.part.0+0x11e>
 800290e:	2308      	movs	r3, #8
 8002910:	4399      	bics	r1, r3
 8002912:	0033      	movs	r3, r6
 8002914:	2901      	cmp	r1, #1
 8002916:	d000      	beq.n	800291a <WS2812B_Update.part.0+0x11e>
 8002918:	2314      	movs	r3, #20
            WS2812B_SetPixel(i, SCALE_RGB(RGB_AMBER, b));
 800291a:	0039      	movs	r1, r7
 800291c:	4359      	muls	r1, r3
 800291e:	4373      	muls	r3, r6
 8002920:	aa07      	add	r2, sp, #28
 8002922:	121b      	asrs	r3, r3, #8
 8002924:	7053      	strb	r3, [r2, #1]
 8002926:	2300      	movs	r3, #0
 8002928:	1209      	asrs	r1, r1, #8
 800292a:	7011      	strb	r1, [r2, #0]
 800292c:	7093      	strb	r3, [r2, #2]
 800292e:	b2e0      	uxtb	r0, r4
 8002930:	9907      	ldr	r1, [sp, #28]
        for (uint8_t i = 0; i < WS2812B_NUM_LEDS; i++) {
 8002932:	3401      	adds	r4, #1
            WS2812B_SetPixel(i, SCALE_RGB(RGB_AMBER, b));
 8002934:	f7fd fd44 	bl	80003c0 <WS2812B_SetPixel>
        for (uint8_t i = 0; i < WS2812B_NUM_LEDS; i++) {
 8002938:	2c0a      	cmp	r4, #10
 800293a:	d1dd      	bne.n	80028f8 <WS2812B_Update.part.0+0xfc>
    }

    default: break;
    }

    SendIfDirty();
 800293c:	f7ff ff4a 	bl	80027d4 <SendIfDirty>
}
 8002940:	b009      	add	sp, #36	@ 0x24
 8002942:	bdf0      	pop	{r4, r5, r6, r7, pc}
        if (p > 1000U) {
 8002944:	22fa      	movs	r2, #250	@ 0xfa
        uint32_t p = now - s_pattern_tick;
 8002946:	6f98      	ldr	r0, [r3, #120]	@ 0x78
        if (p > 1000U) {
 8002948:	0092      	lsls	r2, r2, #2
        uint32_t p = now - s_pattern_tick;
 800294a:	1a20      	subs	r0, r4, r0
        if (p > 1000U) {
 800294c:	ac07      	add	r4, sp, #28
 800294e:	4290      	cmp	r0, r2
 8002950:	d900      	bls.n	8002954 <WS2812B_Update.part.0+0x158>
 8002952:	e785      	b.n	8002860 <WS2812B_Update.part.0+0x64>
        uint32_t phase = p % 500U;
 8002954:	21fa      	movs	r1, #250	@ 0xfa
 8002956:	0049      	lsls	r1, r1, #1
 8002958:	f002 fc30 	bl	80051bc <__aeabi_uidivmod>
        uint8_t  b     = (phase < 250U) ? (uint8_t)(phase * 255U / 250U)
 800295c:	29f9      	cmp	r1, #249	@ 0xf9
 800295e:	d80d      	bhi.n	800297c <WS2812B_Update.part.0+0x180>
 8002960:	20ff      	movs	r0, #255	@ 0xff
 8002962:	4348      	muls	r0, r1
                                        : (uint8_t)((500U - phase) * 255U / 250U);
 8002964:	21fa      	movs	r1, #250	@ 0xfa
 8002966:	f002 fba3 	bl	80050b0 <__udivsi3>
        WS2812B_SetAll(SCALE_RGB(RGB_GREEN, b));
 800296a:	23ff      	movs	r3, #255	@ 0xff
 800296c:	2200      	movs	r2, #0
        uint8_t  b     = (phase < 250U) ? (uint8_t)(phase * 255U / 250U)
 800296e:	b2c0      	uxtb	r0, r0
        WS2812B_SetAll(SCALE_RGB(RGB_GREEN, b));
 8002970:	4343      	muls	r3, r0
 8002972:	121b      	asrs	r3, r3, #8
 8002974:	7022      	strb	r2, [r4, #0]
 8002976:	7063      	strb	r3, [r4, #1]
 8002978:	70a2      	strb	r2, [r4, #2]
 800297a:	e784      	b.n	8002886 <WS2812B_Update.part.0+0x8a>
                                        : (uint8_t)((500U - phase) * 255U / 250U);
 800297c:	020b      	lsls	r3, r1, #8
 800297e:	1ac9      	subs	r1, r1, r3
 8002980:	4b66      	ldr	r3, [pc, #408]	@ (8002b1c <WS2812B_Update.part.0+0x320>)
 8002982:	18c8      	adds	r0, r1, r3
 8002984:	e7ee      	b.n	8002964 <WS2812B_Update.part.0+0x168>
        if (dt > 60U) { s_blink_tick = now; s_sweep_pos++; }
 8002986:	4964      	ldr	r1, [pc, #400]	@ (8002b18 <WS2812B_Update.part.0+0x31c>)
 8002988:	2a3c      	cmp	r2, #60	@ 0x3c
 800298a:	d903      	bls.n	8002994 <WS2812B_Update.part.0+0x198>
 800298c:	780a      	ldrb	r2, [r1, #0]
 800298e:	67dc      	str	r4, [r3, #124]	@ 0x7c
 8002990:	3201      	adds	r2, #1
 8002992:	700a      	strb	r2, [r1, #0]
        if (s_sweep_pos >= WS2812B_NUM_LEDS + 3U) {
 8002994:	780d      	ldrb	r5, [r1, #0]
        for (uint8_t i = 0; i < WS2812B_NUM_LEDS; i++) {
 8002996:	2400      	movs	r4, #0
            WS2812B_SetPixel(i, (i == s_sweep_pos) ? RGB_CYAN : RGB_OFF);
 8002998:	26ff      	movs	r6, #255	@ 0xff
        if (s_sweep_pos >= WS2812B_NUM_LEDS + 3U) {
 800299a:	2d0c      	cmp	r5, #12
 800299c:	d906      	bls.n	80029ac <WS2812B_Update.part.0+0x1b0>
            s_pattern = LED_PATTERN_ALL_OFF;
 800299e:	2201      	movs	r2, #1
 80029a0:	3372      	adds	r3, #114	@ 0x72
 80029a2:	701a      	strb	r2, [r3, #0]
            WS2812B_SetAll(RGB_OFF); SendIfDirty(); return;
 80029a4:	ab07      	add	r3, sp, #28
 80029a6:	801c      	strh	r4, [r3, #0]
 80029a8:	709c      	strb	r4, [r3, #2]
 80029aa:	e76c      	b.n	8002886 <WS2812B_Update.part.0+0x8a>
            WS2812B_SetPixel(i, (i == s_sweep_pos) ? RGB_CYAN : RGB_OFF);
 80029ac:	ab05      	add	r3, sp, #20
 80029ae:	42a5      	cmp	r5, r4
 80029b0:	d10b      	bne.n	80029ca <WS2812B_Update.part.0+0x1ce>
 80029b2:	4a5b      	ldr	r2, [pc, #364]	@ (8002b20 <WS2812B_Update.part.0+0x324>)
 80029b4:	709e      	strb	r6, [r3, #2]
 80029b6:	801a      	strh	r2, [r3, #0]
 80029b8:	0020      	movs	r0, r4
        for (uint8_t i = 0; i < WS2812B_NUM_LEDS; i++) {
 80029ba:	3401      	adds	r4, #1
            WS2812B_SetPixel(i, (i == s_sweep_pos) ? RGB_CYAN : RGB_OFF);
 80029bc:	9905      	ldr	r1, [sp, #20]
        for (uint8_t i = 0; i < WS2812B_NUM_LEDS; i++) {
 80029be:	b2e4      	uxtb	r4, r4
            WS2812B_SetPixel(i, (i == s_sweep_pos) ? RGB_CYAN : RGB_OFF);
 80029c0:	f7fd fcfe 	bl	80003c0 <WS2812B_SetPixel>
        for (uint8_t i = 0; i < WS2812B_NUM_LEDS; i++) {
 80029c4:	2c0a      	cmp	r4, #10
 80029c6:	d1f1      	bne.n	80029ac <WS2812B_Update.part.0+0x1b0>
 80029c8:	e7b8      	b.n	800293c <WS2812B_Update.part.0+0x140>
            WS2812B_SetPixel(i, (i == s_sweep_pos) ? RGB_CYAN : RGB_OFF);
 80029ca:	2200      	movs	r2, #0
 80029cc:	801a      	strh	r2, [r3, #0]
 80029ce:	709a      	strb	r2, [r3, #2]
 80029d0:	e7f2      	b.n	80029b8 <WS2812B_Update.part.0+0x1bc>
        uint8_t lit = (uint8_t)((uint32_t)s_charge_pct * WS2812B_NUM_LEDS / 100U);
 80029d2:	200a      	movs	r0, #10
 80029d4:	4b50      	ldr	r3, [pc, #320]	@ (8002b18 <WS2812B_Update.part.0+0x31c>)
 80029d6:	789e      	ldrb	r6, [r3, #2]
        if (lit > WS2812B_NUM_LEDS) lit = WS2812B_NUM_LEDS;
 80029d8:	4b52      	ldr	r3, [pc, #328]	@ (8002b24 <WS2812B_Update.part.0+0x328>)
        uint8_t lit = (uint8_t)((uint32_t)s_charge_pct * WS2812B_NUM_LEDS / 100U);
 80029da:	4370      	muls	r0, r6
        if (lit > WS2812B_NUM_LEDS) lit = WS2812B_NUM_LEDS;
 80029dc:	4298      	cmp	r0, r3
 80029de:	d803      	bhi.n	80029e8 <WS2812B_Update.part.0+0x1ec>
        uint8_t lit = (uint8_t)((uint32_t)s_charge_pct * WS2812B_NUM_LEDS / 100U);
 80029e0:	2164      	movs	r1, #100	@ 0x64
 80029e2:	f002 fb65 	bl	80050b0 <__udivsi3>
 80029e6:	b2c5      	uxtb	r5, r0
                uint8_t on = (uint8_t)((now / 600U) % 2U == 0U);
 80029e8:	2196      	movs	r1, #150	@ 0x96
 80029ea:	0020      	movs	r0, r4
 80029ec:	0089      	lsls	r1, r1, #2
 80029ee:	f002 fb5f 	bl	80050b0 <__udivsi3>
 80029f2:	2701      	movs	r7, #1
        for (uint8_t i = 0; i < WS2812B_NUM_LEDS; i++) {
 80029f4:	2400      	movs	r4, #0
 80029f6:	4387      	bics	r7, r0
 80029f8:	427f      	negs	r7, r7
 80029fa:	b2ff      	uxtb	r7, r7
            if (i < lit) {
 80029fc:	2300      	movs	r3, #0
 80029fe:	42a5      	cmp	r5, r4
 8002a00:	d906      	bls.n	8002a10 <WS2812B_Update.part.0+0x214>
                WS2812B_SetPixel(i, RGB_GREEN);
 8002a02:	4947      	ldr	r1, [pc, #284]	@ (8002b20 <WS2812B_Update.part.0+0x324>)
 8002a04:	aa07      	add	r2, sp, #28
 8002a06:	8011      	strh	r1, [r2, #0]
                WS2812B_SetPixel(i, RGB_OFF);
 8002a08:	7093      	strb	r3, [r2, #2]
 8002a0a:	0020      	movs	r0, r4
 8002a0c:	9907      	ldr	r1, [sp, #28]
 8002a0e:	e009      	b.n	8002a24 <WS2812B_Update.part.0+0x228>
            } else if (i == lit && s_charge_pct < 100U) {
 8002a10:	42a5      	cmp	r5, r4
 8002a12:	d10e      	bne.n	8002a32 <WS2812B_Update.part.0+0x236>
 8002a14:	2e63      	cmp	r6, #99	@ 0x63
 8002a16:	d80c      	bhi.n	8002a32 <WS2812B_Update.part.0+0x236>
                WS2812B_SetPixel(i, on ? RGB_GREEN : RGB_OFF);
 8002a18:	0028      	movs	r0, r5
 8002a1a:	aa04      	add	r2, sp, #16
 8002a1c:	7013      	strb	r3, [r2, #0]
 8002a1e:	7057      	strb	r7, [r2, #1]
 8002a20:	7093      	strb	r3, [r2, #2]
 8002a22:	9904      	ldr	r1, [sp, #16]
        for (uint8_t i = 0; i < WS2812B_NUM_LEDS; i++) {
 8002a24:	3401      	adds	r4, #1
 8002a26:	b2e4      	uxtb	r4, r4
                WS2812B_SetPixel(i, RGB_OFF);
 8002a28:	f7fd fcca 	bl	80003c0 <WS2812B_SetPixel>
        for (uint8_t i = 0; i < WS2812B_NUM_LEDS; i++) {
 8002a2c:	2c0a      	cmp	r4, #10
 8002a2e:	d1e5      	bne.n	80029fc <WS2812B_Update.part.0+0x200>
 8002a30:	e784      	b.n	800293c <WS2812B_Update.part.0+0x140>
                WS2812B_SetPixel(i, RGB_OFF);
 8002a32:	aa07      	add	r2, sp, #28
 8002a34:	8013      	strh	r3, [r2, #0]
 8002a36:	e7e7      	b.n	8002a08 <WS2812B_Update.part.0+0x20c>
        if (p > 2400U) {
 8002a38:	2296      	movs	r2, #150	@ 0x96
        uint32_t p = now - s_pattern_tick;
 8002a3a:	6f98      	ldr	r0, [r3, #120]	@ 0x78
        if (p > 2400U) {
 8002a3c:	0112      	lsls	r2, r2, #4
        uint32_t p = now - s_pattern_tick;
 8002a3e:	1a20      	subs	r0, r4, r0
        if (p > 2400U) {
 8002a40:	ac07      	add	r4, sp, #28
 8002a42:	4290      	cmp	r0, r2
 8002a44:	d900      	bls.n	8002a48 <WS2812B_Update.part.0+0x24c>
 8002a46:	e70b      	b.n	8002860 <WS2812B_Update.part.0+0x64>
        uint32_t phase = p % 800U;
 8002a48:	21c8      	movs	r1, #200	@ 0xc8
 8002a4a:	0089      	lsls	r1, r1, #2
 8002a4c:	f002 fbb6 	bl	80051bc <__aeabi_uidivmod>
 8002a50:	000b      	movs	r3, r1
        uint8_t  b     = (phase < 400U) ? (uint8_t)(phase * 200U / 400U)
 8002a52:	21c8      	movs	r1, #200	@ 0xc8
 8002a54:	20c8      	movs	r0, #200	@ 0xc8
 8002a56:	0049      	lsls	r1, r1, #1
 8002a58:	428b      	cmp	r3, r1
 8002a5a:	d20a      	bcs.n	8002a72 <WS2812B_Update.part.0+0x276>
 8002a5c:	4358      	muls	r0, r3
                                        : (uint8_t)((800U - phase) * 200U / 400U);
 8002a5e:	f002 fb27 	bl	80050b0 <__udivsi3>
        WS2812B_SetAll(SCALE_RGB(RGB_RED, b));
 8002a62:	23ff      	movs	r3, #255	@ 0xff
        uint8_t  b     = (phase < 400U) ? (uint8_t)(phase * 200U / 400U)
 8002a64:	b2c0      	uxtb	r0, r0
        WS2812B_SetAll(SCALE_RGB(RGB_RED, b));
 8002a66:	4343      	muls	r3, r0
 8002a68:	121b      	asrs	r3, r3, #8
 8002a6a:	7023      	strb	r3, [r4, #0]
 8002a6c:	2300      	movs	r3, #0
 8002a6e:	7063      	strb	r3, [r4, #1]
 8002a70:	e6fb      	b.n	800286a <WS2812B_Update.part.0+0x6e>
                                        : (uint8_t)((800U - phase) * 200U / 400U);
 8002a72:	4240      	negs	r0, r0
 8002a74:	4358      	muls	r0, r3
 8002a76:	4b2c      	ldr	r3, [pc, #176]	@ (8002b28 <WS2812B_Update.part.0+0x32c>)
 8002a78:	18c0      	adds	r0, r0, r3
 8002a7a:	e7f0      	b.n	8002a5e <WS2812B_Update.part.0+0x262>
        if (dt > 80U) {
 8002a7c:	4e26      	ldr	r6, [pc, #152]	@ (8002b18 <WS2812B_Update.part.0+0x31c>)
 8002a7e:	2a50      	cmp	r2, #80	@ 0x50
 8002a80:	d906      	bls.n	8002a90 <WS2812B_Update.part.0+0x294>
            s_wave_pos   = (uint8_t)((s_wave_pos + 1U) % WS2812B_NUM_LEDS);
 8002a82:	7870      	ldrb	r0, [r6, #1]
            s_wave_pos   = (uint8_t)((s_wave_pos + 1U) % WS2812B_NUM_LEDS);
 8002a84:	210a      	movs	r1, #10
            s_blink_tick = now;
 8002a86:	67dc      	str	r4, [r3, #124]	@ 0x7c
            s_wave_pos   = (uint8_t)((s_wave_pos + 1U) % WS2812B_NUM_LEDS);
 8002a88:	3001      	adds	r0, #1
 8002a8a:	f002 fb97 	bl	80051bc <__aeabi_uidivmod>
 8002a8e:	7071      	strb	r1, [r6, #1]
        for (uint8_t i = 0; i < WS2812B_NUM_LEDS; i++) {
 8002a90:	2400      	movs	r4, #0
            uint8_t dist = (uint8_t)((WS2812B_NUM_LEDS + i - s_wave_pos) % WS2812B_NUM_LEDS);
 8002a92:	270a      	movs	r7, #10
            WS2812B_SetPixel(i, SCALE_RGB(s_lamp_color, bv));
 8002a94:	4d25      	ldr	r5, [pc, #148]	@ (8002b2c <WS2812B_Update.part.0+0x330>)
            uint8_t dist = (uint8_t)((WS2812B_NUM_LEDS + i - s_wave_pos) % WS2812B_NUM_LEDS);
 8002a96:	7870      	ldrb	r0, [r6, #1]
 8002a98:	210a      	movs	r1, #10
 8002a9a:	1a38      	subs	r0, r7, r0
 8002a9c:	1900      	adds	r0, r0, r4
 8002a9e:	f002 fb8d 	bl	80051bc <__aeabi_uidivmod>
            WS2812B_SetPixel(i, SCALE_RGB(s_lamp_color, bv));
 8002aa2:	4b23      	ldr	r3, [pc, #140]	@ (8002b30 <WS2812B_Update.part.0+0x334>)
 8002aa4:	aa07      	add	r2, sp, #28
 8002aa6:	5c5b      	ldrb	r3, [r3, r1]
 8002aa8:	7829      	ldrb	r1, [r5, #0]
 8002aaa:	b2e0      	uxtb	r0, r4
 8002aac:	4359      	muls	r1, r3
 8002aae:	1209      	asrs	r1, r1, #8
 8002ab0:	7011      	strb	r1, [r2, #0]
 8002ab2:	7869      	ldrb	r1, [r5, #1]
        for (uint8_t i = 0; i < WS2812B_NUM_LEDS; i++) {
 8002ab4:	3401      	adds	r4, #1
            WS2812B_SetPixel(i, SCALE_RGB(s_lamp_color, bv));
 8002ab6:	4359      	muls	r1, r3
 8002ab8:	1209      	asrs	r1, r1, #8
 8002aba:	7051      	strb	r1, [r2, #1]
 8002abc:	78a9      	ldrb	r1, [r5, #2]
 8002abe:	434b      	muls	r3, r1
 8002ac0:	121b      	asrs	r3, r3, #8
 8002ac2:	7093      	strb	r3, [r2, #2]
 8002ac4:	9907      	ldr	r1, [sp, #28]
 8002ac6:	f7fd fc7b 	bl	80003c0 <WS2812B_SetPixel>
        for (uint8_t i = 0; i < WS2812B_NUM_LEDS; i++) {
 8002aca:	2c0a      	cmp	r4, #10
 8002acc:	d1e3      	bne.n	8002a96 <WS2812B_Update.part.0+0x29a>
 8002ace:	e735      	b.n	800293c <WS2812B_Update.part.0+0x140>
        uint32_t cycle = (now - s_pattern_tick) % 2000U;
 8002ad0:	21fa      	movs	r1, #250	@ 0xfa
 8002ad2:	6f98      	ldr	r0, [r3, #120]	@ 0x78
 8002ad4:	00c9      	lsls	r1, r1, #3
 8002ad6:	1a20      	subs	r0, r4, r0
 8002ad8:	f002 fb70 	bl	80051bc <__aeabi_uidivmod>
 8002adc:	000b      	movs	r3, r1
        uint8_t  b     = (cycle < 1000U) ? (uint8_t)(cycle * 255U / 1000U)
 8002ade:	21fa      	movs	r1, #250	@ 0xfa
 8002ae0:	0089      	lsls	r1, r1, #2
 8002ae2:	428b      	cmp	r3, r1
 8002ae4:	d20c      	bcs.n	8002b00 <WS2812B_Update.part.0+0x304>
 8002ae6:	20ff      	movs	r0, #255	@ 0xff
 8002ae8:	4358      	muls	r0, r3
                                          : (uint8_t)((2000U - cycle) * 255U / 1000U);
 8002aea:	f002 fae1 	bl	80050b0 <__udivsi3>
        WS2812B_SetAll(SCALE_RGB(RGB_BLUE, b));
 8002aee:	2300      	movs	r3, #0
 8002af0:	aa07      	add	r2, sp, #28
        uint8_t  b     = (cycle < 1000U) ? (uint8_t)(cycle * 255U / 1000U)
 8002af2:	b2c0      	uxtb	r0, r0
        WS2812B_SetAll(SCALE_RGB(RGB_BLUE, b));
 8002af4:	8013      	strh	r3, [r2, #0]
 8002af6:	33ff      	adds	r3, #255	@ 0xff
 8002af8:	4343      	muls	r3, r0
 8002afa:	121b      	asrs	r3, r3, #8
 8002afc:	7093      	strb	r3, [r2, #2]
 8002afe:	e6c2      	b.n	8002886 <WS2812B_Update.part.0+0x8a>
                                          : (uint8_t)((2000U - cycle) * 255U / 1000U);
 8002b00:	0218      	lsls	r0, r3, #8
 8002b02:	1a18      	subs	r0, r3, r0
 8002b04:	4b0b      	ldr	r3, [pc, #44]	@ (8002b34 <WS2812B_Update.part.0+0x338>)
 8002b06:	18c0      	adds	r0, r0, r3
 8002b08:	e7ef      	b.n	8002aea <WS2812B_Update.part.0+0x2ee>
 8002b0a:	46c0      	nop			@ (mov r8, r8)
 8002b0c:	20000080 	.word	0x20000080
 8002b10:	20000000 	.word	0x20000000
 8002b14:	00000bb8 	.word	0x00000bb8
 8002b18:	20000100 	.word	0x20000100
 8002b1c:	0001f20c 	.word	0x0001f20c
 8002b20:	ffffff00 	.word	0xffffff00
 8002b24:	0000044b 	.word	0x0000044b
 8002b28:	00027100 	.word	0x00027100
 8002b2c:	2000000b 	.word	0x2000000b
 8002b30:	080073c8 	.word	0x080073c8
 8002b34:	0007c830 	.word	0x0007c830
        uint32_t p  = now - s_pattern_tick;
 8002b38:	6f98      	ldr	r0, [r3, #120]	@ 0x78
        if (p > 2500U) {
 8002b3a:	4a0c      	ldr	r2, [pc, #48]	@ (8002b6c <WS2812B_Update.part.0+0x370>)
        uint32_t p  = now - s_pattern_tick;
 8002b3c:	1a20      	subs	r0, r4, r0
        if (p > 2500U) {
 8002b3e:	4290      	cmp	r0, r2
 8002b40:	d900      	bls.n	8002b44 <WS2812B_Update.part.0+0x348>
 8002b42:	e6b3      	b.n	80028ac <WS2812B_Update.part.0+0xb0>
        uint8_t on  = (uint8_t)((p / 250U) % 2U == 0U);
 8002b44:	21fa      	movs	r1, #250	@ 0xfa
 8002b46:	f002 fab3 	bl	80050b0 <__udivsi3>
 8002b4a:	2100      	movs	r1, #0
 8002b4c:	000a      	movs	r2, r1
        WS2812B_SetAll(on ? col : RGB_OFF);
 8002b4e:	07c0      	lsls	r0, r0, #31
 8002b50:	d405      	bmi.n	8002b5e <WS2812B_Update.part.0+0x362>
        RGB_t   col = (s_pattern == LED_PATTERN_FACTORY_RESET_WARN) ? RGB_RED : RGB_WHITE;
 8002b52:	3d0e      	subs	r5, #14
 8002b54:	1e6b      	subs	r3, r5, #1
 8002b56:	419d      	sbcs	r5, r3
 8002b58:	426d      	negs	r5, r5
 8002b5a:	b2ea      	uxtb	r2, r5
 8002b5c:	31ff      	adds	r1, #255	@ 0xff
        WS2812B_SetAll(on ? col : RGB_OFF);
 8002b5e:	ab03      	add	r3, sp, #12
 8002b60:	7019      	strb	r1, [r3, #0]
 8002b62:	705a      	strb	r2, [r3, #1]
 8002b64:	709a      	strb	r2, [r3, #2]
 8002b66:	9803      	ldr	r0, [sp, #12]
 8002b68:	e6b1      	b.n	80028ce <WS2812B_Update.part.0+0xd2>
 8002b6a:	46c0      	nop			@ (mov r8, r8)
 8002b6c:	000009c4 	.word	0x000009c4

08002b70 <WS2812B_SendBlocking>:
{
 8002b70:	b510      	push	{r4, lr}
    while (ws2812b_busy) {}
 8002b72:	4c06      	ldr	r4, [pc, #24]	@ (8002b8c <WS2812B_SendBlocking+0x1c>)
 8002b74:	7f23      	ldrb	r3, [r4, #28]
 8002b76:	2b00      	cmp	r3, #0
 8002b78:	d1fc      	bne.n	8002b74 <WS2812B_SendBlocking+0x4>
    if (ws2812b_busy) return;
 8002b7a:	7f23      	ldrb	r3, [r4, #28]
 8002b7c:	2b00      	cmp	r3, #0
 8002b7e:	d101      	bne.n	8002b84 <WS2812B_SendBlocking+0x14>
 8002b80:	f7ff fde8 	bl	8002754 <WS2812B_Send.part.0>
    while (ws2812b_busy) {}
 8002b84:	7f23      	ldrb	r3, [r4, #28]
 8002b86:	2b00      	cmp	r3, #0
 8002b88:	d1fc      	bne.n	8002b84 <WS2812B_SendBlocking+0x14>
}
 8002b8a:	bd10      	pop	{r4, pc}
 8002b8c:	20000180 	.word	0x20000180

08002b90 <HAL_TIM_PWM_Stop_DMA.constprop.0.isra.0>:
      __HAL_TIM_DISABLE_DMA(htim, TIM_DMA_CC1);
 8002b90:	6802      	ldr	r2, [r0, #0]
HAL_StatusTypeDef HAL_TIM_PWM_Stop_DMA(TIM_HandleTypeDef *htim, uint32_t Channel)
 8002b92:	b510      	push	{r4, lr}
      __HAL_TIM_DISABLE_DMA(htim, TIM_DMA_CC1);
 8002b94:	68d3      	ldr	r3, [r2, #12]
 8002b96:	4919      	ldr	r1, [pc, #100]	@ (8002bfc <HAL_TIM_PWM_Stop_DMA.constprop.0.isra.0+0x6c>)
HAL_StatusTypeDef HAL_TIM_PWM_Stop_DMA(TIM_HandleTypeDef *htim, uint32_t Channel)
 8002b98:	0004      	movs	r4, r0
      __HAL_TIM_DISABLE_DMA(htim, TIM_DMA_CC1);
 8002b9a:	400b      	ands	r3, r1
 8002b9c:	60d3      	str	r3, [r2, #12]
      (void)HAL_DMA_Abort_IT(htim->hdma[TIM_DMA_ID_CC1]);
 8002b9e:	6a40      	ldr	r0, [r0, #36]	@ 0x24
 8002ba0:	f7fd fd48 	bl	8000634 <HAL_DMA_Abort_IT>
  TIMx->CCER &= ~tmp;
 8002ba4:	2101      	movs	r1, #1
    TIM_CCxChannelCmd(htim->Instance, Channel, TIM_CCx_DISABLE);
 8002ba6:	6823      	ldr	r3, [r4, #0]
  TIMx->CCER &= ~tmp;
 8002ba8:	6a1a      	ldr	r2, [r3, #32]
 8002baa:	438a      	bics	r2, r1
 8002bac:	621a      	str	r2, [r3, #32]
  TIMx->CCER |= (uint32_t)(ChannelState << (Channel & 0x1FU)); /* 0x1FU = 31 bits max shift */
 8002bae:	6a1a      	ldr	r2, [r3, #32]
 8002bb0:	4913      	ldr	r1, [pc, #76]	@ (8002c00 <HAL_TIM_PWM_Stop_DMA.constprop.0.isra.0+0x70>)
 8002bb2:	621a      	str	r2, [r3, #32]
    if (IS_TIM_BREAK_INSTANCE(htim->Instance) != RESET)
 8002bb4:	4a13      	ldr	r2, [pc, #76]	@ (8002c04 <HAL_TIM_PWM_Stop_DMA.constprop.0.isra.0+0x74>)
 8002bb6:	4293      	cmp	r3, r2
 8002bb8:	d005      	beq.n	8002bc6 <HAL_TIM_PWM_Stop_DMA.constprop.0.isra.0+0x36>
 8002bba:	4a13      	ldr	r2, [pc, #76]	@ (8002c08 <HAL_TIM_PWM_Stop_DMA.constprop.0.isra.0+0x78>)
 8002bbc:	4293      	cmp	r3, r2
 8002bbe:	d002      	beq.n	8002bc6 <HAL_TIM_PWM_Stop_DMA.constprop.0.isra.0+0x36>
 8002bc0:	4a12      	ldr	r2, [pc, #72]	@ (8002c0c <HAL_TIM_PWM_Stop_DMA.constprop.0.isra.0+0x7c>)
 8002bc2:	4293      	cmp	r3, r2
 8002bc4:	d10a      	bne.n	8002bdc <HAL_TIM_PWM_Stop_DMA.constprop.0.isra.0+0x4c>
      __HAL_TIM_MOE_DISABLE(htim);
 8002bc6:	6a1a      	ldr	r2, [r3, #32]
 8002bc8:	420a      	tst	r2, r1
 8002bca:	d107      	bne.n	8002bdc <HAL_TIM_PWM_Stop_DMA.constprop.0.isra.0+0x4c>
 8002bcc:	6a18      	ldr	r0, [r3, #32]
 8002bce:	4a10      	ldr	r2, [pc, #64]	@ (8002c10 <HAL_TIM_PWM_Stop_DMA.constprop.0.isra.0+0x80>)
 8002bd0:	4210      	tst	r0, r2
 8002bd2:	d103      	bne.n	8002bdc <HAL_TIM_PWM_Stop_DMA.constprop.0.isra.0+0x4c>
 8002bd4:	6c5a      	ldr	r2, [r3, #68]	@ 0x44
 8002bd6:	480f      	ldr	r0, [pc, #60]	@ (8002c14 <HAL_TIM_PWM_Stop_DMA.constprop.0.isra.0+0x84>)
 8002bd8:	4002      	ands	r2, r0
 8002bda:	645a      	str	r2, [r3, #68]	@ 0x44
    __HAL_TIM_DISABLE(htim);
 8002bdc:	6a1a      	ldr	r2, [r3, #32]
 8002bde:	420a      	tst	r2, r1
 8002be0:	d107      	bne.n	8002bf2 <HAL_TIM_PWM_Stop_DMA.constprop.0.isra.0+0x62>
 8002be2:	6a19      	ldr	r1, [r3, #32]
 8002be4:	4a0a      	ldr	r2, [pc, #40]	@ (8002c10 <HAL_TIM_PWM_Stop_DMA.constprop.0.isra.0+0x80>)
 8002be6:	4211      	tst	r1, r2
 8002be8:	d103      	bne.n	8002bf2 <HAL_TIM_PWM_Stop_DMA.constprop.0.isra.0+0x62>
 8002bea:	2101      	movs	r1, #1
 8002bec:	681a      	ldr	r2, [r3, #0]
 8002bee:	438a      	bics	r2, r1
 8002bf0:	601a      	str	r2, [r3, #0]
    TIM_CHANNEL_STATE_SET(htim, Channel, HAL_TIM_CHANNEL_STATE_READY);
 8002bf2:	2301      	movs	r3, #1
 8002bf4:	343e      	adds	r4, #62	@ 0x3e
 8002bf6:	7023      	strb	r3, [r4, #0]
}
 8002bf8:	bd10      	pop	{r4, pc}
 8002bfa:	46c0      	nop			@ (mov r8, r8)
 8002bfc:	fffffdff 	.word	0xfffffdff
 8002c00:	00001111 	.word	0x00001111
 8002c04:	40012c00 	.word	0x40012c00
 8002c08:	40014400 	.word	0x40014400
 8002c0c:	40014800 	.word	0x40014800
 8002c10:	00000444 	.word	0x00000444
 8002c14:	ffff7fff 	.word	0xffff7fff

08002c18 <HAL_TIM_PWM_PulseFinishedCallback>:
    if (htim->Instance == TIM1) WS2812B_DMAComplete_Callback();
 8002c18:	4b05      	ldr	r3, [pc, #20]	@ (8002c30 <HAL_TIM_PWM_PulseFinishedCallback+0x18>)
 8002c1a:	6802      	ldr	r2, [r0, #0]
{
 8002c1c:	b510      	push	{r4, lr}
    if (htim->Instance == TIM1) WS2812B_DMAComplete_Callback();
 8002c1e:	429a      	cmp	r2, r3
 8002c20:	d105      	bne.n	8002c2e <HAL_TIM_PWM_PulseFinishedCallback+0x16>
    HAL_TIM_PWM_Stop_DMA(s_htim, TIM_CHANNEL_1);
 8002c22:	4c04      	ldr	r4, [pc, #16]	@ (8002c34 <HAL_TIM_PWM_PulseFinishedCallback+0x1c>)
 8002c24:	6a60      	ldr	r0, [r4, #36]	@ 0x24
 8002c26:	f7ff ffb3 	bl	8002b90 <HAL_TIM_PWM_Stop_DMA.constprop.0.isra.0>
    ws2812b_busy = 0;
 8002c2a:	2300      	movs	r3, #0
 8002c2c:	7723      	strb	r3, [r4, #28]
}
 8002c2e:	bd10      	pop	{r4, pc}
 8002c30:	40012c00 	.word	0x40012c00
 8002c34:	20000180 	.word	0x20000180

08002c38 <TIM_DMADelayPulseCplt>:
{
 8002c38:	b510      	push	{r4, lr}
  TIM_HandleTypeDef *htim = (TIM_HandleTypeDef *)((DMA_HandleTypeDef *)hdma)->Parent;
 8002c3a:	6a44      	ldr	r4, [r0, #36]	@ 0x24
  if (hdma == htim->hdma[TIM_DMA_ID_CC1])
 8002c3c:	6a62      	ldr	r2, [r4, #36]	@ 0x24
 8002c3e:	4282      	cmp	r2, r0
 8002c40:	d10d      	bne.n	8002c5e <TIM_DMADelayPulseCplt+0x26>
    htim->Channel = HAL_TIM_ACTIVE_CHANNEL_1;
 8002c42:	2301      	movs	r3, #1
 8002c44:	7723      	strb	r3, [r4, #28]
    if (hdma->Init.Mode == DMA_NORMAL)
 8002c46:	6992      	ldr	r2, [r2, #24]
 8002c48:	2a00      	cmp	r2, #0
 8002c4a:	d102      	bne.n	8002c52 <TIM_DMADelayPulseCplt+0x1a>
      TIM_CHANNEL_STATE_SET(htim, TIM_CHANNEL_1, HAL_TIM_CHANNEL_STATE_READY);
 8002c4c:	0022      	movs	r2, r4
 8002c4e:	323e      	adds	r2, #62	@ 0x3e
 8002c50:	7013      	strb	r3, [r2, #0]
  HAL_TIM_PWM_PulseFinishedCallback(htim);
 8002c52:	0020      	movs	r0, r4
 8002c54:	f7ff ffe0 	bl	8002c18 <HAL_TIM_PWM_PulseFinishedCallback>
  htim->Channel = HAL_TIM_ACTIVE_CHANNEL_CLEARED;
 8002c58:	2300      	movs	r3, #0
 8002c5a:	7723      	strb	r3, [r4, #28]
}
 8002c5c:	bd10      	pop	{r4, pc}
  else if (hdma == htim->hdma[TIM_DMA_ID_CC2])
 8002c5e:	6aa3      	ldr	r3, [r4, #40]	@ 0x28
 8002c60:	4283      	cmp	r3, r0
 8002c62:	d109      	bne.n	8002c78 <TIM_DMADelayPulseCplt+0x40>
    htim->Channel = HAL_TIM_ACTIVE_CHANNEL_2;
 8002c64:	2202      	movs	r2, #2
 8002c66:	7722      	strb	r2, [r4, #28]
    if (hdma->Init.Mode == DMA_NORMAL)
 8002c68:	699b      	ldr	r3, [r3, #24]
 8002c6a:	2b00      	cmp	r3, #0
 8002c6c:	d1f1      	bne.n	8002c52 <TIM_DMADelayPulseCplt+0x1a>
      TIM_CHANNEL_STATE_SET(htim, TIM_CHANNEL_2, HAL_TIM_CHANNEL_STATE_READY);
 8002c6e:	0023      	movs	r3, r4
 8002c70:	3a01      	subs	r2, #1
 8002c72:	333f      	adds	r3, #63	@ 0x3f
      TIM_CHANNEL_STATE_SET(htim, TIM_CHANNEL_4, HAL_TIM_CHANNEL_STATE_READY);
 8002c74:	701a      	strb	r2, [r3, #0]
 8002c76:	e7ec      	b.n	8002c52 <TIM_DMADelayPulseCplt+0x1a>
  else if (hdma == htim->hdma[TIM_DMA_ID_CC3])
 8002c78:	6ae3      	ldr	r3, [r4, #44]	@ 0x2c
 8002c7a:	4283      	cmp	r3, r0
 8002c7c:	d108      	bne.n	8002c90 <TIM_DMADelayPulseCplt+0x58>
    htim->Channel = HAL_TIM_ACTIVE_CHANNEL_3;
 8002c7e:	2204      	movs	r2, #4
 8002c80:	7722      	strb	r2, [r4, #28]
    if (hdma->Init.Mode == DMA_NORMAL)
 8002c82:	699b      	ldr	r3, [r3, #24]
 8002c84:	2b00      	cmp	r3, #0
 8002c86:	d1e4      	bne.n	8002c52 <TIM_DMADelayPulseCplt+0x1a>
      TIM_CHANNEL_STATE_SET(htim, TIM_CHANNEL_3, HAL_TIM_CHANNEL_STATE_READY);
 8002c88:	0023      	movs	r3, r4
 8002c8a:	3a03      	subs	r2, #3
 8002c8c:	3340      	adds	r3, #64	@ 0x40
 8002c8e:	e7f1      	b.n	8002c74 <TIM_DMADelayPulseCplt+0x3c>
  else if (hdma == htim->hdma[TIM_DMA_ID_CC4])
 8002c90:	6b23      	ldr	r3, [r4, #48]	@ 0x30
 8002c92:	4283      	cmp	r3, r0
 8002c94:	d1dd      	bne.n	8002c52 <TIM_DMADelayPulseCplt+0x1a>
    htim->Channel = HAL_TIM_ACTIVE_CHANNEL_4;
 8002c96:	2208      	movs	r2, #8
 8002c98:	7722      	strb	r2, [r4, #28]
    if (hdma->Init.Mode == DMA_NORMAL)
 8002c9a:	699b      	ldr	r3, [r3, #24]
 8002c9c:	2b00      	cmp	r3, #0
 8002c9e:	d1d8      	bne.n	8002c52 <TIM_DMADelayPulseCplt+0x1a>
      TIM_CHANNEL_STATE_SET(htim, TIM_CHANNEL_4, HAL_TIM_CHANNEL_STATE_READY);
 8002ca0:	0023      	movs	r3, r4
 8002ca2:	3a07      	subs	r2, #7
 8002ca4:	3341      	adds	r3, #65	@ 0x41
 8002ca6:	e7e5      	b.n	8002c74 <TIM_DMADelayPulseCplt+0x3c>

08002ca8 <App_Init.constprop.0>:
    memset(app, 0, sizeof(AppContext_t));
 8002ca8:	22ba      	movs	r2, #186	@ 0xba
void App_Init(AppContext_t *app,
 8002caa:	b5f0      	push	{r4, r5, r6, r7, lr}
    memset(app, 0, sizeof(AppContext_t));
 8002cac:	4cdf      	ldr	r4, [pc, #892]	@ (800302c <App_Init.constprop.0+0x384>)
void App_Init(AppContext_t *app,
 8002cae:	b089      	sub	sp, #36	@ 0x24
    memset(app, 0, sizeof(AppContext_t));
 8002cb0:	2100      	movs	r1, #0
 8002cb2:	0092      	lsls	r2, r2, #2
 8002cb4:	0020      	movs	r0, r4
 8002cb6:	f004 faec 	bl	8007292 <memset>
    s_app_i2c = hi2c;
 8002cba:	4edd      	ldr	r6, [pc, #884]	@ (8003030 <App_Init.constprop.0+0x388>)
 8002cbc:	4bdd      	ldr	r3, [pc, #884]	@ (8003034 <App_Init.constprop.0+0x38c>)
    s_htim = htim;
 8002cbe:	0030      	movs	r0, r6
 8002cc0:	302c      	adds	r0, #44	@ 0x2c
    s_htim->Instance->SMCR = 0U;
 8002cc2:	2500      	movs	r5, #0
 8002cc4:	62b3      	str	r3, [r6, #40]	@ 0x28
    s_htim = htim;
 8002cc6:	6270      	str	r0, [r6, #36]	@ 0x24
 8002cc8:	4fdb      	ldr	r7, [pc, #876]	@ (8003038 <App_Init.constprop.0+0x390>)
    HAL_TIM_PWM_Stop_DMA(s_htim, TIM_CHANNEL_1);
 8002cca:	f7ff ff61 	bl	8002b90 <HAL_TIM_PWM_Stop_DMA.constprop.0.isra.0>
    s_htim->Instance->ARR  = 59U;
 8002cce:	223b      	movs	r2, #59	@ 0x3b
    s_htim->Instance->SMCR = 0U;
 8002cd0:	6a73      	ldr	r3, [r6, #36]	@ 0x24
    memset(s_leds,          0, sizeof(s_leds));
 8002cd2:	0029      	movs	r1, r5
    s_htim->Instance->SMCR = 0U;
 8002cd4:	9300      	str	r3, [sp, #0]
 8002cd6:	681b      	ldr	r3, [r3, #0]
    memset(s_leds,          0, sizeof(s_leds));
 8002cd8:	48d8      	ldr	r0, [pc, #864]	@ (800303c <App_Init.constprop.0+0x394>)
    s_htim->Instance->SMCR = 0U;
 8002cda:	609d      	str	r5, [r3, #8]
    s_htim->Instance->PSC  = 0U;
 8002cdc:	629d      	str	r5, [r3, #40]	@ 0x28
    s_htim->Instance->ARR  = 59U;
 8002cde:	62da      	str	r2, [r3, #44]	@ 0x2c
    s_htim->Instance->EGR  = TIM_EGR_UG;
 8002ce0:	3a3a      	subs	r2, #58	@ 0x3a
 8002ce2:	615a      	str	r2, [r3, #20]
    memset(s_leds,          0, sizeof(s_leds));
 8002ce4:	4bd6      	ldr	r3, [pc, #856]	@ (8003040 <App_Init.constprop.0+0x398>)
 8002ce6:	321d      	adds	r2, #29
 8002ce8:	9301      	str	r3, [sp, #4]
 8002cea:	f004 fad2 	bl	8007292 <memset>
    memset(ws2812b_dma_buf, 0, sizeof(ws2812b_dma_buf));
 8002cee:	228c      	movs	r2, #140	@ 0x8c
 8002cf0:	0029      	movs	r1, r5
 8002cf2:	0092      	lsls	r2, r2, #2
 8002cf4:	48d3      	ldr	r0, [pc, #844]	@ (8003044 <App_Init.constprop.0+0x39c>)
 8002cf6:	f004 facc 	bl	8007292 <memset>
    s_dirty = 1;
 8002cfa:	2201      	movs	r2, #1
 8002cfc:	4bd2      	ldr	r3, [pc, #840]	@ (8003048 <App_Init.constprop.0+0x3a0>)
    HAL_TIM_PWM_Start_DMA(s_htim, TIM_CHANNEL_1,
 8002cfe:	9800      	ldr	r0, [sp, #0]
    s_dirty = 1;
 8002d00:	701a      	strb	r2, [r3, #0]
    ws2812b_busy = 1;
 8002d02:	7732      	strb	r2, [r6, #28]
    HAL_TIM_PWM_Start_DMA(s_htim, TIM_CHANNEL_1,
 8002d04:	f7ff fcaa 	bl	800265c <HAL_TIM_PWM_Start_DMA.constprop.0.isra.0>
    while (ws2812b_busy) {}
 8002d08:	7f33      	ldrb	r3, [r6, #28]
 8002d0a:	b2dd      	uxtb	r5, r3
 8002d0c:	2b00      	cmp	r3, #0
 8002d0e:	d1fb      	bne.n	8002d08 <App_Init.constprop.0+0x60>
    HAL_Delay(1);
 8002d10:	2001      	movs	r0, #1
 8002d12:	f7fd fba5 	bl	8000460 <HAL_Delay>
    s_htim = htim;
 8002d16:	0033      	movs	r3, r6
 8002d18:	9a01      	ldr	r2, [sp, #4]
 8002d1a:	3374      	adds	r3, #116	@ 0x74
 8002d1c:	6013      	str	r3, [r2, #0]
    htim->Instance->PSC = 47;
 8002d1e:	6f73      	ldr	r3, [r6, #116]	@ 0x74
 8002d20:	222f      	movs	r2, #47	@ 0x2f
    htim->Instance->EGR = TIM_EGR_UG;
 8002d22:	2601      	movs	r6, #1
    htim->Instance->PSC = 47;
 8002d24:	629a      	str	r2, [r3, #40]	@ 0x28
    htim->Instance->EGR = TIM_EGR_UG;
 8002d26:	615e      	str	r6, [r3, #20]
    Buzzer_ToneOff();
 8002d28:	f7fd fa78 	bl	800021c <Buzzer_ToneOff>
    hx->scale         = HX711_DEFAULT_SCALE;
 8002d2c:	23fe      	movs	r3, #254	@ 0xfe
 8002d2e:	2290      	movs	r2, #144	@ 0x90
 8002d30:	059b      	lsls	r3, r3, #22
 8002d32:	6063      	str	r3, [r4, #4]
 8002d34:	2320      	movs	r3, #32
 8002d36:	2140      	movs	r1, #64	@ 0x40
 8002d38:	05d2      	lsls	r2, r2, #23
    hx->tare_offset   = 0;
 8002d3a:	6025      	str	r5, [r4, #0]
    hx->last_raw      = 0;
 8002d3c:	60a5      	str	r5, [r4, #8]
    hx->gain_pulses   = HX711_GAIN_128;
 8002d3e:	81a6      	strh	r6, [r4, #12]
    hx->last_read_ok  = 0;
 8002d40:	73a5      	strb	r5, [r4, #14]
 8002d42:	6293      	str	r3, [r2, #40]	@ 0x28
    htds->hadc     = hadc;
 8002d44:	4bc1      	ldr	r3, [pc, #772]	@ (800304c <App_Init.constprop.0+0x3a4>)
    htds->last_ppm = 0;
 8002d46:	82a5      	strh	r5, [r4, #20]
    htds->hadc     = hadc;
 8002d48:	6123      	str	r3, [r4, #16]
    htds->valid    = 0;
 8002d4a:	75a5      	strb	r5, [r4, #22]
 8002d4c:	6291      	str	r1, [r2, #40]	@ 0x28
    hntc->last_temp_x10 = 250;    /* 25.0 °C default */
 8002d4e:	22fa      	movs	r2, #250	@ 0xfa
    hntc->hadc          = hadc;
 8002d50:	61a3      	str	r3, [r4, #24]
    hntc->last_temp_x10 = 250;    /* 25.0 °C default */
 8002d52:	83a2      	strh	r2, [r4, #28]
    hbat->hadc       = hadc;
 8002d54:	6223      	str	r3, [r4, #32]
    hbat->percent    = 100;
 8002d56:	3a96      	subs	r2, #150	@ 0x96
 8002d58:	1d63      	adds	r3, r4, #5
 8002d5a:	77da      	strb	r2, [r3, #31]
    hbat->voltage_mv = BAT_FULL_MV;
 8002d5c:	4bbc      	ldr	r3, [pc, #752]	@ (8003050 <App_Init.constprop.0+0x3a8>)
    memset(hble->pkt_buf,  0, sizeof(hble->pkt_buf));
 8002d5e:	0029      	movs	r1, r5
 8002d60:	84e3      	strh	r3, [r4, #38]	@ 0x26
    hble->huart        = huart;
 8002d62:	4bbc      	ldr	r3, [pc, #752]	@ (8003054 <App_Init.constprop.0+0x3ac>)
    memset(hble->pkt_buf,  0, sizeof(hble->pkt_buf));
 8002d64:	3a4b      	subs	r2, #75	@ 0x4b
    hble->huart        = huart;
 8002d66:	63a3      	str	r3, [r4, #56]	@ 0x38
    hble->rx_byte      = 0;
 8002d68:	0023      	movs	r3, r4
 8002d6a:	333c      	adds	r3, #60	@ 0x3c
 8002d6c:	701d      	strb	r5, [r3, #0]
    hble->pkt_len      = 0;
 8002d6e:	0023      	movs	r3, r4
 8002d70:	3356      	adds	r3, #86	@ 0x56
 8002d72:	801d      	strh	r5, [r3, #0]
    hble->pkt_ready    = 0;
 8002d74:	0023      	movs	r3, r4
 8002d76:	3358      	adds	r3, #88	@ 0x58
 8002d78:	701d      	strb	r5, [r3, #0]
    hble->line_len     = 0;
 8002d7a:	0023      	movs	r3, r4
 8002d7c:	3371      	adds	r3, #113	@ 0x71
 8002d7e:	701d      	strb	r5, [r3, #0]
    hble->line_ready   = 0;
 8002d80:	0023      	movs	r3, r4
    memset(hble->pkt_buf,  0, sizeof(hble->pkt_buf));
 8002d82:	48b5      	ldr	r0, [pc, #724]	@ (8003058 <App_Init.constprop.0+0x3b0>)
    hble->line_ready   = 0;
 8002d84:	3372      	adds	r3, #114	@ 0x72
 8002d86:	801d      	strh	r5, [r3, #0]
    hntc->valid         = 0;
 8002d88:	77a5      	strb	r5, [r4, #30]
    hbat->status     = BAT_STATUS_DISCHARGING;
 8002d8a:	8525      	strh	r5, [r4, #40]	@ 0x28
    memset(hble->pkt_buf,  0, sizeof(hble->pkt_buf));
 8002d8c:	f004 fa81 	bl	8007292 <memset>
    memset(hble->line_buf, 0, sizeof(hble->line_buf));
 8002d90:	0029      	movs	r1, r5
 8002d92:	2218      	movs	r2, #24
 8002d94:	48b1      	ldr	r0, [pc, #708]	@ (800305c <App_Init.constprop.0+0x3b4>)
 8002d96:	f004 fa7c 	bl	8007292 <memset>
    GPIO_InitTypeDef g = {0};
 8002d9a:	2208      	movs	r2, #8
 8002d9c:	0029      	movs	r1, r5
 8002d9e:	a806      	add	r0, sp, #24
 8002da0:	f004 fa77 	bl	8007292 <memset>
    g.Pin   = GPIO_PIN_6 | GPIO_PIN_7;
 8002da4:	23c0      	movs	r3, #192	@ 0xc0
    HAL_GPIO_Init(GPIOB, &g);
 8002da6:	4dae      	ldr	r5, [pc, #696]	@ (8003060 <App_Init.constprop.0+0x3b8>)
    g.Pin   = GPIO_PIN_6 | GPIO_PIN_7;
 8002da8:	9303      	str	r3, [sp, #12]
    HAL_GPIO_Init(GPIOB, &g);
 8002daa:	0028      	movs	r0, r5
    g.Mode  = GPIO_MODE_OUTPUT_OD;
 8002dac:	3baf      	subs	r3, #175	@ 0xaf
    HAL_GPIO_Init(GPIOB, &g);
 8002dae:	a903      	add	r1, sp, #12
    g.Mode  = GPIO_MODE_OUTPUT_OD;
 8002db0:	9304      	str	r3, [sp, #16]
    g.Pull  = GPIO_PULLUP;
 8002db2:	9605      	str	r6, [sp, #20]
    HAL_GPIO_Init(GPIOB, &g);
 8002db4:	f7fd fc5f 	bl	8000676 <HAL_GPIO_Init>
    GPIOx->BSRR = (uint32_t)GPIO_Pin;
 8002db8:	23c0      	movs	r3, #192	@ 0xc0
    HAL_Delay(1);
 8002dba:	0030      	movs	r0, r6
 8002dbc:	61ab      	str	r3, [r5, #24]
 8002dbe:	f7fd fb4f 	bl	8000460 <HAL_Delay>
 8002dc2:	3608      	adds	r6, #8
  if ((GPIOx->IDR & GPIO_Pin) != (uint32_t)GPIO_PIN_RESET)
 8002dc4:	2280      	movs	r2, #128	@ 0x80
 8002dc6:	692b      	ldr	r3, [r5, #16]
 8002dc8:	4213      	tst	r3, r2
 8002dca:	d10d      	bne.n	8002de8 <App_Init.constprop.0+0x140>
    GPIOx->BRR = (uint32_t)GPIO_Pin;
 8002dcc:	2340      	movs	r3, #64	@ 0x40
        HAL_GPIO_WritePin(GPIOB, GPIO_PIN_6, GPIO_PIN_RESET); HAL_Delay(1);
 8002dce:	2001      	movs	r0, #1
 8002dd0:	62ab      	str	r3, [r5, #40]	@ 0x28
 8002dd2:	f7fd fb45 	bl	8000460 <HAL_Delay>
    GPIOx->BSRR = (uint32_t)GPIO_Pin;
 8002dd6:	2340      	movs	r3, #64	@ 0x40
    for (uint8_t n = 0; n < 9U; n++) {
 8002dd8:	3e01      	subs	r6, #1
        HAL_GPIO_WritePin(GPIOB, GPIO_PIN_6, GPIO_PIN_SET);   HAL_Delay(1);
 8002dda:	2001      	movs	r0, #1
 8002ddc:	61ab      	str	r3, [r5, #24]
    for (uint8_t n = 0; n < 9U; n++) {
 8002dde:	b2f6      	uxtb	r6, r6
        HAL_GPIO_WritePin(GPIOB, GPIO_PIN_6, GPIO_PIN_SET);   HAL_Delay(1);
 8002de0:	f7fd fb3e 	bl	8000460 <HAL_Delay>
    for (uint8_t n = 0; n < 9U; n++) {
 8002de4:	2e00      	cmp	r6, #0
 8002de6:	d1ed      	bne.n	8002dc4 <App_Init.constprop.0+0x11c>
    GPIOx->BRR = (uint32_t)GPIO_Pin;
 8002de8:	2680      	movs	r6, #128	@ 0x80
    HAL_GPIO_WritePin(GPIOB, GPIO_PIN_7, GPIO_PIN_RESET); HAL_Delay(1);
 8002dea:	2001      	movs	r0, #1
 8002dec:	62ae      	str	r6, [r5, #40]	@ 0x28
 8002dee:	f7fd fb37 	bl	8000460 <HAL_Delay>
    GPIOx->BSRR = (uint32_t)GPIO_Pin;
 8002df2:	2340      	movs	r3, #64	@ 0x40
    HAL_GPIO_WritePin(GPIOB, GPIO_PIN_6, GPIO_PIN_SET);   HAL_Delay(1);
 8002df4:	2001      	movs	r0, #1
 8002df6:	61ab      	str	r3, [r5, #24]
 8002df8:	f7fd fb32 	bl	8000460 <HAL_Delay>
    HAL_GPIO_WritePin(GPIOB, GPIO_PIN_7, GPIO_PIN_SET);   HAL_Delay(1);
 8002dfc:	2001      	movs	r0, #1
 8002dfe:	61ae      	str	r6, [r5, #24]
 8002e00:	f7fd fb2e 	bl	8000460 <HAL_Delay>
    g.Alternate = GPIO_AF1_I2C1;
 8002e04:	2501      	movs	r5, #1
    g.Mode      = GPIO_MODE_AF_OD;
 8002e06:	2312      	movs	r3, #18
    HAL_GPIO_Init(GPIOB, &g);
 8002e08:	4895      	ldr	r0, [pc, #596]	@ (8003060 <App_Init.constprop.0+0x3b8>)
 8002e0a:	a903      	add	r1, sp, #12
    g.Mode      = GPIO_MODE_AF_OD;
 8002e0c:	9304      	str	r3, [sp, #16]
    g.Alternate = GPIO_AF1_I2C1;
 8002e0e:	9507      	str	r5, [sp, #28]
    HAL_GPIO_Init(GPIOB, &g);
 8002e10:	f7fd fc31 	bl	8000676 <HAL_GPIO_Init>
  hi2c->State = HAL_I2C_STATE_BUSY;
 8002e14:	003b      	movs	r3, r7
 8002e16:	2224      	movs	r2, #36	@ 0x24
 8002e18:	3371      	adds	r3, #113	@ 0x71
 8002e1a:	701a      	strb	r2, [r3, #0]
  __HAL_I2C_DISABLE(hi2c);
 8002e1c:	6b3b      	ldr	r3, [r7, #48]	@ 0x30
 8002e1e:	681a      	ldr	r2, [r3, #0]
 8002e20:	43aa      	bics	r2, r5
 8002e22:	601a      	str	r2, [r3, #0]
  if(hi2c->Instance==I2C1)
 8002e24:	4a8f      	ldr	r2, [pc, #572]	@ (8003064 <App_Init.constprop.0+0x3bc>)
 8002e26:	4293      	cmp	r3, r2
 8002e28:	d10a      	bne.n	8002e40 <App_Init.constprop.0+0x198>
    __HAL_RCC_I2C1_CLK_DISABLE();
 8002e2a:	4a8f      	ldr	r2, [pc, #572]	@ (8003068 <App_Init.constprop.0+0x3c0>)
 8002e2c:	498f      	ldr	r1, [pc, #572]	@ (800306c <App_Init.constprop.0+0x3c4>)
 8002e2e:	69d3      	ldr	r3, [r2, #28]
    HAL_GPIO_DeInit(GPIOB, GPIO_PIN_6);
 8002e30:	2040      	movs	r0, #64	@ 0x40
    __HAL_RCC_I2C1_CLK_DISABLE();
 8002e32:	400b      	ands	r3, r1
 8002e34:	61d3      	str	r3, [r2, #28]
    HAL_GPIO_DeInit(GPIOB, GPIO_PIN_6);
 8002e36:	f7fe fbf1 	bl	800161c <HAL_GPIO_DeInit.constprop.0>
    HAL_GPIO_DeInit(GPIOB, GPIO_PIN_7);
 8002e3a:	0030      	movs	r0, r6
 8002e3c:	f7fe fbee 	bl	800161c <HAL_GPIO_DeInit.constprop.0>
  hi2c->State = HAL_I2C_STATE_RESET;
 8002e40:	003b      	movs	r3, r7
  hi2c->ErrorCode = HAL_I2C_ERROR_NONE;
 8002e42:	2500      	movs	r5, #0
  hi2c->State = HAL_I2C_STATE_RESET;
 8002e44:	3371      	adds	r3, #113	@ 0x71
  hi2c->ErrorCode = HAL_I2C_ERROR_NONE;
 8002e46:	677d      	str	r5, [r7, #116]	@ 0x74
  hi2c->State = HAL_I2C_STATE_RESET;
 8002e48:	701d      	strb	r5, [r3, #0]
  hi2c->Mode = HAL_I2C_MODE_NONE;
 8002e4a:	003b      	movs	r3, r7
 8002e4c:	3372      	adds	r3, #114	@ 0x72
  hi2c->PreviousState = I2C_STATE_NONE;
 8002e4e:	663d      	str	r5, [r7, #96]	@ 0x60
  hi2c->Mode = HAL_I2C_MODE_NONE;
 8002e50:	701d      	strb	r5, [r3, #0]
  __HAL_UNLOCK(hi2c);
 8002e52:	003b      	movs	r3, r7
 8002e54:	3370      	adds	r3, #112	@ 0x70
 8002e56:	701d      	strb	r5, [r3, #0]
    HAL_I2C_Init(hi2c);
 8002e58:	f7fe fc36 	bl	80016c8 <HAL_I2C_Init.constprop.0>
    HAL_I2CEx_ConfigAnalogFilter(hi2c, I2C_ANALOGFILTER_ENABLE);
 8002e5c:	f7fe fcc0 	bl	80017e0 <HAL_I2CEx_ConfigAnalogFilter.constprop.0>
    HAL_I2CEx_ConfigDigitalFilter(hi2c, 0);
 8002e60:	f7fe fce6 	bl	8001830 <HAL_I2CEx_ConfigDigitalFilter.constprop.0>
    HAL_Delay(5);
 8002e64:	2005      	movs	r0, #5
 8002e66:	f7fd fafb 	bl	8000460 <HAL_Delay>
    hrtc->unix_approx = 0;
 8002e6a:	0023      	movs	r3, r4
 8002e6c:	3308      	adds	r3, #8
 8002e6e:	67dd      	str	r5, [r3, #124]	@ 0x7c
  hi2c->State = HAL_I2C_STATE_RESET;
 8002e70:	003e      	movs	r6, r7
    hrtc->tick_flag   = 0;
 8002e72:	0023      	movs	r3, r4
    memset(&hrtc->now, 0, sizeof(hrtc->now));
 8002e74:	2207      	movs	r2, #7
    hrtc->tick_flag   = 0;
 8002e76:	3388      	adds	r3, #136	@ 0x88
    memset(&hrtc->now, 0, sizeof(hrtc->now));
 8002e78:	0029      	movs	r1, r5
 8002e7a:	3630      	adds	r6, #48	@ 0x30
 8002e7c:	487c      	ldr	r0, [pc, #496]	@ (8003070 <App_Init.constprop.0+0x3c8>)
    hrtc->tick_flag   = 0;
 8002e7e:	801d      	strh	r5, [r3, #0]
    hrtc->hi2c        = hi2c;
 8002e80:	67a6      	str	r6, [r4, #120]	@ 0x78
    memset(&hrtc->now, 0, sizeof(hrtc->now));
 8002e82:	f004 fa06 	bl	8007292 <memset>
    uint8_t ctrl1 = 0x00U;
 8002e86:	ab02      	add	r3, sp, #8
 8002e88:	1c5a      	adds	r2, r3, #1
    if (PCF_WriteRegs(hi2c, PCF_REG_CTRL1, &ctrl1, 1) != HAL_OK) return HAL_ERROR;
 8002e8a:	0029      	movs	r1, r5
 8002e8c:	2301      	movs	r3, #1
 8002e8e:	0030      	movs	r0, r6
    uint8_t ctrl1 = 0x00U;
 8002e90:	7015      	strb	r5, [r2, #0]
    if (PCF_WriteRegs(hi2c, PCF_REG_CTRL1, &ctrl1, 1) != HAL_OK) return HAL_ERROR;
 8002e92:	f7ff fa49 	bl	8002328 <PCF_WriteRegs>
 8002e96:	42a8      	cmp	r0, r5
 8002e98:	d121      	bne.n	8002ede <App_Init.constprop.0+0x236>
    uint8_t ctrl2 = PCF_CTRL2_TIE;
 8002e9a:	ab02      	add	r3, sp, #8
 8002e9c:	3501      	adds	r5, #1
 8002e9e:	1c9a      	adds	r2, r3, #2
    if (PCF_WriteRegs(hi2c, PCF_REG_CTRL2, &ctrl2, 1) != HAL_OK) return HAL_ERROR;
 8002ea0:	0029      	movs	r1, r5
 8002ea2:	002b      	movs	r3, r5
 8002ea4:	0030      	movs	r0, r6
    uint8_t ctrl2 = PCF_CTRL2_TIE;
 8002ea6:	7015      	strb	r5, [r2, #0]
    if (PCF_WriteRegs(hi2c, PCF_REG_CTRL2, &ctrl2, 1) != HAL_OK) return HAL_ERROR;
 8002ea8:	f7ff fa3e 	bl	8002328 <PCF_WriteRegs>
 8002eac:	2800      	cmp	r0, #0
 8002eae:	d116      	bne.n	8002ede <App_Init.constprop.0+0x236>
    uint8_t tval = 1U;
 8002eb0:	ab02      	add	r3, sp, #8
 8002eb2:	1cda      	adds	r2, r3, #3
    PCF_WriteRegs(hi2c, PCF_REG_TIMER, &tval, 1);
 8002eb4:	210f      	movs	r1, #15
 8002eb6:	002b      	movs	r3, r5
 8002eb8:	0030      	movs	r0, r6
    uint8_t tval = 1U;
 8002eba:	7015      	strb	r5, [r2, #0]
    PCF_WriteRegs(hi2c, PCF_REG_TIMER, &tval, 1);
 8002ebc:	f7ff fa34 	bl	8002328 <PCF_WriteRegs>
    uint8_t tctl = PCF_TIMER_ENABLE | PCF_TIMER_1HZ;
 8002ec0:	2382      	movs	r3, #130	@ 0x82
 8002ec2:	aa03      	add	r2, sp, #12
 8002ec4:	7013      	strb	r3, [r2, #0]
    PCF_WriteRegs(hi2c, PCF_REG_TIMER_CTL, &tctl, 1);
 8002ec6:	210e      	movs	r1, #14
 8002ec8:	002b      	movs	r3, r5
 8002eca:	0030      	movs	r0, r6
 8002ecc:	f7ff fa2c 	bl	8002328 <PCF_WriteRegs>
    hrtc->initialized = 1;
 8002ed0:	0023      	movs	r3, r4
 8002ed2:	3389      	adds	r3, #137	@ 0x89
 8002ed4:	701d      	strb	r5, [r3, #0]
    return RTC_Read(hrtc);
 8002ed6:	f7fe f947 	bl	8001168 <RTC_Read.constprop.0>
    if (RTC_Init(&app->rtc, hi2c) != HAL_OK) {
 8002eda:	2800      	cmp	r0, #0
 8002edc:	d00d      	beq.n	8002efa <App_Init.constprop.0+0x252>
        app->rtc.unix_approx = 0;
 8002ede:	0022      	movs	r2, r4
 8002ee0:	2300      	movs	r3, #0
 8002ee2:	3208      	adds	r2, #8
 8002ee4:	67d3      	str	r3, [r2, #124]	@ 0x7c
        app->rtc.initialized = 0;
 8002ee6:	0022      	movs	r2, r4
 8002ee8:	3289      	adds	r2, #137	@ 0x89
 8002eea:	7013      	strb	r3, [r2, #0]
    NVIC->ICER[0U] = (uint32_t)(1UL << (((uint32_t)IRQn) & 0x1FUL));
 8002eec:	2280      	movs	r2, #128	@ 0x80
 8002eee:	4b61      	ldr	r3, [pc, #388]	@ (8003074 <App_Init.constprop.0+0x3cc>)
 8002ef0:	67da      	str	r2, [r3, #124]	@ 0x7c
  __ASM volatile ("dsb 0xF":::"memory");
 8002ef2:	f3bf 8f4f 	dsb	sy
  __ASM volatile ("isb 0xF":::"memory");
 8002ef6:	f3bf 8f6f 	isb	sy
    memcpy(out, (const void *)addr, len);
 8002efa:	4d5f      	ldr	r5, [pc, #380]	@ (8003078 <App_Init.constprop.0+0x3d0>)
 8002efc:	2248      	movs	r2, #72	@ 0x48
 8002efe:	0028      	movs	r0, r5
 8002f00:	495e      	ldr	r1, [pc, #376]	@ (800307c <App_Init.constprop.0+0x3d4>)
 8002f02:	f004 fa0b 	bl	800731c <memcpy>
    if (out->magic != SETTINGS_MAGIC) {
 8002f06:	4b5e      	ldr	r3, [pc, #376]	@ (8003080 <App_Init.constprop.0+0x3d8>)
 8002f08:	682a      	ldr	r2, [r5, #0]
 8002f0a:	429a      	cmp	r2, r3
 8002f0c:	d029      	beq.n	8002f62 <App_Init.constprop.0+0x2ba>
        memset(out, 0, sizeof(DeviceSettings_t));
 8002f0e:	2248      	movs	r2, #72	@ 0x48
 8002f10:	2100      	movs	r1, #0
 8002f12:	0028      	movs	r0, r5
 8002f14:	f004 f9bd 	bl	8007292 <memset>
    p->purity_goal_hi  = 0x01; p->purity_goal_lo  = 0xF4;  /* 500 ppm      */
 8002f18:	0023      	movs	r3, r4
 8002f1a:	4a5a      	ldr	r2, [pc, #360]	@ (8003084 <App_Init.constprop.0+0x3dc>)
 8002f1c:	33a8      	adds	r3, #168	@ 0xa8
 8002f1e:	601a      	str	r2, [r3, #0]
    p->hydration_hi    = 0x07; p->hydration_lo    = 0xD0;  /* 2000 ml      */
 8002f20:	0023      	movs	r3, r4
 8002f22:	4a59      	ldr	r2, [pc, #356]	@ (8003088 <App_Init.constprop.0+0x3e0>)
 8002f24:	33ac      	adds	r3, #172	@ 0xac
 8002f26:	801a      	strh	r2, [r3, #0]
    p->remind_h_start  = 8;    p->remind_m_start  = 0;
 8002f28:	0023      	movs	r3, r4
 8002f2a:	2208      	movs	r2, #8
 8002f2c:	33ae      	adds	r3, #174	@ 0xae
 8002f2e:	701a      	strb	r2, [r3, #0]
    p->remind_h_end    = 20;   p->remind_m_end    = 0;
 8002f30:	0023      	movs	r3, r4
 8002f32:	320c      	adds	r2, #12
 8002f34:	33b0      	adds	r3, #176	@ 0xb0
 8002f36:	701a      	strb	r2, [r3, #0]
    p->remind_freq_min = 60;
 8002f38:	0023      	movs	r3, r4
 8002f3a:	3228      	adds	r2, #40	@ 0x28
 8002f3c:	33b2      	adds	r3, #178	@ 0xb2
 8002f3e:	701a      	strb	r2, [r3, #0]
    p->remind_r        = 0;    p->remind_g        = 255;   p->remind_b = 0;
 8002f40:	0023      	movs	r3, r4
 8002f42:	32c3      	adds	r2, #195	@ 0xc3
 8002f44:	33b4      	adds	r3, #180	@ 0xb4
 8002f46:	701a      	strb	r2, [r3, #0]
    p->remind_sound    = 2;    /* double_beep */
 8002f48:	0023      	movs	r3, r4
 8002f4a:	3afe      	subs	r2, #254	@ 0xfe
 8002f4c:	33b6      	adds	r3, #182	@ 0xb6
 8002f4e:	3aff      	subs	r2, #255	@ 0xff
 8002f50:	801a      	strh	r2, [r3, #0]
    p->lamp_r          = 255;  p->lamp_g          = 255;   p->lamp_b   = 255;
 8002f52:	0023      	movs	r3, r4
 8002f54:	32fd      	adds	r2, #253	@ 0xfd
 8002f56:	33b8      	adds	r3, #184	@ 0xb8
 8002f58:	801a      	strh	r2, [r3, #0]
        out->hx711_scale   = 440.0f;
 8002f5a:	0023      	movs	r3, r4
 8002f5c:	4a4b      	ldr	r2, [pc, #300]	@ (800308c <App_Init.constprop.0+0x3e4>)
 8002f5e:	33e4      	adds	r3, #228	@ 0xe4
 8002f60:	601a      	str	r2, [r3, #0]
    memcpy(out, (const void *)addr, len);
 8002f62:	4d4b      	ldr	r5, [pc, #300]	@ (8003090 <App_Init.constprop.0+0x3e8>)
 8002f64:	22f4      	movs	r2, #244	@ 0xf4
 8002f66:	0028      	movs	r0, r5
 8002f68:	494a      	ldr	r1, [pc, #296]	@ (8003094 <App_Init.constprop.0+0x3ec>)
 8002f6a:	f004 f9d7 	bl	800731c <memcpy>
    if (log->count > STORAGE_MAX_DRINK_EVENTS)
 8002f6e:	23ee      	movs	r3, #238	@ 0xee
 8002f70:	005b      	lsls	r3, r3, #1
 8002f72:	5ce3      	ldrb	r3, [r4, r3]
 8002f74:	2b14      	cmp	r3, #20
 8002f76:	d904      	bls.n	8002f82 <App_Init.constprop.0+0x2da>
        memset(log, 0, sizeof(DrinkLog_t));
 8002f78:	22f4      	movs	r2, #244	@ 0xf4
 8002f7a:	2100      	movs	r1, #0
 8002f7c:	0028      	movs	r0, r5
 8002f7e:	f004 f988 	bl	8007292 <memset>
    memcpy(out, (const void *)addr, len);
 8002f82:	4d45      	ldr	r5, [pc, #276]	@ (8003098 <App_Init.constprop.0+0x3f0>)
 8002f84:	22ac      	movs	r2, #172	@ 0xac
 8002f86:	0028      	movs	r0, r5
 8002f88:	4944      	ldr	r1, [pc, #272]	@ (800309c <App_Init.constprop.0+0x3f4>)
 8002f8a:	f004 f9c7 	bl	800731c <memcpy>
    if (daily->count > STORAGE_MAX_DAILY_DAYS)
 8002f8e:	23a2      	movs	r3, #162	@ 0xa2
 8002f90:	009b      	lsls	r3, r3, #2
 8002f92:	5ce3      	ldrb	r3, [r4, r3]
 8002f94:	2b0e      	cmp	r3, #14
 8002f96:	d904      	bls.n	8002fa2 <App_Init.constprop.0+0x2fa>
        memset(daily, 0, sizeof(DailySummaryLog_t));
 8002f98:	22ac      	movs	r2, #172	@ 0xac
 8002f9a:	2100      	movs	r1, #0
 8002f9c:	0028      	movs	r0, r5
 8002f9e:	f004 f978 	bl	8007292 <memset>
    app->hx711.tare_offset = (int32_t)app->settings.tare_offset;
 8002fa2:	0023      	movs	r3, r4
 8002fa4:	33e0      	adds	r3, #224	@ 0xe0
 8002fa6:	6818      	ldr	r0, [r3, #0]
 8002fa8:	f003 fa0a 	bl	80063c0 <__aeabi_f2iz>
    if (app->settings.hx711_scale > 1.0f) {
 8002fac:	0023      	movs	r3, r4
 8002fae:	21fe      	movs	r1, #254	@ 0xfe
 8002fb0:	33e4      	adds	r3, #228	@ 0xe4
 8002fb2:	681d      	ldr	r5, [r3, #0]
    app->hx711.tare_offset = (int32_t)app->settings.tare_offset;
 8002fb4:	6020      	str	r0, [r4, #0]
    if (app->settings.hx711_scale > 1.0f) {
 8002fb6:	0589      	lsls	r1, r1, #22
 8002fb8:	1c28      	adds	r0, r5, #0
 8002fba:	f002 fa15 	bl	80053e8 <__aeabi_fcmpgt>
 8002fbe:	2800      	cmp	r0, #0
 8002fc0:	d028      	beq.n	8003014 <App_Init.constprop.0+0x36c>

/* ─── Scale override (restore from flash) ────────────────────────────────── */
void HX711_SetScale(HX711_Handle_t *hx, float scale)
{
    hx->scale         = scale;
    hx->is_calibrated = (scale > 0.0f) ? 1U : 0U;
 8002fc2:	2301      	movs	r3, #1
    hx->scale         = scale;
 8002fc4:	6065      	str	r5, [r4, #4]
    hx->is_calibrated = (scale > 0.0f) ? 1U : 0U;
 8002fc6:	7363      	strb	r3, [r4, #13]
    app->current_temp_x10 = 250;
 8002fc8:	22fa      	movs	r2, #250	@ 0xfa
 8002fca:	4b35      	ldr	r3, [pc, #212]	@ (80030a0 <App_Init.constprop.0+0x3f8>)
    memset(ctx, 0, sizeof(DeviceContext_t));
 8002fcc:	4d35      	ldr	r5, [pc, #212]	@ (80030a4 <App_Init.constprop.0+0x3fc>)
 8002fce:	52e2      	strh	r2, [r4, r3]
 8002fd0:	2100      	movs	r1, #0
 8002fd2:	3ae2      	subs	r2, #226	@ 0xe2
 8002fd4:	0028      	movs	r0, r5
 8002fd6:	f004 f95c 	bl	8007292 <memset>
    HAL_UART_Receive_IT(hble->huart, &hble->rx_byte, 1);
 8002fda:	6ba0      	ldr	r0, [r4, #56]	@ 0x38
 8002fdc:	f7fe fc4e 	bl	800187c <HAL_UART_Receive_IT.constprop.0.isra.0>
    if (!app->settings.is_registered) {
 8002fe0:	0023      	movs	r3, r4
 8002fe2:	33da      	adds	r3, #218	@ 0xda
 8002fe4:	781b      	ldrb	r3, [r3, #0]
 8002fe6:	2b00      	cmp	r3, #0
 8002fe8:	d119      	bne.n	800301e <App_Init.constprop.0+0x376>
        app->dev.state = DEV_STATE_UNREGISTERED;
 8002fea:	2601      	movs	r6, #1
        WS2812B_SetPattern(LED_PATTERN_REGISTRATION);
 8002fec:	200d      	movs	r0, #13
        app->dev.state = DEV_STATE_UNREGISTERED;
 8002fee:	702e      	strb	r6, [r5, #0]
        WS2812B_SetPattern(LED_PATTERN_REGISTRATION);
 8002ff0:	f7fd fa0e 	bl	8000410 <WS2812B_SetPattern>
        Buzzer_Play(BUZZER_STARTUP);
 8002ff4:	0030      	movs	r0, r6
 8002ff6:	f7fe fad3 	bl	80015a0 <Buzzer_Play>
    app->current_day_unix = (app->rtc.unix_approx / 86400UL) * 86400UL;
 8002ffa:	0023      	movs	r3, r4
 8002ffc:	3308      	adds	r3, #8
 8002ffe:	6fd8      	ldr	r0, [r3, #124]	@ 0x7c
 8003000:	4929      	ldr	r1, [pc, #164]	@ (80030a8 <App_Init.constprop.0+0x400>)
 8003002:	f002 f855 	bl	80050b0 <__udivsi3>
 8003006:	22b8      	movs	r2, #184	@ 0xb8
 8003008:	4b27      	ldr	r3, [pc, #156]	@ (80030a8 <App_Init.constprop.0+0x400>)
 800300a:	0092      	lsls	r2, r2, #2
 800300c:	4343      	muls	r3, r0
 800300e:	50a3      	str	r3, [r4, r2]
}
 8003010:	b009      	add	sp, #36	@ 0x24
 8003012:	bdf0      	pop	{r4, r5, r6, r7, pc}
        app->hx711.scale         = HX711_DEFAULT_SCALE;
 8003014:	23fe      	movs	r3, #254	@ 0xfe
 8003016:	059b      	lsls	r3, r3, #22
 8003018:	6063      	str	r3, [r4, #4]
        app->hx711.is_calibrated = 0;
 800301a:	7360      	strb	r0, [r4, #13]
 800301c:	e7d4      	b.n	8002fc8 <App_Init.constprop.0+0x320>
        app->dev.state = DEV_STATE_ACTIVE;
 800301e:	2304      	movs	r3, #4
        WS2812B_SetPattern(LED_PATTERN_ALL_OFF);
 8003020:	2001      	movs	r0, #1
        app->dev.state = DEV_STATE_ACTIVE;
 8003022:	702b      	strb	r3, [r5, #0]
        WS2812B_SetPattern(LED_PATTERN_ALL_OFF);
 8003024:	f7fd f9f4 	bl	8000410 <WS2812B_SetPattern>
 8003028:	e7e7      	b.n	8002ffa <App_Init.constprop.0+0x352>
 800302a:	46c0      	nop			@ (mov r8, r8)
 800302c:	2000053c 	.word	0x2000053c
 8003030:	20000180 	.word	0x20000180
 8003034:	20000130 	.word	0x20000130
 8003038:	20000100 	.word	0x20000100
 800303c:	200000d4 	.word	0x200000d4
 8003040:	20000080 	.word	0x20000080
 8003044:	20000284 	.word	0x20000284
 8003048:	20000000 	.word	0x20000000
 800304c:	2000023c 	.word	0x2000023c
 8003050:	00001068 	.word	0x00001068
 8003054:	200004b4 	.word	0x200004b4
 8003058:	20000579 	.word	0x20000579
 800305c:	20000595 	.word	0x20000595
 8003060:	48000400 	.word	0x48000400
 8003064:	40005400 	.word	0x40005400
 8003068:	40021000 	.word	0x40021000
 800306c:	ffdfffff 	.word	0xffdfffff
 8003070:	200005b8 	.word	0x200005b8
 8003074:	e000e104 	.word	0xe000e104
 8003078:	200005e0 	.word	0x200005e0
 800307c:	08007000 	.word	0x08007000
 8003080:	a55a1234 	.word	0xa55a1234
 8003084:	9001f401 	.word	0x9001f401
 8003088:	ffffd007 	.word	0xffffd007
 800308c:	43dc0000 	.word	0x43dc0000
 8003090:	20000628 	.word	0x20000628
 8003094:	08007400 	.word	0x08007400
 8003098:	2000071c 	.word	0x2000071c
 800309c:	08007c00 	.word	0x08007c00
 80030a0:	00000296 	.word	0x00000296
 80030a4:	200005c8 	.word	0x200005c8
 80030a8:	00015180 	.word	0x00015180

080030ac <Storage_UpdateDailySummary.constprop.0>:
void Storage_UpdateDailySummary(DailySummaryLog_t *daily,
 80030ac:	b5f0      	push	{r4, r5, r6, r7, lr}
    uint32_t midnight = (today_unix / 86400UL) * 86400UL;
 80030ae:	4947      	ldr	r1, [pc, #284]	@ (80031cc <Storage_UpdateDailySummary.constprop.0+0x120>)
void Storage_UpdateDailySummary(DailySummaryLog_t *daily,
 80030b0:	b087      	sub	sp, #28
    uint32_t midnight = (today_unix / 86400UL) * 86400UL;
 80030b2:	f001 fffd 	bl	80050b0 <__udivsi3>
    for (uint8_t i = 0; i < daily->count; i++) {
 80030b6:	23a2      	movs	r3, #162	@ 0xa2
 80030b8:	4d45      	ldr	r5, [pc, #276]	@ (80031d0 <Storage_UpdateDailySummary.constprop.0+0x124>)
 80030ba:	009b      	lsls	r3, r3, #2
    uint32_t midnight = (today_unix / 86400UL) * 86400UL;
 80030bc:	4f43      	ldr	r7, [pc, #268]	@ (80031cc <Storage_UpdateDailySummary.constprop.0+0x120>)
    for (uint8_t i = 0; i < daily->count; i++) {
 80030be:	5cea      	ldrb	r2, [r5, r3]
 80030c0:	4b44      	ldr	r3, [pc, #272]	@ (80031d4 <Storage_UpdateDailySummary.constprop.0+0x128>)
    uint32_t midnight = (today_unix / 86400UL) * 86400UL;
 80030c2:	4347      	muls	r7, r0
    for (uint8_t i = 0; i < daily->count; i++) {
 80030c4:	2400      	movs	r4, #0
 80030c6:	0018      	movs	r0, r3
 80030c8:	4294      	cmp	r4, r2
 80030ca:	d123      	bne.n	8003114 <Storage_UpdateDailySummary.constprop.0+0x68>
        if (daily->count >= STORAGE_MAX_DAILY_DAYS) {
 80030cc:	2c0e      	cmp	r4, #14
 80030ce:	d107      	bne.n	80030e0 <Storage_UpdateDailySummary.constprop.0+0x34>
            memmove(&daily->days[0], &daily->days[1],
 80030d0:	229c      	movs	r2, #156	@ 0x9c
 80030d2:	4941      	ldr	r1, [pc, #260]	@ (80031d8 <Storage_UpdateDailySummary.constprop.0+0x12c>)
 80030d4:	f004 f910 	bl	80072f8 <memmove>
            daily->count = STORAGE_MAX_DAILY_DAYS - 1U;
 80030d8:	23a2      	movs	r3, #162	@ 0xa2
 80030da:	220d      	movs	r2, #13
 80030dc:	009b      	lsls	r3, r3, #2
 80030de:	54ea      	strb	r2, [r5, r3]
        today_idx = (int8_t)daily->count++;
 80030e0:	23a2      	movs	r3, #162	@ 0xa2
 80030e2:	009b      	lsls	r3, r3, #2
 80030e4:	5cec      	ldrb	r4, [r5, r3]
        memset(&daily->days[today_idx], 0, sizeof(DailySummary_t));
 80030e6:	2100      	movs	r1, #0
        today_idx = (int8_t)daily->count++;
 80030e8:	1c62      	adds	r2, r4, #1
 80030ea:	54ea      	strb	r2, [r5, r3]
        memset(&daily->days[today_idx], 0, sizeof(DailySummary_t));
 80030ec:	220c      	movs	r2, #12
 80030ee:	0016      	movs	r6, r2
        today_idx = (int8_t)daily->count++;
 80030f0:	b264      	sxtb	r4, r4
        memset(&daily->days[today_idx], 0, sizeof(DailySummary_t));
 80030f2:	4366      	muls	r6, r4
 80030f4:	0030      	movs	r0, r6
 80030f6:	30e1      	adds	r0, #225	@ 0xe1
 80030f8:	30ff      	adds	r0, #255	@ 0xff
 80030fa:	1828      	adds	r0, r5, r0
 80030fc:	f004 f8c9 	bl	8007292 <memset>
        daily->days[today_idx].date_unix = midnight;
 8003100:	23f0      	movs	r3, #240	@ 0xf0
 8003102:	19ae      	adds	r6, r5, r6
 8003104:	005b      	lsls	r3, r3, #1
 8003106:	50f7      	str	r7, [r6, r3]
        daily->days[today_idx].valid     = 1;
 8003108:	36eb      	adds	r6, #235	@ 0xeb
 800310a:	3be0      	subs	r3, #224	@ 0xe0
 800310c:	36ff      	adds	r6, #255	@ 0xff
 800310e:	3bff      	subs	r3, #255	@ 0xff
 8003110:	7033      	strb	r3, [r6, #0]
 8003112:	e006      	b.n	8003122 <Storage_UpdateDailySummary.constprop.0+0x76>
        if (daily->days[i].date_unix == midnight) {
 8003114:	330c      	adds	r3, #12
 8003116:	0019      	movs	r1, r3
 8003118:	390c      	subs	r1, #12
 800311a:	6809      	ldr	r1, [r1, #0]
 800311c:	428f      	cmp	r7, r1
 800311e:	d134      	bne.n	800318a <Storage_UpdateDailySummary.constprop.0+0xde>
            today_idx = (int8_t)i;
 8003120:	b264      	sxtb	r4, r4
    for (uint8_t i = 0; i < log->count; i++) {
 8003122:	23ee      	movs	r3, #238	@ 0xee
 8003124:	005b      	lsls	r3, r3, #1
 8003126:	5ceb      	ldrb	r3, [r5, r3]
            log->events[i].unix_time <  midnight + 86400UL) {
 8003128:	4928      	ldr	r1, [pc, #160]	@ (80031cc <Storage_UpdateDailySummary.constprop.0+0x120>)
    for (uint8_t i = 0; i < log->count; i++) {
 800312a:	9304      	str	r3, [sp, #16]
 800312c:	2300      	movs	r3, #0
    uint16_t cnt      = 0;
 800312e:	001e      	movs	r6, r3
            log->events[i].unix_time <  midnight + 86400UL) {
 8003130:	1879      	adds	r1, r7, r1
 8003132:	4a2a      	ldr	r2, [pc, #168]	@ (80031dc <Storage_UpdateDailySummary.constprop.0+0x130>)
    int32_t  sum_temp = 0;
 8003134:	9303      	str	r3, [sp, #12]
    uint32_t total_ml = 0, sum_ppm = 0;
 8003136:	9302      	str	r3, [sp, #8]
 8003138:	9301      	str	r3, [sp, #4]
            log->events[i].unix_time <  midnight + 86400UL) {
 800313a:	9105      	str	r1, [sp, #20]
    for (uint8_t i = 0; i < log->count; i++) {
 800313c:	9904      	ldr	r1, [sp, #16]
 800313e:	428b      	cmp	r3, r1
 8003140:	d126      	bne.n	8003190 <Storage_UpdateDailySummary.constprop.0+0xe4>
    daily->days[today_idx].total_ml       = (uint16_t)total_ml;
 8003142:	220c      	movs	r2, #12
 8003144:	4362      	muls	r2, r4
 8003146:	4b22      	ldr	r3, [pc, #136]	@ (80031d0 <Storage_UpdateDailySummary.constprop.0+0x124>)
 8003148:	9901      	ldr	r1, [sp, #4]
 800314a:	189b      	adds	r3, r3, r2
 800314c:	22f2      	movs	r2, #242	@ 0xf2
 800314e:	0052      	lsls	r2, r2, #1
 8003150:	5299      	strh	r1, [r3, r2]
    daily->days[today_idx].avg_temp_x10   = cnt ? (int16_t)(sum_temp / cnt) : 0;
 8003152:	2200      	movs	r2, #0
    daily->days[today_idx].avg_purity_ppm = cnt ? (uint16_t)(sum_ppm / cnt)  : 0U;
 8003154:	4296      	cmp	r6, r2
 8003156:	d00a      	beq.n	800316e <Storage_UpdateDailySummary.constprop.0+0xc2>
 8003158:	0031      	movs	r1, r6
 800315a:	9802      	ldr	r0, [sp, #8]
 800315c:	f001 ffa8 	bl	80050b0 <__udivsi3>
    daily->days[today_idx].avg_temp_x10   = cnt ? (int16_t)(sum_temp / cnt) : 0;
 8003160:	0031      	movs	r1, r6
    daily->days[today_idx].avg_purity_ppm = cnt ? (uint16_t)(sum_ppm / cnt)  : 0U;
 8003162:	b287      	uxth	r7, r0
    daily->days[today_idx].avg_temp_x10   = cnt ? (int16_t)(sum_temp / cnt) : 0;
 8003164:	9803      	ldr	r0, [sp, #12]
 8003166:	f002 f82d 	bl	80051c4 <__divsi3>
    daily->days[today_idx].avg_purity_ppm = cnt ? (uint16_t)(sum_ppm / cnt)  : 0U;
 800316a:	003e      	movs	r6, r7
    daily->days[today_idx].avg_temp_x10   = cnt ? (int16_t)(sum_temp / cnt) : 0;
 800316c:	b202      	sxth	r2, r0
 800316e:	230c      	movs	r3, #12
 8003170:	21f3      	movs	r1, #243	@ 0xf3
 8003172:	4363      	muls	r3, r4
 8003174:	0049      	lsls	r1, r1, #1
 8003176:	18eb      	adds	r3, r5, r3
 8003178:	525e      	strh	r6, [r3, r1]
 800317a:	33e9      	adds	r3, #233	@ 0xe9
 800317c:	33ff      	adds	r3, #255	@ 0xff
 800317e:	801a      	strh	r2, [r3, #0]
    daily->dirty = 1;
 8003180:	2201      	movs	r2, #1
 8003182:	4b17      	ldr	r3, [pc, #92]	@ (80031e0 <Storage_UpdateDailySummary.constprop.0+0x134>)
 8003184:	54ea      	strb	r2, [r5, r3]
}
 8003186:	b007      	add	sp, #28
 8003188:	bdf0      	pop	{r4, r5, r6, r7, pc}
    for (uint8_t i = 0; i < daily->count; i++) {
 800318a:	3401      	adds	r4, #1
 800318c:	b2e4      	uxtb	r4, r4
 800318e:	e79b      	b.n	80030c8 <Storage_UpdateDailySummary.constprop.0+0x1c>
        if (log->events[i].unix_time >= midnight &&
 8003190:	6811      	ldr	r1, [r2, #0]
 8003192:	468c      	mov	ip, r1
 8003194:	428f      	cmp	r7, r1
 8003196:	d814      	bhi.n	80031c2 <Storage_UpdateDailySummary.constprop.0+0x116>
 8003198:	9905      	ldr	r1, [sp, #20]
 800319a:	458c      	cmp	ip, r1
 800319c:	d211      	bcs.n	80031c2 <Storage_UpdateDailySummary.constprop.0+0x116>
            total_ml += log->events[i].volume_ml;
 800319e:	8891      	ldrh	r1, [r2, #4]
            cnt++;
 80031a0:	3601      	adds	r6, #1
            total_ml += log->events[i].volume_ml;
 80031a2:	468c      	mov	ip, r1
 80031a4:	9901      	ldr	r1, [sp, #4]
            cnt++;
 80031a6:	b2b6      	uxth	r6, r6
            total_ml += log->events[i].volume_ml;
 80031a8:	4461      	add	r1, ip
 80031aa:	9101      	str	r1, [sp, #4]
            sum_ppm  += log->events[i].purity_ppm;
 80031ac:	88d1      	ldrh	r1, [r2, #6]
 80031ae:	468c      	mov	ip, r1
 80031b0:	9902      	ldr	r1, [sp, #8]
 80031b2:	4461      	add	r1, ip
 80031b4:	9102      	str	r1, [sp, #8]
            sum_temp += log->events[i].temp_x10;   /* int16_t as defined */
 80031b6:	2008      	movs	r0, #8
 80031b8:	5e11      	ldrsh	r1, [r2, r0]
 80031ba:	468c      	mov	ip, r1
 80031bc:	9903      	ldr	r1, [sp, #12]
 80031be:	4461      	add	r1, ip
 80031c0:	9103      	str	r1, [sp, #12]
    for (uint8_t i = 0; i < log->count; i++) {
 80031c2:	3301      	adds	r3, #1
 80031c4:	b2db      	uxtb	r3, r3
 80031c6:	320c      	adds	r2, #12
 80031c8:	e7b8      	b.n	800313c <Storage_UpdateDailySummary.constprop.0+0x90>
 80031ca:	46c0      	nop			@ (mov r8, r8)
 80031cc:	00015180 	.word	0x00015180
 80031d0:	2000053c 	.word	0x2000053c
 80031d4:	2000071c 	.word	0x2000071c
 80031d8:	20000728 	.word	0x20000728
 80031dc:	20000628 	.word	0x20000628
 80031e0:	00000289 	.word	0x00000289

080031e4 <BLE_SendStr.constprop.0.isra.0>:
    if ((HAL_GetTick() - hble->rx_last_ms) < idle_ms) return;
    hble->line_buf[hble->line_len] = '\0';
    hble->line_ready = 1;
}

HAL_StatusTypeDef BLE_SendStr(BLE_Handle_t *hble, const char *s)
 80031e4:	b510      	push	{r4, lr}
 80031e6:	0004      	movs	r4, r0
{
    BLE_TxRaw(hble, (const uint8_t *)s, (uint16_t)strlen(s));
 80031e8:	f001 ff46 	bl	8005078 <strlen>
 80031ec:	b281      	uxth	r1, r0
 80031ee:	0020      	movs	r0, r4
 80031f0:	f7fd fda6 	bl	8000d40 <BLE_TxRaw.constprop.0>
    return HAL_OK;
}
 80031f4:	bd10      	pop	{r4, pc}

080031f6 <App_Run.constprop.0>:
void App_Run(AppContext_t *app)
 80031f6:	b5f0      	push	{r4, r5, r6, r7, lr}
 80031f8:	2609      	movs	r6, #9
 80031fa:	4dc5      	ldr	r5, [pc, #788]	@ (8003510 <App_Run.constprop.0+0x31a>)
 80031fc:	b0a5      	sub	sp, #148	@ 0x94
 80031fe:	6f6b      	ldr	r3, [r5, #116]	@ 0x74
 8003200:	9302      	str	r3, [sp, #8]

/* Pop one queued event, or EVT_NONE if empty. */
static DeviceEvent_t Device_PopEvent(DeviceContext_t *ctx)
{
    if (ctx->evt_tail == ctx->evt_head) return EVT_NONE;
 8003202:	4cc4      	ldr	r4, [pc, #784]	@ (8003514 <App_Run.constprop.0+0x31e>)
 8003204:	49c4      	ldr	r1, [pc, #784]	@ (8003518 <App_Run.constprop.0+0x322>)
 8003206:	0023      	movs	r3, r4
 8003208:	3396      	adds	r3, #150	@ 0x96
 800320a:	780a      	ldrb	r2, [r1, #0]
 800320c:	781b      	ldrb	r3, [r3, #0]
 800320e:	4293      	cmp	r3, r2
 8003210:	d03f      	beq.n	8003292 <App_Run.constprop.0+0x9c>
    DeviceEvent_t e = ctx->evt_queue[ctx->evt_tail];
 8003212:	0023      	movs	r3, r4
    ctx->evt_tail = (uint8_t)((ctx->evt_tail + 1U) % DEV_EVENT_QUEUE_LEN);
 8003214:	2007      	movs	r0, #7
    DeviceEvent_t e = ctx->evt_queue[ctx->evt_tail];
 8003216:	338e      	adds	r3, #142	@ 0x8e
 8003218:	5c9b      	ldrb	r3, [r3, r2]
    ctx->evt_tail = (uint8_t)((ctx->evt_tail + 1U) % DEV_EVENT_QUEUE_LEN);
 800321a:	3201      	adds	r2, #1
 800321c:	4002      	ands	r2, r0
 800321e:	700a      	strb	r2, [r1, #0]
    /* Drain ALL queued events this loop so back-to-back transitions
     * (e.g. CMD_CALIBRATION immediately followed by CALIBRATION_DONE during
     *  the registration flow) are never lost. Bounded by queue length. */
    DeviceEvent_t evt;
    uint8_t guard = DEV_EVENT_QUEUE_LEN + 1U;
    while (guard-- && (evt = Device_PopEvent(ctx)) != EVT_NONE) {
 8003220:	2b00      	cmp	r3, #0
 8003222:	d036      	beq.n	8003292 <App_Run.constprop.0+0x9c>
    DeviceState_t cur = ctx->state;
 8003224:	0022      	movs	r2, r4
 8003226:	328c      	adds	r2, #140	@ 0x8c
    switch (cur) {
 8003228:	7810      	ldrb	r0, [r2, #0]
 800322a:	3801      	subs	r0, #1
 800322c:	2809      	cmp	r0, #9
 800322e:	d82c      	bhi.n	800328a <App_Run.constprop.0+0x94>
 8003230:	f001 ff34 	bl	800509c <__gnu_thumb1_case_uhi>
 8003234:	0018000a 	.word	0x0018000a
 8003238:	00bf0029 	.word	0x00bf0029
 800323c:	01270110 	.word	0x01270110
 8003240:	002b012e 	.word	0x002b012e
 8003244:	01450135 	.word	0x01450135
        if (evt == EVT_CMD_REGISTER) OnEnterState(ctx, DEV_STATE_PAIRING);
 8003248:	2b04      	cmp	r3, #4
 800324a:	d11e      	bne.n	800328a <App_Run.constprop.0+0x94>
    ctx->state            = new_state;
 800324c:	0023      	movs	r3, r4
 800324e:	2202      	movs	r2, #2
 8003250:	338c      	adds	r3, #140	@ 0x8c
 8003252:	701a      	strb	r2, [r3, #0]
    ctx->state_entry_tick = HAL_GetTick();
 8003254:	0023      	movs	r3, r4
        WS2812B_SetPattern(LED_PATTERN_REGISTRATION);
 8003256:	200d      	movs	r0, #13
 8003258:	6f6a      	ldr	r2, [r5, #116]	@ 0x74
    ctx->state_entry_tick = HAL_GetTick();
 800325a:	3398      	adds	r3, #152	@ 0x98
 800325c:	601a      	str	r2, [r3, #0]
        WS2812B_SetPattern(LED_PATTERN_CALIBRATION);
 800325e:	f7fd f8d7 	bl	8000410 <WS2812B_SetPattern>
        break;
 8003262:	e012      	b.n	800328a <App_Run.constprop.0+0x94>
        if (evt == EVT_CALIBRATION_DONE) OnEnterState(ctx, DEV_STATE_ACTIVE);
 8003264:	2b06      	cmp	r3, #6
 8003266:	d000      	beq.n	800326a <App_Run.constprop.0+0x74>
 8003268:	e0e7      	b.n	800343a <App_Run.constprop.0+0x244>
    ctx->state            = new_state;
 800326a:	0023      	movs	r3, r4
 800326c:	2204      	movs	r2, #4
 800326e:	338c      	adds	r3, #140	@ 0x8c
 8003270:	701a      	strb	r2, [r3, #0]
    ctx->state_entry_tick = HAL_GetTick();
 8003272:	0023      	movs	r3, r4
 8003274:	6f6a      	ldr	r2, [r5, #116]	@ 0x74
 8003276:	3398      	adds	r3, #152	@ 0x98
 8003278:	601a      	str	r2, [r3, #0]
        WS2812B_SetPattern(LED_PATTERN_ALL_OFF);
 800327a:	2001      	movs	r0, #1
 800327c:	f7fd f8c8 	bl	8000410 <WS2812B_SetPattern>
        Buzzer_Play(BUZZER_REGISTRATION_OK);
 8003280:	300a      	adds	r0, #10
 8003282:	f001 fc51 	bl	8004b28 <App_Run.constprop.0+0x1932>
        if (evt == EVT_CALIBRATION_DONE) OnEnterState(ctx, DEV_STATE_ACTIVE);
 8003286:	2b06      	cmp	r3, #6
 8003288:	d0ef      	beq.n	800326a <App_Run.constprop.0+0x74>
    while (guard-- && (evt = Device_PopEvent(ctx)) != EVT_NONE) {
 800328a:	3e01      	subs	r6, #1
 800328c:	b2f6      	uxtb	r6, r6
 800328e:	2e00      	cmp	r6, #0
 8003290:	d1b7      	bne.n	8003202 <App_Run.constprop.0+0xc>
    if (app->rtc.initialized && RTC_PopTick(&app->rtc)) {
 8003292:	0023      	movs	r3, r4
 8003294:	3389      	adds	r3, #137	@ 0x89
 8003296:	781b      	ldrb	r3, [r3, #0]
 8003298:	2b00      	cmp	r3, #0
 800329a:	d019      	beq.n	80032d0 <App_Run.constprop.0+0xda>
    if (!hrtc->tick_flag) return 0U;
 800329c:	0023      	movs	r3, r4
 800329e:	0026      	movs	r6, r4
 80032a0:	3388      	adds	r3, #136	@ 0x88
 80032a2:	781a      	ldrb	r2, [r3, #0]
 80032a4:	3608      	adds	r6, #8
 80032a6:	2a00      	cmp	r2, #0
 80032a8:	d012      	beq.n	80032d0 <App_Run.constprop.0+0xda>
    hrtc->tick_flag = 0;
 80032aa:	2200      	movs	r2, #0
    uint8_t ctrl2 = PCF_CTRL2_TIE;
 80032ac:	2101      	movs	r1, #1
    hrtc->tick_flag = 0;
 80032ae:	701a      	strb	r2, [r3, #0]
    uint8_t ctrl2 = PCF_CTRL2_TIE;
 80032b0:	aa17      	add	r2, sp, #92	@ 0x5c
    return PCF_WriteRegs(hrtc->hi2c, PCF_REG_CTRL2, &ctrl2, 1);
 80032b2:	000b      	movs	r3, r1
    uint8_t ctrl2 = PCF_CTRL2_TIE;
 80032b4:	7011      	strb	r1, [r2, #0]
    return PCF_WriteRegs(hrtc->hi2c, PCF_REG_CTRL2, &ctrl2, 1);
 80032b6:	6fa0      	ldr	r0, [r4, #120]	@ 0x78
 80032b8:	f7ff f836 	bl	8002328 <PCF_WriteRegs>
 80032bc:	6ff2      	ldr	r2, [r6, #124]	@ 0x7c
 80032be:	4b97      	ldr	r3, [pc, #604]	@ (800351c <App_Run.constprop.0+0x326>)
 80032c0:	4353      	muls	r3, r2
 80032c2:	2202      	movs	r2, #2
 80032c4:	41d3      	rors	r3, r2
        if ((app->rtc.unix_approx % 60UL) == 0UL) RTC_Read(&app->rtc);
 80032c6:	4a96      	ldr	r2, [pc, #600]	@ (8003520 <App_Run.constprop.0+0x32a>)
 80032c8:	4293      	cmp	r3, r2
 80032ca:	d801      	bhi.n	80032d0 <App_Run.constprop.0+0xda>
 80032cc:	f7fd ff4c 	bl	8001168 <RTC_Read.constprop.0>
    if (hble->line_ready)  return;
 80032d0:	0021      	movs	r1, r4
 80032d2:	3172      	adds	r1, #114	@ 0x72
 80032d4:	780b      	ldrb	r3, [r1, #0]
 80032d6:	2b00      	cmp	r3, #0
 80032d8:	d113      	bne.n	8003302 <App_Run.constprop.0+0x10c>
    if (hble->line_len == 0U) return;
 80032da:	0023      	movs	r3, r4
 80032dc:	3371      	adds	r3, #113	@ 0x71
 80032de:	781b      	ldrb	r3, [r3, #0]
 80032e0:	2b00      	cmp	r3, #0
 80032e2:	d00e      	beq.n	8003302 <App_Run.constprop.0+0x10c>
    if (hble->pkt_in_frame)   return;
 80032e4:	0022      	movs	r2, r4
 80032e6:	3257      	adds	r2, #87	@ 0x57
 80032e8:	7810      	ldrb	r0, [r2, #0]
 80032ea:	2800      	cmp	r0, #0
 80032ec:	d109      	bne.n	8003302 <App_Run.constprop.0+0x10c>
 80032ee:	6f6a      	ldr	r2, [r5, #116]	@ 0x74
    if ((HAL_GetTick() - hble->rx_last_ms) < idle_ms) return;
 80032f0:	6f65      	ldr	r5, [r4, #116]	@ 0x74
 80032f2:	1b52      	subs	r2, r2, r5
 80032f4:	2a95      	cmp	r2, #149	@ 0x95
 80032f6:	d904      	bls.n	8003302 <App_Run.constprop.0+0x10c>
    hble->line_buf[hble->line_len] = '\0';
 80032f8:	18e3      	adds	r3, r4, r3
 80032fa:	333a      	adds	r3, #58	@ 0x3a
 80032fc:	77d8      	strb	r0, [r3, #31]
    hble->line_ready = 1;
 80032fe:	2301      	movs	r3, #1
 8003300:	700b      	strb	r3, [r1, #0]
    if (!hble->pkt_ready) return 0;
 8003302:	0023      	movs	r3, r4
 8003304:	3358      	adds	r3, #88	@ 0x58
 8003306:	781b      	ldrb	r3, [r3, #0]
 8003308:	2b00      	cmp	r3, #0
 800330a:	d100      	bne.n	800330e <App_Run.constprop.0+0x118>
 800330c:	e127      	b.n	800355e <App_Run.constprop.0+0x368>
    uint8_t ok = BLE_ParsePacket(hble->pkt_buf, hble->pkt_len, out);
 800330e:	0023      	movs	r3, r4
 8003310:	3356      	adds	r3, #86	@ 0x56
 8003312:	7818      	ldrb	r0, [r3, #0]
    if (!raw || raw_len < 5U) return 0;
 8003314:	2300      	movs	r3, #0
 8003316:	2804      	cmp	r0, #4
 8003318:	d929      	bls.n	800336e <App_Run.constprop.0+0x178>
    if (raw[0] != BLE_SOF)    return 0;
 800331a:	0023      	movs	r3, r4
 800331c:	333d      	adds	r3, #61	@ 0x3d
 800331e:	781a      	ldrb	r2, [r3, #0]
    if (!raw || raw_len < 5U) return 0;
 8003320:	2300      	movs	r3, #0
    if (raw[0] != BLE_SOF)    return 0;
 8003322:	2aaa      	cmp	r2, #170	@ 0xaa
 8003324:	d123      	bne.n	800336e <App_Run.constprop.0+0x178>
    uint8_t len = raw[2];
 8003326:	0022      	movs	r2, r4
 8003328:	323f      	adds	r2, #63	@ 0x3f
 800332a:	7812      	ldrb	r2, [r2, #0]
    if ((uint8_t)(5U + len) != raw_len) return 0;
 800332c:	1d51      	adds	r1, r2, #5
 800332e:	b2c9      	uxtb	r1, r1
 8003330:	4288      	cmp	r0, r1
 8003332:	d11c      	bne.n	800336e <App_Run.constprop.0+0x178>
    if (len > BLE_PKT_MAX_PAYLOAD)      return 0;
 8003334:	2a14      	cmp	r2, #20
 8003336:	d81a      	bhi.n	800336e <App_Run.constprop.0+0x178>
    uint8_t eof = raw[4U + len];
 8003338:	497a      	ldr	r1, [pc, #488]	@ (8003524 <App_Run.constprop.0+0x32e>)
    if (eof != BLE_EOF)                 return 0;
 800333a:	5c89      	ldrb	r1, [r1, r2]
 800333c:	2955      	cmp	r1, #85	@ 0x55
 800333e:	d116      	bne.n	800336e <App_Run.constprop.0+0x178>
    uint8_t cmd = raw[1];
 8003340:	0021      	movs	r1, r4
 8003342:	313e      	adds	r1, #62	@ 0x3e
 8003344:	780d      	ldrb	r5, [r1, #0]
 8003346:	4978      	ldr	r1, [pc, #480]	@ (8003528 <App_Run.constprop.0+0x332>)
    uint8_t chk = cmd ^ len;
 8003348:	0028      	movs	r0, r5
 800334a:	4050      	eors	r0, r2
    for (uint8_t i = 0; i < len; i++) chk ^= payload[i];
 800334c:	b2de      	uxtb	r6, r3
 800334e:	4296      	cmp	r6, r2
 8003350:	d200      	bcs.n	8003354 <App_Run.constprop.0+0x15e>
 8003352:	e0c0      	b.n	80034d6 <App_Run.constprop.0+0x2e0>
    if (chk != calc_chk(cmd, len, &raw[3])) return 0;
 8003354:	5c8e      	ldrb	r6, [r1, r2]
    if (!raw || raw_len < 5U) return 0;
 8003356:	2300      	movs	r3, #0
    if (chk != calc_chk(cmd, len, &raw[3])) return 0;
 8003358:	4286      	cmp	r6, r0
 800335a:	d108      	bne.n	800336e <App_Run.constprop.0+0x178>
    memcpy(out->payload, &raw[3], len);   /* memcpy(dst,src,0) is a no-op */
 800335c:	201e      	movs	r0, #30
    out->cmd = cmd;
 800335e:	ab0b      	add	r3, sp, #44	@ 0x2c
 8003360:	701d      	strb	r5, [r3, #0]
    out->len = len;
 8003362:	705a      	strb	r2, [r3, #1]
    memcpy(out->payload, &raw[3], len);   /* memcpy(dst,src,0) is a no-op */
 8003364:	ab04      	add	r3, sp, #16
 8003366:	18c0      	adds	r0, r0, r3
 8003368:	f003 ffd8 	bl	800731c <memcpy>
    return 1;
 800336c:	2301      	movs	r3, #1
    hble->pkt_ready = 0;
 800336e:	0022      	movs	r2, r4
 8003370:	2100      	movs	r1, #0
 8003372:	3258      	adds	r2, #88	@ 0x58
 8003374:	7011      	strb	r1, [r2, #0]
    hble->pkt_len   = 0;
 8003376:	0022      	movs	r2, r4
 8003378:	3256      	adds	r2, #86	@ 0x56
 800337a:	7011      	strb	r1, [r2, #0]
    if (BLE_GetPacket(&app->ble, &pkt)) App_HandleBLECommand(app, &pkt);
 800337c:	428b      	cmp	r3, r1
 800337e:	d100      	bne.n	8003382 <App_Run.constprop.0+0x18c>
 8003380:	e0ed      	b.n	800355e <App_Run.constprop.0+0x368>
    switch (pkt->cmd) {
 8003382:	ab0b      	add	r3, sp, #44	@ 0x2c
 8003384:	7818      	ldrb	r0, [r3, #0]
 8003386:	1e42      	subs	r2, r0, #1
 8003388:	2a0e      	cmp	r2, #14
 800338a:	d900      	bls.n	800338e <App_Run.constprop.0+0x198>
 800338c:	e241      	b.n	8003812 <App_Run.constprop.0+0x61c>
 800338e:	0010      	movs	r0, r2
 8003390:	f001 fe84 	bl	800509c <__gnu_thumb1_case_uhi>
 8003394:	00ce00a5 	.word	0x00ce00a5
 8003398:	00f400e2 	.word	0x00f400e2
 800339c:	0b5e0125 	.word	0x0b5e0125
 80033a0:	0160015b 	.word	0x0160015b
 80033a4:	01bf0184 	.word	0x01bf0184
 80033a8:	01f301c4 	.word	0x01f301c4
 80033ac:	02340230 	.word	0x02340230
 80033b0:	023a      	.short	0x023a
        if (evt == EVT_CHARGER_CONNECTED) {
 80033b2:	2b0c      	cmp	r3, #12
 80033b4:	d114      	bne.n	80033e0 <App_Run.constprop.0+0x1ea>
            if (ctx->lamp_mode_active) OnEnterState(ctx, DEV_STATE_LAMP_MODE);
 80033b6:	0022      	movs	r2, r4
 80033b8:	32a0      	adds	r2, #160	@ 0xa0
 80033ba:	0021      	movs	r1, r4
 80033bc:	7810      	ldrb	r0, [r2, #0]
 80033be:	0022      	movs	r2, r4
 80033c0:	318c      	adds	r1, #140	@ 0x8c
 80033c2:	3298      	adds	r2, #152	@ 0x98
 80033c4:	2800      	cmp	r0, #0
 80033c6:	d005      	beq.n	80033d4 <App_Run.constprop.0+0x1de>
    ctx->state            = new_state;
 80033c8:	2005      	movs	r0, #5
 80033ca:	7008      	strb	r0, [r1, #0]
 80033cc:	6f69      	ldr	r1, [r5, #116]	@ 0x74
    ctx->state_entry_tick = HAL_GetTick();
 80033ce:	6011      	str	r1, [r2, #0]
        WS2812B_SetPattern(LED_PATTERN_LAMP_MODE);
 80033d0:	200c      	movs	r0, #12
 80033d2:	e744      	b.n	800325e <App_Run.constprop.0+0x68>
    ctx->state            = new_state;
 80033d4:	2306      	movs	r3, #6
 80033d6:	700b      	strb	r3, [r1, #0]
 80033d8:	6f6b      	ldr	r3, [r5, #116]	@ 0x74
    ctx->state_entry_tick = HAL_GetTick();
 80033da:	6013      	str	r3, [r2, #0]
        WS2812B_SetPattern(LED_PATTERN_CHARGING_BAR);
 80033dc:	200a      	movs	r0, #10
 80033de:	e73e      	b.n	800325e <App_Run.constprop.0+0x68>
        if (evt == EVT_BATTERY_LOW)       OnEnterState(ctx, DEV_STATE_LOW_BATTERY);
 80033e0:	2b0e      	cmp	r3, #14
 80033e2:	d10d      	bne.n	8003400 <App_Run.constprop.0+0x20a>
    ctx->state            = new_state;
 80033e4:	0023      	movs	r3, r4
 80033e6:	2707      	movs	r7, #7
 80033e8:	338c      	adds	r3, #140	@ 0x8c
 80033ea:	701f      	strb	r7, [r3, #0]
    ctx->state_entry_tick = HAL_GetTick();
 80033ec:	0023      	movs	r3, r4
        WS2812B_SetPattern(LED_PATTERN_LOW_BATTERY);
 80033ee:	200b      	movs	r0, #11
 80033f0:	6f6a      	ldr	r2, [r5, #116]	@ 0x74
    ctx->state_entry_tick = HAL_GetTick();
 80033f2:	3398      	adds	r3, #152	@ 0x98
 80033f4:	601a      	str	r2, [r3, #0]
        WS2812B_SetPattern(LED_PATTERN_ERROR);
 80033f6:	f7fd f80b 	bl	8000410 <WS2812B_SetPattern>
        Buzzer_Play(BUZZER_ERROR);
 80033fa:	0038      	movs	r0, r7
 80033fc:	f001 fb94 	bl	8004b28 <App_Run.constprop.0+0x1932>
        if (evt == EVT_CMD_LAMP_ON)       { ctx->lamp_mode_active = 1; OnEnterState(ctx, DEV_STATE_LAMP_MODE); }
 8003400:	2b07      	cmp	r3, #7
 8003402:	d001      	beq.n	8003408 <App_Run.constprop.0+0x212>
 8003404:	f001 fb7c 	bl	8004b00 <App_Run.constprop.0+0x190a>
        if (evt == EVT_CMD_LAMP_ON)          { ctx->lamp_mode_active = 1; OnEnterState(ctx, DEV_STATE_LAMP_MODE); }
 8003408:	0023      	movs	r3, r4
 800340a:	2201      	movs	r2, #1
 800340c:	33a0      	adds	r3, #160	@ 0xa0
 800340e:	701a      	strb	r2, [r3, #0]
    ctx->state            = new_state;
 8003410:	0023      	movs	r3, r4
 8003412:	3204      	adds	r2, #4
 8003414:	338c      	adds	r3, #140	@ 0x8c
 8003416:	701a      	strb	r2, [r3, #0]
    ctx->state_entry_tick = HAL_GetTick();
 8003418:	0023      	movs	r3, r4
 800341a:	6f6a      	ldr	r2, [r5, #116]	@ 0x74
 800341c:	3398      	adds	r3, #152	@ 0x98
 800341e:	601a      	str	r2, [r3, #0]
 8003420:	e7d6      	b.n	80033d0 <App_Run.constprop.0+0x1da>
        if (evt == EVT_SENSOR_ERROR)      OnEnterState(ctx, DEV_STATE_ERROR);
 8003422:	2b10      	cmp	r3, #16
 8003424:	d109      	bne.n	800343a <App_Run.constprop.0+0x244>
    ctx->state            = new_state;
 8003426:	0023      	movs	r3, r4
 8003428:	270a      	movs	r7, #10
 800342a:	338c      	adds	r3, #140	@ 0x8c
 800342c:	701f      	strb	r7, [r3, #0]
    ctx->state_entry_tick = HAL_GetTick();
 800342e:	0023      	movs	r3, r4
 8003430:	6f6a      	ldr	r2, [r5, #116]	@ 0x74
 8003432:	3398      	adds	r3, #152	@ 0x98
        WS2812B_SetPattern(LED_PATTERN_ERROR);
 8003434:	200f      	movs	r0, #15
    ctx->state_entry_tick = HAL_GetTick();
 8003436:	601a      	str	r2, [r3, #0]
 8003438:	e7dd      	b.n	80033f6 <App_Run.constprop.0+0x200>
        if (evt == EVT_CMD_CALIBRATION)   OnEnterState(ctx, DEV_STATE_CALIBRATING);
 800343a:	2b05      	cmp	r3, #5
 800343c:	d000      	beq.n	8003440 <App_Run.constprop.0+0x24a>
 800343e:	e724      	b.n	800328a <App_Run.constprop.0+0x94>
    ctx->state            = new_state;
 8003440:	0023      	movs	r3, r4
 8003442:	2203      	movs	r2, #3
 8003444:	338c      	adds	r3, #140	@ 0x8c
 8003446:	701a      	strb	r2, [r3, #0]
    ctx->state_entry_tick = HAL_GetTick();
 8003448:	0023      	movs	r3, r4
 800344a:	6f6a      	ldr	r2, [r5, #116]	@ 0x74
 800344c:	3398      	adds	r3, #152	@ 0x98
        WS2812B_SetPattern(LED_PATTERN_CALIBRATION);
 800344e:	2007      	movs	r0, #7
    ctx->state_entry_tick = HAL_GetTick();
 8003450:	601a      	str	r2, [r3, #0]
 8003452:	e704      	b.n	800325e <App_Run.constprop.0+0x68>
        if (evt == EVT_CMD_LAMP_OFF)          { ctx->lamp_mode_active = 0; OnEnterState(ctx, DEV_STATE_CHARGING); }
 8003454:	2b08      	cmp	r3, #8
 8003456:	d10c      	bne.n	8003472 <App_Run.constprop.0+0x27c>
 8003458:	0023      	movs	r3, r4
 800345a:	2200      	movs	r2, #0
 800345c:	33a0      	adds	r3, #160	@ 0xa0
 800345e:	701a      	strb	r2, [r3, #0]
    ctx->state            = new_state;
 8003460:	0023      	movs	r3, r4
 8003462:	2206      	movs	r2, #6
 8003464:	338c      	adds	r3, #140	@ 0x8c
 8003466:	701a      	strb	r2, [r3, #0]
    ctx->state_entry_tick = HAL_GetTick();
 8003468:	0023      	movs	r3, r4
 800346a:	6f6a      	ldr	r2, [r5, #116]	@ 0x74
 800346c:	3398      	adds	r3, #152	@ 0x98
 800346e:	601a      	str	r2, [r3, #0]
 8003470:	e7b4      	b.n	80033dc <App_Run.constprop.0+0x1e6>
        if (evt == EVT_CHARGER_DISCONNECTED)  { ctx->lamp_mode_active = 0; OnEnterState(ctx, DEV_STATE_ACTIVE);   }
 8003472:	2b0d      	cmp	r3, #13
 8003474:	d000      	beq.n	8003478 <App_Run.constprop.0+0x282>
 8003476:	e708      	b.n	800328a <App_Run.constprop.0+0x94>
 8003478:	0023      	movs	r3, r4
 800347a:	2200      	movs	r2, #0
 800347c:	33a0      	adds	r3, #160	@ 0xa0
 800347e:	701a      	strb	r2, [r3, #0]
 8003480:	e6f3      	b.n	800326a <App_Run.constprop.0+0x74>
        if (evt == EVT_CHARGER_DISCONNECTED) OnEnterState(ctx, DEV_STATE_ACTIVE);
 8003482:	2b0d      	cmp	r3, #13
 8003484:	d100      	bne.n	8003488 <App_Run.constprop.0+0x292>
 8003486:	e6f0      	b.n	800326a <App_Run.constprop.0+0x74>
        if (evt == EVT_CMD_LAMP_ON)          { ctx->lamp_mode_active = 1; OnEnterState(ctx, DEV_STATE_LAMP_MODE); }
 8003488:	2b07      	cmp	r3, #7
 800348a:	d000      	beq.n	800348e <App_Run.constprop.0+0x298>
 800348c:	e6fd      	b.n	800328a <App_Run.constprop.0+0x94>
 800348e:	e7bb      	b.n	8003408 <App_Run.constprop.0+0x212>
        if (evt == EVT_BATTERY_OK)        OnEnterState(ctx, DEV_STATE_ACTIVE);
 8003490:	2b0f      	cmp	r3, #15
 8003492:	d100      	bne.n	8003496 <App_Run.constprop.0+0x2a0>
 8003494:	e6e9      	b.n	800326a <App_Run.constprop.0+0x74>
        if (evt == EVT_CHARGER_CONNECTED) OnEnterState(ctx, DEV_STATE_CHARGING);
 8003496:	2b0c      	cmp	r3, #12
 8003498:	d000      	beq.n	800349c <App_Run.constprop.0+0x2a6>
 800349a:	e6f6      	b.n	800328a <App_Run.constprop.0+0x94>
 800349c:	e7e0      	b.n	8003460 <App_Run.constprop.0+0x26a>
        if (HAL_GetTick() - ctx->state_entry_tick > 5000U) OnEnterState(ctx, DEV_STATE_ACTIVE);
 800349e:	0022      	movs	r2, r4
 80034a0:	3298      	adds	r2, #152	@ 0x98
 80034a2:	6811      	ldr	r1, [r2, #0]
 80034a4:	6f6b      	ldr	r3, [r5, #116]	@ 0x74
 80034a6:	1a5b      	subs	r3, r3, r1
 80034a8:	4920      	ldr	r1, [pc, #128]	@ (800352c <App_Run.constprop.0+0x336>)
 80034aa:	428b      	cmp	r3, r1
 80034ac:	d800      	bhi.n	80034b0 <App_Run.constprop.0+0x2ba>
 80034ae:	e6ec      	b.n	800328a <App_Run.constprop.0+0x94>
    ctx->state            = new_state;
 80034b0:	0023      	movs	r3, r4
 80034b2:	2104      	movs	r1, #4
 80034b4:	338c      	adds	r3, #140	@ 0x8c
 80034b6:	7019      	strb	r1, [r3, #0]
 80034b8:	6f6b      	ldr	r3, [r5, #116]	@ 0x74
    ctx->state_entry_tick = HAL_GetTick();
 80034ba:	6013      	str	r3, [r2, #0]
 80034bc:	e6dd      	b.n	800327a <App_Run.constprop.0+0x84>
        if (evt == EVT_CMD_SOFT_RESET) OnEnterState(ctx, DEV_STATE_SOFT_RESET_PENDING);
 80034be:	2b09      	cmp	r3, #9
 80034c0:	d000      	beq.n	80034c4 <App_Run.constprop.0+0x2ce>
 80034c2:	e6e2      	b.n	800328a <App_Run.constprop.0+0x94>
    ctx->state            = new_state;
 80034c4:	0023      	movs	r3, r4
 80034c6:	2208      	movs	r2, #8
 80034c8:	338c      	adds	r3, #140	@ 0x8c
 80034ca:	701a      	strb	r2, [r3, #0]
 80034cc:	6f6b      	ldr	r3, [r5, #116]	@ 0x74
    ctx->state_entry_tick = HAL_GetTick();
 80034ce:	3498      	adds	r4, #152	@ 0x98
 80034d0:	6023      	str	r3, [r4, #0]
 80034d2:	f7fd f8a1 	bl	8000618 <__NVIC_SystemReset>
    for (uint8_t i = 0; i < len; i++) chk ^= payload[i];
 80034d6:	5cce      	ldrb	r6, [r1, r3]
 80034d8:	3301      	adds	r3, #1
 80034da:	4070      	eors	r0, r6
 80034dc:	e736      	b.n	800334c <App_Run.constprop.0+0x156>
    if (pkt->len < 4U) { App_SendACK(app, pkt->cmd, 0, BLE_ERR_UNKNOWN_CMD); return; }
 80034de:	785b      	ldrb	r3, [r3, #1]
 80034e0:	2b03      	cmp	r3, #3
 80034e2:	d805      	bhi.n	80034f0 <App_Run.constprop.0+0x2fa>
 80034e4:	2201      	movs	r2, #1
 80034e6:	2100      	movs	r1, #0
 80034e8:	0010      	movs	r0, r2
        App_SendACK(app, pkt->cmd, 0, BLE_ERR_UNKNOWN_CMD);
 80034ea:	f7fe fedd 	bl	80022a8 <App_SendACK.constprop.0>
        break;
 80034ee:	e036      	b.n	800355e <App_Run.constprop.0+0x368>
 80034f0:	231e      	movs	r3, #30
 80034f2:	aa04      	add	r2, sp, #16
 80034f4:	189b      	adds	r3, r3, r2
 80034f6:	8858      	ldrh	r0, [r3, #2]
 80034f8:	881a      	ldrh	r2, [r3, #0]
 80034fa:	0400      	lsls	r0, r0, #16
 80034fc:	4310      	orrs	r0, r2
 80034fe:	ba00      	rev	r0, r0
    RTC_SetFromUnix(&app->rtc, unix_time);
 8003500:	f7fe ff26 	bl	8002350 <RTC_SetFromUnix.constprop.0.isra.0>
    RTC_Read(&app->rtc);
 8003504:	f7fd fe30 	bl	8001168 <RTC_Read.constprop.0>
    App_SendACK(app, pkt->cmd, 1, BLE_ERR_OK);
 8003508:	2101      	movs	r1, #1
 800350a:	2200      	movs	r2, #0
 800350c:	0008      	movs	r0, r1
 800350e:	e7ec      	b.n	80034ea <App_Run.constprop.0+0x2f4>
 8003510:	20000080 	.word	0x20000080
 8003514:	2000053c 	.word	0x2000053c
 8003518:	200005d3 	.word	0x200005d3
 800351c:	eeeeeeef 	.word	0xeeeeeeef
 8003520:	04444444 	.word	0x04444444
 8003524:	2000057d 	.word	0x2000057d
 8003528:	2000057c 	.word	0x2000057c
 800352c:	00001388 	.word	0x00001388
    if (pkt->len < 18U) { App_SendACK(app, pkt->cmd, 0, BLE_ERR_UNKNOWN_CMD); return; }
 8003530:	785b      	ldrb	r3, [r3, #1]
 8003532:	2b11      	cmp	r3, #17
 8003534:	d803      	bhi.n	800353e <App_Run.constprop.0+0x348>
 8003536:	2201      	movs	r2, #1
 8003538:	2100      	movs	r1, #0
    App_SendACK(app, pkt->cmd, 1, BLE_ERR_OK);
 800353a:	2002      	movs	r0, #2
 800353c:	e7d5      	b.n	80034ea <App_Run.constprop.0+0x2f4>
    memcpy(&app->settings.prefs, pkt->payload, sizeof(BLE_PrefsPayload_t));
 800353e:	0020      	movs	r0, r4
 8003540:	211e      	movs	r1, #30
 8003542:	ab04      	add	r3, sp, #16
 8003544:	2212      	movs	r2, #18
 8003546:	18c9      	adds	r1, r1, r3
 8003548:	30a8      	adds	r0, #168	@ 0xa8
 800354a:	f003 fee7 	bl	800731c <memcpy>
    Storage_SaveSettings(&app->settings);
 800354e:	f7fe ffef 	bl	8002530 <Storage_SaveSettings.constprop.0>
    App_SendACK(app, pkt->cmd, 1, BLE_ERR_OK);
 8003552:	2200      	movs	r2, #0
 8003554:	2101      	movs	r1, #1
 8003556:	e7f0      	b.n	800353a <App_Run.constprop.0+0x344>
    case BLE_CMD_CALIBRATION:  App_Cmd_Calibration(app, pkt);     break;
 8003558:	0018      	movs	r0, r3
 800355a:	f7ff f81d 	bl	8002598 <App_Cmd_Calibration.constprop.0>
    if (!hble->line_ready) return 0;
 800355e:	0023      	movs	r3, r4
 8003560:	3372      	adds	r3, #114	@ 0x72
 8003562:	781b      	ldrb	r3, [r3, #0]
 8003564:	2b00      	cmp	r3, #0
 8003566:	d101      	bne.n	800356c <App_Run.constprop.0+0x376>
 8003568:	f000 fef2 	bl	8004350 <App_Run.constprop.0+0x115a>
 800356c:	2300      	movs	r3, #0
    while (i < (BLE_STR_LINE_MAX - 1U) && hble->line_buf[i] != '\0') {
 800356e:	49c6      	ldr	r1, [pc, #792]	@ (8003888 <App_Run.constprop.0+0x692>)
 8003570:	5cca      	ldrb	r2, [r1, r3]
 8003572:	2a00      	cmp	r2, #0
 8003574:	d000      	beq.n	8003578 <App_Run.constprop.0+0x382>
 8003576:	e14e      	b.n	8003816 <App_Run.constprop.0+0x620>
 8003578:	b2db      	uxtb	r3, r3
 800357a:	e154      	b.n	8003826 <App_Run.constprop.0+0x630>
{
    if (!hbat->valid) Battery_Update(hbat);
    return hbat->percent;
}

uint8_t Battery_IsCharging(Battery_Handle_t *hbat) { return (hbat->status == BAT_STATUS_CHARGING)    ? 1U : 0U; }
 800357c:	0022      	movs	r2, r4
 800357e:	3228      	adds	r2, #40	@ 0x28
 8003580:	7812      	ldrb	r2, [r2, #0]
 8003582:	3a01      	subs	r2, #1
 8003584:	2a01      	cmp	r2, #1
 8003586:	d903      	bls.n	8003590 <App_Run.constprop.0+0x39a>
        App_SendACK(app, pkt->cmd, 0, BLE_ERR_NOT_CHARGING); return;
 8003588:	2203      	movs	r2, #3
 800358a:	2100      	movs	r1, #0
    App_SendACK(app, pkt->cmd, 1, BLE_ERR_OK);
 800358c:	2004      	movs	r0, #4
 800358e:	e7ac      	b.n	80034ea <App_Run.constprop.0+0x2f4>
    if (pkt->len >= 1U && pkt->payload[0]) {
 8003590:	785a      	ldrb	r2, [r3, #1]
 8003592:	2a00      	cmp	r2, #0
 8003594:	d021      	beq.n	80035da <App_Run.constprop.0+0x3e4>
 8003596:	7899      	ldrb	r1, [r3, #2]
 8003598:	2900      	cmp	r1, #0
 800359a:	d01e      	beq.n	80035da <App_Run.constprop.0+0x3e4>
        if (pkt->len >= 4U) { col.r = pkt->payload[1]; col.g = pkt->payload[2]; col.b = pkt->payload[3]; }
 800359c:	2a03      	cmp	r2, #3
 800359e:	d918      	bls.n	80035d2 <App_Run.constprop.0+0x3dc>
 80035a0:	78df      	ldrb	r7, [r3, #3]
 80035a2:	791e      	ldrb	r6, [r3, #4]
 80035a4:	795d      	ldrb	r5, [r3, #5]
        app->settings.prefs.lamp_r = col.r;
 80035a6:	0023      	movs	r3, r4
 80035a8:	33b7      	adds	r3, #183	@ 0xb7
 80035aa:	701f      	strb	r7, [r3, #0]
        app->settings.prefs.lamp_g = col.g;
 80035ac:	0023      	movs	r3, r4
 80035ae:	33b8      	adds	r3, #184	@ 0xb8
 80035b0:	701e      	strb	r6, [r3, #0]
        app->settings.prefs.lamp_b = col.b;
 80035b2:	0023      	movs	r3, r4
 80035b4:	33b9      	adds	r3, #185	@ 0xb9
 80035b6:	701d      	strb	r5, [r3, #0]
        Storage_SaveSettings(&app->settings);
 80035b8:	f7fe ffba 	bl	8002530 <Storage_SaveSettings.constprop.0>
 80035bc:	2007      	movs	r0, #7
void WS2812B_SetLampColor(RGB_t color)        { s_lamp_color    = color; }
 80035be:	4bb3      	ldr	r3, [pc, #716]	@ (800388c <App_Run.constprop.0+0x696>)
 80035c0:	4ab3      	ldr	r2, [pc, #716]	@ (8003890 <App_Run.constprop.0+0x69a>)
 80035c2:	705e      	strb	r6, [r3, #1]
 80035c4:	72d7      	strb	r7, [r2, #11]
 80035c6:	709d      	strb	r5, [r3, #2]
 80035c8:	f7fd fcb8 	bl	8000f3c <Device_PostEvent.part.0.constprop.0>
    App_SendACK(app, pkt->cmd, 1, BLE_ERR_OK);
 80035cc:	2200      	movs	r2, #0
 80035ce:	2101      	movs	r1, #1
 80035d0:	e7dc      	b.n	800358c <App_Run.constprop.0+0x396>
        RGB_t col = {0, 255, 0};
 80035d2:	2500      	movs	r5, #0
 80035d4:	26ff      	movs	r6, #255	@ 0xff
 80035d6:	002f      	movs	r7, r5
 80035d8:	e7e5      	b.n	80035a6 <App_Run.constprop.0+0x3b0>
 80035da:	2008      	movs	r0, #8
 80035dc:	e7f4      	b.n	80035c8 <App_Run.constprop.0+0x3d2>
    App_SendACK(app, BLE_CMD_SOFT_RESET, 1, BLE_ERR_OK);
 80035de:	2200      	movs	r2, #0
 80035e0:	2101      	movs	r1, #1
 80035e2:	2005      	movs	r0, #5
 80035e4:	f7fe fe60 	bl	80022a8 <App_SendACK.constprop.0>
    HAL_Delay(200); HAL_NVIC_SystemReset();
 80035e8:	20c8      	movs	r0, #200	@ 0xc8
 80035ea:	f7fc ff39 	bl	8000460 <HAL_Delay>
 80035ee:	e770      	b.n	80034d2 <App_Run.constprop.0+0x2dc>
void App_Cmd_HistoricalAggregates(AppContext_t *app)
{
    uint8_t buf[BLE_PKT_MAX_LEN];
    for (uint8_t i = 0; i < app->daily_log.count; i++) {
        DailySummary_t *d = &app->daily_log.days[i];
        if (!d->valid) continue;
 80035f0:	0039      	movs	r1, r7
 80035f2:	4369      	muls	r1, r5
 80035f4:	1863      	adds	r3, r4, r1
 80035f6:	33eb      	adds	r3, #235	@ 0xeb
 80035f8:	33ff      	adds	r3, #255	@ 0xff
 80035fa:	781b      	ldrb	r3, [r3, #0]
 80035fc:	2b00      	cmp	r3, #0
 80035fe:	d01b      	beq.n	8003638 <App_Run.constprop.0+0x442>
 8003600:	4ba4      	ldr	r3, [pc, #656]	@ (8003894 <App_Run.constprop.0+0x69e>)
 8003602:	18cb      	adds	r3, r1, r3
 8003604:	681a      	ldr	r2, [r3, #0]
 8003606:	ba12      	rev	r2, r2
        BLE_DailyPayload_t pl;
        pl.unix_b3 = (uint8_t)(d->date_unix >> 24);
 8003608:	9211      	str	r2, [sp, #68]	@ 0x44
        pl.unix_b2 = (uint8_t)(d->date_unix >> 16);
        pl.unix_b1 = (uint8_t)(d->date_unix >>  8);
        pl.unix_b0 = (uint8_t)(d->date_unix);
        pl.ml_hi   = (uint8_t)(d->total_ml >> 8);
 800360a:	8898      	ldrh	r0, [r3, #4]
 800360c:	aa11      	add	r2, sp, #68	@ 0x44
 800360e:	ba40      	rev16	r0, r0
 8003610:	8090      	strh	r0, [r2, #4]
        pl.ml_lo   = (uint8_t)(d->total_ml);
        pl.ppm_hi  = (uint8_t)(d->avg_purity_ppm >> 8);
 8003612:	88db      	ldrh	r3, [r3, #6]
                           (uint8_t)sizeof(BLE_LogEntryPayload_t));
}

uint8_t BLE_BuildDaily(uint8_t *buf, const BLE_DailyPayload_t *d)
{
    return BLE_BuildPacket(buf, BLE_RSP_DAILY,
 8003614:	a817      	add	r0, sp, #92	@ 0x5c
 8003616:	ba5b      	rev16	r3, r3
 8003618:	80d3      	strh	r3, [r2, #6]
        pl.ppm_lo  = (uint8_t)(d->avg_purity_ppm);
        pl.temp_hi = (uint8_t)((uint16_t)d->avg_temp_x10 >> 8);
 800361a:	4b9f      	ldr	r3, [pc, #636]	@ (8003898 <App_Run.constprop.0+0x6a2>)
 800361c:	5a5b      	ldrh	r3, [r3, r1]
 800361e:	2183      	movs	r1, #131	@ 0x83
 8003620:	ba5b      	rev16	r3, r3
 8003622:	8113      	strh	r3, [r2, #8]
 8003624:	230a      	movs	r3, #10
 8003626:	f7fe fe1f 	bl	8002268 <BLE_BuildPacket>
 800362a:	0001      	movs	r1, r0
    BLE_TxRaw(hble, buf, len);
 800362c:	a817      	add	r0, sp, #92	@ 0x5c
 800362e:	f7fd fb87 	bl	8000d40 <BLE_TxRaw.constprop.0>
        pl.temp_lo = (uint8_t)(d->avg_temp_x10);
        uint8_t len = BLE_BuildDaily(buf, &pl);
        BLE_SendPacket(&app->ble, buf, len); HAL_Delay(20);
 8003632:	2014      	movs	r0, #20
 8003634:	f7fc ff14 	bl	8000460 <HAL_Delay>
    for (uint8_t i = 0; i < app->daily_log.count; i++) {
 8003638:	3501      	adds	r5, #1
 800363a:	b2ed      	uxtb	r5, r5
 800363c:	5da3      	ldrb	r3, [r4, r6]
 800363e:	42ab      	cmp	r3, r5
 8003640:	d8d6      	bhi.n	80035f0 <App_Run.constprop.0+0x3fa>
    }
    App_SendACK(app, BLE_CMD_GET_HISTORY, 1, BLE_ERR_OK);
 8003642:	2200      	movs	r2, #0
 8003644:	2101      	movs	r1, #1
 8003646:	2007      	movs	r0, #7
 8003648:	e74f      	b.n	80034ea <App_Run.constprop.0+0x2f4>
    for (uint8_t i = 0; i < app->daily_log.count; i++) {
 800364a:	26a2      	movs	r6, #162	@ 0xa2
    switch (pkt->cmd) {
 800364c:	2500      	movs	r5, #0
        if (!d->valid) continue;
 800364e:	270c      	movs	r7, #12
    for (uint8_t i = 0; i < app->daily_log.count; i++) {
 8003650:	00b6      	lsls	r6, r6, #2
 8003652:	e7f3      	b.n	800363c <App_Run.constprop.0+0x446>
}

void App_Cmd_RegisterDevice(AppContext_t *app, const BLE_Packet_t *pkt)
{
    if (pkt->len >= 16U) memcpy(app->settings.user_id,         pkt->payload,      16);
 8003654:	785d      	ldrb	r5, [r3, #1]
 8003656:	2d0f      	cmp	r5, #15
 8003658:	d910      	bls.n	800367c <App_Run.constprop.0+0x486>
 800365a:	0020      	movs	r0, r4
 800365c:	211e      	movs	r1, #30
 800365e:	ab04      	add	r3, sp, #16
 8003660:	2210      	movs	r2, #16
 8003662:	30ba      	adds	r0, #186	@ 0xba
 8003664:	18c9      	adds	r1, r1, r3
 8003666:	f003 fe59 	bl	800731c <memcpy>
    if (pkt->len >= 32U) memcpy(app->settings.device_nickname, pkt->payload + 16, 16);
 800366a:	2d1f      	cmp	r5, #31
 800366c:	d906      	bls.n	800367c <App_Run.constprop.0+0x486>
 800366e:	212e      	movs	r1, #46	@ 0x2e
 8003670:	ab04      	add	r3, sp, #16
 8003672:	2210      	movs	r2, #16
 8003674:	4889      	ldr	r0, [pc, #548]	@ (800389c <App_Run.constprop.0+0x6a6>)
 8003676:	18c9      	adds	r1, r1, r3
 8003678:	f003 fe50 	bl	800731c <memcpy>
    app->settings.is_registered = 1;
 800367c:	0023      	movs	r3, r4
 800367e:	2501      	movs	r5, #1
 8003680:	33da      	adds	r3, #218	@ 0xda
 8003682:	701d      	strb	r5, [r3, #0]
    Storage_SaveSettings(&app->settings);
 8003684:	f7fe ff54 	bl	8002530 <Storage_SaveSettings.constprop.0>
 8003688:	2004      	movs	r0, #4
 800368a:	f7fd fc57 	bl	8000f3c <Device_PostEvent.part.0.constprop.0>
    Device_PostEvent(&app->dev, EVT_CMD_REGISTER);
    Buzzer_Play(BUZZER_REGISTRATION_OK);
 800368e:	3007      	adds	r0, #7
 8003690:	f7fd ff86 	bl	80015a0 <Buzzer_Play>
    App_SendACK(app, pkt->cmd, 1, BLE_ERR_OK);
 8003694:	2200      	movs	r2, #0
 8003696:	0029      	movs	r1, r5
 8003698:	2008      	movs	r0, #8
 800369a:	e726      	b.n	80034ea <App_Run.constprop.0+0x2f4>
}

void App_Cmd_UnpairDevice(AppContext_t *app)
{
    memset(app->settings.user_id, 0, sizeof(app->settings.user_id));
 800369c:	2210      	movs	r2, #16
 800369e:	2100      	movs	r1, #0
 80036a0:	487f      	ldr	r0, [pc, #508]	@ (80038a0 <App_Run.constprop.0+0x6aa>)
 80036a2:	f003 fdf6 	bl	8007292 <memset>
    app->settings.is_registered = 0;
 80036a6:	0023      	movs	r3, r4
 80036a8:	2500      	movs	r5, #0
 80036aa:	33da      	adds	r3, #218	@ 0xda
 80036ac:	701d      	strb	r5, [r3, #0]
    Storage_SaveSettings(&app->settings);
 80036ae:	f7fe ff3f 	bl	8002530 <Storage_SaveSettings.constprop.0>
    App_SendACK(app, BLE_CMD_UNPAIR, 1, BLE_ERR_OK);
 80036b2:	002a      	movs	r2, r5
 80036b4:	2101      	movs	r1, #1
 80036b6:	2009      	movs	r0, #9
 80036b8:	e717      	b.n	80034ea <App_Run.constprop.0+0x2f4>
 80036ba:	003b      	movs	r3, r7
 80036bc:	436b      	muls	r3, r5
 80036be:	4979      	ldr	r1, [pc, #484]	@ (80038a4 <App_Run.constprop.0+0x6ae>)
}

void App_Cmd_SensorLogs(AppContext_t *app)
{
    uint8_t buf[BLE_PKT_MAX_LEN];
    for (uint8_t i = 0; i < app->drink_log.count; i++) {
 80036c0:	3501      	adds	r5, #1
 80036c2:	1859      	adds	r1, r3, r1
 80036c4:	684a      	ldr	r2, [r1, #4]
 80036c6:	b2ed      	uxtb	r5, r5
 80036c8:	ba12      	rev	r2, r2
        DrinkEvent_t *ev = &app->drink_log.events[i];
        BLE_LogEntryPayload_t pl;
        pl.unix_b3 = (uint8_t)(ev->unix_time >> 24);
 80036ca:	9211      	str	r2, [sp, #68]	@ 0x44
        pl.unix_b2 = (uint8_t)(ev->unix_time >> 16);
        pl.unix_b1 = (uint8_t)(ev->unix_time >>  8);
        pl.unix_b0 = (uint8_t)(ev->unix_time);
        pl.vol_hi  = (uint8_t)(ev->volume_ml >> 8);
 80036cc:	8908      	ldrh	r0, [r1, #8]
 80036ce:	aa11      	add	r2, sp, #68	@ 0x44
 80036d0:	ba40      	rev16	r0, r0
 80036d2:	8090      	strh	r0, [r2, #4]
        pl.vol_lo  = (uint8_t)(ev->volume_ml);
        pl.ppm_hi  = (uint8_t)(ev->purity_ppm >> 8);
 80036d4:	8949      	ldrh	r1, [r1, #10]
    return BLE_BuildPacket(buf, BLE_RSP_LOG_ENTRY,
 80036d6:	a817      	add	r0, sp, #92	@ 0x5c
 80036d8:	ba49      	rev16	r1, r1
 80036da:	80d1      	strh	r1, [r2, #6]
        pl.ppm_lo  = (uint8_t)(ev->purity_ppm);
        pl.temp_hi = (uint8_t)((uint16_t)ev->temp_x10 >> 8);
 80036dc:	4972      	ldr	r1, [pc, #456]	@ (80038a8 <App_Run.constprop.0+0x6b2>)
 80036de:	1859      	adds	r1, r3, r1
        pl.temp_lo = (uint8_t)(ev->temp_x10);
        pl.synced  = ev->synced;
 80036e0:	18e3      	adds	r3, r4, r3
        pl.temp_hi = (uint8_t)((uint16_t)ev->temp_x10 >> 8);
 80036e2:	8889      	ldrh	r1, [r1, #4]
        pl.synced  = ev->synced;
 80036e4:	33f6      	adds	r3, #246	@ 0xf6
 80036e6:	781b      	ldrb	r3, [r3, #0]
        pl.temp_hi = (uint8_t)((uint16_t)ev->temp_x10 >> 8);
 80036e8:	ba49      	rev16	r1, r1
 80036ea:	8111      	strh	r1, [r2, #8]
        pl.synced  = ev->synced;
 80036ec:	7293      	strb	r3, [r2, #10]
 80036ee:	2182      	movs	r1, #130	@ 0x82
 80036f0:	230b      	movs	r3, #11
 80036f2:	f7fe fdb9 	bl	8002268 <BLE_BuildPacket>
 80036f6:	0001      	movs	r1, r0
 80036f8:	a817      	add	r0, sp, #92	@ 0x5c
 80036fa:	f7fd fb21 	bl	8000d40 <BLE_TxRaw.constprop.0>
        uint8_t len = BLE_BuildLogEntry(buf, &pl);
        BLE_SendPacket(&app->ble, buf, len); HAL_Delay(20);
 80036fe:	2014      	movs	r0, #20
 8003700:	f7fc feae 	bl	8000460 <HAL_Delay>
    for (uint8_t i = 0; i < app->drink_log.count; i++) {
 8003704:	5da3      	ldrb	r3, [r4, r6]
 8003706:	42ab      	cmp	r3, r5
 8003708:	d8d7      	bhi.n	80036ba <App_Run.constprop.0+0x4c4>
    }
    App_SendACK(app, BLE_CMD_GET_LOGS, 1, BLE_ERR_OK);
 800370a:	2200      	movs	r2, #0
 800370c:	2101      	movs	r1, #1
 800370e:	200a      	movs	r0, #10
 8003710:	e6eb      	b.n	80034ea <App_Run.constprop.0+0x2f4>
    for (uint8_t i = 0; i < app->drink_log.count; i++) {
 8003712:	26ee      	movs	r6, #238	@ 0xee
    switch (pkt->cmd) {
 8003714:	2500      	movs	r5, #0
 8003716:	270c      	movs	r7, #12
    for (uint8_t i = 0; i < app->drink_log.count; i++) {
 8003718:	0076      	lsls	r6, r6, #1
 800371a:	e7f3      	b.n	8003704 <App_Run.constprop.0+0x50e>
void App_Cmd_SyncAck(AppContext_t *app, const BLE_Packet_t *pkt)
{
    uint32_t cutoff = (pkt->len >= 4U)
                    ? BLE_U32(pkt->payload[0], pkt->payload[1],
                               pkt->payload[2], pkt->payload[3])
                    : app->rtc.unix_approx;
 800371c:	785b      	ldrb	r3, [r3, #1]
 800371e:	2b03      	cmp	r3, #3
 8003720:	d91f      	bls.n	8003762 <App_Run.constprop.0+0x56c>
 8003722:	231e      	movs	r3, #30
 8003724:	aa04      	add	r2, sp, #16
 8003726:	189b      	adds	r3, r3, r2
 8003728:	881a      	ldrh	r2, [r3, #0]
 800372a:	885b      	ldrh	r3, [r3, #2]
 800372c:	041b      	lsls	r3, r3, #16
 800372e:	4313      	orrs	r3, r2
 8003730:	ba1b      	rev	r3, r3
    for (uint8_t i = 0; i < log->count; i++)
 8003732:	22ee      	movs	r2, #238	@ 0xee
 8003734:	0052      	lsls	r2, r2, #1
 8003736:	5ca0      	ldrb	r0, [r4, r2]
            log->events[i].synced = 1;
 8003738:	2501      	movs	r5, #1
    for (uint8_t i = 0; i < log->count; i++)
 800373a:	2200      	movs	r2, #0
 800373c:	495b      	ldr	r1, [pc, #364]	@ (80038ac <App_Run.constprop.0+0x6b6>)
 800373e:	4282      	cmp	r2, r0
 8003740:	d113      	bne.n	800376a <App_Run.constprop.0+0x574>
    log->dirty = 1;
 8003742:	23de      	movs	r3, #222	@ 0xde
 8003744:	2501      	movs	r5, #1
 8003746:	33ff      	adds	r3, #255	@ 0xff
 8003748:	54e5      	strb	r5, [r4, r3]
    Storage_MarkSynced(&app->drink_log, cutoff);
    Storage_FlushDrinkLog(&app->drink_log);
 800374a:	f7fe fd75 	bl	8002238 <Storage_FlushDrinkLog.constprop.0>
    WS2812B_SetPattern(LED_PATTERN_SYNC_SUCCESS);
 800374e:	2009      	movs	r0, #9
 8003750:	f7fc fe5e 	bl	8000410 <WS2812B_SetPattern>
    Buzzer_Play(BUZZER_SYNC_OK);
 8003754:	3803      	subs	r0, #3
 8003756:	f7fd ff23 	bl	80015a0 <Buzzer_Play>
    App_SendACK(app, pkt->cmd, 1, BLE_ERR_OK);
 800375a:	2200      	movs	r2, #0
 800375c:	0029      	movs	r1, r5
 800375e:	200b      	movs	r0, #11
 8003760:	e6c3      	b.n	80034ea <App_Run.constprop.0+0x2f4>
                    : app->rtc.unix_approx;
 8003762:	0023      	movs	r3, r4
 8003764:	3308      	adds	r3, #8
 8003766:	6fdb      	ldr	r3, [r3, #124]	@ 0x7c
 8003768:	e7e3      	b.n	8003732 <App_Run.constprop.0+0x53c>
        if (log->events[i].unix_time <= synced_up_to_unix)
 800376a:	680e      	ldr	r6, [r1, #0]
 800376c:	42b3      	cmp	r3, r6
 800376e:	d300      	bcc.n	8003772 <App_Run.constprop.0+0x57c>
            log->events[i].synced = 1;
 8003770:	728d      	strb	r5, [r1, #10]
    for (uint8_t i = 0; i < log->count; i++)
 8003772:	3201      	adds	r2, #1
 8003774:	b2d2      	uxtb	r2, r2
 8003776:	310c      	adds	r1, #12
 8003778:	e7e1      	b.n	800373e <App_Run.constprop.0+0x548>

void App_Cmd_DeviceStatus(AppContext_t *app)
{
    uint8_t buf[BLE_PKT_MAX_LEN];
    BLE_StatusPayload_t pl;
    pl.bat_pct = app->current_bat_pct;
 800377a:	23a6      	movs	r3, #166	@ 0xa6
 800377c:	009b      	lsls	r3, r3, #2
 800377e:	5ce6      	ldrb	r6, [r4, r3]
 8003780:	0023      	movs	r3, r4
 8003782:	3328      	adds	r3, #40	@ 0x28
 8003784:	781d      	ldrb	r5, [r3, #0]
 8003786:	3d01      	subs	r5, #1
 8003788:	426b      	negs	r3, r5
 800378a:	415d      	adcs	r5, r3
    pl.flags   = 0;
    if (Battery_IsCharging(&app->bat))   pl.flags |= BLE_FLAG_CHARGING;
    if (app->ntc.valid)                  pl.flags |= BLE_FLAG_TEMP_OK;
 800378c:	7fa3      	ldrb	r3, [r4, #30]
 800378e:	b2ed      	uxtb	r5, r5
 8003790:	2b00      	cmp	r3, #0
 8003792:	d001      	beq.n	8003798 <App_Run.constprop.0+0x5a2>
 8003794:	2302      	movs	r3, #2
 8003796:	431d      	orrs	r5, r3
    if (app->tds.valid)                  pl.flags |= BLE_FLAG_TDS_OK;
 8003798:	7da3      	ldrb	r3, [r4, #22]
 800379a:	2b00      	cmp	r3, #0
 800379c:	d001      	beq.n	80037a2 <App_Run.constprop.0+0x5ac>
 800379e:	2304      	movs	r3, #4
 80037a0:	431d      	orrs	r5, r3
    if (app->hx711.is_calibrated)        pl.flags |= BLE_FLAG_WEIGHT_OK;
 80037a2:	7b63      	ldrb	r3, [r4, #13]
 80037a4:	2b00      	cmp	r3, #0
 80037a6:	d001      	beq.n	80037ac <App_Run.constprop.0+0x5b6>
 80037a8:	2308      	movs	r3, #8
 80037aa:	431d      	orrs	r5, r3
    if (app->settings.is_calibrated)     pl.flags |= BLE_FLAG_CALIBRATED;
 80037ac:	0023      	movs	r3, r4
 80037ae:	33db      	adds	r3, #219	@ 0xdb
 80037b0:	781b      	ldrb	r3, [r3, #0]
 80037b2:	2b00      	cmp	r3, #0
 80037b4:	d001      	beq.n	80037ba <App_Run.constprop.0+0x5c4>
 80037b6:	2310      	movs	r3, #16
 80037b8:	431d      	orrs	r5, r3
    if (app->settings.is_registered)     pl.flags |= BLE_FLAG_REGISTERED;
 80037ba:	0023      	movs	r3, r4
 80037bc:	33da      	adds	r3, #218	@ 0xda
 80037be:	781b      	ldrb	r3, [r3, #0]
 80037c0:	2b00      	cmp	r3, #0
 80037c2:	d001      	beq.n	80037c8 <App_Run.constprop.0+0x5d2>
 80037c4:	2320      	movs	r3, #32
 80037c6:	431d      	orrs	r5, r3
    pl.storage_pct = (uint8_t)((uint32_t)app->drink_log.count * 100U
 80037c8:	23ee      	movs	r3, #238	@ 0xee
 80037ca:	2064      	movs	r0, #100	@ 0x64
 80037cc:	005b      	lsls	r3, r3, #1
 80037ce:	5ce3      	ldrb	r3, [r4, r3]
                                / STORAGE_MAX_DRINK_EVENTS);
 80037d0:	2114      	movs	r1, #20
    pl.storage_pct = (uint8_t)((uint32_t)app->drink_log.count * 100U
 80037d2:	4358      	muls	r0, r3
                                / STORAGE_MAX_DRINK_EVENTS);
 80037d4:	f001 fc6c 	bl	80050b0 <__udivsi3>
    return BLE_BuildPacket(buf, BLE_RSP_STATUS, p, 3);
 80037d8:	2303      	movs	r3, #3
 80037da:	2181      	movs	r1, #129	@ 0x81
    uint8_t p[3] = { s->bat_pct, s->flags, s->storage_pct };
 80037dc:	aa11      	add	r2, sp, #68	@ 0x44
 80037de:	7016      	strb	r6, [r2, #0]
 80037e0:	7055      	strb	r5, [r2, #1]
 80037e2:	7090      	strb	r0, [r2, #2]

void App_Cmd_GetErrors(AppContext_t *app)
{
    uint8_t buf[BLE_PKT_MAX_LEN];
    uint8_t payload = 0;
    uint8_t len = BLE_BuildPacket(buf, BLE_RSP_ERR_LOG, &payload, 1);
 80037e4:	a817      	add	r0, sp, #92	@ 0x5c
    return BLE_BuildPacket(buf, BLE_RSP_PONG, buf, 0);
 80037e6:	f7fe fd3f 	bl	8002268 <BLE_BuildPacket>
 80037ea:	0001      	movs	r1, r0
 80037ec:	a817      	add	r0, sp, #92	@ 0x5c
 80037ee:	f7fd faa7 	bl	8000d40 <BLE_TxRaw.constprop.0>
void App_Cmd_Ping(AppContext_t *app)
{
    uint8_t buf[BLE_PKT_MAX_LEN];
    uint8_t len = BLE_BuildPong(buf);
    BLE_SendPacket(&app->ble, buf, len);
}
 80037f2:	e6b4      	b.n	800355e <App_Run.constprop.0+0x368>
                           (uint8_t)sizeof(BLE_DailyPayload_t));
}

uint8_t BLE_BuildConfig(uint8_t *buf, const void *prefs_payload)
{
    return BLE_BuildPacket(buf, BLE_RSP_CONFIG,
 80037f4:	2312      	movs	r3, #18
 80037f6:	2184      	movs	r1, #132	@ 0x84
 80037f8:	4a2d      	ldr	r2, [pc, #180]	@ (80038b0 <App_Run.constprop.0+0x6ba>)
 80037fa:	e7f3      	b.n	80037e4 <App_Run.constprop.0+0x5ee>
    uint8_t payload = 0;
 80037fc:	2300      	movs	r3, #0
 80037fe:	aa11      	add	r2, sp, #68	@ 0x44
 8003800:	7013      	strb	r3, [r2, #0]
    uint8_t len = BLE_BuildPacket(buf, BLE_RSP_ERR_LOG, &payload, 1);
 8003802:	2186      	movs	r1, #134	@ 0x86
 8003804:	3301      	adds	r3, #1
 8003806:	e7ed      	b.n	80037e4 <App_Run.constprop.0+0x5ee>
    return BLE_BuildPacket(buf, BLE_RSP_PONG, buf, 0);
 8003808:	aa17      	add	r2, sp, #92	@ 0x5c
 800380a:	2300      	movs	r3, #0
 800380c:	2185      	movs	r1, #133	@ 0x85
 800380e:	0010      	movs	r0, r2
 8003810:	e7e9      	b.n	80037e6 <App_Run.constprop.0+0x5f0>
        App_SendACK(app, pkt->cmd, 0, BLE_ERR_UNKNOWN_CMD);
 8003812:	2201      	movs	r2, #1
 8003814:	e669      	b.n	80034ea <App_Run.constprop.0+0x2f4>
        out[i] = hble->line_buf[i];
 8003816:	2534      	movs	r5, #52	@ 0x34
 8003818:	a804      	add	r0, sp, #16
 800381a:	1940      	adds	r0, r0, r5
 800381c:	54c2      	strb	r2, [r0, r3]
    while (i < (BLE_STR_LINE_MAX - 1U) && hble->line_buf[i] != '\0') {
 800381e:	3301      	adds	r3, #1
 8003820:	2b17      	cmp	r3, #23
 8003822:	d000      	beq.n	8003826 <App_Run.constprop.0+0x630>
 8003824:	e6a4      	b.n	8003570 <App_Run.constprop.0+0x37a>
    out[i] = '\0';
 8003826:	aa11      	add	r2, sp, #68	@ 0x44
 8003828:	18d2      	adds	r2, r2, r3
 800382a:	2300      	movs	r3, #0
 800382c:	7013      	strb	r3, [r2, #0]
    hble->line_ready = 0;
 800382e:	0022      	movs	r2, r4
 8003830:	3272      	adds	r2, #114	@ 0x72
 8003832:	7013      	strb	r3, [r2, #0]
    hble->line_len   = 0;
 8003834:	0022      	movs	r2, r4
 8003836:	3271      	adds	r2, #113	@ 0x71
 8003838:	7013      	strb	r3, [r2, #0]
    for (; line[i] && line[i] != ',' && i < sizeof(up) - 1U; i++) {
 800383a:	2134      	movs	r1, #52	@ 0x34
 800383c:	aa04      	add	r2, sp, #16
 800383e:	1852      	adds	r2, r2, r1
 8003840:	5cd2      	ldrb	r2, [r2, r3]
 8003842:	2a00      	cmp	r2, #0
 8003844:	d003      	beq.n	800384e <App_Run.constprop.0+0x658>
 8003846:	2a2c      	cmp	r2, #44	@ 0x2c
 8003848:	d001      	beq.n	800384e <App_Run.constprop.0+0x658>
 800384a:	2b0f      	cmp	r3, #15
 800384c:	d10f      	bne.n	800386e <App_Run.constprop.0+0x678>
    up[i] = '\0';
 800384e:	200c      	movs	r0, #12
 8003850:	2200      	movs	r2, #0
 8003852:	a904      	add	r1, sp, #16
 8003854:	1809      	adds	r1, r1, r0
 8003856:	54ca      	strb	r2, [r1, r3]
    if (strcmp(up, "PING") == 0) { BLE_SendStr(&app->ble, "PONG\r\n"); return; }
 8003858:	a807      	add	r0, sp, #28
 800385a:	4916      	ldr	r1, [pc, #88]	@ (80038b4 <App_Run.constprop.0+0x6be>)
 800385c:	f001 fc02 	bl	8005064 <strcmp>
 8003860:	2800      	cmp	r0, #0
 8003862:	d12b      	bne.n	80038bc <App_Run.constprop.0+0x6c6>
 8003864:	4814      	ldr	r0, [pc, #80]	@ (80038b8 <App_Run.constprop.0+0x6c2>)
    BLE_SendStr(&app->ble, S_ERR);
 8003866:	f7ff fcbd 	bl	80031e4 <BLE_SendStr.constprop.0.isra.0>
 800386a:	f000 fd71 	bl	8004350 <App_Run.constprop.0+0x115a>
        if (c >= 'a' && c <= 'z') c = (char)(c - 'a' + 'A');
 800386e:	0011      	movs	r1, r2
 8003870:	3961      	subs	r1, #97	@ 0x61
 8003872:	2919      	cmp	r1, #25
 8003874:	d801      	bhi.n	800387a <App_Run.constprop.0+0x684>
 8003876:	3a20      	subs	r2, #32
 8003878:	b2d2      	uxtb	r2, r2
        up[i] = c;
 800387a:	200c      	movs	r0, #12
 800387c:	a904      	add	r1, sp, #16
 800387e:	1809      	adds	r1, r1, r0
 8003880:	54ca      	strb	r2, [r1, r3]
 8003882:	3301      	adds	r3, #1
 8003884:	e7d9      	b.n	800383a <App_Run.constprop.0+0x644>
 8003886:	46c0      	nop			@ (mov r8, r8)
 8003888:	20000595 	.word	0x20000595
 800388c:	2000000b 	.word	0x2000000b
 8003890:	20000000 	.word	0x20000000
 8003894:	2000071c 	.word	0x2000071c
 8003898:	20000724 	.word	0x20000724
 800389c:	20000606 	.word	0x20000606
 80038a0:	200005f6 	.word	0x200005f6
 80038a4:	20000624 	.word	0x20000624
 80038a8:	2000062c 	.word	0x2000062c
 80038ac:	20000628 	.word	0x20000628
 80038b0:	200005e4 	.word	0x200005e4
 80038b4:	08007560 	.word	0x08007560
 80038b8:	08007565 	.word	0x08007565
    if (strcmp(up, "HELP") == 0 || strcmp(up, "?") == 0) {
 80038bc:	49d9      	ldr	r1, [pc, #868]	@ (8003c24 <App_Run.constprop.0+0xa2e>)
 80038be:	a807      	add	r0, sp, #28
 80038c0:	f001 fbd0 	bl	8005064 <strcmp>
 80038c4:	2800      	cmp	r0, #0
 80038c6:	d005      	beq.n	80038d4 <App_Run.constprop.0+0x6de>
 80038c8:	49d7      	ldr	r1, [pc, #860]	@ (8003c28 <App_Run.constprop.0+0xa32>)
 80038ca:	a807      	add	r0, sp, #28
 80038cc:	f001 fbca 	bl	8005064 <strcmp>
 80038d0:	2800      	cmp	r0, #0
 80038d2:	d119      	bne.n	8003908 <App_Run.constprop.0+0x712>
        BLE_SendStr(&app->ble, "=HydraSense cmds=\r\n");
 80038d4:	48d5      	ldr	r0, [pc, #852]	@ (8003c2c <App_Run.constprop.0+0xa36>)
 80038d6:	f7ff fc85 	bl	80031e4 <BLE_SendStr.constprop.0.isra.0>
        BLE_SendStr(&app->ble, "RGB,r,g,b RED GREEN BLUE WHITE OFF CLR\r\n");
 80038da:	48d5      	ldr	r0, [pc, #852]	@ (8003c30 <App_Run.constprop.0+0xa3a>)
 80038dc:	f7ff fc82 	bl	80031e4 <BLE_SendStr.constprop.0.isra.0>
        BLE_SendStr(&app->ble, "PAT,0-14 CHG,pct LAMP,r,g,b LAMPON LAMPOFF LAMPSAVE\r\n");
 80038e0:	48d4      	ldr	r0, [pc, #848]	@ (8003c34 <App_Run.constprop.0+0xa3e>)
 80038e2:	f7ff fc7f 	bl	80031e4 <BLE_SendStr.constprop.0.isra.0>
        BLE_SendStr(&app->ble, "BEEP BON BOFF BUZ,0-8\r\n");
 80038e6:	48d4      	ldr	r0, [pc, #848]	@ (8003c38 <App_Run.constprop.0+0xa42>)
 80038e8:	f7ff fc7c 	bl	80031e4 <BLE_SendStr.constprop.0.isra.0>
        BLE_SendStr(&app->ble, "STATUS TEMP TDS WEIGHT RAWW READ CFG\r\n");
 80038ec:	48d3      	ldr	r0, [pc, #844]	@ (8003c3c <App_Run.constprop.0+0xa46>)
 80038ee:	f7ff fc79 	bl	80031e4 <BLE_SendStr.constprop.0.isra.0>
        BLE_SendStr(&app->ble, "CAL/TARE  CALWEIGHT,<grams>\r\n");
 80038f2:	48d3      	ldr	r0, [pc, #844]	@ (8003c40 <App_Run.constprop.0+0xa4a>)
 80038f4:	f7ff fc76 	bl	80031e4 <BLE_SendStr.constprop.0.isra.0>
        BLE_SendStr(&app->ble, "TIME SETTIME,unix\r\n");
 80038f8:	48d2      	ldr	r0, [pc, #840]	@ (8003c44 <App_Run.constprop.0+0xa4e>)
 80038fa:	f7ff fc73 	bl	80031e4 <BLE_SendStr.constprop.0.isra.0>
        BLE_SendStr(&app->ble, "REG UNPAIR SYNC RESET REBOOT SOFTRST\r\n");
 80038fe:	48d2      	ldr	r0, [pc, #840]	@ (8003c48 <App_Run.constprop.0+0xa52>)
 8003900:	f7ff fc70 	bl	80031e4 <BLE_SendStr.constprop.0.isra.0>
        BLE_SendStr(&app->ble, "EE RTCQ TDSQ TMPQ BATQ\r\n");
 8003904:	48d1      	ldr	r0, [pc, #836]	@ (8003c4c <App_Run.constprop.0+0xa56>)
 8003906:	e7ae      	b.n	8003866 <App_Run.constprop.0+0x670>
    if (strcmp(up, "TIME") == 0) {
 8003908:	49d1      	ldr	r1, [pc, #836]	@ (8003c50 <App_Run.constprop.0+0xa5a>)
 800390a:	a807      	add	r0, sp, #28
 800390c:	f001 fbaa 	bl	8005064 <strcmp>
 8003910:	2800      	cmp	r0, #0
 8003912:	d137      	bne.n	8003984 <App_Run.constprop.0+0x78e>
        RTC_Read(&app->rtc);
 8003914:	f7fd fc28 	bl	8001168 <RTC_Read.constprop.0>
        p = s_app(p, e, "T=");  p = s_u2s(p, e, app->rtc.unix_approx);
 8003918:	4ace      	ldr	r2, [pc, #824]	@ (8003c54 <App_Run.constprop.0+0xa5e>)
 800391a:	a924      	add	r1, sp, #144	@ 0x90
 800391c:	a817      	add	r0, sp, #92	@ 0x5c
 800391e:	f7fc fc3a 	bl	8000196 <s_app>
 8003922:	0023      	movs	r3, r4
 8003924:	3308      	adds	r3, #8
 8003926:	6fda      	ldr	r2, [r3, #124]	@ 0x7c
 8003928:	a924      	add	r1, sp, #144	@ 0x90
 800392a:	f7fc fbed 	bl	8000108 <s_u2s>
        p = s_app(p, e, " ");
 800392e:	4aca      	ldr	r2, [pc, #808]	@ (8003c58 <App_Run.constprop.0+0xa62>)
 8003930:	a924      	add	r1, sp, #144	@ 0x90
 8003932:	f7fc fc30 	bl	8000196 <s_app>
        p = s_u2s(p, e, app->rtc.now.hours);   *p++ = ':';
 8003936:	0023      	movs	r3, r4
 8003938:	337e      	adds	r3, #126	@ 0x7e
 800393a:	781a      	ldrb	r2, [r3, #0]
 800393c:	a924      	add	r1, sp, #144	@ 0x90
 800393e:	f7fc fbe3 	bl	8000108 <s_u2s>
 8003942:	253a      	movs	r5, #58	@ 0x3a
 8003944:	0003      	movs	r3, r0
 8003946:	701d      	strb	r5, [r3, #0]
        p = s_u2s(p, e, app->rtc.now.minutes); *p++ = ':';
 8003948:	0023      	movs	r3, r4
 800394a:	337d      	adds	r3, #125	@ 0x7d
 800394c:	781a      	ldrb	r2, [r3, #0]
 800394e:	a924      	add	r1, sp, #144	@ 0x90
        p = s_u2s(p, e, app->rtc.now.hours);   *p++ = ':';
 8003950:	3001      	adds	r0, #1
        p = s_u2s(p, e, app->rtc.now.minutes); *p++ = ':';
 8003952:	f7fc fbd9 	bl	8000108 <s_u2s>
 8003956:	0003      	movs	r3, r0
 8003958:	701d      	strb	r5, [r3, #0]
        p = s_u2s(p, e, app->rtc.now.seconds);
 800395a:	0023      	movs	r3, r4
 800395c:	337c      	adds	r3, #124	@ 0x7c
 800395e:	781a      	ldrb	r2, [r3, #0]
        p = s_u2s(p, e, app->rtc.now.minutes); *p++ = ':';
 8003960:	3001      	adds	r0, #1
        p = s_u2s(p, e, app->rtc.now.seconds);
 8003962:	a924      	add	r1, sp, #144	@ 0x90
        *p++ = (char)(app->rtc.initialized ? '+' : '-');
 8003964:	3489      	adds	r4, #137	@ 0x89
        p = s_u2s(p, e, app->rtc.now.seconds);
 8003966:	f7fc fbcf 	bl	8000108 <s_u2s>
        *p++ = (char)(app->rtc.initialized ? '+' : '-');
 800396a:	7822      	ldrb	r2, [r4, #0]
 800396c:	232d      	movs	r3, #45	@ 0x2d
 800396e:	2a00      	cmp	r2, #0
 8003970:	d000      	beq.n	8003974 <App_Run.constprop.0+0x77e>
 8003972:	3b02      	subs	r3, #2
        p = s_app(p, e, "\r\n");
 8003974:	4ab9      	ldr	r2, [pc, #740]	@ (8003c5c <App_Run.constprop.0+0xa66>)
        *p++ = (char)(app->rtc.initialized ? '+' : '-');
 8003976:	7003      	strb	r3, [r0, #0]
 8003978:	3001      	adds	r0, #1
        p = s_app(p, e, "\r\n");
 800397a:	a924      	add	r1, sp, #144	@ 0x90
 800397c:	f7fc fc0b 	bl	8000196 <s_app>
        BLE_SendStr(&app->ble, out);
 8003980:	a817      	add	r0, sp, #92	@ 0x5c
 8003982:	e770      	b.n	8003866 <App_Run.constprop.0+0x670>
    if (strcmp(up, "SETTIME") == 0) {
 8003984:	49b6      	ldr	r1, [pc, #728]	@ (8003c60 <App_Run.constprop.0+0xa6a>)
 8003986:	a807      	add	r0, sp, #28
 8003988:	f001 fb6c 	bl	8005064 <strcmp>
 800398c:	2800      	cmp	r0, #0
 800398e:	d115      	bne.n	80039bc <App_Run.constprop.0+0x7c6>
        if (s_csv(line, v, 1) == 1 && v[0] > 0) {
 8003990:	2201      	movs	r2, #1
 8003992:	a917      	add	r1, sp, #92	@ 0x5c
 8003994:	a811      	add	r0, sp, #68	@ 0x44
 8003996:	f7fc fc0b 	bl	80001b0 <s_csv>
 800399a:	4cb2      	ldr	r4, [pc, #712]	@ (8003c64 <App_Run.constprop.0+0xa6e>)
 800399c:	4290      	cmp	r0, r2
 800399e:	d10a      	bne.n	80039b6 <App_Run.constprop.0+0x7c0>
 80039a0:	9817      	ldr	r0, [sp, #92]	@ 0x5c
 80039a2:	2800      	cmp	r0, #0
 80039a4:	dd07      	ble.n	80039b6 <App_Run.constprop.0+0x7c0>
            RTC_SetFromUnix(&app->rtc, (uint32_t)v[0]);
 80039a6:	f7fe fcd3 	bl	8002350 <RTC_SetFromUnix.constprop.0.isra.0>
    NVIC->ISER[0U] = (uint32_t)(1UL << (((uint32_t)IRQn) & 0x1FUL));
 80039aa:	2280      	movs	r2, #128	@ 0x80
            BLE_SendStr(&app->ble, S_OK);
 80039ac:	0020      	movs	r0, r4
 80039ae:	4bae      	ldr	r3, [pc, #696]	@ (8003c68 <App_Run.constprop.0+0xa72>)
 80039b0:	601a      	str	r2, [r3, #0]
        BLE_SendStr(&app->ble, S_OK); return;
 80039b2:	300a      	adds	r0, #10
 80039b4:	e757      	b.n	8003866 <App_Run.constprop.0+0x670>
            BLE_SendStr(&app->ble, S_ERR);
 80039b6:	0020      	movs	r0, r4
    BLE_SendStr(&app->ble, S_ERR);
 80039b8:	300f      	adds	r0, #15
 80039ba:	e754      	b.n	8003866 <App_Run.constprop.0+0x670>
    if (strcmp(up, "STATUS") == 0) {
 80039bc:	49ab      	ldr	r1, [pc, #684]	@ (8003c6c <App_Run.constprop.0+0xa76>)
 80039be:	a807      	add	r0, sp, #28
 80039c0:	f001 fb50 	bl	8005064 <strcmp>
 80039c4:	2800      	cmp	r0, #0
 80039c6:	d139      	bne.n	8003a3c <App_Run.constprop.0+0x846>
        p = s_app(p, e, "S:"); p = s_u2s(p, e, app->current_bat_pct);
 80039c8:	4aa9      	ldr	r2, [pc, #676]	@ (8003c70 <App_Run.constprop.0+0xa7a>)
 80039ca:	a924      	add	r1, sp, #144	@ 0x90
 80039cc:	a817      	add	r0, sp, #92	@ 0x5c
 80039ce:	f7fc fbe2 	bl	8000196 <s_app>
 80039d2:	23a6      	movs	r3, #166	@ 0xa6
 80039d4:	009b      	lsls	r3, r3, #2
 80039d6:	5ce2      	ldrb	r2, [r4, r3]
 80039d8:	a924      	add	r1, sp, #144	@ 0x90
 80039da:	f7fc fb95 	bl	8000108 <s_u2s>
        *p++ = ',';            p = s_i2s(p, e, app->current_temp_x10);
 80039de:	252c      	movs	r5, #44	@ 0x2c
        p = s_app(p, e, "S:"); p = s_u2s(p, e, app->current_bat_pct);
 80039e0:	0003      	movs	r3, r0
        *p++ = ',';            p = s_i2s(p, e, app->current_temp_x10);
 80039e2:	701d      	strb	r5, [r3, #0]
 80039e4:	4ba3      	ldr	r3, [pc, #652]	@ (8003c74 <App_Run.constprop.0+0xa7e>)
 80039e6:	a924      	add	r1, sp, #144	@ 0x90
 80039e8:	5ee2      	ldrsh	r2, [r4, r3]
 80039ea:	3001      	adds	r0, #1
 80039ec:	f7fc fbc6 	bl	800017c <s_i2s>
 80039f0:	0003      	movs	r3, r0
        *p++ = ',';            p = s_u2s(p, e, app->current_tds_ppm);
 80039f2:	701d      	strb	r5, [r3, #0]
 80039f4:	23a5      	movs	r3, #165	@ 0xa5
 80039f6:	009b      	lsls	r3, r3, #2
 80039f8:	5ae2      	ldrh	r2, [r4, r3]
 80039fa:	a924      	add	r1, sp, #144	@ 0x90
 80039fc:	3001      	adds	r0, #1
 80039fe:	f7fc fb83 	bl	8000108 <s_u2s>
 8003a02:	0003      	movs	r3, r0
        *p++ = ',';            p = s_u2s(p, e, app->consumed_today_ml);
 8003a04:	701d      	strb	r5, [r3, #0]
 8003a06:	23b7      	movs	r3, #183	@ 0xb7
 8003a08:	009b      	lsls	r3, r3, #2
 8003a0a:	5ae2      	ldrh	r2, [r4, r3]
 8003a0c:	a924      	add	r1, sp, #144	@ 0x90
 8003a0e:	3001      	adds	r0, #1
 8003a10:	f7fc fb7a 	bl	8000108 <s_u2s>
 8003a14:	0003      	movs	r3, r0
        *p++ = ',';            p = s_u2s(p, e, Battery_IsCharging(&app->bat) ? 1U : 0U);
 8003a16:	701d      	strb	r5, [r3, #0]
 8003a18:	0023      	movs	r3, r4
 8003a1a:	3328      	adds	r3, #40	@ 0x28
 8003a1c:	781a      	ldrb	r2, [r3, #0]
 8003a1e:	3001      	adds	r0, #1
 8003a20:	3a01      	subs	r2, #1
 8003a22:	4253      	negs	r3, r2
 8003a24:	415a      	adcs	r2, r3
 8003a26:	a924      	add	r1, sp, #144	@ 0x90
 8003a28:	f7fc fb6e 	bl	8000108 <s_u2s>
 8003a2c:	0003      	movs	r3, r0
        *p++ = ',';            p = s_u2s(p, e, app->hx711.is_calibrated);
 8003a2e:	701d      	strb	r5, [r3, #0]
 8003a30:	7b62      	ldrb	r2, [r4, #13]
 8003a32:	3001      	adds	r0, #1
    return s_u2s(d, e, frac);
 8003a34:	a924      	add	r1, sp, #144	@ 0x90
 8003a36:	f7fc fb67 	bl	8000108 <s_u2s>
 8003a3a:	e055      	b.n	8003ae8 <App_Run.constprop.0+0x8f2>
    if (strcmp(up, "TEMP") == 0) {
 8003a3c:	498e      	ldr	r1, [pc, #568]	@ (8003c78 <App_Run.constprop.0+0xa82>)
 8003a3e:	a807      	add	r0, sp, #28
 8003a40:	f001 fb10 	bl	8005064 <strcmp>
 8003a44:	2800      	cmp	r0, #0
 8003a46:	d125      	bne.n	8003a94 <App_Run.constprop.0+0x89e>
        int16_t t = app->current_temp_x10;
 8003a48:	4b8a      	ldr	r3, [pc, #552]	@ (8003c74 <App_Run.constprop.0+0xa7e>)
        int16_t whole = t / 10, frac = t % 10; if (frac < 0) frac = -frac;
 8003a4a:	210a      	movs	r1, #10
        int16_t t = app->current_temp_x10;
 8003a4c:	5ee6      	ldrsh	r6, [r4, r3]
        int16_t whole = t / 10, frac = t % 10; if (frac < 0) frac = -frac;
 8003a4e:	0030      	movs	r0, r6
 8003a50:	f001 fbb8 	bl	80051c4 <__divsi3>
 8003a54:	210a      	movs	r1, #10
 8003a56:	b205      	sxth	r5, r0
 8003a58:	0030      	movs	r0, r6
 8003a5a:	f001 fc99 	bl	8005390 <__aeabi_idivmod>
 8003a5e:	b20c      	sxth	r4, r1
 8003a60:	0409      	lsls	r1, r1, #16
 8003a62:	d501      	bpl.n	8003a68 <App_Run.constprop.0+0x872>
 8003a64:	4264      	negs	r4, r4
 8003a66:	b224      	sxth	r4, r4
        p = s_app(p, e, "T:");
 8003a68:	4a84      	ldr	r2, [pc, #528]	@ (8003c7c <App_Run.constprop.0+0xa86>)
 8003a6a:	a924      	add	r1, sp, #144	@ 0x90
 8003a6c:	a817      	add	r0, sp, #92	@ 0x5c
 8003a6e:	f7fc fb92 	bl	8000196 <s_app>
        if (t < 0 && whole == 0) *p++ = '-';
 8003a72:	2e00      	cmp	r6, #0
 8003a74:	da04      	bge.n	8003a80 <App_Run.constprop.0+0x88a>
 8003a76:	2d00      	cmp	r5, #0
 8003a78:	d102      	bne.n	8003a80 <App_Run.constprop.0+0x88a>
 8003a7a:	232d      	movs	r3, #45	@ 0x2d
 8003a7c:	7003      	strb	r3, [r0, #0]
 8003a7e:	3001      	adds	r0, #1
        p = s_i2s(p, e, whole); *p++ = '.'; p = s_u2s(p, e, (uint32_t)frac);
 8003a80:	002a      	movs	r2, r5
 8003a82:	a924      	add	r1, sp, #144	@ 0x90
 8003a84:	f7fc fb7a 	bl	800017c <s_i2s>
 8003a88:	222e      	movs	r2, #46	@ 0x2e
 8003a8a:	0003      	movs	r3, r0
 8003a8c:	3001      	adds	r0, #1
 8003a8e:	701a      	strb	r2, [r3, #0]
    return s_u2s(d, e, frac);
 8003a90:	0022      	movs	r2, r4
 8003a92:	e7cf      	b.n	8003a34 <App_Run.constprop.0+0x83e>
    if (strcmp(up, "TDS") == 0) {
 8003a94:	497a      	ldr	r1, [pc, #488]	@ (8003c80 <App_Run.constprop.0+0xa8a>)
 8003a96:	a807      	add	r0, sp, #28
 8003a98:	f001 fae4 	bl	8005064 <strcmp>
 8003a9c:	2800      	cmp	r0, #0
 8003a9e:	d108      	bne.n	8003ab2 <App_Run.constprop.0+0x8bc>
        p = s_app(p, e, "D:"); p = s_u2s(p, e, app->current_tds_ppm);
 8003aa0:	4a78      	ldr	r2, [pc, #480]	@ (8003c84 <App_Run.constprop.0+0xa8e>)
 8003aa2:	a924      	add	r1, sp, #144	@ 0x90
 8003aa4:	a817      	add	r0, sp, #92	@ 0x5c
 8003aa6:	f7fc fb76 	bl	8000196 <s_app>
 8003aaa:	23a5      	movs	r3, #165	@ 0xa5
 8003aac:	009b      	lsls	r3, r3, #2
 8003aae:	5ae2      	ldrh	r2, [r4, r3]
 8003ab0:	e7c0      	b.n	8003a34 <App_Run.constprop.0+0x83e>
    if (strcmp(up, "WEIGHT") == 0) {
 8003ab2:	4975      	ldr	r1, [pc, #468]	@ (8003c88 <App_Run.constprop.0+0xa92>)
 8003ab4:	a807      	add	r0, sp, #28
 8003ab6:	f001 fad5 	bl	8005064 <strcmp>
 8003aba:	2800      	cmp	r0, #0
 8003abc:	d116      	bne.n	8003aec <App_Run.constprop.0+0x8f6>
        if (!app->hx711.is_calibrated) {
 8003abe:	7b63      	ldrb	r3, [r4, #13]
            BLE_SendStr(&app->ble, "W:0,UNCAL\r\n");
 8003ac0:	4872      	ldr	r0, [pc, #456]	@ (8003c8c <App_Run.constprop.0+0xa96>)
        if (!app->hx711.is_calibrated) {
 8003ac2:	2b00      	cmp	r3, #0
 8003ac4:	d100      	bne.n	8003ac8 <App_Run.constprop.0+0x8d2>
 8003ac6:	e6ce      	b.n	8003866 <App_Run.constprop.0+0x670>
            p = s_app(p, e, "W:"); p = s_i2s(p, e, (int32_t)app->current_weight_g);
 8003ac8:	4a71      	ldr	r2, [pc, #452]	@ (8003c90 <App_Run.constprop.0+0xa9a>)
 8003aca:	a924      	add	r1, sp, #144	@ 0x90
 8003acc:	a817      	add	r0, sp, #92	@ 0x5c
 8003ace:	f7fc fb62 	bl	8000196 <s_app>
 8003ad2:	23a3      	movs	r3, #163	@ 0xa3
 8003ad4:	009b      	lsls	r3, r3, #2
 8003ad6:	0005      	movs	r5, r0
 8003ad8:	58e0      	ldr	r0, [r4, r3]
 8003ada:	f002 fc71 	bl	80063c0 <__aeabi_f2iz>
 8003ade:	a924      	add	r1, sp, #144	@ 0x90
 8003ae0:	0002      	movs	r2, r0
 8003ae2:	0028      	movs	r0, r5
 8003ae4:	f7fc fb4a 	bl	800017c <s_i2s>
        p = s_app(p, e, "\r\n");
 8003ae8:	4a5c      	ldr	r2, [pc, #368]	@ (8003c5c <App_Run.constprop.0+0xa66>)
 8003aea:	e746      	b.n	800397a <App_Run.constprop.0+0x784>
    if (strcmp(up, "RAWW") == 0) {
 8003aec:	4969      	ldr	r1, [pc, #420]	@ (8003c94 <App_Run.constprop.0+0xa9e>)
 8003aee:	a807      	add	r0, sp, #28
 8003af0:	f001 fab8 	bl	8005064 <strcmp>
 8003af4:	2800      	cmp	r0, #0
 8003af6:	d11b      	bne.n	8003b30 <App_Run.constprop.0+0x93a>
        int32_t raw = 0;
 8003af8:	2300      	movs	r3, #0
        uint8_t ok  = HX711_ReadRawAveraged(&app->hx711, &raw);
 8003afa:	a806      	add	r0, sp, #24
        int32_t raw = 0;
 8003afc:	9306      	str	r3, [sp, #24]
        uint8_t ok  = HX711_ReadRawAveraged(&app->hx711, &raw);
 8003afe:	f7fd f941 	bl	8000d84 <HX711_ReadRawAveraged.constprop.0>
        p = s_app(p, e, "RW:");
 8003b02:	4a65      	ldr	r2, [pc, #404]	@ (8003c98 <App_Run.constprop.0+0xaa2>)
        uint8_t ok  = HX711_ReadRawAveraged(&app->hx711, &raw);
 8003b04:	0005      	movs	r5, r0
        p = s_app(p, e, "RW:");
 8003b06:	a924      	add	r1, sp, #144	@ 0x90
 8003b08:	a817      	add	r0, sp, #92	@ 0x5c
 8003b0a:	f7fc fb44 	bl	8000196 <s_app>
        p = s_i2s(p, e, raw);                    *p++ = ',';
 8003b0e:	9a06      	ldr	r2, [sp, #24]
 8003b10:	a924      	add	r1, sp, #144	@ 0x90
 8003b12:	f7fc fb33 	bl	800017c <s_i2s>
 8003b16:	262c      	movs	r6, #44	@ 0x2c
 8003b18:	0003      	movs	r3, r0
 8003b1a:	701e      	strb	r6, [r3, #0]
        p = s_i2s(p, e, app->hx711.tare_offset); *p++ = ',';
 8003b1c:	6822      	ldr	r2, [r4, #0]
        p = s_i2s(p, e, raw);                    *p++ = ',';
 8003b1e:	3001      	adds	r0, #1
        p = s_i2s(p, e, app->hx711.tare_offset); *p++ = ',';
 8003b20:	a924      	add	r1, sp, #144	@ 0x90
 8003b22:	f7fc fb2b 	bl	800017c <s_i2s>
 8003b26:	0003      	movs	r3, r0
        p = s_u2s(p, e, ok);
 8003b28:	002a      	movs	r2, r5
        p = s_i2s(p, e, app->hx711.tare_offset); *p++ = ',';
 8003b2a:	3001      	adds	r0, #1
 8003b2c:	701e      	strb	r6, [r3, #0]
 8003b2e:	e781      	b.n	8003a34 <App_Run.constprop.0+0x83e>
    if (strcmp(up, "READ") == 0) {
 8003b30:	495a      	ldr	r1, [pc, #360]	@ (8003c9c <App_Run.constprop.0+0xaa6>)
 8003b32:	a807      	add	r0, sp, #28
 8003b34:	f001 fa96 	bl	8005064 <strcmp>
 8003b38:	2600      	movs	r6, #0
 8003b3a:	42b0      	cmp	r0, r6
 8003b3c:	d028      	beq.n	8003b90 <App_Run.constprop.0+0x99a>
            if (strcmp(up, solids[si].name) == 0) {
 8003b3e:	4d49      	ldr	r5, [pc, #292]	@ (8003c64 <App_Run.constprop.0+0xa6e>)
 8003b40:	4f57      	ldr	r7, [pc, #348]	@ (8003ca0 <App_Run.constprop.0+0xaaa>)
 8003b42:	2109      	movs	r1, #9
 8003b44:	4371      	muls	r1, r6
 8003b46:	a807      	add	r0, sp, #28
 8003b48:	1879      	adds	r1, r7, r1
 8003b4a:	f001 fa8b 	bl	8005064 <strcmp>
 8003b4e:	2800      	cmp	r0, #0
 8003b50:	d141      	bne.n	8003bd6 <App_Run.constprop.0+0x9e0>
 8003b52:	b2f7      	uxtb	r7, r6
                if (si >= 4U) {   /* OFF and CLR also clear alerts */
 8003b54:	2f03      	cmp	r7, #3
 8003b56:	d909      	bls.n	8003b6c <App_Run.constprop.0+0x976>
                    app->purity_alert_active = 0;
 8003b58:	23b9      	movs	r3, #185	@ 0xb9
 8003b5a:	009b      	lsls	r3, r3, #2
 8003b5c:	52e0      	strh	r0, [r4, r3]
                    WS2812B_SetPattern(LED_PATTERN_ALL_OFF);
 8003b5e:	3001      	adds	r0, #1
 8003b60:	f7fc fc56 	bl	8000410 <WS2812B_SetPattern>
                    if (si == 5U) Buzzer_Stop();   /* CLR only */
 8003b64:	2f05      	cmp	r7, #5
 8003b66:	d101      	bne.n	8003b6c <App_Run.constprop.0+0x976>
 8003b68:	f7fc fb98 	bl	800029c <Buzzer_Stop>
                WS2812B_SetAll(solids[si].color);
 8003b6c:	2309      	movs	r3, #9
 8003b6e:	002a      	movs	r2, r5
 8003b70:	4373      	muls	r3, r6
 8003b72:	321b      	adds	r2, #27
 8003b74:	5c99      	ldrb	r1, [r3, r2]
 8003b76:	18d2      	adds	r2, r2, r3
 8003b78:	7853      	ldrb	r3, [r2, #1]
 8003b7a:	7890      	ldrb	r0, [r2, #2]
 8003b7c:	021b      	lsls	r3, r3, #8
 8003b7e:	430b      	orrs	r3, r1
 8003b80:	0400      	lsls	r0, r0, #16
 8003b82:	4318      	orrs	r0, r3
            WS2812B_SetAll(RGB((uint8_t)v[0], (uint8_t)v[1], (uint8_t)v[2]));
 8003b84:	f7fc fbe8 	bl	8000358 <WS2812B_SetAll>
            WS2812B_SendBlocking(); BLE_SendStr(&app->ble, S_OK);
 8003b88:	f7fe fff2 	bl	8002b70 <WS2812B_SendBlocking>
        BLE_SendStr(&app->ble, S_OK); return;
 8003b8c:	0028      	movs	r0, r5
 8003b8e:	e710      	b.n	80039b2 <App_Run.constprop.0+0x7bc>
        p = s_app(p, e, "TLM,"); p = s_i2s(p, e, app->current_temp_x10);
 8003b90:	4a44      	ldr	r2, [pc, #272]	@ (8003ca4 <App_Run.constprop.0+0xaae>)
 8003b92:	a924      	add	r1, sp, #144	@ 0x90
 8003b94:	a817      	add	r0, sp, #92	@ 0x5c
 8003b96:	f7fc fafe 	bl	8000196 <s_app>
 8003b9a:	4b36      	ldr	r3, [pc, #216]	@ (8003c74 <App_Run.constprop.0+0xa7e>)
 8003b9c:	a924      	add	r1, sp, #144	@ 0x90
 8003b9e:	5ee2      	ldrsh	r2, [r4, r3]
 8003ba0:	f7fc faec 	bl	800017c <s_i2s>
        *p++ = ',';              p = s_u2s(p, e, app->current_tds_ppm);
 8003ba4:	252c      	movs	r5, #44	@ 0x2c
        p = s_app(p, e, "TLM,"); p = s_i2s(p, e, app->current_temp_x10);
 8003ba6:	0003      	movs	r3, r0
        *p++ = ',';              p = s_u2s(p, e, app->current_tds_ppm);
 8003ba8:	701d      	strb	r5, [r3, #0]
 8003baa:	23a5      	movs	r3, #165	@ 0xa5
 8003bac:	009b      	lsls	r3, r3, #2
 8003bae:	5ae2      	ldrh	r2, [r4, r3]
 8003bb0:	a924      	add	r1, sp, #144	@ 0x90
 8003bb2:	3001      	adds	r0, #1
 8003bb4:	f7fc faa8 	bl	8000108 <s_u2s>
 8003bb8:	0003      	movs	r3, r0
        *p++ = ',';              p = s_u2s(p, e, app->consumed_today_ml);
 8003bba:	701d      	strb	r5, [r3, #0]
 8003bbc:	23b7      	movs	r3, #183	@ 0xb7
 8003bbe:	009b      	lsls	r3, r3, #2
 8003bc0:	5ae2      	ldrh	r2, [r4, r3]
 8003bc2:	3001      	adds	r0, #1
 8003bc4:	a924      	add	r1, sp, #144	@ 0x90
 8003bc6:	f7fc fa9f 	bl	8000108 <s_u2s>
 8003bca:	0003      	movs	r3, r0
        *p++ = ',';              p = s_u2s(p, e, app->hydration_score);
 8003bcc:	701d      	strb	r5, [r3, #0]
 8003bce:	4b36      	ldr	r3, [pc, #216]	@ (8003ca8 <App_Run.constprop.0+0xab2>)
 8003bd0:	3001      	adds	r0, #1
 8003bd2:	5ce2      	ldrb	r2, [r4, r3]
 8003bd4:	e72e      	b.n	8003a34 <App_Run.constprop.0+0x83e>
        for (uint8_t si = 0; si < 6U; si++) {
 8003bd6:	3601      	adds	r6, #1
 8003bd8:	2e06      	cmp	r6, #6
 8003bda:	d1b2      	bne.n	8003b42 <App_Run.constprop.0+0x94c>
    if (strcmp(up, "RGB") == 0) {
 8003bdc:	4933      	ldr	r1, [pc, #204]	@ (8003cac <App_Run.constprop.0+0xab6>)
 8003bde:	a807      	add	r0, sp, #28
 8003be0:	f001 fa40 	bl	8005064 <strcmp>
 8003be4:	2800      	cmp	r0, #0
 8003be6:	d163      	bne.n	8003cb0 <App_Run.constprop.0+0xaba>
        if (s_csv(line, v, 3) == 3 &&
 8003be8:	2203      	movs	r2, #3
 8003bea:	a917      	add	r1, sp, #92	@ 0x5c
 8003bec:	a811      	add	r0, sp, #68	@ 0x44
 8003bee:	f7fc fadf 	bl	80001b0 <s_csv>
 8003bf2:	4290      	cmp	r0, r2
 8003bf4:	d001      	beq.n	8003bfa <App_Run.constprop.0+0xa04>
 8003bf6:	f000 fd0e 	bl	8004616 <App_Run.constprop.0+0x1420>
            v[0]>=0 && v[0]<=255 && v[1]>=0 && v[1]<=255 && v[2]>=0 && v[2]<=255) {
 8003bfa:	9817      	ldr	r0, [sp, #92]	@ 0x5c
        if (s_csv(line, v, 3) == 3 &&
 8003bfc:	28ff      	cmp	r0, #255	@ 0xff
 8003bfe:	d901      	bls.n	8003c04 <App_Run.constprop.0+0xa0e>
 8003c00:	f000 fd09 	bl	8004616 <App_Run.constprop.0+0x1420>
            v[0]>=0 && v[0]<=255 && v[1]>=0 && v[1]<=255 && v[2]>=0 && v[2]<=255) {
 8003c04:	9918      	ldr	r1, [sp, #96]	@ 0x60
 8003c06:	29ff      	cmp	r1, #255	@ 0xff
 8003c08:	d901      	bls.n	8003c0e <App_Run.constprop.0+0xa18>
 8003c0a:	f000 fd04 	bl	8004616 <App_Run.constprop.0+0x1420>
 8003c0e:	9a19      	ldr	r2, [sp, #100]	@ 0x64
 8003c10:	2aff      	cmp	r2, #255	@ 0xff
 8003c12:	d901      	bls.n	8003c18 <App_Run.constprop.0+0xa22>
 8003c14:	f000 fcff 	bl	8004616 <App_Run.constprop.0+0x1420>
            WS2812B_SetAll(RGB((uint8_t)v[0], (uint8_t)v[1], (uint8_t)v[2]));
 8003c18:	ab06      	add	r3, sp, #24
 8003c1a:	7018      	strb	r0, [r3, #0]
 8003c1c:	7059      	strb	r1, [r3, #1]
 8003c1e:	709a      	strb	r2, [r3, #2]
 8003c20:	9806      	ldr	r0, [sp, #24]
 8003c22:	e7af      	b.n	8003b84 <App_Run.constprop.0+0x98e>
 8003c24:	0800756c 	.word	0x0800756c
 8003c28:	08007571 	.word	0x08007571
 8003c2c:	08007573 	.word	0x08007573
 8003c30:	08007587 	.word	0x08007587
 8003c34:	080075b0 	.word	0x080075b0
 8003c38:	080075e6 	.word	0x080075e6
 8003c3c:	080075fe 	.word	0x080075fe
 8003c40:	08007625 	.word	0x08007625
 8003c44:	08007643 	.word	0x08007643
 8003c48:	08007657 	.word	0x08007657
 8003c4c:	0800767e 	.word	0x0800767e
 8003c50:	0800769f 	.word	0x0800769f
 8003c54:	08007697 	.word	0x08007697
 8003c58:	0800769a 	.word	0x0800769a
 8003c5c:	08007795 	.word	0x08007795
 8003c60:	0800769c 	.word	0x0800769c
 8003c64:	080073c8 	.word	0x080073c8
 8003c68:	e000e100 	.word	0xe000e100
 8003c6c:	080076a4 	.word	0x080076a4
 8003c70:	080076ab 	.word	0x080076ab
 8003c74:	00000296 	.word	0x00000296
 8003c78:	080076ae 	.word	0x080076ae
 8003c7c:	080076b3 	.word	0x080076b3
 8003c80:	080076b6 	.word	0x080076b6
 8003c84:	080076ba 	.word	0x080076ba
 8003c88:	08007779 	.word	0x08007779
 8003c8c:	080076bd 	.word	0x080076bd
 8003c90:	080076cf 	.word	0x080076cf
 8003c94:	080076c9 	.word	0x080076c9
 8003c98:	080076ce 	.word	0x080076ce
 8003c9c:	080076d2 	.word	0x080076d2
 8003ca0:	080073dd 	.word	0x080073dd
 8003ca4:	080076d7 	.word	0x080076d7
 8003ca8:	000002de 	.word	0x000002de
 8003cac:	080076dc 	.word	0x080076dc
    if (strcmp(up, "PAT") == 0) {
 8003cb0:	49d7      	ldr	r1, [pc, #860]	@ (8004010 <App_Run.constprop.0+0xe1a>)
 8003cb2:	a807      	add	r0, sp, #28
 8003cb4:	f001 f9d6 	bl	8005064 <strcmp>
 8003cb8:	2800      	cmp	r0, #0
 8003cba:	d113      	bne.n	8003ce4 <App_Run.constprop.0+0xaee>
        if (s_csv(line, v, 1) == 1 && v[0] >= 0 && v[0] <= 14) {
 8003cbc:	2201      	movs	r2, #1
 8003cbe:	a917      	add	r1, sp, #92	@ 0x5c
 8003cc0:	a811      	add	r0, sp, #68	@ 0x44
 8003cc2:	f7fc fa75 	bl	80001b0 <s_csv>
 8003cc6:	4290      	cmp	r0, r2
 8003cc8:	d001      	beq.n	8003cce <App_Run.constprop.0+0xad8>
 8003cca:	f000 fca4 	bl	8004616 <App_Run.constprop.0+0x1420>
 8003cce:	9b17      	ldr	r3, [sp, #92]	@ 0x5c
 8003cd0:	2b0e      	cmp	r3, #14
 8003cd2:	d901      	bls.n	8003cd8 <App_Run.constprop.0+0xae2>
 8003cd4:	f000 fc9f 	bl	8004616 <App_Run.constprop.0+0x1420>
            WS2812B_SetPattern(map[v[0]]); BLE_SendStr(&app->ble, S_OK);
 8003cd8:	002a      	movs	r2, r5
 8003cda:	324b      	adds	r2, #75	@ 0x4b
 8003cdc:	5cd0      	ldrb	r0, [r2, r3]
            WS2812B_SetPattern(LED_PATTERN_CHARGING_BAR); BLE_SendStr(&app->ble, S_OK);
 8003cde:	f7fc fb97 	bl	8000410 <WS2812B_SetPattern>
 8003ce2:	e753      	b.n	8003b8c <App_Run.constprop.0+0x996>
    if (strcmp(up, "CHG") == 0) {
 8003ce4:	49cb      	ldr	r1, [pc, #812]	@ (8004014 <App_Run.constprop.0+0xe1e>)
 8003ce6:	a807      	add	r0, sp, #28
 8003ce8:	f001 f9bc 	bl	8005064 <strcmp>
 8003cec:	2800      	cmp	r0, #0
 8003cee:	d112      	bne.n	8003d16 <App_Run.constprop.0+0xb20>
        if (s_csv(line, v, 1) == 1 && v[0] >= 0 && v[0] <= 100) {
 8003cf0:	2201      	movs	r2, #1
 8003cf2:	a917      	add	r1, sp, #92	@ 0x5c
 8003cf4:	a811      	add	r0, sp, #68	@ 0x44
 8003cf6:	f7fc fa5b 	bl	80001b0 <s_csv>
 8003cfa:	4290      	cmp	r0, r2
 8003cfc:	d001      	beq.n	8003d02 <App_Run.constprop.0+0xb0c>
 8003cfe:	f000 fc8a 	bl	8004616 <App_Run.constprop.0+0x1420>
 8003d02:	9817      	ldr	r0, [sp, #92]	@ 0x5c
 8003d04:	2864      	cmp	r0, #100	@ 0x64
 8003d06:	d901      	bls.n	8003d0c <App_Run.constprop.0+0xb16>
 8003d08:	f000 fc85 	bl	8004616 <App_Run.constprop.0+0x1420>
            WS2812B_SetChargingLevel((uint8_t)v[0]);
 8003d0c:	b2c0      	uxtb	r0, r0
 8003d0e:	f7fc fb99 	bl	8000444 <WS2812B_SetChargingLevel>
            WS2812B_SetPattern(LED_PATTERN_CHARGING_BAR); BLE_SendStr(&app->ble, S_OK);
 8003d12:	200a      	movs	r0, #10
 8003d14:	e7e3      	b.n	8003cde <App_Run.constprop.0+0xae8>
    if (strcmp(up, "LAMP") == 0) {
 8003d16:	49c0      	ldr	r1, [pc, #768]	@ (8004018 <App_Run.constprop.0+0xe22>)
 8003d18:	a807      	add	r0, sp, #28
 8003d1a:	f001 f9a3 	bl	8005064 <strcmp>
 8003d1e:	2800      	cmp	r0, #0
 8003d20:	d123      	bne.n	8003d6a <App_Run.constprop.0+0xb74>
        if (s_csv(line, v, 3) == 3 &&
 8003d22:	2203      	movs	r2, #3
 8003d24:	a917      	add	r1, sp, #92	@ 0x5c
 8003d26:	a811      	add	r0, sp, #68	@ 0x44
 8003d28:	f7fc fa42 	bl	80001b0 <s_csv>
 8003d2c:	4290      	cmp	r0, r2
 8003d2e:	d001      	beq.n	8003d34 <App_Run.constprop.0+0xb3e>
 8003d30:	f000 fc71 	bl	8004616 <App_Run.constprop.0+0x1420>
            v[0]>=0 && v[0]<=255 && v[1]>=0 && v[1]<=255 && v[2]>=0 && v[2]<=255) {
 8003d34:	9c17      	ldr	r4, [sp, #92]	@ 0x5c
        if (s_csv(line, v, 3) == 3 &&
 8003d36:	2cff      	cmp	r4, #255	@ 0xff
 8003d38:	d901      	bls.n	8003d3e <App_Run.constprop.0+0xb48>
 8003d3a:	f000 fc6c 	bl	8004616 <App_Run.constprop.0+0x1420>
            v[0]>=0 && v[0]<=255 && v[1]>=0 && v[1]<=255 && v[2]>=0 && v[2]<=255) {
 8003d3e:	9818      	ldr	r0, [sp, #96]	@ 0x60
 8003d40:	28ff      	cmp	r0, #255	@ 0xff
 8003d42:	d901      	bls.n	8003d48 <App_Run.constprop.0+0xb52>
 8003d44:	f000 fc67 	bl	8004616 <App_Run.constprop.0+0x1420>
 8003d48:	9919      	ldr	r1, [sp, #100]	@ 0x64
 8003d4a:	29ff      	cmp	r1, #255	@ 0xff
 8003d4c:	d901      	bls.n	8003d52 <App_Run.constprop.0+0xb5c>
 8003d4e:	f000 fc62 	bl	8004616 <App_Run.constprop.0+0x1420>
 8003d52:	4bb2      	ldr	r3, [pc, #712]	@ (800401c <App_Run.constprop.0+0xe26>)
 8003d54:	4ab2      	ldr	r2, [pc, #712]	@ (8004020 <App_Run.constprop.0+0xe2a>)
            WS2812B_SetLampColor(RGB((uint8_t)v[0], (uint8_t)v[1], (uint8_t)v[2]));
 8003d56:	7058      	strb	r0, [r3, #1]
            WS2812B_SetPattern(LED_PATTERN_LAMP_MODE);
 8003d58:	200c      	movs	r0, #12
            WS2812B_SetLampColor(RGB((uint8_t)v[0], (uint8_t)v[1], (uint8_t)v[2]));
 8003d5a:	72d4      	strb	r4, [r2, #11]
 8003d5c:	7099      	strb	r1, [r3, #2]
        WS2812B_SetPattern(LED_PATTERN_LAMP_MODE);
 8003d5e:	f7fc fb57 	bl	8000410 <WS2812B_SetPattern>
 8003d62:	3805      	subs	r0, #5
 8003d64:	f7fd f8ea 	bl	8000f3c <Device_PostEvent.part.0.constprop.0>
 8003d68:	e710      	b.n	8003b8c <App_Run.constprop.0+0x996>
    if (strcmp(up, "LAMPON")   == 0) {
 8003d6a:	49ae      	ldr	r1, [pc, #696]	@ (8004024 <App_Run.constprop.0+0xe2e>)
 8003d6c:	a807      	add	r0, sp, #28
 8003d6e:	f001 f979 	bl	8005064 <strcmp>
 8003d72:	2800      	cmp	r0, #0
 8003d74:	d101      	bne.n	8003d7a <App_Run.constprop.0+0xb84>
        WS2812B_SetPattern(LED_PATTERN_LAMP_MODE);
 8003d76:	300c      	adds	r0, #12
 8003d78:	e7f1      	b.n	8003d5e <App_Run.constprop.0+0xb68>
    if (strcmp(up, "LAMPSAVE") == 0) {
 8003d7a:	49ab      	ldr	r1, [pc, #684]	@ (8004028 <App_Run.constprop.0+0xe32>)
 8003d7c:	a807      	add	r0, sp, #28
 8003d7e:	f001 f971 	bl	8005064 <strcmp>
 8003d82:	2800      	cmp	r0, #0
 8003d84:	d102      	bne.n	8003d8c <App_Run.constprop.0+0xb96>
        Storage_SaveSettings(&app->settings);
 8003d86:	f7fe fbd3 	bl	8002530 <Storage_SaveSettings.constprop.0>
 8003d8a:	e6ff      	b.n	8003b8c <App_Run.constprop.0+0x996>
    if (strcmp(up, "LAMPOFF")  == 0) {
 8003d8c:	49a7      	ldr	r1, [pc, #668]	@ (800402c <App_Run.constprop.0+0xe36>)
 8003d8e:	a807      	add	r0, sp, #28
 8003d90:	f001 f968 	bl	8005064 <strcmp>
 8003d94:	1e04      	subs	r4, r0, #0
 8003d96:	d10c      	bne.n	8003db2 <App_Run.constprop.0+0xbbc>
        WS2812B_SetPattern(LED_PATTERN_ALL_OFF); WS2812B_SetAll(RGB_OFF);
 8003d98:	2001      	movs	r0, #1
 8003d9a:	f7fc fb39 	bl	8000410 <WS2812B_SetPattern>
 8003d9e:	ab17      	add	r3, sp, #92	@ 0x5c
 8003da0:	801c      	strh	r4, [r3, #0]
 8003da2:	709c      	strb	r4, [r3, #2]
 8003da4:	9817      	ldr	r0, [sp, #92]	@ 0x5c
 8003da6:	f7fc fad7 	bl	8000358 <WS2812B_SetAll>
        WS2812B_SendBlocking(); Device_PostEvent(&app->dev, EVT_CMD_LAMP_OFF);
 8003daa:	f7fe fee1 	bl	8002b70 <WS2812B_SendBlocking>
 8003dae:	2008      	movs	r0, #8
 8003db0:	e7d8      	b.n	8003d64 <App_Run.constprop.0+0xb6e>
    if (strcmp(up, "RESET") == 0) {
 8003db2:	499f      	ldr	r1, [pc, #636]	@ (8004030 <App_Run.constprop.0+0xe3a>)
 8003db4:	a807      	add	r0, sp, #28
 8003db6:	f001 f955 	bl	8005064 <strcmp>
 8003dba:	2800      	cmp	r0, #0
 8003dbc:	d112      	bne.n	8003de4 <App_Run.constprop.0+0xbee>
        app->purity_alert_active = 0; app->temp_alert_active = 0;
 8003dbe:	22b9      	movs	r2, #185	@ 0xb9
 8003dc0:	2400      	movs	r4, #0
 8003dc2:	4b9c      	ldr	r3, [pc, #624]	@ (8004034 <App_Run.constprop.0+0xe3e>)
 8003dc4:	0092      	lsls	r2, r2, #2
        WS2812B_SetPattern(LED_PATTERN_ALL_OFF); WS2812B_SetAll(RGB_OFF);
 8003dc6:	3001      	adds	r0, #1
        app->purity_alert_active = 0; app->temp_alert_active = 0;
 8003dc8:	529c      	strh	r4, [r3, r2]
        WS2812B_SetPattern(LED_PATTERN_ALL_OFF); WS2812B_SetAll(RGB_OFF);
 8003dca:	f7fc fb21 	bl	8000410 <WS2812B_SetPattern>
 8003dce:	ab17      	add	r3, sp, #92	@ 0x5c
 8003dd0:	801c      	strh	r4, [r3, #0]
 8003dd2:	709c      	strb	r4, [r3, #2]
 8003dd4:	9817      	ldr	r0, [sp, #92]	@ 0x5c
 8003dd6:	f7fc fabf 	bl	8000358 <WS2812B_SetAll>
        WS2812B_SendBlocking(); Buzzer_Stop();
 8003dda:	f7fe fec9 	bl	8002b70 <WS2812B_SendBlocking>
    if (strcmp(up, "BOFF") == 0) { Buzzer_Stop();                   BLE_SendStr(&app->ble, S_OK); return; }
 8003dde:	f7fc fa5d 	bl	800029c <Buzzer_Stop>
 8003de2:	e6d3      	b.n	8003b8c <App_Run.constprop.0+0x996>
    if (strcmp(up, "REBOOT") == 0) {
 8003de4:	4994      	ldr	r1, [pc, #592]	@ (8004038 <App_Run.constprop.0+0xe42>)
 8003de6:	a807      	add	r0, sp, #28
 8003de8:	f001 f93c 	bl	8005064 <strcmp>
 8003dec:	2800      	cmp	r0, #0
 8003dee:	d106      	bne.n	8003dfe <App_Run.constprop.0+0xc08>
        BLE_SendStr(&app->ble, S_OK); HAL_Delay(150); HAL_NVIC_SystemReset();
 8003df0:	0028      	movs	r0, r5
 8003df2:	300a      	adds	r0, #10
 8003df4:	f7ff f9f6 	bl	80031e4 <BLE_SendStr.constprop.0.isra.0>
 8003df8:	2096      	movs	r0, #150	@ 0x96
 8003dfa:	f7ff fbf6 	bl	80035ea <App_Run.constprop.0+0x3f4>
    if (strcmp(up, "BEEP") == 0) { Buzzer_Play(BUZZER_SINGLE_BEEP); BLE_SendStr(&app->ble, S_OK); return; }
 8003dfe:	498f      	ldr	r1, [pc, #572]	@ (800403c <App_Run.constprop.0+0xe46>)
 8003e00:	a807      	add	r0, sp, #28
 8003e02:	f001 f92f 	bl	8005064 <strcmp>
 8003e06:	2800      	cmp	r0, #0
 8003e08:	d103      	bne.n	8003e12 <App_Run.constprop.0+0xc1c>
 8003e0a:	3003      	adds	r0, #3
        Buzzer_Play(BUZZER_SYNC_OK);
 8003e0c:	f7fd fbc8 	bl	80015a0 <Buzzer_Play>
 8003e10:	e6bc      	b.n	8003b8c <App_Run.constprop.0+0x996>
    if (strcmp(up, "BON")  == 0) { Buzzer_Play(BUZZER_DOUBLE_BEEP); BLE_SendStr(&app->ble, S_OK); return; }
 8003e12:	498b      	ldr	r1, [pc, #556]	@ (8004040 <App_Run.constprop.0+0xe4a>)
 8003e14:	a807      	add	r0, sp, #28
 8003e16:	f001 f925 	bl	8005064 <strcmp>
 8003e1a:	2800      	cmp	r0, #0
 8003e1c:	d101      	bne.n	8003e22 <App_Run.constprop.0+0xc2c>
 8003e1e:	3002      	adds	r0, #2
 8003e20:	e7f4      	b.n	8003e0c <App_Run.constprop.0+0xc16>
    if (strcmp(up, "BOFF") == 0) { Buzzer_Stop();                   BLE_SendStr(&app->ble, S_OK); return; }
 8003e22:	4988      	ldr	r1, [pc, #544]	@ (8004044 <App_Run.constprop.0+0xe4e>)
 8003e24:	a807      	add	r0, sp, #28
 8003e26:	f001 f91d 	bl	8005064 <strcmp>
 8003e2a:	2800      	cmp	r0, #0
 8003e2c:	d0d7      	beq.n	8003dde <App_Run.constprop.0+0xbe8>
    if (strcmp(up, "BUZ") == 0) {
 8003e2e:	4986      	ldr	r1, [pc, #536]	@ (8004048 <App_Run.constprop.0+0xe52>)
 8003e30:	a807      	add	r0, sp, #28
 8003e32:	f001 f917 	bl	8005064 <strcmp>
 8003e36:	2800      	cmp	r0, #0
 8003e38:	d10f      	bne.n	8003e5a <App_Run.constprop.0+0xc64>
        if (s_csv(line, v, 1) == 1 && v[0] >= 0 && v[0] <= 8) {
 8003e3a:	2201      	movs	r2, #1
 8003e3c:	a917      	add	r1, sp, #92	@ 0x5c
 8003e3e:	a811      	add	r0, sp, #68	@ 0x44
 8003e40:	f7fc f9b6 	bl	80001b0 <s_csv>
 8003e44:	4290      	cmp	r0, r2
 8003e46:	d000      	beq.n	8003e4a <App_Run.constprop.0+0xc54>
 8003e48:	e3e5      	b.n	8004616 <App_Run.constprop.0+0x1420>
 8003e4a:	9b17      	ldr	r3, [sp, #92]	@ 0x5c
 8003e4c:	2b08      	cmp	r3, #8
 8003e4e:	d900      	bls.n	8003e52 <App_Run.constprop.0+0xc5c>
 8003e50:	e3e1      	b.n	8004616 <App_Run.constprop.0+0x1420>
            Buzzer_Play(buz_map[v[0]]);
 8003e52:	002a      	movs	r2, r5
 8003e54:	325a      	adds	r2, #90	@ 0x5a
 8003e56:	5cd0      	ldrb	r0, [r2, r3]
 8003e58:	e7d8      	b.n	8003e0c <App_Run.constprop.0+0xc16>
    if (strcmp(up, "EE") == 0) {
 8003e5a:	497c      	ldr	r1, [pc, #496]	@ (800404c <App_Run.constprop.0+0xe56>)
 8003e5c:	a807      	add	r0, sp, #28
 8003e5e:	f001 f901 	bl	8005064 <strcmp>
 8003e62:	1e06      	subs	r6, r0, #0
 8003e64:	d000      	beq.n	8003e68 <App_Run.constprop.0+0xc72>
 8003e66:	e09b      	b.n	8003fa0 <App_Run.constprop.0+0xdaa>
        p = s_app(p, e, "EE:");
 8003e68:	4a79      	ldr	r2, [pc, #484]	@ (8004050 <App_Run.constprop.0+0xe5a>)
 8003e6a:	a924      	add	r1, sp, #144	@ 0x90
 8003e6c:	a817      	add	r0, sp, #92	@ 0x5c
 8003e6e:	f7fc f992 	bl	8000196 <s_app>
    if (s_app_i2c == NULL) return 0;
 8003e72:	4b78      	ldr	r3, [pc, #480]	@ (8004054 <App_Run.constprop.0+0xe5e>)
        p = s_app(p, e, "EE:");
 8003e74:	0007      	movs	r7, r0
    if (s_app_i2c == NULL) return 0;
 8003e76:	6a9c      	ldr	r4, [r3, #40]	@ 0x28
 8003e78:	0035      	movs	r5, r6
 8003e7a:	2c00      	cmp	r4, #0
 8003e7c:	d115      	bne.n	8003eaa <App_Run.constprop.0+0xcb4>
        else                 { *p++ = '0'; }
 8003e7e:	2330      	movs	r3, #48	@ 0x30
 8003e80:	1c78      	adds	r0, r7, #1
 8003e82:	703b      	strb	r3, [r7, #0]
 8003e84:	e630      	b.n	8003ae8 <App_Run.constprop.0+0x8f2>
 8003e86:	4662      	mov	r2, ip
 8003e88:	6f50      	ldr	r0, [r2, #116]	@ 0x74
          if (((HAL_GetTick() - tickstart) > Timeout) || (Timeout == 0U))
 8003e8a:	1a40      	subs	r0, r0, r1
 8003e8c:	2805      	cmp	r0, #5
 8003e8e:	d964      	bls.n	8003f5a <App_Run.constprop.0+0xd64>
            hi2c->State = HAL_I2C_STATE_READY;
 8003e90:	0021      	movs	r1, r4
 8003e92:	2220      	movs	r2, #32
 8003e94:	3141      	adds	r1, #65	@ 0x41
 8003e96:	700a      	strb	r2, [r1, #0]
            hi2c->ErrorCode |= HAL_I2C_ERROR_TIMEOUT;
 8003e98:	6c61      	ldr	r1, [r4, #68]	@ 0x44
 8003e9a:	430a      	orrs	r2, r1
 8003e9c:	6462      	str	r2, [r4, #68]	@ 0x44
            __HAL_UNLOCK(hi2c);
 8003e9e:	0022      	movs	r2, r4
 8003ea0:	3240      	adds	r2, #64	@ 0x40
 8003ea2:	7013      	strb	r3, [r2, #0]
    for (uint8_t a = EE_ADDR_BASE; a <= EE_ADDR_LAST; a++) {
 8003ea4:	3501      	adds	r5, #1
 8003ea6:	2d08      	cmp	r5, #8
 8003ea8:	d0e9      	beq.n	8003e7e <App_Run.constprop.0+0xc88>
 8003eaa:	002b      	movs	r3, r5
 8003eac:	3350      	adds	r3, #80	@ 0x50
 8003eae:	b2db      	uxtb	r3, r3
 8003eb0:	9303      	str	r3, [sp, #12]
        if (a == RTC_ADDR_7BIT) continue;
 8003eb2:	2b51      	cmp	r3, #81	@ 0x51
 8003eb4:	d072      	beq.n	8003f9c <App_Run.constprop.0+0xda6>
  __IO uint32_t I2C_Trials = 0UL;
 8003eb6:	2300      	movs	r3, #0
 8003eb8:	9306      	str	r3, [sp, #24]
  if (hi2c->State == HAL_I2C_STATE_READY)
 8003eba:	0023      	movs	r3, r4
 8003ebc:	3341      	adds	r3, #65	@ 0x41
 8003ebe:	781a      	ldrb	r2, [r3, #0]
 8003ec0:	2a20      	cmp	r2, #32
 8003ec2:	d1ef      	bne.n	8003ea4 <App_Run.constprop.0+0xcae>
    if (__HAL_I2C_GET_FLAG(hi2c, I2C_FLAG_BUSY) == SET)
 8003ec4:	2180      	movs	r1, #128	@ 0x80
 8003ec6:	2080      	movs	r0, #128	@ 0x80
 8003ec8:	6826      	ldr	r6, [r4, #0]
 8003eca:	0209      	lsls	r1, r1, #8
 8003ecc:	69b2      	ldr	r2, [r6, #24]
 8003ece:	0200      	lsls	r0, r0, #8
 8003ed0:	4011      	ands	r1, r2
 8003ed2:	4202      	tst	r2, r0
 8003ed4:	d1e6      	bne.n	8003ea4 <App_Run.constprop.0+0xcae>
    __HAL_LOCK(hi2c);
 8003ed6:	0022      	movs	r2, r4
 8003ed8:	3240      	adds	r2, #64	@ 0x40
 8003eda:	7810      	ldrb	r0, [r2, #0]
 8003edc:	2801      	cmp	r0, #1
 8003ede:	d0e1      	beq.n	8003ea4 <App_Run.constprop.0+0xcae>
 8003ee0:	2001      	movs	r0, #1
 8003ee2:	7010      	strb	r0, [r2, #0]
    hi2c->State = HAL_I2C_STATE_BUSY;
 8003ee4:	2224      	movs	r2, #36	@ 0x24
 8003ee6:	701a      	strb	r2, [r3, #0]
 8003ee8:	006b      	lsls	r3, r5, #1
 8003eea:	33a0      	adds	r3, #160	@ 0xa0
 8003eec:	9304      	str	r3, [sp, #16]
      hi2c->Instance->CR2 = I2C_GENERATE_START(hi2c->Init.AddressingMode, DevAddress);
 8003eee:	9a04      	ldr	r2, [sp, #16]
 8003ef0:	4b59      	ldr	r3, [pc, #356]	@ (8004058 <App_Run.constprop.0+0xe62>)
    hi2c->ErrorCode = HAL_I2C_ERROR_NONE;
 8003ef2:	6461      	str	r1, [r4, #68]	@ 0x44
      hi2c->Instance->CR2 = I2C_GENERATE_START(hi2c->Init.AddressingMode, DevAddress);
 8003ef4:	431a      	orrs	r2, r3
 8003ef6:	9205      	str	r2, [sp, #20]
 8003ef8:	68e2      	ldr	r2, [r4, #12]
 8003efa:	9b05      	ldr	r3, [sp, #20]
 8003efc:	2a01      	cmp	r2, #1
 8003efe:	d102      	bne.n	8003f06 <App_Run.constprop.0+0xd10>
 8003f00:	4b56      	ldr	r3, [pc, #344]	@ (800405c <App_Run.constprop.0+0xe66>)
 8003f02:	9a04      	ldr	r2, [sp, #16]
 8003f04:	4313      	orrs	r3, r2
 8003f06:	6073      	str	r3, [r6, #4]
 8003f08:	4b55      	ldr	r3, [pc, #340]	@ (8004060 <App_Run.constprop.0+0xe6a>)
 8003f0a:	6f59      	ldr	r1, [r3, #116]	@ 0x74
 8003f0c:	469c      	mov	ip, r3
      tmp1 = __HAL_I2C_GET_FLAG(hi2c, I2C_FLAG_STOPF);
 8003f0e:	2301      	movs	r3, #1
 8003f10:	001a      	movs	r2, r3
 8003f12:	69b0      	ldr	r0, [r6, #24]
 8003f14:	0940      	lsrs	r0, r0, #5
 8003f16:	4018      	ands	r0, r3
        tmp2 = __HAL_I2C_GET_FLAG(hi2c, I2C_FLAG_AF);
 8003f18:	69b3      	ldr	r3, [r6, #24]
 8003f1a:	091b      	lsrs	r3, r3, #4
 8003f1c:	4013      	ands	r3, r2
      while ((tmp1 == RESET) && (tmp2 == RESET))
 8003f1e:	4303      	orrs	r3, r0
 8003f20:	d0b1      	beq.n	8003e86 <App_Run.constprop.0+0xc90>
      if (__HAL_I2C_GET_FLAG(hi2c, I2C_FLAG_AF) == RESET)
 8003f22:	2210      	movs	r2, #16
 8003f24:	2010      	movs	r0, #16
 8003f26:	69b3      	ldr	r3, [r6, #24]
        if (I2C_WaitOnFlagUntilTimeout(hi2c, I2C_FLAG_STOPF, RESET, Timeout, tickstart) != HAL_OK)
 8003f28:	9100      	str	r1, [sp, #0]
      if (__HAL_I2C_GET_FLAG(hi2c, I2C_FLAG_AF) == RESET)
 8003f2a:	401a      	ands	r2, r3
 8003f2c:	4203      	tst	r3, r0
 8003f2e:	d119      	bne.n	8003f64 <App_Run.constprop.0+0xd6e>
        if (I2C_WaitOnFlagUntilTimeout(hi2c, I2C_FLAG_STOPF, RESET, Timeout, tickstart) != HAL_OK)
 8003f30:	2305      	movs	r3, #5
 8003f32:	2120      	movs	r1, #32
 8003f34:	0020      	movs	r0, r4
 8003f36:	f7fc fd1d 	bl	8000974 <I2C_WaitOnFlagUntilTimeout>
 8003f3a:	2800      	cmp	r0, #0
 8003f3c:	d1b2      	bne.n	8003ea4 <App_Run.constprop.0+0xcae>
        hi2c->State = HAL_I2C_STATE_READY;
 8003f3e:	0022      	movs	r2, r4
        __HAL_I2C_CLEAR_FLAG(hi2c, I2C_FLAG_STOPF);
 8003f40:	2320      	movs	r3, #32
        hi2c->State = HAL_I2C_STATE_READY;
 8003f42:	3241      	adds	r2, #65	@ 0x41
        __HAL_I2C_CLEAR_FLAG(hi2c, I2C_FLAG_STOPF);
 8003f44:	61f3      	str	r3, [r6, #28]
        __HAL_UNLOCK(hi2c);
 8003f46:	3440      	adds	r4, #64	@ 0x40
        hi2c->State = HAL_I2C_STATE_READY;
 8003f48:	7013      	strb	r3, [r2, #0]
        if (EE_Probe(&addr)) { *p++ = '1'; *p++ = ','; p = s_u2s(p, e, addr); }
 8003f4a:	3311      	adds	r3, #17
        __HAL_UNLOCK(hi2c);
 8003f4c:	7020      	strb	r0, [r4, #0]
 8003f4e:	703b      	strb	r3, [r7, #0]
 8003f50:	3b05      	subs	r3, #5
 8003f52:	9a03      	ldr	r2, [sp, #12]
 8003f54:	1cb8      	adds	r0, r7, #2
 8003f56:	707b      	strb	r3, [r7, #1]
 8003f58:	e56c      	b.n	8003a34 <App_Run.constprop.0+0x83e>
        tmp1 = __HAL_I2C_GET_FLAG(hi2c, I2C_FLAG_STOPF);
 8003f5a:	2201      	movs	r2, #1
 8003f5c:	69b0      	ldr	r0, [r6, #24]
 8003f5e:	0940      	lsrs	r0, r0, #5
 8003f60:	4010      	ands	r0, r2
 8003f62:	e7d9      	b.n	8003f18 <App_Run.constprop.0+0xd22>
        if (I2C_WaitOnFlagUntilTimeout(hi2c, I2C_FLAG_STOPF, RESET, Timeout, tickstart) != HAL_OK)
 8003f64:	2305      	movs	r3, #5
 8003f66:	2200      	movs	r2, #0
 8003f68:	2120      	movs	r1, #32
 8003f6a:	0020      	movs	r0, r4
 8003f6c:	f7fc fd02 	bl	8000974 <I2C_WaitOnFlagUntilTimeout>
 8003f70:	2800      	cmp	r0, #0
 8003f72:	d197      	bne.n	8003ea4 <App_Run.constprop.0+0xcae>
        __HAL_I2C_CLEAR_FLAG(hi2c, I2C_FLAG_AF);
 8003f74:	2310      	movs	r3, #16
 8003f76:	61f3      	str	r3, [r6, #28]
        __HAL_I2C_CLEAR_FLAG(hi2c, I2C_FLAG_STOPF);
 8003f78:	18db      	adds	r3, r3, r3
 8003f7a:	61f3      	str	r3, [r6, #28]
      I2C_Trials++;
 8003f7c:	9a06      	ldr	r2, [sp, #24]
 8003f7e:	3201      	adds	r2, #1
 8003f80:	9206      	str	r2, [sp, #24]
    } while (I2C_Trials < Trials);
 8003f82:	9a06      	ldr	r2, [sp, #24]
 8003f84:	2a01      	cmp	r2, #1
 8003f86:	d9b7      	bls.n	8003ef8 <App_Run.constprop.0+0xd02>
    hi2c->State = HAL_I2C_STATE_READY;
 8003f88:	0022      	movs	r2, r4
 8003f8a:	3241      	adds	r2, #65	@ 0x41
 8003f8c:	7013      	strb	r3, [r2, #0]
    hi2c->ErrorCode |= HAL_I2C_ERROR_TIMEOUT;
 8003f8e:	6c62      	ldr	r2, [r4, #68]	@ 0x44
 8003f90:	4313      	orrs	r3, r2
 8003f92:	6463      	str	r3, [r4, #68]	@ 0x44
    __HAL_UNLOCK(hi2c);
 8003f94:	0023      	movs	r3, r4
 8003f96:	3340      	adds	r3, #64	@ 0x40
 8003f98:	7018      	strb	r0, [r3, #0]
 8003f9a:	e783      	b.n	8003ea4 <App_Run.constprop.0+0xcae>
    for (uint8_t a = EE_ADDR_BASE; a <= EE_ADDR_LAST; a++) {
 8003f9c:	2502      	movs	r5, #2
 8003f9e:	e784      	b.n	8003eaa <App_Run.constprop.0+0xcb4>
    if (strcmp(up, "RTCQ") == 0) {
 8003fa0:	4930      	ldr	r1, [pc, #192]	@ (8004064 <App_Run.constprop.0+0xe6e>)
 8003fa2:	a807      	add	r0, sp, #28
 8003fa4:	f001 f85e 	bl	8005064 <strcmp>
 8003fa8:	4c22      	ldr	r4, [pc, #136]	@ (8004034 <App_Run.constprop.0+0xe3e>)
 8003faa:	2800      	cmp	r0, #0
 8003fac:	d162      	bne.n	8004074 <App_Run.constprop.0+0xe7e>
        p = s_app(p, e, "R:");
 8003fae:	4a2e      	ldr	r2, [pc, #184]	@ (8004068 <App_Run.constprop.0+0xe72>)
 8003fb0:	a924      	add	r1, sp, #144	@ 0x90
 8003fb2:	a817      	add	r0, sp, #92	@ 0x5c
 8003fb4:	f7fc f8ef 	bl	8000196 <s_app>
        if (app->rtc.initialized) {
 8003fb8:	0023      	movs	r3, r4
 8003fba:	3389      	adds	r3, #137	@ 0x89
 8003fbc:	781b      	ldrb	r3, [r3, #0]
        p = s_app(p, e, "R:");
 8003fbe:	0005      	movs	r5, r0
        if (app->rtc.initialized) {
 8003fc0:	2b00      	cmp	r3, #0
 8003fc2:	d053      	beq.n	800406c <App_Run.constprop.0+0xe76>
            RTC_Read(&app->rtc);
 8003fc4:	f7fd f8d0 	bl	8001168 <RTC_Read.constprop.0>
            *p++ = '1'; *p++ = ',';
 8003fc8:	2331      	movs	r3, #49	@ 0x31
 8003fca:	262c      	movs	r6, #44	@ 0x2c
 8003fcc:	702b      	strb	r3, [r5, #0]
            p = s_u2s(p, e, app->rtc.unix_approx);  *p++ = ',';
 8003fce:	0023      	movs	r3, r4
            *p++ = '1'; *p++ = ',';
 8003fd0:	706e      	strb	r6, [r5, #1]
            p = s_u2s(p, e, app->rtc.unix_approx);  *p++ = ',';
 8003fd2:	3308      	adds	r3, #8
 8003fd4:	6fda      	ldr	r2, [r3, #124]	@ 0x7c
            *p++ = '1'; *p++ = ',';
 8003fd6:	1ca8      	adds	r0, r5, #2
            p = s_u2s(p, e, app->rtc.unix_approx);  *p++ = ',';
 8003fd8:	a924      	add	r1, sp, #144	@ 0x90
 8003fda:	f7fc f895 	bl	8000108 <s_u2s>
 8003fde:	0003      	movs	r3, r0
 8003fe0:	701e      	strb	r6, [r3, #0]
            p = s_u2s(p, e, app->rtc.now.hours);    *p++ = ':';
 8003fe2:	0023      	movs	r3, r4
 8003fe4:	337e      	adds	r3, #126	@ 0x7e
 8003fe6:	781a      	ldrb	r2, [r3, #0]
 8003fe8:	a924      	add	r1, sp, #144	@ 0x90
            p = s_u2s(p, e, app->rtc.unix_approx);  *p++ = ',';
 8003fea:	3001      	adds	r0, #1
            p = s_u2s(p, e, app->rtc.now.hours);    *p++ = ':';
 8003fec:	f7fc f88c 	bl	8000108 <s_u2s>
 8003ff0:	253a      	movs	r5, #58	@ 0x3a
 8003ff2:	0003      	movs	r3, r0
 8003ff4:	701d      	strb	r5, [r3, #0]
            p = s_u2s(p, e, app->rtc.now.minutes);  *p++ = ':';
 8003ff6:	0023      	movs	r3, r4
 8003ff8:	337d      	adds	r3, #125	@ 0x7d
 8003ffa:	781a      	ldrb	r2, [r3, #0]
            p = s_u2s(p, e, app->rtc.now.hours);    *p++ = ':';
 8003ffc:	3001      	adds	r0, #1
            p = s_u2s(p, e, app->rtc.now.minutes);  *p++ = ':';
 8003ffe:	a924      	add	r1, sp, #144	@ 0x90
 8004000:	f7fc f882 	bl	8000108 <s_u2s>
 8004004:	0003      	movs	r3, r0
            p = s_u2s(p, e, app->rtc.now.seconds);
 8004006:	347c      	adds	r4, #124	@ 0x7c
            p = s_u2s(p, e, app->rtc.now.minutes);  *p++ = ':';
 8004008:	3001      	adds	r0, #1
 800400a:	701d      	strb	r5, [r3, #0]
        p = s_u2s(p, e, app->settings.prefs.remind_freq_min);
 800400c:	7822      	ldrb	r2, [r4, #0]
 800400e:	e511      	b.n	8003a34 <App_Run.constprop.0+0x83e>
 8004010:	080076e0 	.word	0x080076e0
 8004014:	080076e4 	.word	0x080076e4
 8004018:	080076e8 	.word	0x080076e8
 800401c:	2000000b 	.word	0x2000000b
 8004020:	20000000 	.word	0x20000000
 8004024:	080076ed 	.word	0x080076ed
 8004028:	080076f4 	.word	0x080076f4
 800402c:	080076fd 	.word	0x080076fd
 8004030:	08007705 	.word	0x08007705
 8004034:	2000053c 	.word	0x2000053c
 8004038:	0800770b 	.word	0x0800770b
 800403c:	08007712 	.word	0x08007712
 8004040:	08007717 	.word	0x08007717
 8004044:	0800771b 	.word	0x0800771b
 8004048:	08007720 	.word	0x08007720
 800404c:	08007724 	.word	0x08007724
 8004050:	08007727 	.word	0x08007727
 8004054:	20000180 	.word	0x20000180
 8004058:	02002800 	.word	0x02002800
 800405c:	02002000 	.word	0x02002000
 8004060:	20000080 	.word	0x20000080
 8004064:	0800772b 	.word	0x0800772b
 8004068:	08007730 	.word	0x08007730
        } else { *p++ = '0'; }
 800406c:	2330      	movs	r3, #48	@ 0x30
 800406e:	3001      	adds	r0, #1
 8004070:	702b      	strb	r3, [r5, #0]
 8004072:	e539      	b.n	8003ae8 <App_Run.constprop.0+0x8f2>
    if (strcmp(up, "TDSQ") == 0) {
 8004074:	499c      	ldr	r1, [pc, #624]	@ (80042e8 <App_Run.constprop.0+0x10f2>)
 8004076:	a807      	add	r0, sp, #28
 8004078:	f000 fff4 	bl	8005064 <strcmp>
 800407c:	2800      	cmp	r0, #0
 800407e:	d116      	bne.n	80040ae <App_Run.constprop.0+0xeb8>
        uint16_t ppm = TDS_ReadPPM(&app->tds, app->current_temp_x10);
 8004080:	4b9a      	ldr	r3, [pc, #616]	@ (80042ec <App_Run.constprop.0+0x10f6>)
 8004082:	5ee0      	ldrsh	r0, [r4, r3]
 8004084:	f7fd ffc4 	bl	8002010 <TDS_ReadPPM.constprop.0>
        app->current_tds_ppm = ppm;
 8004088:	23a5      	movs	r3, #165	@ 0xa5
        uint16_t ppm = TDS_ReadPPM(&app->tds, app->current_temp_x10);
 800408a:	0005      	movs	r5, r0
        app->current_tds_ppm = ppm;
 800408c:	009b      	lsls	r3, r3, #2
 800408e:	52e0      	strh	r0, [r4, r3]
        p = s_app(p, e, "DQ:"); p = s_u2s(p, e, ppm);
 8004090:	4a97      	ldr	r2, [pc, #604]	@ (80042f0 <App_Run.constprop.0+0x10fa>)
 8004092:	a924      	add	r1, sp, #144	@ 0x90
 8004094:	a817      	add	r0, sp, #92	@ 0x5c
 8004096:	f7fc f87e 	bl	8000196 <s_app>
 800409a:	002a      	movs	r2, r5
 800409c:	a924      	add	r1, sp, #144	@ 0x90
 800409e:	f7fc f833 	bl	8000108 <s_u2s>
        *p++ = ',';             p = s_u2s(p, e, app->tds.valid);
 80040a2:	222c      	movs	r2, #44	@ 0x2c
        p = s_app(p, e, "DQ:"); p = s_u2s(p, e, ppm);
 80040a4:	0003      	movs	r3, r0
        *p++ = ',';             p = s_u2s(p, e, app->tds.valid);
 80040a6:	701a      	strb	r2, [r3, #0]
 80040a8:	7da2      	ldrb	r2, [r4, #22]
 80040aa:	3001      	adds	r0, #1
 80040ac:	e4c2      	b.n	8003a34 <App_Run.constprop.0+0x83e>
    if (strcmp(up, "TMPQ") == 0) {
 80040ae:	4991      	ldr	r1, [pc, #580]	@ (80042f4 <App_Run.constprop.0+0x10fe>)
 80040b0:	a807      	add	r0, sp, #28
 80040b2:	f000 ffd7 	bl	8005064 <strcmp>
 80040b6:	2800      	cmp	r0, #0
 80040b8:	d124      	bne.n	8004104 <App_Run.constprop.0+0xf0e>
        int16_t t = NTC_ReadTemp_x10(&app->ntc);
 80040ba:	f7fd ff09 	bl	8001ed0 <NTC_ReadTemp_x10.constprop.0>
 80040be:	0005      	movs	r5, r0
        app->current_temp_x10 = t;
 80040c0:	4b8a      	ldr	r3, [pc, #552]	@ (80042ec <App_Run.constprop.0+0x10f6>)
        p = s_app(p, e, "TQ:"); p = s_i2s(p, e, t);
 80040c2:	4a8d      	ldr	r2, [pc, #564]	@ (80042f8 <App_Run.constprop.0+0x1102>)
        app->current_temp_x10 = t;
 80040c4:	52e0      	strh	r0, [r4, r3]
        p = s_app(p, e, "TQ:"); p = s_i2s(p, e, t);
 80040c6:	a924      	add	r1, sp, #144	@ 0x90
 80040c8:	a817      	add	r0, sp, #92	@ 0x5c
 80040ca:	f7fc f864 	bl	8000196 <s_app>
 80040ce:	002a      	movs	r2, r5
 80040d0:	a924      	add	r1, sp, #144	@ 0x90
 80040d2:	f7fc f853 	bl	800017c <s_i2s>
        *p++ = ','; p = s_u2s(p, e, app->ntc.valid);
 80040d6:	252c      	movs	r5, #44	@ 0x2c
        p = s_app(p, e, "TQ:"); p = s_i2s(p, e, t);
 80040d8:	0003      	movs	r3, r0
        *p++ = ','; p = s_u2s(p, e, app->ntc.valid);
 80040da:	701d      	strb	r5, [r3, #0]
 80040dc:	7fa2      	ldrb	r2, [r4, #30]
 80040de:	a924      	add	r1, sp, #144	@ 0x90
 80040e0:	3001      	adds	r0, #1
 80040e2:	f7fc f811 	bl	8000108 <s_u2s>
 80040e6:	0003      	movs	r3, r0
        *p++ = ','; p = s_u2s(p, e, g_ntc_adc_avg);
 80040e8:	4c84      	ldr	r4, [pc, #528]	@ (80042fc <App_Run.constprop.0+0x1106>)
 80040ea:	701d      	strb	r5, [r3, #0]
 80040ec:	8a62      	ldrh	r2, [r4, #18]
 80040ee:	3001      	adds	r0, #1
 80040f0:	b292      	uxth	r2, r2
 80040f2:	a924      	add	r1, sp, #144	@ 0x90
 80040f4:	f7fc f808 	bl	8000108 <s_u2s>
 80040f8:	0003      	movs	r3, r0
        *p++ = ','; p = s_u2s(p, e, g_ntc_fault);
 80040fa:	701d      	strb	r5, [r3, #0]
 80040fc:	7922      	ldrb	r2, [r4, #4]
 80040fe:	3001      	adds	r0, #1
 8004100:	b2d2      	uxtb	r2, r2
 8004102:	e497      	b.n	8003a34 <App_Run.constprop.0+0x83e>
    if (strcmp(up, "BATQ") == 0) {
 8004104:	497e      	ldr	r1, [pc, #504]	@ (8004300 <App_Run.constprop.0+0x110a>)
 8004106:	a807      	add	r0, sp, #28
 8004108:	f000 ffac 	bl	8005064 <strcmp>
 800410c:	2800      	cmp	r0, #0
 800410e:	d135      	bne.n	800417c <App_Run.constprop.0+0xf86>
        Battery_Update(&app->bat);
 8004110:	f7fd fe70 	bl	8001df4 <Battery_Update.constprop.0>
    if (!hbat->valid) Battery_Update(hbat);
 8004114:	0023      	movs	r3, r4
 8004116:	3329      	adds	r3, #41	@ 0x29
 8004118:	781b      	ldrb	r3, [r3, #0]
 800411a:	2b00      	cmp	r3, #0
 800411c:	d101      	bne.n	8004122 <App_Run.constprop.0+0xf2c>
 800411e:	f7fd fe69 	bl	8001df4 <Battery_Update.constprop.0>
        app->current_bat_pct = Battery_GetPercent(&app->bat);
 8004122:	25a6      	movs	r5, #166	@ 0xa6
    return hbat->percent;
 8004124:	1d66      	adds	r6, r4, #5
 8004126:	7ff3      	ldrb	r3, [r6, #31]
 8004128:	00ad      	lsls	r5, r5, #2
        p = s_app(p, e, "BQ:"); p = s_u2s(p, e, app->current_bat_pct);
 800412a:	4a76      	ldr	r2, [pc, #472]	@ (8004304 <App_Run.constprop.0+0x110e>)
 800412c:	a924      	add	r1, sp, #144	@ 0x90
 800412e:	a817      	add	r0, sp, #92	@ 0x5c
        app->current_bat_pct = Battery_GetPercent(&app->bat);
 8004130:	5563      	strb	r3, [r4, r5]
        p = s_app(p, e, "BQ:"); p = s_u2s(p, e, app->current_bat_pct);
 8004132:	f7fc f830 	bl	8000196 <s_app>
 8004136:	5d62      	ldrb	r2, [r4, r5]
 8004138:	a924      	add	r1, sp, #144	@ 0x90
 800413a:	f7fb ffe5 	bl	8000108 <s_u2s>
        *p++ = ','; p = s_u2s(p, e, Battery_IsCharging(&app->bat) ? 1U : 0U);
 800413e:	252c      	movs	r5, #44	@ 0x2c
        p = s_app(p, e, "BQ:"); p = s_u2s(p, e, app->current_bat_pct);
 8004140:	0003      	movs	r3, r0
uint8_t Battery_IsCharging(Battery_Handle_t *hbat) { return (hbat->status == BAT_STATUS_CHARGING)    ? 1U : 0U; }
 8004142:	3428      	adds	r4, #40	@ 0x28
        *p++ = ','; p = s_u2s(p, e, Battery_IsCharging(&app->bat) ? 1U : 0U);
 8004144:	701d      	strb	r5, [r3, #0]
 8004146:	7822      	ldrb	r2, [r4, #0]
 8004148:	a924      	add	r1, sp, #144	@ 0x90
 800414a:	3a01      	subs	r2, #1
 800414c:	4253      	negs	r3, r2
 800414e:	415a      	adcs	r2, r3
 8004150:	3001      	adds	r0, #1
 8004152:	f7fb ffd9 	bl	8000108 <s_u2s>
 8004156:	0003      	movs	r3, r0
        *p++ = ','; p = s_u2s(p, e, Battery_IsFull(&app->bat)     ? 1U : 0U);
 8004158:	701d      	strb	r5, [r3, #0]
uint8_t Battery_IsFull(Battery_Handle_t *hbat)     { return (hbat->status == BAT_STATUS_FULL)         ? 1U : 0U; }
 800415a:	7822      	ldrb	r2, [r4, #0]
 800415c:	a924      	add	r1, sp, #144	@ 0x90
 800415e:	3a02      	subs	r2, #2
 8004160:	4253      	negs	r3, r2
 8004162:	415a      	adcs	r2, r3
 8004164:	3001      	adds	r0, #1
 8004166:	f7fb ffcf 	bl	8000108 <s_u2s>
 800416a:	0003      	movs	r3, r0
uint8_t Battery_IsLow(Battery_Handle_t *hbat)      { return (hbat->percent <= BAT_LOW_THRESHOLD_PCT)  ? 1U : 0U; }
 800416c:	2200      	movs	r2, #0
 800416e:	210a      	movs	r1, #10
        *p++ = ','; p = s_u2s(p, e, Battery_IsLow(&app->bat)      ? 1U : 0U);
 8004170:	701d      	strb	r5, [r3, #0]
 8004172:	7ff3      	ldrb	r3, [r6, #31]
 8004174:	3001      	adds	r0, #1
 8004176:	4299      	cmp	r1, r3
 8004178:	4152      	adcs	r2, r2
 800417a:	e45b      	b.n	8003a34 <App_Run.constprop.0+0x83e>
    if (strcmp(up, "REG") == 0) {
 800417c:	4962      	ldr	r1, [pc, #392]	@ (8004308 <App_Run.constprop.0+0x1112>)
 800417e:	a807      	add	r0, sp, #28
 8004180:	f000 ff70 	bl	8005064 <strcmp>
 8004184:	2800      	cmp	r0, #0
 8004186:	d109      	bne.n	800419c <App_Run.constprop.0+0xfa6>
        app->settings.is_registered = 1;
 8004188:	2301      	movs	r3, #1
 800418a:	34da      	adds	r4, #218	@ 0xda
 800418c:	7023      	strb	r3, [r4, #0]
        Storage_SaveSettings(&app->settings);
 800418e:	f7fe f9cf 	bl	8002530 <Storage_SaveSettings.constprop.0>
 8004192:	2004      	movs	r0, #4
 8004194:	f7fc fed2 	bl	8000f3c <Device_PostEvent.part.0.constprop.0>
        Buzzer_Play(BUZZER_REGISTRATION_OK);
 8004198:	3007      	adds	r0, #7
 800419a:	e637      	b.n	8003e0c <App_Run.constprop.0+0xc16>
    if (strcmp(up, "UNPAIR") == 0) {
 800419c:	495b      	ldr	r1, [pc, #364]	@ (800430c <App_Run.constprop.0+0x1116>)
 800419e:	a807      	add	r0, sp, #28
 80041a0:	f000 ff60 	bl	8005064 <strcmp>
 80041a4:	1e06      	subs	r6, r0, #0
 80041a6:	d107      	bne.n	80041b8 <App_Run.constprop.0+0xfc2>
        memset(app->settings.user_id, 0, sizeof(app->settings.user_id));
 80041a8:	2210      	movs	r2, #16
 80041aa:	0031      	movs	r1, r6
 80041ac:	4858      	ldr	r0, [pc, #352]	@ (8004310 <App_Run.constprop.0+0x111a>)
        app->settings.is_registered = 0;
 80041ae:	34da      	adds	r4, #218	@ 0xda
        memset(app->settings.user_id, 0, sizeof(app->settings.user_id));
 80041b0:	f003 f86f 	bl	8007292 <memset>
        app->settings.is_registered = 0;
 80041b4:	7026      	strb	r6, [r4, #0]
 80041b6:	e5e6      	b.n	8003d86 <App_Run.constprop.0+0xb90>
    if (strcmp(up, "SOFTRST") == 0) {
 80041b8:	4956      	ldr	r1, [pc, #344]	@ (8004314 <App_Run.constprop.0+0x111e>)
 80041ba:	a807      	add	r0, sp, #28
 80041bc:	f000 ff52 	bl	8005064 <strcmp>
 80041c0:	2800      	cmp	r0, #0
 80041c2:	d105      	bne.n	80041d0 <App_Run.constprop.0+0xfda>
        BLE_SendStr(&app->ble, S_OK); HAL_Delay(200); HAL_NVIC_SystemReset();
 80041c4:	0028      	movs	r0, r5
 80041c6:	300a      	adds	r0, #10
 80041c8:	f7ff f80c 	bl	80031e4 <BLE_SendStr.constprop.0.isra.0>
 80041cc:	f7ff fa0c 	bl	80035e8 <App_Run.constprop.0+0x3f2>
    if (strcmp(up, "SYNC") == 0) {
 80041d0:	4951      	ldr	r1, [pc, #324]	@ (8004318 <App_Run.constprop.0+0x1122>)
 80041d2:	a807      	add	r0, sp, #28
 80041d4:	f000 ff46 	bl	8005064 <strcmp>
 80041d8:	2800      	cmp	r0, #0
 80041da:	d11c      	bne.n	8004216 <App_Run.constprop.0+0x1020>
        Storage_MarkSynced(&app->drink_log, app->rtc.unix_approx);
 80041dc:	0023      	movs	r3, r4
 80041de:	3308      	adds	r3, #8
 80041e0:	6fd9      	ldr	r1, [r3, #124]	@ 0x7c
 80041e2:	23ee      	movs	r3, #238	@ 0xee
            log->events[i].synced = 1;
 80041e4:	2601      	movs	r6, #1
    for (uint8_t i = 0; i < log->count; i++)
 80041e6:	005b      	lsls	r3, r3, #1
 80041e8:	5ce2      	ldrb	r2, [r4, r3]
 80041ea:	4b4c      	ldr	r3, [pc, #304]	@ (800431c <App_Run.constprop.0+0x1126>)
 80041ec:	4290      	cmp	r0, r2
 80041ee:	d10a      	bne.n	8004206 <App_Run.constprop.0+0x1010>
    log->dirty = 1;
 80041f0:	23de      	movs	r3, #222	@ 0xde
 80041f2:	2201      	movs	r2, #1
 80041f4:	33ff      	adds	r3, #255	@ 0xff
 80041f6:	54e2      	strb	r2, [r4, r3]
        Storage_FlushDrinkLog(&app->drink_log);
 80041f8:	f7fe f81e 	bl	8002238 <Storage_FlushDrinkLog.constprop.0>
        WS2812B_SetPattern(LED_PATTERN_SYNC_SUCCESS);
 80041fc:	2009      	movs	r0, #9
 80041fe:	f7fc f907 	bl	8000410 <WS2812B_SetPattern>
        Buzzer_Play(BUZZER_SYNC_OK);
 8004202:	3803      	subs	r0, #3
 8004204:	e602      	b.n	8003e0c <App_Run.constprop.0+0xc16>
        if (log->events[i].unix_time <= synced_up_to_unix)
 8004206:	681f      	ldr	r7, [r3, #0]
 8004208:	42b9      	cmp	r1, r7
 800420a:	d300      	bcc.n	800420e <App_Run.constprop.0+0x1018>
            log->events[i].synced = 1;
 800420c:	729e      	strb	r6, [r3, #10]
    for (uint8_t i = 0; i < log->count; i++)
 800420e:	3001      	adds	r0, #1
 8004210:	b2c0      	uxtb	r0, r0
 8004212:	330c      	adds	r3, #12
 8004214:	e7ea      	b.n	80041ec <App_Run.constprop.0+0xff6>
    if (strcmp(up, "CFG") == 0) {
 8004216:	4942      	ldr	r1, [pc, #264]	@ (8004320 <App_Run.constprop.0+0x112a>)
 8004218:	a807      	add	r0, sp, #28
 800421a:	f000 ff23 	bl	8005064 <strcmp>
 800421e:	2800      	cmp	r0, #0
 8004220:	d14d      	bne.n	80042be <App_Run.constprop.0+0x10c8>
        p = s_app(p, e, "C:");
 8004222:	4a40      	ldr	r2, [pc, #256]	@ (8004324 <App_Run.constprop.0+0x112e>)
 8004224:	a924      	add	r1, sp, #144	@ 0x90
 8004226:	a817      	add	r0, sp, #92	@ 0x5c
 8004228:	f7fb ffb5 	bl	8000196 <s_app>
        p = s_u2s(p, e, BLE_U16(app->settings.prefs.purity_goal_hi, app->settings.prefs.purity_goal_lo)); *p++ = ',';
 800422c:	0023      	movs	r3, r4
 800422e:	33a8      	adds	r3, #168	@ 0xa8
 8004230:	881a      	ldrh	r2, [r3, #0]
 8004232:	a924      	add	r1, sp, #144	@ 0x90
 8004234:	ba52      	rev16	r2, r2
 8004236:	b292      	uxth	r2, r2
 8004238:	f7fb ff66 	bl	8000108 <s_u2s>
 800423c:	252c      	movs	r5, #44	@ 0x2c
 800423e:	0003      	movs	r3, r0
 8004240:	701d      	strb	r5, [r3, #0]
        p = s_i2s(p, e, BLE_I16(app->settings.prefs.temp_goal_hi,   app->settings.prefs.temp_goal_lo));   *p++ = ',';
 8004242:	0023      	movs	r3, r4
 8004244:	33aa      	adds	r3, #170	@ 0xaa
 8004246:	881a      	ldrh	r2, [r3, #0]
 8004248:	a924      	add	r1, sp, #144	@ 0x90
 800424a:	bad2      	revsh	r2, r2
        p = s_u2s(p, e, BLE_U16(app->settings.prefs.purity_goal_hi, app->settings.prefs.purity_goal_lo)); *p++ = ',';
 800424c:	3001      	adds	r0, #1
        p = s_i2s(p, e, BLE_I16(app->settings.prefs.temp_goal_hi,   app->settings.prefs.temp_goal_lo));   *p++ = ',';
 800424e:	f7fb ff95 	bl	800017c <s_i2s>
 8004252:	0003      	movs	r3, r0
 8004254:	701d      	strb	r5, [r3, #0]
        p = s_u2s(p, e, BLE_U16(app->settings.prefs.hydration_hi,   app->settings.prefs.hydration_lo));   *p++ = ',';
 8004256:	0023      	movs	r3, r4
 8004258:	33ac      	adds	r3, #172	@ 0xac
 800425a:	881a      	ldrh	r2, [r3, #0]
 800425c:	a924      	add	r1, sp, #144	@ 0x90
 800425e:	ba52      	rev16	r2, r2
 8004260:	b292      	uxth	r2, r2
        p = s_i2s(p, e, BLE_I16(app->settings.prefs.temp_goal_hi,   app->settings.prefs.temp_goal_lo));   *p++ = ',';
 8004262:	3001      	adds	r0, #1
        p = s_u2s(p, e, BLE_U16(app->settings.prefs.hydration_hi,   app->settings.prefs.hydration_lo));   *p++ = ',';
 8004264:	f7fb ff50 	bl	8000108 <s_u2s>
 8004268:	0003      	movs	r3, r0
 800426a:	701d      	strb	r5, [r3, #0]
        p = s_u2s(p, e, app->settings.prefs.remind_h_start); *p++ = ':';
 800426c:	0023      	movs	r3, r4
 800426e:	33ae      	adds	r3, #174	@ 0xae
 8004270:	781a      	ldrb	r2, [r3, #0]
 8004272:	a924      	add	r1, sp, #144	@ 0x90
        p = s_u2s(p, e, BLE_U16(app->settings.prefs.hydration_hi,   app->settings.prefs.hydration_lo));   *p++ = ',';
 8004274:	3001      	adds	r0, #1
        p = s_u2s(p, e, app->settings.prefs.remind_h_start); *p++ = ':';
 8004276:	f7fb ff47 	bl	8000108 <s_u2s>
 800427a:	263a      	movs	r6, #58	@ 0x3a
 800427c:	0003      	movs	r3, r0
 800427e:	701e      	strb	r6, [r3, #0]
        p = s_u2s(p, e, app->settings.prefs.remind_m_start); *p++ = '-';
 8004280:	0023      	movs	r3, r4
 8004282:	33af      	adds	r3, #175	@ 0xaf
 8004284:	781a      	ldrb	r2, [r3, #0]
 8004286:	a924      	add	r1, sp, #144	@ 0x90
        p = s_u2s(p, e, app->settings.prefs.remind_h_start); *p++ = ':';
 8004288:	3001      	adds	r0, #1
        p = s_u2s(p, e, app->settings.prefs.remind_m_start); *p++ = '-';
 800428a:	f7fb ff3d 	bl	8000108 <s_u2s>
 800428e:	222d      	movs	r2, #45	@ 0x2d
 8004290:	0003      	movs	r3, r0
 8004292:	701a      	strb	r2, [r3, #0]
        p = s_u2s(p, e, app->settings.prefs.remind_h_end);   *p++ = ':';
 8004294:	0023      	movs	r3, r4
 8004296:	33b0      	adds	r3, #176	@ 0xb0
 8004298:	781a      	ldrb	r2, [r3, #0]
 800429a:	a924      	add	r1, sp, #144	@ 0x90
        p = s_u2s(p, e, app->settings.prefs.remind_m_start); *p++ = '-';
 800429c:	3001      	adds	r0, #1
        p = s_u2s(p, e, app->settings.prefs.remind_h_end);   *p++ = ':';
 800429e:	f7fb ff33 	bl	8000108 <s_u2s>
 80042a2:	0003      	movs	r3, r0
 80042a4:	701e      	strb	r6, [r3, #0]
        p = s_u2s(p, e, app->settings.prefs.remind_m_end);   *p++ = ',';
 80042a6:	0023      	movs	r3, r4
 80042a8:	33b1      	adds	r3, #177	@ 0xb1
 80042aa:	781a      	ldrb	r2, [r3, #0]
        p = s_u2s(p, e, app->settings.prefs.remind_h_end);   *p++ = ':';
 80042ac:	3001      	adds	r0, #1
        p = s_u2s(p, e, app->settings.prefs.remind_m_end);   *p++ = ',';
 80042ae:	a924      	add	r1, sp, #144	@ 0x90
 80042b0:	f7fb ff2a 	bl	8000108 <s_u2s>
 80042b4:	0003      	movs	r3, r0
        p = s_u2s(p, e, app->settings.prefs.remind_freq_min);
 80042b6:	34b2      	adds	r4, #178	@ 0xb2
        p = s_u2s(p, e, app->settings.prefs.remind_m_end);   *p++ = ',';
 80042b8:	3001      	adds	r0, #1
 80042ba:	701d      	strb	r5, [r3, #0]
 80042bc:	e6a6      	b.n	800400c <App_Run.constprop.0+0xe16>
    if (strcmp(up, "CAL") == 0 || strcmp(up, "TARE") == 0) {
 80042be:	491a      	ldr	r1, [pc, #104]	@ (8004328 <App_Run.constprop.0+0x1132>)
 80042c0:	a807      	add	r0, sp, #28
 80042c2:	f000 fecf 	bl	8005064 <strcmp>
 80042c6:	2800      	cmp	r0, #0
 80042c8:	d006      	beq.n	80042d8 <App_Run.constprop.0+0x10e2>
 80042ca:	4918      	ldr	r1, [pc, #96]	@ (800432c <App_Run.constprop.0+0x1136>)
 80042cc:	a807      	add	r0, sp, #28
 80042ce:	f000 fec9 	bl	8005064 <strcmp>
 80042d2:	2800      	cmp	r0, #0
 80042d4:	d000      	beq.n	80042d8 <App_Run.constprop.0+0x10e2>
 80042d6:	e0f5      	b.n	80044c4 <App_Run.constprop.0+0x12ce>
        if (!HX711_WaitReady(400U)) {
 80042d8:	f7fd f98a 	bl	80015f0 <HX711_WaitReady.constprop.0>
 80042dc:	2800      	cmp	r0, #0
 80042de:	d129      	bne.n	8004334 <App_Run.constprop.0+0x113e>
            BLE_SendStr(&app->ble, "ERR,HX711\r\n"); return;
 80042e0:	4813      	ldr	r0, [pc, #76]	@ (8004330 <App_Run.constprop.0+0x113a>)
 80042e2:	f7ff fac0 	bl	8003866 <App_Run.constprop.0+0x670>
 80042e6:	46c0      	nop			@ (mov r8, r8)
 80042e8:	08007733 	.word	0x08007733
 80042ec:	00000296 	.word	0x00000296
 80042f0:	08007738 	.word	0x08007738
 80042f4:	0800773c 	.word	0x0800773c
 80042f8:	08007741 	.word	0x08007741
 80042fc:	20000180 	.word	0x20000180
 8004300:	08007745 	.word	0x08007745
 8004304:	0800774a 	.word	0x0800774a
 8004308:	0800774e 	.word	0x0800774e
 800430c:	08007752 	.word	0x08007752
 8004310:	200005f6 	.word	0x200005f6
 8004314:	08007759 	.word	0x08007759
 8004318:	08007761 	.word	0x08007761
 800431c:	20000628 	.word	0x20000628
 8004320:	08007766 	.word	0x08007766
 8004324:	0800776a 	.word	0x0800776a
 8004328:	0800776d 	.word	0x0800776d
 800432c:	08007771 	.word	0x08007771
 8004330:	0800778c 	.word	0x0800778c
        fake.cmd        = BLE_CMD_CALIBRATION;
 8004334:	214c      	movs	r1, #76	@ 0x4c
 8004336:	2304      	movs	r3, #4
 8004338:	aa04      	add	r2, sp, #16
 800433a:	1852      	adds	r2, r2, r1
 800433c:	33ff      	adds	r3, #255	@ 0xff
 800433e:	8013      	strh	r3, [r2, #0]
        fake.payload[0] = 0;
 8004340:	2300      	movs	r3, #0
 8004342:	aa04      	add	r2, sp, #16
 8004344:	3102      	adds	r1, #2
 8004346:	1852      	adds	r2, r2, r1
 8004348:	7013      	strb	r3, [r2, #0]
        App_Cmd_Calibration(app, &fake);
 800434a:	a817      	add	r0, sp, #92	@ 0x5c
 800434c:	f7fe f924 	bl	8002598 <App_Cmd_Calibration.constprop.0>
    if (now - app->last_weight_ms  >= APP_WEIGHT_POLL_MS)   App_TaskWeight(app);
 8004350:	22a7      	movs	r2, #167	@ 0xa7
 8004352:	4cb2      	ldr	r4, [pc, #712]	@ (800461c <App_Run.constprop.0+0x1426>)
 8004354:	0092      	lsls	r2, r2, #2
 8004356:	58a3      	ldr	r3, [r4, r2]
 8004358:	9902      	ldr	r1, [sp, #8]
 800435a:	1acb      	subs	r3, r1, r3
 800435c:	2bc7      	cmp	r3, #199	@ 0xc7
 800435e:	d937      	bls.n	80043d0 <App_Run.constprop.0+0x11da>
 8004360:	4daf      	ldr	r5, [pc, #700]	@ (8004620 <App_Run.constprop.0+0x142a>)
 8004362:	6f6b      	ldr	r3, [r5, #116]	@ 0x74
    app->last_weight_ms = HAL_GetTick();
 8004364:	50a3      	str	r3, [r4, r2]
    if (!app->hx711.is_calibrated) return;
 8004366:	7b63      	ldrb	r3, [r4, #13]
 8004368:	2b00      	cmp	r3, #0
 800436a:	d031      	beq.n	80043d0 <App_Run.constprop.0+0x11da>
    if (!HX711_ReadRawAveraged(hx, &raw)) return 0.0f;
 800436c:	a817      	add	r0, sp, #92	@ 0x5c
 800436e:	f7fc fd09 	bl	8000d84 <HX711_ReadRawAveraged.constprop.0>
 8004372:	2700      	movs	r7, #0
 8004374:	2800      	cmp	r0, #0
 8004376:	d008      	beq.n	800438a <App_Run.constprop.0+0x1194>
    return (float)(raw - hx->tare_offset) / hx->scale;
 8004378:	6823      	ldr	r3, [r4, #0]
 800437a:	9817      	ldr	r0, [sp, #92]	@ 0x5c
 800437c:	1ac0      	subs	r0, r0, r3
 800437e:	f002 f83f 	bl	8006400 <__aeabi_i2f>
 8004382:	6861      	ldr	r1, [r4, #4]
 8004384:	f001 fa90 	bl	80058a8 <__aeabi_fdiv>
 8004388:	1c07      	adds	r7, r0, #0
    if (!app->hx711.last_read_ok) return;
 800438a:	7ba3      	ldrb	r3, [r4, #14]
 800438c:	2b00      	cmp	r3, #0
 800438e:	d01f      	beq.n	80043d0 <App_Run.constprop.0+0x11da>
    app->prev_weight_g    = app->current_weight_g;
 8004390:	23a3      	movs	r3, #163	@ 0xa3
 8004392:	22a4      	movs	r2, #164	@ 0xa4
 8004394:	009b      	lsls	r3, r3, #2
 8004396:	58e1      	ldr	r1, [r4, r3]
 8004398:	0092      	lsls	r2, r2, #2
 800439a:	50a1      	str	r1, [r4, r2]
    if (!app->weight_seeded) {
 800439c:	4aa1      	ldr	r2, [pc, #644]	@ (8004624 <App_Run.constprop.0+0x142e>)
    app->current_weight_g = w;
 800439e:	50e7      	str	r7, [r4, r3]
    if (!app->weight_seeded) {
 80043a0:	5ca1      	ldrb	r1, [r4, r2]
 80043a2:	6f6d      	ldr	r5, [r5, #116]	@ 0x74
 80043a4:	333c      	adds	r3, #60	@ 0x3c
 80043a6:	2900      	cmp	r1, #0
 80043a8:	d000      	beq.n	80043ac <App_Run.constprop.0+0x11b6>
 80043aa:	e159      	b.n	8004660 <App_Run.constprop.0+0x146a>
        app->weight_seeded    = 1;
 80043ac:	3101      	adds	r1, #1
 80043ae:	54a1      	strb	r1, [r4, r2]
        app->drink_baseline_g = w;
 80043b0:	3203      	adds	r2, #3
        app->last_stable_w_g  = w;
 80043b2:	50e7      	str	r7, [r4, r3]
        app->drink_baseline_g = w;
 80043b4:	50a7      	str	r7, [r4, r2]
        app->stable_since_ms  = now;
 80043b6:	3304      	adds	r3, #4
        app->stable_since_ms = now;
 80043b8:	50e5      	str	r5, [r4, r3]
uint8_t Battery_IsCharging(Battery_Handle_t *hbat) { return (hbat->status == BAT_STATUS_CHARGING)    ? 1U : 0U; }
 80043ba:	4b9b      	ldr	r3, [pc, #620]	@ (8004628 <App_Run.constprop.0+0x1432>)
 80043bc:	4a97      	ldr	r2, [pc, #604]	@ (800461c <App_Run.constprop.0+0x1426>)
 80043be:	781b      	ldrb	r3, [r3, #0]
 80043c0:	3b01      	subs	r3, #1
 80043c2:	2b01      	cmp	r3, #1
 80043c4:	d804      	bhi.n	80043d0 <App_Run.constprop.0+0x11da>
        WS2812B_SetChargingLevel(app->current_bat_pct);
 80043c6:	23a6      	movs	r3, #166	@ 0xa6
 80043c8:	009b      	lsls	r3, r3, #2
 80043ca:	5cd0      	ldrb	r0, [r2, r3]
 80043cc:	f7fc f83a 	bl	8000444 <WS2812B_SetChargingLevel>
    if (now - app->last_tds_ms     >= APP_TDS_POLL_MS)      App_TaskTDS(app);
 80043d0:	22a8      	movs	r2, #168	@ 0xa8
 80043d2:	4c92      	ldr	r4, [pc, #584]	@ (800461c <App_Run.constprop.0+0x1426>)
 80043d4:	0092      	lsls	r2, r2, #2
 80043d6:	58a3      	ldr	r3, [r4, r2]
 80043d8:	9902      	ldr	r1, [sp, #8]
 80043da:	4e94      	ldr	r6, [pc, #592]	@ (800462c <App_Run.constprop.0+0x1436>)
 80043dc:	1acb      	subs	r3, r1, r3
 80043de:	42b3      	cmp	r3, r6
 80043e0:	d921      	bls.n	8004426 <App_Run.constprop.0+0x1230>
 80043e2:	4b8f      	ldr	r3, [pc, #572]	@ (8004620 <App_Run.constprop.0+0x142a>)
 80043e4:	6f5b      	ldr	r3, [r3, #116]	@ 0x74
    app->last_tds_ms     = HAL_GetTick();
 80043e6:	50a3      	str	r3, [r4, r2]
    app->current_tds_ppm = TDS_ReadPPM(&app->tds, app->current_temp_x10);
 80043e8:	4b91      	ldr	r3, [pc, #580]	@ (8004630 <App_Run.constprop.0+0x143a>)
 80043ea:	5ee0      	ldrsh	r0, [r4, r3]
 80043ec:	f7fd fe10 	bl	8002010 <TDS_ReadPPM.constprop.0>
 80043f0:	23a5      	movs	r3, #165	@ 0xa5
 80043f2:	009b      	lsls	r3, r3, #2
 80043f4:	52e0      	strh	r0, [r4, r3]
 80043f6:	0023      	movs	r3, r4
 80043f8:	22b9      	movs	r2, #185	@ 0xb9
 80043fa:	33a8      	adds	r3, #168	@ 0xa8
 80043fc:	881b      	ldrh	r3, [r3, #0]
 80043fe:	0092      	lsls	r2, r2, #2
    if (purity_goal > 0 && app->current_tds_ppm > purity_goal) {
 8004400:	2b00      	cmp	r3, #0
 8004402:	d100      	bne.n	8004406 <App_Run.constprop.0+0x1210>
 8004404:	e1c4      	b.n	8004790 <App_Run.constprop.0+0x159a>
 8004406:	ba5b      	rev16	r3, r3
 8004408:	b29b      	uxth	r3, r3
 800440a:	4283      	cmp	r3, r0
 800440c:	d300      	bcc.n	8004410 <App_Run.constprop.0+0x121a>
 800440e:	e1bf      	b.n	8004790 <App_Run.constprop.0+0x159a>
        if (!app->purity_alert_active) {
 8004410:	5ca3      	ldrb	r3, [r4, r2]
 8004412:	2b00      	cmp	r3, #0
 8004414:	d107      	bne.n	8004426 <App_Run.constprop.0+0x1230>
            WS2812B_SetPattern(LED_PATTERN_PURITY_ALERT);
 8004416:	2005      	movs	r0, #5
            app->purity_alert_active = 1;
 8004418:	3301      	adds	r3, #1
 800441a:	54a3      	strb	r3, [r4, r2]
            WS2812B_SetPattern(LED_PATTERN_PURITY_ALERT);
 800441c:	f7fb fff8 	bl	8000410 <WS2812B_SetPattern>
            Buzzer_Play(BUZZER_PURITY_ALERT);
 8004420:	3801      	subs	r0, #1
 8004422:	f7fd f8bd 	bl	80015a0 <Buzzer_Play>
    if (now - app->last_temp_ms    >= APP_TEMP_POLL_MS)      App_TaskTemp(app);
 8004426:	22a9      	movs	r2, #169	@ 0xa9
 8004428:	0092      	lsls	r2, r2, #2
 800442a:	58a3      	ldr	r3, [r4, r2]
 800442c:	9902      	ldr	r1, [sp, #8]
 800442e:	1acb      	subs	r3, r1, r3
 8004430:	42b3      	cmp	r3, r6
 8004432:	d91c      	bls.n	800446e <App_Run.constprop.0+0x1278>
 8004434:	4b7a      	ldr	r3, [pc, #488]	@ (8004620 <App_Run.constprop.0+0x142a>)
 8004436:	6f5b      	ldr	r3, [r3, #116]	@ 0x74
    app->last_temp_ms     = HAL_GetTick();
 8004438:	50a3      	str	r3, [r4, r2]
    app->current_temp_x10 = NTC_ReadTemp_x10(&app->ntc);
 800443a:	f7fd fd49 	bl	8001ed0 <NTC_ReadTemp_x10.constprop.0>
 800443e:	4b7c      	ldr	r3, [pc, #496]	@ (8004630 <App_Run.constprop.0+0x143a>)
 8004440:	4a7c      	ldr	r2, [pc, #496]	@ (8004634 <App_Run.constprop.0+0x143e>)
 8004442:	52e0      	strh	r0, [r4, r3]
 8004444:	0023      	movs	r3, r4
 8004446:	33aa      	adds	r3, #170	@ 0xaa
 8004448:	881b      	ldrh	r3, [r3, #0]
 800444a:	badb      	revsh	r3, r3
    if (temp_goal_x10 > 0 && app->current_temp_x10 > temp_goal_x10) {
 800444c:	2b00      	cmp	r3, #0
 800444e:	dc00      	bgt.n	8004452 <App_Run.constprop.0+0x125c>
 8004450:	e1a1      	b.n	8004796 <App_Run.constprop.0+0x15a0>
 8004452:	4298      	cmp	r0, r3
 8004454:	dc00      	bgt.n	8004458 <App_Run.constprop.0+0x1262>
 8004456:	e19e      	b.n	8004796 <App_Run.constprop.0+0x15a0>
        if (!app->temp_alert_active) {
 8004458:	5ca3      	ldrb	r3, [r4, r2]
 800445a:	2b00      	cmp	r3, #0
 800445c:	d107      	bne.n	800446e <App_Run.constprop.0+0x1278>
            WS2812B_SetPattern(LED_PATTERN_TEMP_ALERT);
 800445e:	2006      	movs	r0, #6
            app->temp_alert_active = 1;
 8004460:	3301      	adds	r3, #1
 8004462:	54a3      	strb	r3, [r4, r2]
            WS2812B_SetPattern(LED_PATTERN_TEMP_ALERT);
 8004464:	f7fb ffd4 	bl	8000410 <WS2812B_SetPattern>
            Buzzer_Play(BUZZER_TEMP_ALERT);
 8004468:	3801      	subs	r0, #1
 800446a:	f7fd f899 	bl	80015a0 <Buzzer_Play>
    if (now - app->last_battery_ms >= APP_BATTERY_POLL_MS)   App_TaskBattery(app);
 800446e:	22aa      	movs	r2, #170	@ 0xaa
 8004470:	0092      	lsls	r2, r2, #2
 8004472:	9902      	ldr	r1, [sp, #8]
 8004474:	58a3      	ldr	r3, [r4, r2]
 8004476:	1acb      	subs	r3, r1, r3
 8004478:	496f      	ldr	r1, [pc, #444]	@ (8004638 <App_Run.constprop.0+0x1442>)
 800447a:	428b      	cmp	r3, r1
 800447c:	d800      	bhi.n	8004480 <App_Run.constprop.0+0x128a>
 800447e:	e1a4      	b.n	80047ca <App_Run.constprop.0+0x15d4>
 8004480:	4d67      	ldr	r5, [pc, #412]	@ (8004620 <App_Run.constprop.0+0x142a>)
 8004482:	6f6b      	ldr	r3, [r5, #116]	@ 0x74
    app->last_battery_ms = HAL_GetTick();
 8004484:	50a3      	str	r3, [r4, r2]
    Battery_Update(&app->bat);
 8004486:	f7fd fcb5 	bl	8001df4 <Battery_Update.constprop.0>
    if (!hbat->valid) Battery_Update(hbat);
 800448a:	0023      	movs	r3, r4
 800448c:	3329      	adds	r3, #41	@ 0x29
 800448e:	781b      	ldrb	r3, [r3, #0]
 8004490:	2b00      	cmp	r3, #0
 8004492:	d101      	bne.n	8004498 <App_Run.constprop.0+0x12a2>
 8004494:	f7fd fcae 	bl	8001df4 <Battery_Update.constprop.0>
    return hbat->percent;
 8004498:	1d63      	adds	r3, r4, #5
 800449a:	7fd8      	ldrb	r0, [r3, #31]
    app->current_bat_pct = Battery_GetPercent(&app->bat);
 800449c:	23a6      	movs	r3, #166	@ 0xa6
 800449e:	009b      	lsls	r3, r3, #2
 80044a0:	54e0      	strb	r0, [r4, r3]
uint8_t Battery_IsCharging(Battery_Handle_t *hbat) { return (hbat->status == BAT_STATUS_CHARGING)    ? 1U : 0U; }
 80044a2:	0022      	movs	r2, r4
    } else if (!charging && (app->dev.state == DEV_STATE_CHARGING ||
 80044a4:	0023      	movs	r3, r4
 80044a6:	3228      	adds	r2, #40	@ 0x28
 80044a8:	338c      	adds	r3, #140	@ 0x8c
 80044aa:	781b      	ldrb	r3, [r3, #0]
 80044ac:	7812      	ldrb	r2, [r2, #0]
 80044ae:	3b05      	subs	r3, #5
 80044b0:	3a01      	subs	r2, #1
 80044b2:	b2db      	uxtb	r3, r3
 80044b4:	2a01      	cmp	r2, #1
 80044b6:	d800      	bhi.n	80044ba <App_Run.constprop.0+0x12c4>
 80044b8:	e170      	b.n	800479c <App_Run.constprop.0+0x15a6>
 80044ba:	2b01      	cmp	r3, #1
 80044bc:	d900      	bls.n	80044c0 <App_Run.constprop.0+0x12ca>
 80044be:	e174      	b.n	80047aa <App_Run.constprop.0+0x15b4>
 80044c0:	200d      	movs	r0, #13
 80044c2:	e170      	b.n	80047a6 <App_Run.constprop.0+0x15b0>
    if (strcmp(up, "CALWEIGHT") == 0) {
 80044c4:	495d      	ldr	r1, [pc, #372]	@ (800463c <App_Run.constprop.0+0x1446>)
 80044c6:	a807      	add	r0, sp, #28
 80044c8:	f000 fdcc 	bl	8005064 <strcmp>
 80044cc:	2800      	cmp	r0, #0
 80044ce:	d000      	beq.n	80044d2 <App_Run.constprop.0+0x12dc>
 80044d0:	e0a1      	b.n	8004616 <App_Run.constprop.0+0x1420>
        if (s_csv(line, v, 1) != 1 || v[0] < 1) {
 80044d2:	2201      	movs	r2, #1
 80044d4:	a906      	add	r1, sp, #24
 80044d6:	a811      	add	r0, sp, #68	@ 0x44
 80044d8:	f7fb fe6a 	bl	80001b0 <s_csv>
 80044dc:	4290      	cmp	r0, r2
 80044de:	d102      	bne.n	80044e6 <App_Run.constprop.0+0x12f0>
 80044e0:	9d06      	ldr	r5, [sp, #24]
 80044e2:	2d00      	cmp	r5, #0
 80044e4:	dc02      	bgt.n	80044ec <App_Run.constprop.0+0x12f6>
            BLE_SendStr(&app->ble, "CW:ERR\r\n"); return;
 80044e6:	4856      	ldr	r0, [pc, #344]	@ (8004640 <App_Run.constprop.0+0x144a>)
 80044e8:	f7ff f9bd 	bl	8003866 <App_Run.constprop.0+0x670>
        if (!HX711_WaitReady(400U)) {
 80044ec:	f7fd f880 	bl	80015f0 <HX711_WaitReady.constprop.0>
 80044f0:	2800      	cmp	r0, #0
 80044f2:	d102      	bne.n	80044fa <App_Run.constprop.0+0x1304>
            BLE_SendStr(&app->ble, "CW:ERR,HX711\r\n"); return;
 80044f4:	4853      	ldr	r0, [pc, #332]	@ (8004644 <App_Run.constprop.0+0x144e>)
 80044f6:	f7ff f9b6 	bl	8003866 <App_Run.constprop.0+0x670>
        if (!HX711_Calibrate(&app->hx711, (float)v[0])) {
 80044fa:	0028      	movs	r0, r5
 80044fc:	f001 ff80 	bl	8006400 <__aeabi_i2f>
    if (known_grams < 1.0f) return 0U;
 8004500:	21fe      	movs	r1, #254	@ 0xfe
 8004502:	0589      	lsls	r1, r1, #22
 8004504:	1c06      	adds	r6, r0, #0
 8004506:	f000 ff5b 	bl	80053c0 <__aeabi_fcmplt>
 800450a:	2800      	cmp	r0, #0
 800450c:	d002      	beq.n	8004514 <App_Run.constprop.0+0x131e>
            BLE_SendStr(&app->ble, "CW:ERR,LOAD\r\n"); return;
 800450e:	484e      	ldr	r0, [pc, #312]	@ (8004648 <App_Run.constprop.0+0x1452>)
 8004510:	f7ff f9a9 	bl	8003866 <App_Run.constprop.0+0x670>
    if (!HX711_ReadRawAveraged(hx, &raw)) return 0U;
 8004514:	a817      	add	r0, sp, #92	@ 0x5c
 8004516:	f7fc fc35 	bl	8000d84 <HX711_ReadRawAveraged.constprop.0>
 800451a:	2800      	cmp	r0, #0
 800451c:	d0f7      	beq.n	800450e <App_Run.constprop.0+0x1318>
    float counts = (float)(raw - hx->tare_offset);
 800451e:	6823      	ldr	r3, [r4, #0]
 8004520:	9817      	ldr	r0, [sp, #92]	@ 0x5c
 8004522:	9303      	str	r3, [sp, #12]
 8004524:	1ac0      	subs	r0, r0, r3
 8004526:	f001 ff6b 	bl	8006400 <__aeabi_i2f>
    if (counts > -1000.0f && counts < 1000.0f) return 0U;
 800452a:	4948      	ldr	r1, [pc, #288]	@ (800464c <App_Run.constprop.0+0x1456>)
    float counts = (float)(raw - hx->tare_offset);
 800452c:	1c05      	adds	r5, r0, #0
    if (counts > -1000.0f && counts < 1000.0f) return 0U;
 800452e:	f000 ff5b 	bl	80053e8 <__aeabi_fcmpgt>
 8004532:	2800      	cmp	r0, #0
 8004534:	d005      	beq.n	8004542 <App_Run.constprop.0+0x134c>
 8004536:	4946      	ldr	r1, [pc, #280]	@ (8004650 <App_Run.constprop.0+0x145a>)
 8004538:	1c28      	adds	r0, r5, #0
 800453a:	f000 ff41 	bl	80053c0 <__aeabi_fcmplt>
 800453e:	2800      	cmp	r0, #0
 8004540:	d1e5      	bne.n	800450e <App_Run.constprop.0+0x1318>
    float new_scale = counts / known_grams;
 8004542:	1c31      	adds	r1, r6, #0
 8004544:	1c28      	adds	r0, r5, #0
    if (new_scale == 0.0f) return 0U;
 8004546:	2600      	movs	r6, #0
    float new_scale = counts / known_grams;
 8004548:	f001 f9ae 	bl	80058a8 <__aeabi_fdiv>
    if (new_scale == 0.0f) return 0U;
 800454c:	1c31      	adds	r1, r6, #0
    float new_scale = counts / known_grams;
 800454e:	1c05      	adds	r5, r0, #0
    if (new_scale == 0.0f) return 0U;
 8004550:	f000 ff30 	bl	80053b4 <__aeabi_fcmpeq>
 8004554:	1e07      	subs	r7, r0, #0
 8004556:	d1da      	bne.n	800450e <App_Run.constprop.0+0x1318>
    hx->is_calibrated = 1U;
 8004558:	2301      	movs	r3, #1
    hx->scale         = new_scale;
 800455a:	6065      	str	r5, [r4, #4]
    hx->is_calibrated = 1U;
 800455c:	7363      	strb	r3, [r4, #13]
        app->settings.tare_offset   = (float)app->hx711.tare_offset;
 800455e:	9803      	ldr	r0, [sp, #12]
 8004560:	f001 ff4e 	bl	8006400 <__aeabi_i2f>
        app->settings.hx711_scale   = app->hx711.scale;
 8004564:	0023      	movs	r3, r4
 8004566:	33e4      	adds	r3, #228	@ 0xe4
 8004568:	601d      	str	r5, [r3, #0]
        app->settings.is_calibrated = 1;
 800456a:	0023      	movs	r3, r4
 800456c:	2201      	movs	r2, #1
        app->settings.tare_offset   = (float)app->hx711.tare_offset;
 800456e:	4939      	ldr	r1, [pc, #228]	@ (8004654 <App_Run.constprop.0+0x145e>)
        app->settings.is_calibrated = 1;
 8004570:	33db      	adds	r3, #219	@ 0xdb
        app->settings.tare_offset   = (float)app->hx711.tare_offset;
 8004572:	6008      	str	r0, [r1, #0]
        app->settings.is_calibrated = 1;
 8004574:	701a      	strb	r2, [r3, #0]
        Storage_SaveSettings(&app->settings);
 8004576:	f7fd ffdb 	bl	8002530 <Storage_SaveSettings.constprop.0>
        app->weight_seeded    = 0;
 800457a:	4b2a      	ldr	r3, [pc, #168]	@ (8004624 <App_Run.constprop.0+0x142e>)
        p = s_app(p, e, "CW:OK,scale=");
 800457c:	4a36      	ldr	r2, [pc, #216]	@ (8004658 <App_Run.constprop.0+0x1462>)
        app->weight_seeded    = 0;
 800457e:	54e7      	strb	r7, [r4, r3]
        p = s_app(p, e, "CW:OK,scale=");
 8004580:	a924      	add	r1, sp, #144	@ 0x90
        app->drink_baseline_g = 0.0f;
 8004582:	3303      	adds	r3, #3
        p = s_app(p, e, "CW:OK,scale=");
 8004584:	a817      	add	r0, sp, #92	@ 0x5c
        app->drink_baseline_g = 0.0f;
 8004586:	50e6      	str	r6, [r4, r3]
        p = s_app(p, e, "CW:OK,scale=");
 8004588:	f7fb fe05 	bl	8000196 <s_app>
        p = s_f2s(p, e, app->hx711.scale);
 800458c:	6864      	ldr	r4, [r4, #4]
        p = s_app(p, e, "CW:OK,scale=");
 800458e:	0005      	movs	r5, r0
    if (f < 0.0f) { if (d < e - 1) *d++ = '-'; f = -f; }
 8004590:	1c31      	adds	r1, r6, #0
 8004592:	1c20      	adds	r0, r4, #0
 8004594:	f000 ff14 	bl	80053c0 <__aeabi_fcmplt>
 8004598:	377f      	adds	r7, #127	@ 0x7f
 800459a:	ab04      	add	r3, sp, #16
 800459c:	18ff      	adds	r7, r7, r3
 800459e:	2800      	cmp	r0, #0
 80045a0:	d007      	beq.n	80045b2 <App_Run.constprop.0+0x13bc>
 80045a2:	42bd      	cmp	r5, r7
 80045a4:	d202      	bcs.n	80045ac <App_Run.constprop.0+0x13b6>
 80045a6:	232d      	movs	r3, #45	@ 0x2d
 80045a8:	702b      	strb	r3, [r5, #0]
 80045aa:	3501      	adds	r5, #1
 80045ac:	2380      	movs	r3, #128	@ 0x80
 80045ae:	061b      	lsls	r3, r3, #24
 80045b0:	18e4      	adds	r4, r4, r3
    uint32_t whole = (uint32_t)f;
 80045b2:	1c20      	adds	r0, r4, #0
 80045b4:	f000 ff50 	bl	8005458 <__aeabi_f2uiz>
 80045b8:	0006      	movs	r6, r0
    uint32_t frac  = (uint32_t)((f - (float)whole) * 100.0f + 0.5f);
 80045ba:	f001 ff71 	bl	80064a0 <__aeabi_ui2f>
 80045be:	1c01      	adds	r1, r0, #0
 80045c0:	1c20      	adds	r0, r4, #0
 80045c2:	f001 fc99 	bl	8005ef8 <__aeabi_fsub>
 80045c6:	4925      	ldr	r1, [pc, #148]	@ (800465c <App_Run.constprop.0+0x1466>)
 80045c8:	f001 fb3c 	bl	8005c44 <__aeabi_fmul>
 80045cc:	21fc      	movs	r1, #252	@ 0xfc
 80045ce:	0589      	lsls	r1, r1, #22
 80045d0:	f000 ff78 	bl	80054c4 <__aeabi_fadd>
 80045d4:	f000 ff40 	bl	8005458 <__aeabi_f2uiz>
 80045d8:	0004      	movs	r4, r0
    if (frac >= 100U) { whole++; frac = 0U; }
 80045da:	2863      	cmp	r0, #99	@ 0x63
 80045dc:	d901      	bls.n	80045e2 <App_Run.constprop.0+0x13ec>
 80045de:	2400      	movs	r4, #0
 80045e0:	3601      	adds	r6, #1
    d = s_u2s(d, e, whole);
 80045e2:	0032      	movs	r2, r6
 80045e4:	0028      	movs	r0, r5
 80045e6:	a924      	add	r1, sp, #144	@ 0x90
 80045e8:	f7fb fd8e 	bl	8000108 <s_u2s>
 80045ec:	0003      	movs	r3, r0
    if (d < e - 1) *d++ = '.';
 80045ee:	42b8      	cmp	r0, r7
 80045f0:	d301      	bcc.n	80045f6 <App_Run.constprop.0+0x1400>
 80045f2:	f7ff fa4d 	bl	8003a90 <App_Run.constprop.0+0x89a>
 80045f6:	222e      	movs	r2, #46	@ 0x2e
 80045f8:	3001      	adds	r0, #1
 80045fa:	701a      	strb	r2, [r3, #0]
    if (frac < 10U && d < e - 1) *d++ = '0';
 80045fc:	2c09      	cmp	r4, #9
 80045fe:	d901      	bls.n	8004604 <App_Run.constprop.0+0x140e>
 8004600:	f7ff fa46 	bl	8003a90 <App_Run.constprop.0+0x89a>
 8004604:	42b8      	cmp	r0, r7
 8004606:	d301      	bcc.n	800460c <App_Run.constprop.0+0x1416>
 8004608:	f7ff fa42 	bl	8003a90 <App_Run.constprop.0+0x89a>
 800460c:	3202      	adds	r2, #2
 800460e:	1c98      	adds	r0, r3, #2
 8004610:	705a      	strb	r2, [r3, #1]
 8004612:	f7ff fa3d 	bl	8003a90 <App_Run.constprop.0+0x89a>
    BLE_SendStr(&app->ble, S_ERR);
 8004616:	0028      	movs	r0, r5
 8004618:	f7ff f9ce 	bl	80039b8 <App_Run.constprop.0+0x7c2>
 800461c:	2000053c 	.word	0x2000053c
 8004620:	20000080 	.word	0x20000080
 8004624:	000002c1 	.word	0x000002c1
 8004628:	20000564 	.word	0x20000564
 800462c:	00001387 	.word	0x00001387
 8004630:	00000296 	.word	0x00000296
 8004634:	000002e5 	.word	0x000002e5
 8004638:	0000270f 	.word	0x0000270f
 800463c:	08007776 	.word	0x08007776
 8004640:	08007780 	.word	0x08007780
 8004644:	08007789 	.word	0x08007789
 8004648:	08007798 	.word	0x08007798
 800464c:	c47a0000 	.word	0xc47a0000
 8004650:	447a0000 	.word	0x447a0000
 8004654:	2000061c 	.word	0x2000061c
 8004658:	080077a6 	.word	0x080077a6
 800465c:	42c80000 	.word	0x42c80000
    float jitter = w - app->last_stable_w_g;
 8004660:	58e1      	ldr	r1, [r4, r3]
 8004662:	1c38      	adds	r0, r7, #0
 8004664:	f001 fc48 	bl	8005ef8 <__aeabi_fsub>
    if (jitter < 0) jitter = -jitter;
 8004668:	2100      	movs	r1, #0
    float jitter = w - app->last_stable_w_g;
 800466a:	1c06      	adds	r6, r0, #0
    if (jitter < 0) jitter = -jitter;
 800466c:	f000 fea8 	bl	80053c0 <__aeabi_fcmplt>
 8004670:	2800      	cmp	r0, #0
 8004672:	d002      	beq.n	800467a <App_Run.constprop.0+0x1484>
 8004674:	2380      	movs	r3, #128	@ 0x80
 8004676:	061b      	lsls	r3, r3, #24
 8004678:	18f6      	adds	r6, r6, r3
    if (jitter > (float)DRINK_STABLE_BAND_G) {
 800467a:	1c30      	adds	r0, r6, #0
 800467c:	49b3      	ldr	r1, [pc, #716]	@ (800494c <App_Run.constprop.0+0x1756>)
 800467e:	f000 feb3 	bl	80053e8 <__aeabi_fcmpgt>
 8004682:	22b2      	movs	r2, #178	@ 0xb2
 8004684:	23b3      	movs	r3, #179	@ 0xb3
 8004686:	0092      	lsls	r2, r2, #2
 8004688:	0006      	movs	r6, r0
 800468a:	009b      	lsls	r3, r3, #2
        app->last_stable_w_g = w;
 800468c:	50a7      	str	r7, [r4, r2]
    if (jitter > (float)DRINK_STABLE_BAND_G) {
 800468e:	2800      	cmp	r0, #0
 8004690:	d000      	beq.n	8004694 <App_Run.constprop.0+0x149e>
 8004692:	e691      	b.n	80043b8 <App_Run.constprop.0+0x11c2>
    if (now - app->stable_since_ms < DRINK_SETTLE_MS) return;
 8004694:	58e3      	ldr	r3, [r4, r3]
 8004696:	1aed      	subs	r5, r5, r3
 8004698:	4bad      	ldr	r3, [pc, #692]	@ (8004950 <App_Run.constprop.0+0x175a>)
 800469a:	429d      	cmp	r5, r3
 800469c:	d800      	bhi.n	80046a0 <App_Run.constprop.0+0x14aa>
 800469e:	e68c      	b.n	80043ba <App_Run.constprop.0+0x11c4>
    float delta = app->drink_baseline_g - w;
 80046a0:	25b1      	movs	r5, #177	@ 0xb1
 80046a2:	00ad      	lsls	r5, r5, #2
 80046a4:	5963      	ldr	r3, [r4, r5]
 80046a6:	1c39      	adds	r1, r7, #0
 80046a8:	1c18      	adds	r0, r3, #0
 80046aa:	9303      	str	r3, [sp, #12]
 80046ac:	f001 fc24 	bl	8005ef8 <__aeabi_fsub>
    if (delta >= (float)DRINK_MIN_VOLUME_ML) {
 80046b0:	49a8      	ldr	r1, [pc, #672]	@ (8004954 <App_Run.constprop.0+0x175e>)
    float delta = app->drink_baseline_g - w;
 80046b2:	9004      	str	r0, [sp, #16]
    if (delta >= (float)DRINK_MIN_VOLUME_ML) {
 80046b4:	f000 fea2 	bl	80053fc <__aeabi_fcmpge>
 80046b8:	2800      	cmp	r0, #0
 80046ba:	d05c      	beq.n	8004776 <App_Run.constprop.0+0x1580>
    DrinkEvent_t ev = {0};
 80046bc:	2356      	movs	r3, #86	@ 0x56
 80046be:	aa04      	add	r2, sp, #16
 80046c0:	189b      	adds	r3, r3, r2
 80046c2:	801e      	strh	r6, [r3, #0]
    ev.unix_time  = app->rtc.unix_approx;
 80046c4:	0023      	movs	r3, r4
 80046c6:	3308      	adds	r3, #8
 80046c8:	6fdb      	ldr	r3, [r3, #124]	@ 0x7c
    ev.volume_ml  = (uint16_t)volume_ml;
 80046ca:	9804      	ldr	r0, [sp, #16]
    ev.unix_time  = app->rtc.unix_approx;
 80046cc:	9303      	str	r3, [sp, #12]
    ev.volume_ml  = (uint16_t)volume_ml;
 80046ce:	f000 fec3 	bl	8005458 <__aeabi_f2uiz>
    ev.purity_ppm = app->current_tds_ppm;
 80046d2:	23a5      	movs	r3, #165	@ 0xa5
    if (log->count >= STORAGE_MAX_DRINK_EVENTS) {
 80046d4:	26ee      	movs	r6, #238	@ 0xee
 80046d6:	009b      	lsls	r3, r3, #2
 80046d8:	5ae3      	ldrh	r3, [r4, r3]
 80046da:	0076      	lsls	r6, r6, #1
 80046dc:	9304      	str	r3, [sp, #16]
    ev.temp_x10   = app->current_temp_x10;
 80046de:	4b9e      	ldr	r3, [pc, #632]	@ (8004958 <App_Run.constprop.0+0x1762>)
    ev.volume_ml  = (uint16_t)volume_ml;
 80046e0:	b285      	uxth	r5, r0
    ev.temp_x10   = app->current_temp_x10;
 80046e2:	5ee3      	ldrsh	r3, [r4, r3]
 80046e4:	9305      	str	r3, [sp, #20]
 80046e6:	5da3      	ldrb	r3, [r4, r6]
 80046e8:	2b13      	cmp	r3, #19
 80046ea:	d906      	bls.n	80046fa <App_Run.constprop.0+0x1504>
        memmove(&log->events[0], &log->events[1],
 80046ec:	22e4      	movs	r2, #228	@ 0xe4
 80046ee:	499b      	ldr	r1, [pc, #620]	@ (800495c <App_Run.constprop.0+0x1766>)
 80046f0:	489b      	ldr	r0, [pc, #620]	@ (8004960 <App_Run.constprop.0+0x176a>)
 80046f2:	f002 fe01 	bl	80072f8 <memmove>
        log->count = STORAGE_MAX_DRINK_EVENTS - 1U;
 80046f6:	2313      	movs	r3, #19
 80046f8:	55a3      	strb	r3, [r4, r6]
    log->events[log->count++] = *ev;
 80046fa:	23ee      	movs	r3, #238	@ 0xee
 80046fc:	4c99      	ldr	r4, [pc, #612]	@ (8004964 <App_Run.constprop.0+0x176e>)
 80046fe:	005b      	lsls	r3, r3, #1
 8004700:	5ce1      	ldrb	r1, [r4, r3]
 8004702:	1c4a      	adds	r2, r1, #1
 8004704:	54e2      	strb	r2, [r4, r3]
 8004706:	9b03      	ldr	r3, [sp, #12]
 8004708:	aa17      	add	r2, sp, #92	@ 0x5c
 800470a:	9317      	str	r3, [sp, #92]	@ 0x5c
 800470c:	9b04      	ldr	r3, [sp, #16]
 800470e:	8095      	strh	r5, [r2, #4]
 8004710:	80d3      	strh	r3, [r2, #6]
 8004712:	9b05      	ldr	r3, [sp, #20]
 8004714:	8113      	strh	r3, [r2, #8]
 8004716:	230c      	movs	r3, #12
 8004718:	434b      	muls	r3, r1
 800471a:	18e3      	adds	r3, r4, r3
 800471c:	33ec      	adds	r3, #236	@ 0xec
 800471e:	ca43      	ldmia	r2!, {r0, r1, r6}
 8004720:	c343      	stmia	r3!, {r0, r1, r6}
    log->dirty = 1;
 8004722:	23de      	movs	r3, #222	@ 0xde
 8004724:	2201      	movs	r2, #1
 8004726:	33ff      	adds	r3, #255	@ 0xff
 8004728:	54e2      	strb	r2, [r4, r3]
    app->consumed_today_ml += ev.volume_ml;
 800472a:	33ff      	adds	r3, #255	@ 0xff
 800472c:	5ae2      	ldrh	r2, [r4, r3]
 800472e:	2664      	movs	r6, #100	@ 0x64
 8004730:	18ad      	adds	r5, r5, r2
 8004732:	b2a8      	uxth	r0, r5
 8004734:	52e0      	strh	r0, [r4, r3]
 8004736:	0023      	movs	r3, r4
 8004738:	33ac      	adds	r3, #172	@ 0xac
 800473a:	881a      	ldrh	r2, [r3, #0]
    if (goal_ml == 0U) return 100U;
 800473c:	0033      	movs	r3, r6
 800473e:	ba51      	rev16	r1, r2
 8004740:	b289      	uxth	r1, r1
 8004742:	2a00      	cmp	r2, #0
 8004744:	d006      	beq.n	8004754 <App_Run.constprop.0+0x155e>
    uint32_t score = ((uint32_t)app->consumed_today_ml * 100U) / goal_ml;
 8004746:	4370      	muls	r0, r6
 8004748:	f000 fcb2 	bl	80050b0 <__udivsi3>
    if (goal_ml == 0U) return 100U;
 800474c:	0033      	movs	r3, r6
    return (uint8_t)(score > 100U ? 100U : score);
 800474e:	42b0      	cmp	r0, r6
 8004750:	d800      	bhi.n	8004754 <App_Run.constprop.0+0x155e>
 8004752:	b2c3      	uxtb	r3, r0
    WS2812B_SetPattern(LED_PATTERN_DRINK_CONFIRM);
 8004754:	2008      	movs	r0, #8
    app->hydration_score    = App_CalcHydrationScore(app);
 8004756:	4a84      	ldr	r2, [pc, #528]	@ (8004968 <App_Run.constprop.0+0x1772>)
 8004758:	54a3      	strb	r3, [r4, r2]
    WS2812B_SetPattern(LED_PATTERN_DRINK_CONFIRM);
 800475a:	f7fb fe59 	bl	8000410 <WS2812B_SetPattern>
    Buzzer_Play(BUZZER_SINGLE_BEEP);
 800475e:	3805      	subs	r0, #5
 8004760:	f7fc ff1e 	bl	80015a0 <Buzzer_Play>
    Storage_UpdateDailySummary(&app->daily_log, &app->drink_log, app->rtc.unix_approx);
 8004764:	0023      	movs	r3, r4
 8004766:	3308      	adds	r3, #8
 8004768:	6fd8      	ldr	r0, [r3, #124]	@ 0x7c
 800476a:	f7fe fc9f 	bl	80030ac <Storage_UpdateDailySummary.constprop.0>
        app->drink_baseline_g = w;
 800476e:	23b1      	movs	r3, #177	@ 0xb1
 8004770:	009b      	lsls	r3, r3, #2
 8004772:	50e7      	str	r7, [r4, r3]
 8004774:	e621      	b.n	80043ba <App_Run.constprop.0+0x11c4>
    } else if (w > app->drink_baseline_g + (float)DRINK_STABLE_BAND_G) {
 8004776:	4975      	ldr	r1, [pc, #468]	@ (800494c <App_Run.constprop.0+0x1756>)
 8004778:	9803      	ldr	r0, [sp, #12]
 800477a:	f000 fea3 	bl	80054c4 <__aeabi_fadd>
 800477e:	1c01      	adds	r1, r0, #0
 8004780:	1c38      	adds	r0, r7, #0
 8004782:	f000 fe31 	bl	80053e8 <__aeabi_fcmpgt>
 8004786:	2800      	cmp	r0, #0
 8004788:	d100      	bne.n	800478c <App_Run.constprop.0+0x1596>
 800478a:	e616      	b.n	80043ba <App_Run.constprop.0+0x11c4>
        app->drink_baseline_g = w;
 800478c:	5167      	str	r7, [r4, r5]
 800478e:	e614      	b.n	80043ba <App_Run.constprop.0+0x11c4>
        app->purity_alert_active = 0;
 8004790:	2300      	movs	r3, #0
 8004792:	54a3      	strb	r3, [r4, r2]
 8004794:	e647      	b.n	8004426 <App_Run.constprop.0+0x1230>
        app->temp_alert_active = 0;
 8004796:	2300      	movs	r3, #0
 8004798:	54a3      	strb	r3, [r4, r2]
 800479a:	e668      	b.n	800446e <App_Run.constprop.0+0x1278>
    if (charging && app->dev.state != DEV_STATE_CHARGING &&
 800479c:	2b01      	cmp	r3, #1
 800479e:	d904      	bls.n	80047aa <App_Run.constprop.0+0x15b4>
        WS2812B_SetChargingLevel(app->current_bat_pct);
 80047a0:	f7fb fe50 	bl	8000444 <WS2812B_SetChargingLevel>
 80047a4:	200c      	movs	r0, #12
 80047a6:	f7fc fbc9 	bl	8000f3c <Device_PostEvent.part.0.constprop.0>
uint8_t Battery_IsLow(Battery_Handle_t *hbat)      { return (hbat->percent <= BAT_LOW_THRESHOLD_PCT)  ? 1U : 0U; }
 80047aa:	1d63      	adds	r3, r4, #5
 80047ac:	7fdb      	ldrb	r3, [r3, #31]
 80047ae:	2b0a      	cmp	r3, #10
 80047b0:	d80b      	bhi.n	80047ca <App_Run.constprop.0+0x15d4>
        if (now - app->dev.last_low_bat_ms > 3600000UL) {
 80047b2:	0022      	movs	r2, r4
 80047b4:	329c      	adds	r2, #156	@ 0x9c
 80047b6:	6f69      	ldr	r1, [r5, #116]	@ 0x74
 80047b8:	6813      	ldr	r3, [r2, #0]
 80047ba:	486c      	ldr	r0, [pc, #432]	@ (800496c <App_Run.constprop.0+0x1776>)
 80047bc:	1acb      	subs	r3, r1, r3
 80047be:	4283      	cmp	r3, r0
 80047c0:	d903      	bls.n	80047ca <App_Run.constprop.0+0x15d4>
 80047c2:	200e      	movs	r0, #14
            app->dev.last_low_bat_ms = now;
 80047c4:	6011      	str	r1, [r2, #0]
 80047c6:	f7fc fbb9 	bl	8000f3c <Device_PostEvent.part.0.constprop.0>
    if (now - app->last_ble_poll_ms>= APP_BLE_STATE_POLL_MS) App_TaskBLE(app);
 80047ca:	22ab      	movs	r2, #171	@ 0xab
 80047cc:	0092      	lsls	r2, r2, #2
 80047ce:	9902      	ldr	r1, [sp, #8]
 80047d0:	58a3      	ldr	r3, [r4, r2]
 80047d2:	1acb      	subs	r3, r1, r3
 80047d4:	21fa      	movs	r1, #250	@ 0xfa
 80047d6:	0089      	lsls	r1, r1, #2
 80047d8:	428b      	cmp	r3, r1
 80047da:	d30f      	bcc.n	80047fc <App_Run.constprop.0+0x1606>
 80047dc:	4b64      	ldr	r3, [pc, #400]	@ (8004970 <App_Run.constprop.0+0x177a>)
 80047de:	6f5b      	ldr	r3, [r3, #116]	@ 0x74
    app->last_ble_poll_ms = HAL_GetTick();
 80047e0:	50a3      	str	r3, [r4, r2]
  if ((GPIOx->IDR & GPIO_Pin) != (uint32_t)GPIO_PIN_RESET)
 80047e2:	2390      	movs	r3, #144	@ 0x90
 80047e4:	05db      	lsls	r3, r3, #23
 80047e6:	6919      	ldr	r1, [r3, #16]
 80047e8:	2280      	movs	r2, #128	@ 0x80
 80047ea:	0008      	movs	r0, r1
 80047ec:	0023      	movs	r3, r4
 80047ee:	0212      	lsls	r2, r2, #8
 80047f0:	4010      	ands	r0, r2
 80047f2:	3373      	adds	r3, #115	@ 0x73
 80047f4:	4211      	tst	r1, r2
 80047f6:	d000      	beq.n	80047fa <App_Run.constprop.0+0x1604>
 80047f8:	e08a      	b.n	8004910 <App_Run.constprop.0+0x171a>
}

/* ─── Connection state — BLE_PollState inlined here ─────────────────────── */
uint8_t BLE_IsConnected(BLE_Handle_t *hble)
{
    hble->conn_state = (HAL_GPIO_ReadPin(BLE_STATE_GPIO_Port, BLE_STATE_Pin) == GPIO_PIN_SET)
 80047fa:	7018      	strb	r0, [r3, #0]
    if (now - app->last_reminder_ms>= APP_REMINDER_CHECK_MS) App_TaskReminder(app);
 80047fc:	22ac      	movs	r2, #172	@ 0xac
 80047fe:	0092      	lsls	r2, r2, #2
 8004800:	9902      	ldr	r1, [sp, #8]
 8004802:	58a3      	ldr	r3, [r4, r2]
 8004804:	1acb      	subs	r3, r1, r3
 8004806:	495b      	ldr	r1, [pc, #364]	@ (8004974 <App_Run.constprop.0+0x177e>)
 8004808:	428b      	cmp	r3, r1
 800480a:	d954      	bls.n	80048b6 <App_Run.constprop.0+0x16c0>
 800480c:	4b58      	ldr	r3, [pc, #352]	@ (8004970 <App_Run.constprop.0+0x177a>)
 800480e:	6f5b      	ldr	r3, [r3, #116]	@ 0x74
    app->last_reminder_ms = HAL_GetTick();
 8004810:	50a3      	str	r3, [r4, r2]
    if (app->dev.state != DEV_STATE_ACTIVE) return;
 8004812:	0023      	movs	r3, r4
 8004814:	338c      	adds	r3, #140	@ 0x8c
 8004816:	781b      	ldrb	r3, [r3, #0]
 8004818:	2b04      	cmp	r3, #4
 800481a:	d14c      	bne.n	80048b6 <App_Run.constprop.0+0x16c0>
    RTC_Read(&app->rtc);
 800481c:	f7fc fca4 	bl	8001168 <RTC_Read.constprop.0>
    if (!RTC_IsInWindow(&app->rtc.now,
 8004820:	0023      	movs	r3, r4
 8004822:	33b0      	adds	r3, #176	@ 0xb0
 8004824:	7818      	ldrb	r0, [r3, #0]
 8004826:	0023      	movs	r3, r4
 8004828:	33b1      	adds	r3, #177	@ 0xb1
 800482a:	7819      	ldrb	r1, [r3, #0]
/* ─── Reminder window check ──────────────────────────────────────────────── */
uint8_t RTC_IsInWindow(const RTC_DateTime_t *dt,
                        uint8_t h_start, uint8_t m_start,
                        uint8_t h_end,   uint8_t m_end)
{
    uint16_t now_min   = (uint16_t)dt->hours   * 60U + dt->minutes;
 800482c:	0023      	movs	r3, r4
 800482e:	337e      	adds	r3, #126	@ 0x7e
 8004830:	781d      	ldrb	r5, [r3, #0]
 8004832:	233c      	movs	r3, #60	@ 0x3c
 8004834:	0022      	movs	r2, r4
 8004836:	435d      	muls	r5, r3
 8004838:	327d      	adds	r2, #125	@ 0x7d
 800483a:	7812      	ldrb	r2, [r2, #0]
 800483c:	1952      	adds	r2, r2, r5
 800483e:	0025      	movs	r5, r4
 8004840:	35ae      	adds	r5, #174	@ 0xae
    uint16_t start_min = (uint16_t)h_start * 60U + m_start;
 8004842:	782f      	ldrb	r7, [r5, #0]
 8004844:	0025      	movs	r5, r4
 8004846:	435f      	muls	r7, r3
 8004848:	35af      	adds	r5, #175	@ 0xaf
 800484a:	782d      	ldrb	r5, [r5, #0]
    uint16_t end_min   = (uint16_t)h_end   * 60U + m_end;
    return (now_min >= start_min && now_min <= end_min) ? 1U : 0U;
 800484c:	19ed      	adds	r5, r5, r7
 800484e:	42aa      	cmp	r2, r5
 8004850:	d331      	bcc.n	80048b6 <App_Run.constprop.0+0x16c0>
    uint16_t end_min   = (uint16_t)h_end   * 60U + m_end;
 8004852:	4358      	muls	r0, r3
    return (now_min >= start_min && now_min <= end_min) ? 1U : 0U;
 8004854:	1809      	adds	r1, r1, r0
 8004856:	428a      	cmp	r2, r1
 8004858:	d82d      	bhi.n	80048b6 <App_Run.constprop.0+0x16c0>
    uint32_t freq_sec = (uint32_t)app->settings.prefs.remind_freq_min * 60UL;
 800485a:	0022      	movs	r2, r4
 800485c:	32b2      	adds	r2, #178	@ 0xb2
 800485e:	7812      	ldrb	r2, [r2, #0]
 8004860:	4353      	muls	r3, r2
    if (freq_sec == 0U) freq_sec = 3600U;
 8004862:	2b00      	cmp	r3, #0
 8004864:	d101      	bne.n	800486a <App_Run.constprop.0+0x1674>
 8004866:	23e1      	movs	r3, #225	@ 0xe1
 8004868:	011b      	lsls	r3, r3, #4
    if (app->rtc.unix_approx - last_reminder_unix < freq_sec) return;
 800486a:	0022      	movs	r2, r4
 800486c:	4942      	ldr	r1, [pc, #264]	@ (8004978 <App_Run.constprop.0+0x1782>)
 800486e:	3208      	adds	r2, #8
 8004870:	6fd0      	ldr	r0, [r2, #124]	@ 0x7c
 8004872:	6fca      	ldr	r2, [r1, #124]	@ 0x7c
 8004874:	1a82      	subs	r2, r0, r2
 8004876:	429a      	cmp	r2, r3
 8004878:	d31d      	bcc.n	80048b6 <App_Run.constprop.0+0x16c0>
 800487a:	0023      	movs	r3, r4
 800487c:	33ac      	adds	r3, #172	@ 0xac
 800487e:	881b      	ldrh	r3, [r3, #0]
    last_reminder_unix = app->rtc.unix_approx;
 8004880:	67c8      	str	r0, [r1, #124]	@ 0x7c
 8004882:	ba59      	rev16	r1, r3
 8004884:	4d38      	ldr	r5, [pc, #224]	@ (8004968 <App_Run.constprop.0+0x1772>)
 8004886:	b289      	uxth	r1, r1
    if (goal_ml == 0U) return 100U;
 8004888:	2b00      	cmp	r3, #0
 800488a:	d14c      	bne.n	8004926 <App_Run.constprop.0+0x1730>
    app->hydration_score = App_CalcHydrationScore(app);
 800488c:	2364      	movs	r3, #100	@ 0x64
 800488e:	5563      	strb	r3, [r4, r5]
        RGB_t col = RGB(app->settings.prefs.remind_r,
 8004890:	0023      	movs	r3, r4
 8004892:	33b4      	adds	r3, #180	@ 0xb4
 8004894:	7819      	ldrb	r1, [r3, #0]
 8004896:	0020      	movs	r0, r4
 8004898:	0023      	movs	r3, r4
 800489a:	30b3      	adds	r0, #179	@ 0xb3
 800489c:	33b5      	adds	r3, #181	@ 0xb5
void WS2812B_SetCustomReminderColor(RGB_t c)   { s_custom_remind = c;    }
 800489e:	7800      	ldrb	r0, [r0, #0]
 80048a0:	781a      	ldrb	r2, [r3, #0]
 80048a2:	4b36      	ldr	r3, [pc, #216]	@ (800497c <App_Run.constprop.0+0x1786>)
 80048a4:	7218      	strb	r0, [r3, #8]
        WS2812B_SetPattern(LED_PATTERN_HYDRATION_HIGH);
 80048a6:	2002      	movs	r0, #2
 80048a8:	7259      	strb	r1, [r3, #9]
 80048aa:	729a      	strb	r2, [r3, #10]
        WS2812B_SetPattern(LED_PATTERN_HYDRATION_LOW);
 80048ac:	f7fb fdb0 	bl	8000410 <WS2812B_SetPattern>
    Buzzer_Play(BUZZER_DOUBLE_BEEP);
 80048b0:	2002      	movs	r0, #2
 80048b2:	f7fc fe75 	bl	80015a0 <Buzzer_Play>
    if (now - app->last_button_ms  >= APP_BUTTON_POLL_MS)    App_TaskButton(app);
 80048b6:	21ad      	movs	r1, #173	@ 0xad
 80048b8:	0089      	lsls	r1, r1, #2
 80048ba:	5863      	ldr	r3, [r4, r1]
 80048bc:	9a02      	ldr	r2, [sp, #8]
 80048be:	1ad3      	subs	r3, r2, r3
 80048c0:	2b31      	cmp	r3, #49	@ 0x31
 80048c2:	d964      	bls.n	800498e <App_Run.constprop.0+0x1798>
    if (down && !app->btn_was_down) {
 80048c4:	25ae      	movs	r5, #174	@ 0xae
 80048c6:	2708      	movs	r7, #8
 80048c8:	4a29      	ldr	r2, [pc, #164]	@ (8004970 <App_Run.constprop.0+0x177a>)
 80048ca:	00ad      	lsls	r5, r5, #2
 80048cc:	6f53      	ldr	r3, [r2, #116]	@ 0x74
    app->last_button_ms = HAL_GetTick();
 80048ce:	5063      	str	r3, [r4, r1]
 80048d0:	4b2b      	ldr	r3, [pc, #172]	@ (8004980 <App_Run.constprop.0+0x178a>)
 80048d2:	6919      	ldr	r1, [r3, #16]
    if (down && !app->btn_was_down) {
 80048d4:	5d63      	ldrb	r3, [r4, r5]
 80048d6:	4239      	tst	r1, r7
 80048d8:	d156      	bne.n	8004988 <App_Run.constprop.0+0x1792>
 80048da:	20b0      	movs	r0, #176	@ 0xb0
 80048dc:	6f51      	ldr	r1, [r2, #116]	@ 0x74
 80048de:	22af      	movs	r2, #175	@ 0xaf
 80048e0:	0080      	lsls	r0, r0, #2
 80048e2:	0092      	lsls	r2, r2, #2
 80048e4:	2b00      	cmp	r3, #0
 80048e6:	d100      	bne.n	80048ea <App_Run.constprop.0+0x16f4>
 80048e8:	e0ab      	b.n	8004a42 <App_Run.constprop.0+0x184c>
        uint32_t held = now - app->btn_down_ms;
 80048ea:	58a3      	ldr	r3, [r4, r2]
        if (!app->btn_reset_armed && held >= BTN_VLONG_PRESS_MS) {
 80048ec:	5c25      	ldrb	r5, [r4, r0]
        uint32_t held = now - app->btn_down_ms;
 80048ee:	1acb      	subs	r3, r1, r3
        if (!app->btn_reset_armed && held >= BTN_VLONG_PRESS_MS) {
 80048f0:	2d00      	cmp	r5, #0
 80048f2:	d000      	beq.n	80048f6 <App_Run.constprop.0+0x1700>
 80048f4:	e0aa      	b.n	8004a4c <App_Run.constprop.0+0x1856>
 80048f6:	4d23      	ldr	r5, [pc, #140]	@ (8004984 <App_Run.constprop.0+0x178e>)
 80048f8:	42ab      	cmp	r3, r5
 80048fa:	d948      	bls.n	800498e <App_Run.constprop.0+0x1798>
            app->btn_reset_armed = 1;
 80048fc:	2301      	movs	r3, #1
 80048fe:	5423      	strb	r3, [r4, r0]
            WS2812B_SetPattern(LED_PATTERN_FACTORY_RESET_WARN);
 8004900:	200e      	movs	r0, #14
            app->btn_down_ms     = now;
 8004902:	50a1      	str	r1, [r4, r2]
            WS2812B_SetPattern(LED_PATTERN_FACTORY_RESET_WARN);
 8004904:	f7fb fd84 	bl	8000410 <WS2812B_SetPattern>
            Buzzer_Play(BUZZER_FACTORY_RESET);
 8004908:	0038      	movs	r0, r7
 800490a:	f7fc fe49 	bl	80015a0 <Buzzer_Play>
 800490e:	e03e      	b.n	800498e <App_Run.constprop.0+0x1798>
 8004910:	2201      	movs	r2, #1
 8004912:	701a      	strb	r2, [r3, #0]
    if (BLE_IsConnected(&app->ble) && app->drink_log.dirty)
 8004914:	23de      	movs	r3, #222	@ 0xde
 8004916:	33ff      	adds	r3, #255	@ 0xff
 8004918:	5ce3      	ldrb	r3, [r4, r3]
 800491a:	2b00      	cmp	r3, #0
 800491c:	d100      	bne.n	8004920 <App_Run.constprop.0+0x172a>
 800491e:	e76d      	b.n	80047fc <App_Run.constprop.0+0x1606>
        Storage_FlushDrinkLog(&app->drink_log);
 8004920:	f7fd fc8a 	bl	8002238 <Storage_FlushDrinkLog.constprop.0>
 8004924:	e76a      	b.n	80047fc <App_Run.constprop.0+0x1606>
    uint32_t score = ((uint32_t)app->consumed_today_ml * 100U) / goal_ml;
 8004926:	23b7      	movs	r3, #183	@ 0xb7
 8004928:	2064      	movs	r0, #100	@ 0x64
 800492a:	009b      	lsls	r3, r3, #2
 800492c:	5ae3      	ldrh	r3, [r4, r3]
 800492e:	4358      	muls	r0, r3
 8004930:	f000 fbbe 	bl	80050b0 <__udivsi3>
    return (uint8_t)(score > 100U ? 100U : score);
 8004934:	2864      	cmp	r0, #100	@ 0x64
 8004936:	d8a9      	bhi.n	800488c <App_Run.constprop.0+0x1696>
 8004938:	b2c0      	uxtb	r0, r0
    app->hydration_score = App_CalcHydrationScore(app);
 800493a:	5560      	strb	r0, [r4, r5]
    if (app->hydration_score > HYDRATION_SCORE_HIGH) {
 800493c:	2850      	cmp	r0, #80	@ 0x50
 800493e:	d8a7      	bhi.n	8004890 <App_Run.constprop.0+0x169a>
    } else if (app->hydration_score >= HYDRATION_SCORE_MID) {
 8004940:	2831      	cmp	r0, #49	@ 0x31
 8004942:	d901      	bls.n	8004948 <App_Run.constprop.0+0x1752>
        WS2812B_SetPattern(LED_PATTERN_HYDRATION_MID);
 8004944:	2003      	movs	r0, #3
 8004946:	e7b1      	b.n	80048ac <App_Run.constprop.0+0x16b6>
        WS2812B_SetPattern(LED_PATTERN_HYDRATION_LOW);
 8004948:	2004      	movs	r0, #4
 800494a:	e7af      	b.n	80048ac <App_Run.constprop.0+0x16b6>
 800494c:	40400000 	.word	0x40400000
 8004950:	00000bb7 	.word	0x00000bb7
 8004954:	41200000 	.word	0x41200000
 8004958:	00000296 	.word	0x00000296
 800495c:	20000634 	.word	0x20000634
 8004960:	20000628 	.word	0x20000628
 8004964:	2000053c 	.word	0x2000053c
 8004968:	000002de 	.word	0x000002de
 800496c:	0036ee80 	.word	0x0036ee80
 8004970:	20000080 	.word	0x20000080
 8004974:	0000ea5f 	.word	0x0000ea5f
 8004978:	20000200 	.word	0x20000200
 800497c:	20000000 	.word	0x20000000
 8004980:	48000400 	.word	0x48000400
 8004984:	0000270f 	.word	0x0000270f
 8004988:	6f52      	ldr	r2, [r2, #116]	@ 0x74
    } else if (!down && app->btn_was_down) {
 800498a:	2b00      	cmp	r3, #0
 800498c:	d162      	bne.n	8004a54 <App_Run.constprop.0+0x185e>
    uint32_t today_midnight = (app->rtc.unix_approx / 86400UL) * 86400UL;
 800498e:	0023      	movs	r3, r4
 8004990:	3308      	adds	r3, #8
 8004992:	6fdd      	ldr	r5, [r3, #124]	@ 0x7c
 8004994:	4966      	ldr	r1, [pc, #408]	@ (8004b30 <App_Run.constprop.0+0x193a>)
 8004996:	0028      	movs	r0, r5
 8004998:	f000 fb8a 	bl	80050b0 <__udivsi3>
    if (today_midnight == app->current_day_unix) return;
 800499c:	23b8      	movs	r3, #184	@ 0xb8
    uint32_t today_midnight = (app->rtc.unix_approx / 86400UL) * 86400UL;
 800499e:	4f64      	ldr	r7, [pc, #400]	@ (8004b30 <App_Run.constprop.0+0x193a>)
    if (today_midnight == app->current_day_unix) return;
 80049a0:	009b      	lsls	r3, r3, #2
    uint32_t today_midnight = (app->rtc.unix_approx / 86400UL) * 86400UL;
 80049a2:	4347      	muls	r7, r0
    if (today_midnight == app->current_day_unix) return;
 80049a4:	58e2      	ldr	r2, [r4, r3]
 80049a6:	4297      	cmp	r7, r2
 80049a8:	d029      	beq.n	80049fe <App_Run.constprop.0+0x1808>
    app->consumed_today_ml = 0;
 80049aa:	22b7      	movs	r2, #183	@ 0xb7
    app->current_day_unix  = today_midnight;
 80049ac:	50e7      	str	r7, [r4, r3]
    app->consumed_today_ml = 0;
 80049ae:	2300      	movs	r3, #0
 80049b0:	0092      	lsls	r2, r2, #2
 80049b2:	52a3      	strh	r3, [r4, r2]
    app->hydration_score   = 0;
 80049b4:	4a5f      	ldr	r2, [pc, #380]	@ (8004b34 <App_Run.constprop.0+0x193e>)
    Storage_UpdateDailySummary(&app->daily_log, &app->drink_log, app->rtc.unix_approx);
 80049b6:	0028      	movs	r0, r5
    app->hydration_score   = 0;
 80049b8:	54a3      	strb	r3, [r4, r2]
    Storage_UpdateDailySummary(&app->daily_log, &app->drink_log, app->rtc.unix_approx);
 80049ba:	f7fe fb77 	bl	80030ac <Storage_UpdateDailySummary.constprop.0>
    if (!daily->dirty) return;
 80049be:	4b5e      	ldr	r3, [pc, #376]	@ (8004b38 <App_Run.constprop.0+0x1942>)
 80049c0:	4e5e      	ldr	r6, [pc, #376]	@ (8004b3c <App_Run.constprop.0+0x1946>)
 80049c2:	5ce3      	ldrb	r3, [r4, r3]
 80049c4:	2b00      	cmp	r3, #0
 80049c6:	d007      	beq.n	80049d8 <App_Run.constprop.0+0x17e2>
    Flash_ErasePage(STORAGE_DAILY_ADDR);
 80049c8:	485d      	ldr	r0, [pc, #372]	@ (8004b40 <App_Run.constprop.0+0x194a>)
 80049ca:	f7fd fc07 	bl	80021dc <Flash_ErasePage.isra.0>
    Flash_WriteBytes(STORAGE_DAILY_ADDR, (const uint8_t *)daily,
 80049ce:	22ac      	movs	r2, #172	@ 0xac
 80049d0:	0031      	movs	r1, r6
 80049d2:	485b      	ldr	r0, [pc, #364]	@ (8004b40 <App_Run.constprop.0+0x194a>)
 80049d4:	f7fd fbb7 	bl	8002146 <Flash_WriteBytes.isra.0>
    Storage_PurgeDailySummaryOlderThan(&app->daily_log, today_midnight - 30UL * 86400UL);
 80049d8:	4b5a      	ldr	r3, [pc, #360]	@ (8004b44 <App_Run.constprop.0+0x194e>)
    for (uint8_t i = 0; i < daily->count; i++)
 80049da:	2200      	movs	r2, #0
 80049dc:	469c      	mov	ip, r3
 80049de:	23a2      	movs	r3, #162	@ 0xa2
 80049e0:	009b      	lsls	r3, r3, #2
 80049e2:	5ce3      	ldrb	r3, [r4, r3]
 80049e4:	0031      	movs	r1, r6
 80049e6:	9302      	str	r3, [sp, #8]
    uint8_t new_count = 0;
 80049e8:	0013      	movs	r3, r2
 80049ea:	44bc      	add	ip, r7
    for (uint8_t i = 0; i < daily->count; i++)
 80049ec:	9802      	ldr	r0, [sp, #8]
 80049ee:	4282      	cmp	r2, r0
 80049f0:	d13e      	bne.n	8004a70 <App_Run.constprop.0+0x187a>
    daily->count = new_count;
 80049f2:	22a2      	movs	r2, #162	@ 0xa2
 80049f4:	0092      	lsls	r2, r2, #2
 80049f6:	54a3      	strb	r3, [r4, r2]
    daily->dirty = 1;
 80049f8:	2301      	movs	r3, #1
 80049fa:	4a4f      	ldr	r2, [pc, #316]	@ (8004b38 <App_Run.constprop.0+0x1942>)
 80049fc:	54a3      	strb	r3, [r4, r2]
    if (ws2812b_busy) return;
 80049fe:	4b52      	ldr	r3, [pc, #328]	@ (8004b48 <App_Run.constprop.0+0x1952>)
 8004a00:	7f1b      	ldrb	r3, [r3, #28]
 8004a02:	2b00      	cmp	r3, #0
 8004a04:	d101      	bne.n	8004a0a <App_Run.constprop.0+0x1814>
 8004a06:	f7fd fef9 	bl	80027fc <WS2812B_Update.part.0>

/* ─── Call every ms (SysTick or main-loop ≤ 1 ms) ──────────── */
void Buzzer_Update(void)
{
    if (!s_busy || !s_steps) return;
 8004a0a:	4c50      	ldr	r4, [pc, #320]	@ (8004b4c <App_Run.constprop.0+0x1956>)
 8004a0c:	7b23      	ldrb	r3, [r4, #12]
 8004a0e:	2b00      	cmp	r3, #0
 8004a10:	d015      	beq.n	8004a3e <App_Run.constprop.0+0x1848>
 8004a12:	68a6      	ldr	r6, [r4, #8]
 8004a14:	2e00      	cmp	r6, #0
 8004a16:	d012      	beq.n	8004a3e <App_Run.constprop.0+0x1848>

    const BuzzerStep_t *step = &s_steps[s_step_idx];
 8004a18:	4b4d      	ldr	r3, [pc, #308]	@ (8004b50 <App_Run.constprop.0+0x195a>)
 8004a1a:	4d4e      	ldr	r5, [pc, #312]	@ (8004b54 <App_Run.constprop.0+0x195e>)
 8004a1c:	781b      	ldrb	r3, [r3, #0]
 8004a1e:	9302      	str	r3, [sp, #8]
 8004a20:	2306      	movs	r3, #6
 8004a22:	9a02      	ldr	r2, [sp, #8]
 8004a24:	4353      	muls	r3, r2
    if (step->on_ms == 0 && step->off_ms == 0 && step->repeat == 0) {
 8004a26:	5af2      	ldrh	r2, [r6, r3]
    const BuzzerStep_t *step = &s_steps[s_step_idx];
 8004a28:	18f7      	adds	r7, r6, r3
    if (step->on_ms == 0 && step->off_ms == 0 && step->repeat == 0) {
 8004a2a:	2a00      	cmp	r2, #0
 8004a2c:	d133      	bne.n	8004a96 <App_Run.constprop.0+0x18a0>
 8004a2e:	887b      	ldrh	r3, [r7, #2]
 8004a30:	2b00      	cmp	r3, #0
 8004a32:	d130      	bne.n	8004a96 <App_Run.constprop.0+0x18a0>
 8004a34:	793b      	ldrb	r3, [r7, #4]
 8004a36:	2b00      	cmp	r3, #0
 8004a38:	d12d      	bne.n	8004a96 <App_Run.constprop.0+0x18a0>
        Buzzer_Stop(); return;
 8004a3a:	f7fb fc2f 	bl	800029c <Buzzer_Stop>
}
 8004a3e:	b025      	add	sp, #148	@ 0x94
 8004a40:	bdf0      	pop	{r4, r5, r6, r7, pc}
        app->btn_was_down    = 1;
 8004a42:	2601      	movs	r6, #1
        app->btn_down_ms     = now;
 8004a44:	50a1      	str	r1, [r4, r2]
        app->btn_was_down    = 1;
 8004a46:	5566      	strb	r6, [r4, r5]
        app->btn_reset_armed = 0;
 8004a48:	5423      	strb	r3, [r4, r0]
 8004a4a:	e7a0      	b.n	800498e <App_Run.constprop.0+0x1798>
        } else if (app->btn_reset_armed && held >= BTN_RESET_CONFIRM_MS) {
 8004a4c:	42b3      	cmp	r3, r6
 8004a4e:	d99e      	bls.n	800498e <App_Run.constprop.0+0x1798>
            App_Cmd_FactoryReset(app);
 8004a50:	f7fd fc3c 	bl	80022cc <App_Cmd_FactoryReset.constprop.0>
        if (app->btn_reset_armed) {
 8004a54:	26b0      	movs	r6, #176	@ 0xb0
 8004a56:	00b6      	lsls	r6, r6, #2
 8004a58:	5da3      	ldrb	r3, [r4, r6]
 8004a5a:	2b00      	cmp	r3, #0
 8004a5c:	d004      	beq.n	8004a68 <App_Run.constprop.0+0x1872>
            WS2812B_SetPattern(LED_PATTERN_ALL_OFF);
 8004a5e:	2001      	movs	r0, #1
 8004a60:	f7fb fcd6 	bl	8000410 <WS2812B_SetPattern>
            Buzzer_Stop();
 8004a64:	f7fb fc1a 	bl	800029c <Buzzer_Stop>
        app->btn_was_down    = 0;
 8004a68:	2300      	movs	r3, #0
 8004a6a:	5563      	strb	r3, [r4, r5]
        app->btn_reset_armed = 0;
 8004a6c:	55a3      	strb	r3, [r4, r6]
 8004a6e:	e78e      	b.n	800498e <App_Run.constprop.0+0x1798>
        if (daily->days[i].date_unix >= cutoff_unix)
 8004a70:	6808      	ldr	r0, [r1, #0]
 8004a72:	4584      	cmp	ip, r0
 8004a74:	d80b      	bhi.n	8004a8e <App_Run.constprop.0+0x1898>
            daily->days[new_count++] = daily->days[i];
 8004a76:	1c58      	adds	r0, r3, #1
 8004a78:	9003      	str	r0, [sp, #12]
 8004a7a:	200c      	movs	r0, #12
 8004a7c:	000e      	movs	r6, r1
 8004a7e:	4343      	muls	r3, r0
 8004a80:	18e3      	adds	r3, r4, r3
 8004a82:	33e1      	adds	r3, #225	@ 0xe1
 8004a84:	33ff      	adds	r3, #255	@ 0xff
 8004a86:	cea1      	ldmia	r6!, {r0, r5, r7}
 8004a88:	c3a1      	stmia	r3!, {r0, r5, r7}
 8004a8a:	466b      	mov	r3, sp
 8004a8c:	7b1b      	ldrb	r3, [r3, #12]
    for (uint8_t i = 0; i < daily->count; i++)
 8004a8e:	3201      	adds	r2, #1
 8004a90:	b2d2      	uxtb	r2, r2
 8004a92:	310c      	adds	r1, #12
 8004a94:	e7aa      	b.n	80049ec <App_Run.constprop.0+0x17f6>
    }

    uint32_t elapsed = HAL_GetTick() - s_step_start_ms;
 8004a96:	6ae9      	ldr	r1, [r5, #44]	@ 0x2c
 8004a98:	6f63      	ldr	r3, [r4, #116]	@ 0x74
 8004a9a:	1a5b      	subs	r3, r3, r1

    if (s_tone_on) {
 8004a9c:	7921      	ldrb	r1, [r4, #4]
 8004a9e:	2900      	cmp	r1, #0
 8004aa0:	d016      	beq.n	8004ad0 <App_Run.constprop.0+0x18da>
        if (elapsed >= step->on_ms) {
 8004aa2:	4293      	cmp	r3, r2
 8004aa4:	d3cb      	bcc.n	8004a3e <App_Run.constprop.0+0x1848>
            Buzzer_ToneOff();
 8004aa6:	f7fb fbb9 	bl	800021c <Buzzer_ToneOff>
 8004aaa:	6f63      	ldr	r3, [r4, #116]	@ 0x74
            s_step_start_ms = HAL_GetTick();
 8004aac:	62eb      	str	r3, [r5, #44]	@ 0x2c
            if (step->off_ms == 0) {
 8004aae:	887b      	ldrh	r3, [r7, #2]
 8004ab0:	2b00      	cmp	r3, #0
 8004ab2:	d1c4      	bne.n	8004a3e <App_Run.constprop.0+0x1848>
            }
        }
    } else {
        if (elapsed >= step->off_ms) {
            next_rep:
            s_rep_cnt++;
 8004ab4:	002a      	movs	r2, r5
 8004ab6:	3229      	adds	r2, #41	@ 0x29
 8004ab8:	7813      	ldrb	r3, [r2, #0]
 8004aba:	3301      	adds	r3, #1
 8004abc:	b2db      	uxtb	r3, r3
 8004abe:	7013      	strb	r3, [r2, #0]
            if (s_rep_cnt < step->repeat) {
 8004ac0:	7939      	ldrb	r1, [r7, #4]
 8004ac2:	4299      	cmp	r1, r3
 8004ac4:	d908      	bls.n	8004ad8 <App_Run.constprop.0+0x18e2>
 8004ac6:	6f63      	ldr	r3, [r4, #116]	@ 0x74
                s_step_start_ms = HAL_GetTick();
 8004ac8:	62eb      	str	r3, [r5, #44]	@ 0x2c
                const BuzzerStep_t *nxt = &s_steps[s_step_idx];
                if (nxt->on_ms == 0 && nxt->off_ms == 0) {
                    Buzzer_Stop(); return;
                }
                s_step_start_ms = HAL_GetTick();
                Buzzer_ToneOn(BUZZER_DEFAULT_FREQ);
 8004aca:	f7fc fd27 	bl	800151c <Buzzer_ToneOn.constprop.0>
}
 8004ace:	e7b6      	b.n	8004a3e <App_Run.constprop.0+0x1848>
        if (elapsed >= step->off_ms) {
 8004ad0:	887a      	ldrh	r2, [r7, #2]
 8004ad2:	4293      	cmp	r3, r2
 8004ad4:	d2ee      	bcs.n	8004ab4 <App_Run.constprop.0+0x18be>
 8004ad6:	e7b2      	b.n	8004a3e <App_Run.constprop.0+0x1848>
                s_rep_cnt = 0;
 8004ad8:	2100      	movs	r1, #0
 8004ada:	7011      	strb	r1, [r2, #0]
                const BuzzerStep_t *nxt = &s_steps[s_step_idx];
 8004adc:	2206      	movs	r2, #6
                s_step_idx++;
 8004ade:	9b02      	ldr	r3, [sp, #8]
 8004ae0:	3528      	adds	r5, #40	@ 0x28
 8004ae2:	3301      	adds	r3, #1
 8004ae4:	b2db      	uxtb	r3, r3
 8004ae6:	702b      	strb	r3, [r5, #0]
                const BuzzerStep_t *nxt = &s_steps[s_step_idx];
 8004ae8:	4353      	muls	r3, r2
 8004aea:	18f2      	adds	r2, r6, r3
                if (nxt->on_ms == 0 && nxt->off_ms == 0) {
 8004aec:	5af3      	ldrh	r3, [r6, r3]
 8004aee:	428b      	cmp	r3, r1
 8004af0:	d102      	bne.n	8004af8 <App_Run.constprop.0+0x1902>
 8004af2:	8853      	ldrh	r3, [r2, #2]
 8004af4:	428b      	cmp	r3, r1
 8004af6:	d0a0      	beq.n	8004a3a <App_Run.constprop.0+0x1844>
 8004af8:	6f62      	ldr	r2, [r4, #116]	@ 0x74
                s_step_start_ms = HAL_GetTick();
 8004afa:	4b16      	ldr	r3, [pc, #88]	@ (8004b54 <App_Run.constprop.0+0x195e>)
 8004afc:	62da      	str	r2, [r3, #44]	@ 0x2c
 8004afe:	e7e4      	b.n	8004aca <App_Run.constprop.0+0x18d4>
        if (evt == EVT_CMD_SOFT_RESET)    OnEnterState(ctx, DEV_STATE_SOFT_RESET_PENDING);
 8004b00:	2b09      	cmp	r3, #9
 8004b02:	d101      	bne.n	8004b08 <App_Run.constprop.0+0x1912>
 8004b04:	f7fe fcde 	bl	80034c4 <App_Run.constprop.0+0x2ce>
        if (evt == EVT_CMD_FACTORY_RESET) OnEnterState(ctx, DEV_STATE_FACTORY_RESET_PENDING);
 8004b08:	2b0a      	cmp	r3, #10
 8004b0a:	d001      	beq.n	8004b10 <App_Run.constprop.0+0x191a>
 8004b0c:	f7fe fc89 	bl	8003422 <App_Run.constprop.0+0x22c>
    ctx->state            = new_state;
 8004b10:	0023      	movs	r3, r4
 8004b12:	2209      	movs	r2, #9
 8004b14:	338c      	adds	r3, #140	@ 0x8c
 8004b16:	701a      	strb	r2, [r3, #0]
    ctx->state_entry_tick = HAL_GetTick();
 8004b18:	0023      	movs	r3, r4
        WS2812B_SetPattern(LED_PATTERN_FACTORY_RESET_WARN);
 8004b1a:	200e      	movs	r0, #14
 8004b1c:	6f6a      	ldr	r2, [r5, #116]	@ 0x74
    ctx->state_entry_tick = HAL_GetTick();
 8004b1e:	3398      	adds	r3, #152	@ 0x98
 8004b20:	601a      	str	r2, [r3, #0]
        WS2812B_SetPattern(LED_PATTERN_FACTORY_RESET_WARN);
 8004b22:	f7fb fc75 	bl	8000410 <WS2812B_SetPattern>
        Buzzer_Play(BUZZER_FACTORY_RESET);
 8004b26:	3806      	subs	r0, #6
        Buzzer_Play(BUZZER_REGISTRATION_OK);
 8004b28:	f7fc fd3a 	bl	80015a0 <Buzzer_Play>
        break;
 8004b2c:	f7fe fbad 	bl	800328a <App_Run.constprop.0+0x94>
 8004b30:	00015180 	.word	0x00015180
 8004b34:	000002de 	.word	0x000002de
 8004b38:	00000289 	.word	0x00000289
 8004b3c:	2000071c 	.word	0x2000071c
 8004b40:	08007c00 	.word	0x08007c00
 8004b44:	ffd87300 	.word	0xffd87300
 8004b48:	20000180 	.word	0x20000180
 8004b4c:	20000080 	.word	0x20000080
 8004b50:	20000128 	.word	0x20000128
 8004b54:	20000100 	.word	0x20000100

08004b58 <NMI_Handler>:
{
  /* USER CODE BEGIN NonMaskableInt_IRQn 0 */

  /* USER CODE END NonMaskableInt_IRQn 0 */
  /* USER CODE BEGIN NonMaskableInt_IRQn 1 */
   while (1)
 8004b58:	e7fe      	b.n	8004b58 <NMI_Handler>

08004b5a <HardFault_Handler>:
void HardFault_Handler(void)
{
  /* USER CODE BEGIN HardFault_IRQn 0 */

  /* USER CODE END HardFault_IRQn 0 */
  while (1)
 8004b5a:	e7fe      	b.n	8004b5a <HardFault_Handler>

08004b5c <SVC_Handler>:

  /* USER CODE END SVC_IRQn 0 */
  /* USER CODE BEGIN SVC_IRQn 1 */

  /* USER CODE END SVC_IRQn 1 */
}
 8004b5c:	4770      	bx	lr

08004b5e <PendSV_Handler>:

/**
  * @brief This function handles Pendable request for system service.
  */
void PendSV_Handler(void)
 8004b5e:	4770      	bx	lr

08004b60 <SysTick_Handler>:
  uwTick += uwTickFreq;
 8004b60:	4a02      	ldr	r2, [pc, #8]	@ (8004b6c <SysTick_Handler+0xc>)
 8004b62:	6f53      	ldr	r3, [r2, #116]	@ 0x74
 8004b64:	3301      	adds	r3, #1
 8004b66:	6753      	str	r3, [r2, #116]	@ 0x74
  /* USER CODE END SysTick_IRQn 0 */
  HAL_IncTick();
  /* USER CODE BEGIN SysTick_IRQn 1 */

  /* USER CODE END SysTick_IRQn 1 */
}
 8004b68:	4770      	bx	lr
 8004b6a:	46c0      	nop			@ (mov r8, r8)
 8004b6c:	20000080 	.word	0x20000080

08004b70 <EXTI0_1_IRQHandler>:
  * @retval None
  */
void HAL_GPIO_EXTI_IRQHandler(uint16_t GPIO_Pin)
{
  /* EXTI line interrupt detected */
  if(__HAL_GPIO_EXTI_GET_IT(GPIO_Pin) != 0x00u)
 8004b70:	2201      	movs	r2, #1
 8004b72:	4b04      	ldr	r3, [pc, #16]	@ (8004b84 <EXTI0_1_IRQHandler+0x14>)

/**
  * @brief This function handles EXTI line 0 and 1 interrupts.
  */
void EXTI0_1_IRQHandler(void)
{
 8004b74:	b510      	push	{r4, lr}
 8004b76:	6959      	ldr	r1, [r3, #20]
 8004b78:	4211      	tst	r1, r2
 8004b7a:	d002      	beq.n	8004b82 <EXTI0_1_IRQHandler+0x12>
  { 
    __HAL_GPIO_EXTI_CLEAR_IT(GPIO_Pin);
 8004b7c:	615a      	str	r2, [r3, #20]
    BMA253_MotionISR(&g_app.bma);
 8004b7e:	f7fc f8d9 	bl	8000d34 <BMA253_MotionISR.constprop.0>
  /* USER CODE END EXTI0_1_IRQn 0 */
  HAL_GPIO_EXTI_IRQHandler(MOTION_INT_Pin);
  /* USER CODE BEGIN EXTI0_1_IRQn 1 */

  /* USER CODE END EXTI0_1_IRQn 1 */
}
 8004b82:	bd10      	pop	{r4, pc}
 8004b84:	40010400 	.word	0x40010400

08004b88 <EXTI4_15_IRQHandler>:
  if(__HAL_GPIO_EXTI_GET_IT(GPIO_Pin) != 0x00u)
 8004b88:	2280      	movs	r2, #128	@ 0x80
 8004b8a:	4b05      	ldr	r3, [pc, #20]	@ (8004ba0 <EXTI4_15_IRQHandler+0x18>)
 8004b8c:	0112      	lsls	r2, r2, #4
 8004b8e:	6959      	ldr	r1, [r3, #20]

/**
  * @brief This function handles EXTI line 4 to 15 interrupts.
  */
void EXTI4_15_IRQHandler(void)
{
 8004b90:	b510      	push	{r4, lr}
 8004b92:	4211      	tst	r1, r2
 8004b94:	d002      	beq.n	8004b9c <EXTI4_15_IRQHandler+0x14>
    __HAL_GPIO_EXTI_CLEAR_IT(GPIO_Pin);
 8004b96:	615a      	str	r2, [r3, #20]
    RTC_TickISR(&g_app.rtc);
 8004b98:	f7fc f830 	bl	8000bfc <RTC_TickISR.constprop.0>
  /* USER CODE END EXTI4_15_IRQn 0 */
  HAL_GPIO_EXTI_IRQHandler(RTC_INT_Pin);
  /* USER CODE BEGIN EXTI4_15_IRQn 1 */

  /* USER CODE END EXTI4_15_IRQn 1 */
}
 8004b9c:	bd10      	pop	{r4, pc}
 8004b9e:	46c0      	nop			@ (mov r8, r8)
 8004ba0:	40010400 	.word	0x40010400

08004ba4 <DMA1_Channel2_3_IRQHandler>:

/**
  * @brief This function handles DMA1 channel 2 and 3 interrupts.
  */
void DMA1_Channel2_3_IRQHandler(void)
{
 8004ba4:	b5f8      	push	{r3, r4, r5, r6, r7, lr}
  if ((RESET != (flag_it & (DMA_FLAG_HT1 << hdma->ChannelIndex))) && (RESET != (source_it & DMA_IT_HT)))
 8004ba6:	2704      	movs	r7, #4
 8004ba8:	003e      	movs	r6, r7
  uint32_t flag_it = hdma->DmaBaseAddress->ISR;
 8004baa:	4b29      	ldr	r3, [pc, #164]	@ (8004c50 <DMA1_Channel2_3_IRQHandler+0xac>)
  if ((RESET != (flag_it & (DMA_FLAG_HT1 << hdma->ChannelIndex))) && (RESET != (source_it & DMA_IT_HT)))
 8004bac:	6d18      	ldr	r0, [r3, #80]	@ 0x50
  uint32_t flag_it = hdma->DmaBaseAddress->ISR;
 8004bae:	6cd9      	ldr	r1, [r3, #76]	@ 0x4c
  if ((RESET != (flag_it & (DMA_FLAG_HT1 << hdma->ChannelIndex))) && (RESET != (source_it & DMA_IT_HT)))
 8004bb0:	4086      	lsls	r6, r0
  uint32_t flag_it = hdma->DmaBaseAddress->ISR;
 8004bb2:	680d      	ldr	r5, [r1, #0]
  uint32_t source_it = hdma->Instance->CCR;
 8004bb4:	691a      	ldr	r2, [r3, #16]
 8004bb6:	6814      	ldr	r4, [r2, #0]
  if ((RESET != (flag_it & (DMA_FLAG_HT1 << hdma->ChannelIndex))) && (RESET != (source_it & DMA_IT_HT)))
 8004bb8:	422e      	tst	r6, r5
 8004bba:	d00f      	beq.n	8004bdc <DMA1_Channel2_3_IRQHandler+0x38>
 8004bbc:	423c      	tst	r4, r7
 8004bbe:	d00d      	beq.n	8004bdc <DMA1_Channel2_3_IRQHandler+0x38>
    if ((hdma->Instance->CCR & DMA_CCR_CIRC) == 0U)
 8004bc0:	6810      	ldr	r0, [r2, #0]
 8004bc2:	0680      	lsls	r0, r0, #26
 8004bc4:	d402      	bmi.n	8004bcc <DMA1_Channel2_3_IRQHandler+0x28>
      hdma->Instance->CCR &= ~DMA_IT_HT;
 8004bc6:	6810      	ldr	r0, [r2, #0]
 8004bc8:	43b8      	bics	r0, r7
 8004bca:	6010      	str	r0, [r2, #0]
    if (hdma->XferHalfCpltCallback != NULL)
 8004bcc:	6bda      	ldr	r2, [r3, #60]	@ 0x3c
    hdma->DmaBaseAddress->IFCR = DMA_FLAG_HT1 << hdma->ChannelIndex;
 8004bce:	604e      	str	r6, [r1, #4]
    if (hdma->XferHalfCpltCallback != NULL)
 8004bd0:	2a00      	cmp	r2, #0
 8004bd2:	d002      	beq.n	8004bda <DMA1_Channel2_3_IRQHandler+0x36>
      hdma->XferHalfCpltCallback(hdma);
 8004bd4:	3310      	adds	r3, #16
 8004bd6:	0018      	movs	r0, r3
 8004bd8:	4790      	blx	r2
  /* USER CODE END DMA1_Channel2_3_IRQn 0 */
  HAL_DMA_IRQHandler(&hdma_tim1_ch1);
  /* USER CODE BEGIN DMA1_Channel2_3_IRQn 1 */

  /* USER CODE END DMA1_Channel2_3_IRQn 1 */
}
 8004bda:	bdf8      	pop	{r3, r4, r5, r6, r7, pc}
  else if ((RESET != (flag_it & (DMA_FLAG_TC1 << hdma->ChannelIndex))) && (RESET != (source_it & DMA_IT_TC)))
 8004bdc:	2702      	movs	r7, #2
 8004bde:	003e      	movs	r6, r7
 8004be0:	4086      	lsls	r6, r0
 8004be2:	422e      	tst	r6, r5
 8004be4:	d018      	beq.n	8004c18 <DMA1_Channel2_3_IRQHandler+0x74>
 8004be6:	423c      	tst	r4, r7
 8004be8:	d016      	beq.n	8004c18 <DMA1_Channel2_3_IRQHandler+0x74>
    if ((hdma->Instance->CCR & DMA_CCR_CIRC) == 0U)
 8004bea:	6810      	ldr	r0, [r2, #0]
 8004bec:	0680      	lsls	r0, r0, #26
 8004bee:	d407      	bmi.n	8004c00 <DMA1_Channel2_3_IRQHandler+0x5c>
      hdma->Instance->CCR &= ~(DMA_IT_TC | DMA_IT_TE);
 8004bf0:	240a      	movs	r4, #10
 8004bf2:	6810      	ldr	r0, [r2, #0]
 8004bf4:	43a0      	bics	r0, r4
 8004bf6:	6010      	str	r0, [r2, #0]
      hdma->State = HAL_DMA_STATE_READY;
 8004bf8:	001a      	movs	r2, r3
 8004bfa:	2001      	movs	r0, #1
 8004bfc:	3231      	adds	r2, #49	@ 0x31
 8004bfe:	7010      	strb	r0, [r2, #0]
    __HAL_UNLOCK(hdma);
 8004c00:	001a      	movs	r2, r3
 8004c02:	0018      	movs	r0, r3
    hdma->DmaBaseAddress->IFCR = DMA_FLAG_TC1 << hdma->ChannelIndex;
 8004c04:	604e      	str	r6, [r1, #4]
    __HAL_UNLOCK(hdma);
 8004c06:	2100      	movs	r1, #0
 8004c08:	3230      	adds	r2, #48	@ 0x30
    if (hdma->XferCpltCallback != NULL)
 8004c0a:	6b9b      	ldr	r3, [r3, #56]	@ 0x38
    __HAL_UNLOCK(hdma);
 8004c0c:	3010      	adds	r0, #16
 8004c0e:	7011      	strb	r1, [r2, #0]
    if (hdma->XferErrorCallback != NULL)
 8004c10:	428b      	cmp	r3, r1
 8004c12:	d0e2      	beq.n	8004bda <DMA1_Channel2_3_IRQHandler+0x36>
      hdma->XferErrorCallback(hdma);
 8004c14:	4798      	blx	r3
 8004c16:	e7e0      	b.n	8004bda <DMA1_Channel2_3_IRQHandler+0x36>
  else if ((RESET != (flag_it & (DMA_FLAG_TE1 << hdma->ChannelIndex))) && (RESET != (source_it & DMA_IT_TE)))
 8004c18:	2608      	movs	r6, #8
 8004c1a:	0037      	movs	r7, r6
 8004c1c:	4087      	lsls	r7, r0
 8004c1e:	423d      	tst	r5, r7
 8004c20:	d0db      	beq.n	8004bda <DMA1_Channel2_3_IRQHandler+0x36>
 8004c22:	4234      	tst	r4, r6
 8004c24:	d0d9      	beq.n	8004bda <DMA1_Channel2_3_IRQHandler+0x36>
    hdma->Instance->CCR &= ~(DMA_IT_TC | DMA_IT_HT | DMA_IT_TE);
 8004c26:	250e      	movs	r5, #14
 8004c28:	6814      	ldr	r4, [r2, #0]
 8004c2a:	43ac      	bics	r4, r5
 8004c2c:	6014      	str	r4, [r2, #0]
    hdma->DmaBaseAddress->IFCR = DMA_FLAG_GL1 << hdma->ChannelIndex;
 8004c2e:	2201      	movs	r2, #1
 8004c30:	0014      	movs	r4, r2
 8004c32:	4084      	lsls	r4, r0
 8004c34:	604c      	str	r4, [r1, #4]
    hdma->State = HAL_DMA_STATE_READY;
 8004c36:	0019      	movs	r1, r3
 8004c38:	3131      	adds	r1, #49	@ 0x31
    hdma->ErrorCode = HAL_DMA_ERROR_TE;
 8004c3a:	649a      	str	r2, [r3, #72]	@ 0x48
    hdma->State = HAL_DMA_STATE_READY;
 8004c3c:	700a      	strb	r2, [r1, #0]
    __HAL_UNLOCK(hdma);
 8004c3e:	001a      	movs	r2, r3
 8004c40:	0018      	movs	r0, r3
 8004c42:	2100      	movs	r1, #0
 8004c44:	3230      	adds	r2, #48	@ 0x30
    if (hdma->XferErrorCallback != NULL)
 8004c46:	6c1b      	ldr	r3, [r3, #64]	@ 0x40
    __HAL_UNLOCK(hdma);
 8004c48:	3010      	adds	r0, #16
 8004c4a:	7011      	strb	r1, [r2, #0]
 8004c4c:	e7e0      	b.n	8004c10 <DMA1_Channel2_3_IRQHandler+0x6c>
 8004c4e:	46c0      	nop			@ (mov r8, r8)
 8004c50:	20000080 	.word	0x20000080

08004c54 <ADC1_IRQHandler>:

/**
  * @brief This function handles ADC interrupt.
  */
void ADC1_IRQHandler(void)
{
 8004c54:	b570      	push	{r4, r5, r6, lr}
  if( (((tmp_isr & ADC_FLAG_EOC) == ADC_FLAG_EOC) && ((tmp_ier & ADC_IT_EOC) == ADC_IT_EOC)) ||
 8004c56:	2404      	movs	r4, #4
  uint32_t tmp_isr = hadc->Instance->ISR;
 8004c58:	4b2c      	ldr	r3, [pc, #176]	@ (8004d0c <ADC1_IRQHandler+0xb8>)
 8004c5a:	6bda      	ldr	r2, [r3, #60]	@ 0x3c
 8004c5c:	6811      	ldr	r1, [r2, #0]
  uint32_t tmp_ier = hadc->Instance->IER;
 8004c5e:	6850      	ldr	r0, [r2, #4]
  if( (((tmp_isr & ADC_FLAG_EOC) == ADC_FLAG_EOC) && ((tmp_ier & ADC_IT_EOC) == ADC_IT_EOC)) ||
 8004c60:	4221      	tst	r1, r4
 8004c62:	d001      	beq.n	8004c68 <ADC1_IRQHandler+0x14>
 8004c64:	4220      	tst	r0, r4
 8004c66:	d104      	bne.n	8004c72 <ADC1_IRQHandler+0x1e>
      (((tmp_isr & ADC_FLAG_EOS) == ADC_FLAG_EOS) && ((tmp_ier & ADC_IT_EOS) == ADC_IT_EOS))   )
 8004c68:	2408      	movs	r4, #8
  if( (((tmp_isr & ADC_FLAG_EOC) == ADC_FLAG_EOC) && ((tmp_ier & ADC_IT_EOC) == ADC_IT_EOC)) ||
 8004c6a:	4221      	tst	r1, r4
 8004c6c:	d025      	beq.n	8004cba <ADC1_IRQHandler+0x66>
      (((tmp_isr & ADC_FLAG_EOS) == ADC_FLAG_EOS) && ((tmp_ier & ADC_IT_EOS) == ADC_IT_EOS))   )
 8004c6e:	4220      	tst	r0, r4
 8004c70:	d023      	beq.n	8004cba <ADC1_IRQHandler+0x66>
    if (HAL_IS_BIT_CLR(hadc->State, HAL_ADC_STATE_ERROR_INTERNAL))
 8004c72:	6f5c      	ldr	r4, [r3, #116]	@ 0x74
 8004c74:	06e4      	lsls	r4, r4, #27
 8004c76:	d404      	bmi.n	8004c82 <ADC1_IRQHandler+0x2e>
      SET_BIT(hadc->State, HAL_ADC_STATE_REG_EOC); 
 8004c78:	2480      	movs	r4, #128	@ 0x80
 8004c7a:	6f5d      	ldr	r5, [r3, #116]	@ 0x74
 8004c7c:	00a4      	lsls	r4, r4, #2
 8004c7e:	432c      	orrs	r4, r5
 8004c80:	675c      	str	r4, [r3, #116]	@ 0x74
    if(ADC_IS_SOFTWARE_START_REGULAR(hadc)        && 
 8004c82:	24c0      	movs	r4, #192	@ 0xc0
 8004c84:	68d5      	ldr	r5, [r2, #12]
 8004c86:	0124      	lsls	r4, r4, #4
 8004c88:	4225      	tst	r5, r4
 8004c8a:	d114      	bne.n	8004cb6 <ADC1_IRQHandler+0x62>
       (hadc->Init.ContinuousConvMode == DISABLE)   )
 8004c8c:	001c      	movs	r4, r3
 8004c8e:	343c      	adds	r4, #60	@ 0x3c
    if(ADC_IS_SOFTWARE_START_REGULAR(hadc)        && 
 8004c90:	7ea4      	ldrb	r4, [r4, #26]
 8004c92:	2c00      	cmp	r4, #0
 8004c94:	d10f      	bne.n	8004cb6 <ADC1_IRQHandler+0x62>
      if((tmp_isr & ADC_FLAG_EOS) == ADC_FLAG_EOS)
 8004c96:	070c      	lsls	r4, r1, #28
 8004c98:	d50d      	bpl.n	8004cb6 <ADC1_IRQHandler+0x62>
        if (ADC_IS_CONVERSION_ONGOING_REGULAR(hadc) == RESET)
 8004c9a:	6894      	ldr	r4, [r2, #8]
 8004c9c:	0764      	lsls	r4, r4, #29
 8004c9e:	d42b      	bmi.n	8004cf8 <ADC1_IRQHandler+0xa4>
          __HAL_ADC_DISABLE_IT(hadc, ADC_IT_EOC | ADC_IT_EOS);
 8004ca0:	250c      	movs	r5, #12
 8004ca2:	6854      	ldr	r4, [r2, #4]
 8004ca4:	43ac      	bics	r4, r5
 8004ca6:	6054      	str	r4, [r2, #4]
          ADC_STATE_CLR_SET(hadc->State,
 8004ca8:	6f5d      	ldr	r5, [r3, #116]	@ 0x74
 8004caa:	4c19      	ldr	r4, [pc, #100]	@ (8004d10 <ADC1_IRQHandler+0xbc>)
 8004cac:	4025      	ands	r5, r4
 8004cae:	3404      	adds	r4, #4
 8004cb0:	34ff      	adds	r4, #255	@ 0xff
 8004cb2:	432c      	orrs	r4, r5
 8004cb4:	675c      	str	r4, [r3, #116]	@ 0x74
    __HAL_ADC_CLEAR_FLAG(hadc, (ADC_FLAG_EOC | ADC_FLAG_EOS) );
 8004cb6:	240c      	movs	r4, #12
 8004cb8:	6014      	str	r4, [r2, #0]
  if(((tmp_isr & ADC_FLAG_AWD) == ADC_FLAG_AWD) && ((tmp_ier & ADC_IT_AWD) == ADC_IT_AWD))
 8004cba:	2480      	movs	r4, #128	@ 0x80
 8004cbc:	4221      	tst	r1, r4
 8004cbe:	d007      	beq.n	8004cd0 <ADC1_IRQHandler+0x7c>
 8004cc0:	4220      	tst	r0, r4
 8004cc2:	d005      	beq.n	8004cd0 <ADC1_IRQHandler+0x7c>
      SET_BIT(hadc->State, HAL_ADC_STATE_AWD1);
 8004cc4:	2580      	movs	r5, #128	@ 0x80
 8004cc6:	6f5e      	ldr	r6, [r3, #116]	@ 0x74
 8004cc8:	026d      	lsls	r5, r5, #9
 8004cca:	4335      	orrs	r5, r6
 8004ccc:	675d      	str	r5, [r3, #116]	@ 0x74
    __HAL_ADC_CLEAR_FLAG(hadc, ADC_FLAG_AWD);
 8004cce:	6014      	str	r4, [r2, #0]
  if(((tmp_isr & ADC_FLAG_OVR) == ADC_FLAG_OVR) && ((tmp_ier & ADC_IT_OVR) == ADC_IT_OVR))
 8004cd0:	2410      	movs	r4, #16
 8004cd2:	4221      	tst	r1, r4
 8004cd4:	d00f      	beq.n	8004cf6 <ADC1_IRQHandler+0xa2>
 8004cd6:	4220      	tst	r0, r4
 8004cd8:	d00d      	beq.n	8004cf6 <ADC1_IRQHandler+0xa2>
    if ((hadc->Init.Overrun == ADC_OVR_DATA_PRESERVED)            ||
 8004cda:	6e59      	ldr	r1, [r3, #100]	@ 0x64
 8004cdc:	2901      	cmp	r1, #1
 8004cde:	d002      	beq.n	8004ce6 <ADC1_IRQHandler+0x92>
        HAL_IS_BIT_SET(hadc->Instance->CFGR1, ADC_CFGR1_DMAEN)  )
 8004ce0:	68d1      	ldr	r1, [r2, #12]
    if ((hadc->Init.Overrun == ADC_OVR_DATA_PRESERVED)            ||
 8004ce2:	07c9      	lsls	r1, r1, #31
 8004ce4:	d505      	bpl.n	8004cf2 <ADC1_IRQHandler+0x9e>
      SET_BIT(hadc->ErrorCode, HAL_ADC_ERROR_OVR);
 8004ce6:	2102      	movs	r1, #2
 8004ce8:	6f98      	ldr	r0, [r3, #120]	@ 0x78
 8004cea:	4301      	orrs	r1, r0
 8004cec:	6799      	str	r1, [r3, #120]	@ 0x78
      __HAL_ADC_CLEAR_FLAG(hadc, ADC_FLAG_OVR);
 8004cee:	2310      	movs	r3, #16
 8004cf0:	6013      	str	r3, [r2, #0]
    __HAL_ADC_CLEAR_FLAG(hadc, ADC_FLAG_OVR);
 8004cf2:	2310      	movs	r3, #16
 8004cf4:	6013      	str	r3, [r2, #0]
  /* USER CODE END ADC1_IRQn 0 */
  HAL_ADC_IRQHandler(&hadc);
  /* USER CODE BEGIN ADC1_IRQn 1 */

  /* USER CODE END ADC1_IRQn 1 */
}
 8004cf6:	bd70      	pop	{r4, r5, r6, pc}
          SET_BIT(hadc->State, HAL_ADC_STATE_ERROR_CONFIG);
 8004cf8:	2420      	movs	r4, #32
 8004cfa:	6f5d      	ldr	r5, [r3, #116]	@ 0x74
 8004cfc:	432c      	orrs	r4, r5
 8004cfe:	675c      	str	r4, [r3, #116]	@ 0x74
          SET_BIT(hadc->ErrorCode, HAL_ADC_ERROR_INTERNAL);
 8004d00:	2401      	movs	r4, #1
 8004d02:	6f9d      	ldr	r5, [r3, #120]	@ 0x78
 8004d04:	432c      	orrs	r4, r5
 8004d06:	679c      	str	r4, [r3, #120]	@ 0x78
 8004d08:	e7d5      	b.n	8004cb6 <ADC1_IRQHandler+0x62>
 8004d0a:	46c0      	nop			@ (mov r8, r8)
 8004d0c:	20000200 	.word	0x20000200
 8004d10:	fffffefe 	.word	0xfffffefe

08004d14 <USART1_IRQHandler>:

/**
  * @brief This function handles USART1 global interrupt.
  */
void USART1_IRQHandler(void)
{
 8004d14:	b5f8      	push	{r3, r4, r5, r6, r7, lr}
  uint32_t isrflags   = READ_REG(huart->Instance->ISR);
 8004d16:	4ca9      	ldr	r4, [pc, #676]	@ (8004fbc <USART1_IRQHandler+0x2a8>)
  errorflags = (isrflags & (uint32_t)(USART_ISR_PE | USART_ISR_FE | USART_ISR_ORE | USART_ISR_NE | USART_ISR_RTOF));
 8004d18:	4da9      	ldr	r5, [pc, #676]	@ (8004fc0 <USART1_IRQHandler+0x2ac>)
  uint32_t isrflags   = READ_REG(huart->Instance->ISR);
 8004d1a:	6821      	ldr	r1, [r4, #0]
 8004d1c:	69ca      	ldr	r2, [r1, #28]
  uint32_t cr1its     = READ_REG(huart->Instance->CR1);
 8004d1e:	6808      	ldr	r0, [r1, #0]
  uint32_t cr3its     = READ_REG(huart->Instance->CR3);
 8004d20:	688b      	ldr	r3, [r1, #8]
  if (errorflags == 0U)
 8004d22:	422a      	tst	r2, r5
 8004d24:	d10b      	bne.n	8004d3e <USART1_IRQHandler+0x2a>
    if (((isrflags & USART_ISR_RXNE) != 0U)
 8004d26:	2320      	movs	r3, #32
 8004d28:	421a      	tst	r2, r3
 8004d2a:	d100      	bne.n	8004d2e <USART1_IRQHandler+0x1a>
 8004d2c:	e083      	b.n	8004e36 <USART1_IRQHandler+0x122>
        && ((cr1its & USART_CR1_RXNEIE) != 0U))
 8004d2e:	4218      	tst	r0, r3
 8004d30:	d100      	bne.n	8004d34 <USART1_IRQHandler+0x20>
 8004d32:	e080      	b.n	8004e36 <USART1_IRQHandler+0x122>
      if (huart->RxISR != NULL)
 8004d34:	6ea3      	ldr	r3, [r4, #104]	@ 0x68
      huart->TxISR(huart);
 8004d36:	0020      	movs	r0, r4
    if (huart->TxISR != NULL)
 8004d38:	2b00      	cmp	r3, #0
 8004d3a:	d178      	bne.n	8004e2e <USART1_IRQHandler+0x11a>
 8004d3c:	e078      	b.n	8004e30 <USART1_IRQHandler+0x11c>
      && (((cr3its & USART_CR3_EIE) != 0U)
 8004d3e:	2501      	movs	r5, #1
          || ((cr1its & (USART_CR1_RXNEIE | USART_CR1_PEIE | USART_CR1_RTOIE)) != 0U)))
 8004d40:	4ea0      	ldr	r6, [pc, #640]	@ (8004fc4 <USART1_IRQHandler+0x2b0>)
      && (((cr3its & USART_CR3_EIE) != 0U)
 8004d42:	402b      	ands	r3, r5
          || ((cr1its & (USART_CR1_RXNEIE | USART_CR1_PEIE | USART_CR1_RTOIE)) != 0U)))
 8004d44:	4006      	ands	r6, r0
 8004d46:	431e      	orrs	r6, r3
 8004d48:	d100      	bne.n	8004d4c <USART1_IRQHandler+0x38>
 8004d4a:	e074      	b.n	8004e36 <USART1_IRQHandler+0x122>
    if (((isrflags & USART_ISR_PE) != 0U) && ((cr1its & USART_CR1_PEIE) != 0U))
 8004d4c:	422a      	tst	r2, r5
 8004d4e:	d007      	beq.n	8004d60 <USART1_IRQHandler+0x4c>
 8004d50:	05c6      	lsls	r6, r0, #23
 8004d52:	d505      	bpl.n	8004d60 <USART1_IRQHandler+0x4c>
      huart->ErrorCode |= HAL_UART_ERROR_PE;
 8004d54:	0026      	movs	r6, r4
      __HAL_UART_CLEAR_FLAG(huart, UART_CLEAR_PEF);
 8004d56:	620d      	str	r5, [r1, #32]
      huart->ErrorCode |= HAL_UART_ERROR_PE;
 8004d58:	3608      	adds	r6, #8
 8004d5a:	6ff7      	ldr	r7, [r6, #124]	@ 0x7c
 8004d5c:	433d      	orrs	r5, r7
 8004d5e:	67f5      	str	r5, [r6, #124]	@ 0x7c
    if (((isrflags & USART_ISR_FE) != 0U) && ((cr3its & USART_CR3_EIE) != 0U))
 8004d60:	2502      	movs	r5, #2
 8004d62:	422a      	tst	r2, r5
 8004d64:	d008      	beq.n	8004d78 <USART1_IRQHandler+0x64>
 8004d66:	2b00      	cmp	r3, #0
 8004d68:	d006      	beq.n	8004d78 <USART1_IRQHandler+0x64>
      huart->ErrorCode |= HAL_UART_ERROR_FE;
 8004d6a:	0026      	movs	r6, r4
      __HAL_UART_CLEAR_FLAG(huart, UART_CLEAR_FEF);
 8004d6c:	620d      	str	r5, [r1, #32]
      huart->ErrorCode |= HAL_UART_ERROR_FE;
 8004d6e:	3608      	adds	r6, #8
 8004d70:	6ff7      	ldr	r7, [r6, #124]	@ 0x7c
 8004d72:	196d      	adds	r5, r5, r5
 8004d74:	433d      	orrs	r5, r7
 8004d76:	67f5      	str	r5, [r6, #124]	@ 0x7c
    if (((isrflags & USART_ISR_NE) != 0U) && ((cr3its & USART_CR3_EIE) != 0U))
 8004d78:	2504      	movs	r5, #4
 8004d7a:	422a      	tst	r2, r5
 8004d7c:	d008      	beq.n	8004d90 <USART1_IRQHandler+0x7c>
 8004d7e:	2b00      	cmp	r3, #0
 8004d80:	d006      	beq.n	8004d90 <USART1_IRQHandler+0x7c>
      huart->ErrorCode |= HAL_UART_ERROR_NE;
 8004d82:	0026      	movs	r6, r4
      __HAL_UART_CLEAR_FLAG(huart, UART_CLEAR_NEF);
 8004d84:	620d      	str	r5, [r1, #32]
      huart->ErrorCode |= HAL_UART_ERROR_NE;
 8004d86:	3608      	adds	r6, #8
 8004d88:	6ff7      	ldr	r7, [r6, #124]	@ 0x7c
 8004d8a:	3d02      	subs	r5, #2
 8004d8c:	433d      	orrs	r5, r7
 8004d8e:	67f5      	str	r5, [r6, #124]	@ 0x7c
    if (((isrflags & USART_ISR_ORE) != 0U)
 8004d90:	2508      	movs	r5, #8
 8004d92:	422a      	tst	r2, r5
 8004d94:	d008      	beq.n	8004da8 <USART1_IRQHandler+0x94>
        && (((cr1its & USART_CR1_RXNEIE) != 0U) ||
 8004d96:	2620      	movs	r6, #32
 8004d98:	4006      	ands	r6, r0
 8004d9a:	4333      	orrs	r3, r6
 8004d9c:	d004      	beq.n	8004da8 <USART1_IRQHandler+0x94>
      __HAL_UART_CLEAR_FLAG(huart, UART_CLEAR_OREF);
 8004d9e:	620d      	str	r5, [r1, #32]
      huart->ErrorCode |= HAL_UART_ERROR_ORE;
 8004da0:	1963      	adds	r3, r4, r5
 8004da2:	6fde      	ldr	r6, [r3, #124]	@ 0x7c
 8004da4:	4335      	orrs	r5, r6
 8004da6:	67dd      	str	r5, [r3, #124]	@ 0x7c
    if (((isrflags & USART_ISR_RTOF) != 0U) && ((cr1its & USART_CR1_RTOIE) != 0U))
 8004da8:	2380      	movs	r3, #128	@ 0x80
 8004daa:	011b      	lsls	r3, r3, #4
 8004dac:	421a      	tst	r2, r3
 8004dae:	d008      	beq.n	8004dc2 <USART1_IRQHandler+0xae>
 8004db0:	0145      	lsls	r5, r0, #5
 8004db2:	d506      	bpl.n	8004dc2 <USART1_IRQHandler+0xae>
      __HAL_UART_CLEAR_FLAG(huart, UART_CLEAR_RTOF);
 8004db4:	620b      	str	r3, [r1, #32]
      huart->ErrorCode |= HAL_UART_ERROR_RTO;
 8004db6:	0021      	movs	r1, r4
 8004db8:	2320      	movs	r3, #32
 8004dba:	3108      	adds	r1, #8
 8004dbc:	6fcd      	ldr	r5, [r1, #124]	@ 0x7c
 8004dbe:	432b      	orrs	r3, r5
 8004dc0:	67cb      	str	r3, [r1, #124]	@ 0x7c
    if (huart->ErrorCode != HAL_UART_ERROR_NONE)
 8004dc2:	0023      	movs	r3, r4
 8004dc4:	3308      	adds	r3, #8
 8004dc6:	6fdb      	ldr	r3, [r3, #124]	@ 0x7c
 8004dc8:	2b00      	cmp	r3, #0
 8004dca:	d031      	beq.n	8004e30 <USART1_IRQHandler+0x11c>
      if (((isrflags & USART_ISR_RXNE) != 0U)
 8004dcc:	2320      	movs	r3, #32
 8004dce:	421a      	tst	r2, r3
 8004dd0:	d006      	beq.n	8004de0 <USART1_IRQHandler+0xcc>
          && ((cr1its & USART_CR1_RXNEIE) != 0U))
 8004dd2:	4218      	tst	r0, r3
 8004dd4:	d004      	beq.n	8004de0 <USART1_IRQHandler+0xcc>
        if (huart->RxISR != NULL)
 8004dd6:	6ea3      	ldr	r3, [r4, #104]	@ 0x68
 8004dd8:	2b00      	cmp	r3, #0
 8004dda:	d001      	beq.n	8004de0 <USART1_IRQHandler+0xcc>
          huart->RxISR(huart);
 8004ddc:	0020      	movs	r0, r4
 8004dde:	4798      	blx	r3
      errorcode = huart->ErrorCode;
 8004de0:	0021      	movs	r1, r4
      if ((HAL_IS_BIT_SET(huart->Instance->CR3, USART_CR3_DMAR)) ||
 8004de2:	2540      	movs	r5, #64	@ 0x40
          ((errorcode & (HAL_UART_ERROR_RTO | HAL_UART_ERROR_ORE)) != 0U))
 8004de4:	2028      	movs	r0, #40	@ 0x28
      if ((HAL_IS_BIT_SET(huart->Instance->CR3, USART_CR3_DMAR)) ||
 8004de6:	6823      	ldr	r3, [r4, #0]
      errorcode = huart->ErrorCode;
 8004de8:	3108      	adds	r1, #8
 8004dea:	6fca      	ldr	r2, [r1, #124]	@ 0x7c
      if ((HAL_IS_BIT_SET(huart->Instance->CR3, USART_CR3_DMAR)) ||
 8004dec:	689b      	ldr	r3, [r3, #8]
          ((errorcode & (HAL_UART_ERROR_RTO | HAL_UART_ERROR_ORE)) != 0U))
 8004dee:	4002      	ands	r2, r0
      if ((HAL_IS_BIT_SET(huart->Instance->CR3, USART_CR3_DMAR)) ||
 8004df0:	402b      	ands	r3, r5
 8004df2:	4313      	orrs	r3, r2
 8004df4:	d01d      	beq.n	8004e32 <USART1_IRQHandler+0x11e>
        UART_EndRxTransfer(huart);
 8004df6:	f7fb ff31 	bl	8000c5c <UART_EndRxTransfer.constprop.0>
        if (HAL_IS_BIT_SET(huart->Instance->CR3, USART_CR3_DMAR))
 8004dfa:	6823      	ldr	r3, [r4, #0]
 8004dfc:	689b      	ldr	r3, [r3, #8]
 8004dfe:	422b      	tst	r3, r5
 8004e00:	d016      	beq.n	8004e30 <USART1_IRQHandler+0x11c>
  __ASM volatile ("MRS %0, primask" : "=r" (result) :: "memory");
 8004e02:	f3ef 8110 	mrs	r1, PRIMASK
  __ASM volatile ("MSR primask, %0" : : "r" (priMask) : "memory");
 8004e06:	2301      	movs	r3, #1
 8004e08:	f383 8810 	msr	PRIMASK, r3
          ATOMIC_CLEAR_BIT(huart->Instance->CR3, USART_CR3_DMAR);
 8004e0c:	6822      	ldr	r2, [r4, #0]
 8004e0e:	6893      	ldr	r3, [r2, #8]
 8004e10:	43ab      	bics	r3, r5
 8004e12:	6093      	str	r3, [r2, #8]
 8004e14:	f381 8810 	msr	PRIMASK, r1
          if (huart->hdmarx != NULL)
 8004e18:	6f60      	ldr	r0, [r4, #116]	@ 0x74
 8004e1a:	2800      	cmp	r0, #0
 8004e1c:	d008      	beq.n	8004e30 <USART1_IRQHandler+0x11c>
            huart->hdmarx->XferAbortCallback = UART_DMAAbortOnError;
 8004e1e:	4b6a      	ldr	r3, [pc, #424]	@ (8004fc8 <USART1_IRQHandler+0x2b4>)
 8004e20:	6343      	str	r3, [r0, #52]	@ 0x34
            if (HAL_DMA_Abort_IT(huart->hdmarx) != HAL_OK)
 8004e22:	f7fb fc07 	bl	8000634 <HAL_DMA_Abort_IT>
 8004e26:	2800      	cmp	r0, #0
 8004e28:	d002      	beq.n	8004e30 <USART1_IRQHandler+0x11c>
              huart->hdmarx->XferAbortCallback(huart->hdmarx);
 8004e2a:	6f60      	ldr	r0, [r4, #116]	@ 0x74
 8004e2c:	6b43      	ldr	r3, [r0, #52]	@ 0x34
 8004e2e:	4798      	blx	r3
  /* USER CODE END USART1_IRQn 0 */
  HAL_UART_IRQHandler(&huart1);
  /* USER CODE BEGIN USART1_IRQn 1 */

  /* USER CODE END USART1_IRQn 1 */
}
 8004e30:	bdf8      	pop	{r3, r4, r5, r6, r7, pc}
        huart->ErrorCode = HAL_UART_ERROR_NONE;
 8004e32:	67cb      	str	r3, [r1, #124]	@ 0x7c
 8004e34:	e7fc      	b.n	8004e30 <USART1_IRQHandler+0x11c>
  if ((huart->ReceptionType == HAL_UART_RECEPTION_TOIDLE)
 8004e36:	6e23      	ldr	r3, [r4, #96]	@ 0x60
 8004e38:	2b01      	cmp	r3, #1
 8004e3a:	d000      	beq.n	8004e3e <USART1_IRQHandler+0x12a>
 8004e3c:	e09f      	b.n	8004f7e <USART1_IRQHandler+0x26a>
      && ((isrflags & USART_ISR_IDLE) != 0U)
 8004e3e:	2510      	movs	r5, #16
 8004e40:	422a      	tst	r2, r5
 8004e42:	d100      	bne.n	8004e46 <USART1_IRQHandler+0x132>
 8004e44:	e09b      	b.n	8004f7e <USART1_IRQHandler+0x26a>
      && ((cr1its & USART_ISR_IDLE) != 0U))
 8004e46:	4228      	tst	r0, r5
 8004e48:	d100      	bne.n	8004e4c <USART1_IRQHandler+0x138>
 8004e4a:	e098      	b.n	8004f7e <USART1_IRQHandler+0x26a>
    __HAL_UART_CLEAR_FLAG(huart, UART_CLEAR_IDLEF);
 8004e4c:	620d      	str	r5, [r1, #32]
    if (HAL_IS_BIT_SET(huart->Instance->CR3, USART_CR3_DMAR))
 8004e4e:	688a      	ldr	r2, [r1, #8]
 8004e50:	2640      	movs	r6, #64	@ 0x40
 8004e52:	0010      	movs	r0, r2
 8004e54:	4030      	ands	r0, r6
 8004e56:	4232      	tst	r2, r6
 8004e58:	d05c      	beq.n	8004f14 <USART1_IRQHandler+0x200>
      uint16_t nb_remaining_rx_data = (uint16_t) __HAL_DMA_GET_COUNTER(huart->hdmarx);
 8004e5a:	6f61      	ldr	r1, [r4, #116]	@ 0x74
 8004e5c:	680a      	ldr	r2, [r1, #0]
 8004e5e:	6852      	ldr	r2, [r2, #4]
 8004e60:	b292      	uxth	r2, r2
      if ((nb_remaining_rx_data > 0U)
 8004e62:	2a00      	cmp	r2, #0
 8004e64:	d0e4      	beq.n	8004e30 <USART1_IRQHandler+0x11c>
          && (nb_remaining_rx_data < huart->RxXferSize))
 8004e66:	0020      	movs	r0, r4
 8004e68:	3058      	adds	r0, #88	@ 0x58
 8004e6a:	8800      	ldrh	r0, [r0, #0]
 8004e6c:	4290      	cmp	r0, r2
 8004e6e:	d9df      	bls.n	8004e30 <USART1_IRQHandler+0x11c>
        huart->RxXferCount = nb_remaining_rx_data;
 8004e70:	0020      	movs	r0, r4
 8004e72:	305a      	adds	r0, #90	@ 0x5a
 8004e74:	8002      	strh	r2, [r0, #0]
        if (huart->hdmarx->Init.Mode != DMA_CIRCULAR)
 8004e76:	698a      	ldr	r2, [r1, #24]
 8004e78:	2a20      	cmp	r2, #32
 8004e7a:	d037      	beq.n	8004eec <USART1_IRQHandler+0x1d8>
  __ASM volatile ("MRS %0, primask" : "=r" (result) :: "memory");
 8004e7c:	f3ef 8010 	mrs	r0, PRIMASK
  __ASM volatile ("MSR primask, %0" : : "r" (priMask) : "memory");
 8004e80:	f383 8810 	msr	PRIMASK, r3
          ATOMIC_CLEAR_BIT(huart->Instance->CR1, USART_CR1_PEIE);
 8004e84:	6821      	ldr	r1, [r4, #0]
 8004e86:	4f51      	ldr	r7, [pc, #324]	@ (8004fcc <USART1_IRQHandler+0x2b8>)
 8004e88:	680a      	ldr	r2, [r1, #0]
 8004e8a:	403a      	ands	r2, r7
 8004e8c:	600a      	str	r2, [r1, #0]
 8004e8e:	f380 8810 	msr	PRIMASK, r0
  __ASM volatile ("MRS %0, primask" : "=r" (result) :: "memory");
 8004e92:	f3ef 8010 	mrs	r0, PRIMASK
  __ASM volatile ("MSR primask, %0" : : "r" (priMask) : "memory");
 8004e96:	f383 8810 	msr	PRIMASK, r3
          ATOMIC_CLEAR_BIT(huart->Instance->CR3, USART_CR3_EIE);
 8004e9a:	6821      	ldr	r1, [r4, #0]
 8004e9c:	688a      	ldr	r2, [r1, #8]
 8004e9e:	439a      	bics	r2, r3
 8004ea0:	608a      	str	r2, [r1, #8]
 8004ea2:	f380 8810 	msr	PRIMASK, r0
  __ASM volatile ("MRS %0, primask" : "=r" (result) :: "memory");
 8004ea6:	f3ef 8710 	mrs	r7, PRIMASK
  __ASM volatile ("MSR primask, %0" : : "r" (priMask) : "memory");
 8004eaa:	f383 8810 	msr	PRIMASK, r3
          ATOMIC_CLEAR_BIT(huart->Instance->CR3, USART_CR3_DMAR);
 8004eae:	0022      	movs	r2, r4
 8004eb0:	ca01      	ldmia	r2!, {r0}
 8004eb2:	6881      	ldr	r1, [r0, #8]
 8004eb4:	43b1      	bics	r1, r6
 8004eb6:	6081      	str	r1, [r0, #8]
 8004eb8:	f387 8810 	msr	PRIMASK, r7
          huart->RxState = HAL_UART_STATE_READY;
 8004ebc:	2120      	movs	r1, #32
 8004ebe:	67d1      	str	r1, [r2, #124]	@ 0x7c
          huart->ReceptionType = HAL_UART_RECEPTION_STANDARD;
 8004ec0:	2200      	movs	r2, #0
 8004ec2:	6622      	str	r2, [r4, #96]	@ 0x60
  __ASM volatile ("MRS %0, primask" : "=r" (result) :: "memory");
 8004ec4:	f3ef 8610 	mrs	r6, PRIMASK
  __ASM volatile ("MSR primask, %0" : : "r" (priMask) : "memory");
 8004ec8:	f383 8810 	msr	PRIMASK, r3
          ATOMIC_CLEAR_BIT(huart->Instance->CR1, USART_CR1_IDLEIE);
 8004ecc:	6821      	ldr	r1, [r4, #0]
 8004ece:	680a      	ldr	r2, [r1, #0]
 8004ed0:	43aa      	bics	r2, r5
 8004ed2:	600a      	str	r2, [r1, #0]
 8004ed4:	f386 8810 	msr	PRIMASK, r6
          (void)HAL_DMA_Abort(huart->hdmarx);
 8004ed8:	6f62      	ldr	r2, [r4, #116]	@ 0x74
  if (hdma->State != HAL_DMA_STATE_BUSY)
 8004eda:	1c97      	adds	r7, r2, #2
 8004edc:	7ff9      	ldrb	r1, [r7, #31]
 8004ede:	1c56      	adds	r6, r2, #1
 8004ee0:	2902      	cmp	r1, #2
 8004ee2:	d008      	beq.n	8004ef6 <USART1_IRQHandler+0x1e2>
    hdma->ErrorCode = HAL_DMA_ERROR_NO_XFER;
 8004ee4:	3303      	adds	r3, #3
 8004ee6:	6393      	str	r3, [r2, #56]	@ 0x38
  __HAL_UNLOCK(hdma);
 8004ee8:	2300      	movs	r3, #0
 8004eea:	77f3      	strb	r3, [r6, #31]
        huart->RxEventType = HAL_UART_RXEVENT_IDLE;
 8004eec:	2302      	movs	r3, #2
 8004eee:	6663      	str	r3, [r4, #100]	@ 0x64
        HAL_UARTEx_RxEventCallback(huart, (huart->RxXferSize - huart->RxXferCount));
 8004ef0:	345a      	adds	r4, #90	@ 0x5a
 8004ef2:	8823      	ldrh	r3, [r4, #0]
 8004ef4:	e79c      	b.n	8004e30 <USART1_IRQHandler+0x11c>
    hdma->Instance->CCR &= ~(DMA_IT_TC | DMA_IT_HT | DMA_IT_TE);
 8004ef6:	250e      	movs	r5, #14
 8004ef8:	6811      	ldr	r1, [r2, #0]
 8004efa:	6808      	ldr	r0, [r1, #0]
 8004efc:	43a8      	bics	r0, r5
 8004efe:	6008      	str	r0, [r1, #0]
    hdma->Instance->CCR &= ~DMA_CCR_EN;
 8004f00:	680d      	ldr	r5, [r1, #0]
 8004f02:	439d      	bics	r5, r3
 8004f04:	600d      	str	r5, [r1, #0]
    hdma->DmaBaseAddress->IFCR = (DMA_FLAG_GL1 << hdma->ChannelIndex);
 8004f06:	001d      	movs	r5, r3
 8004f08:	6bd1      	ldr	r1, [r2, #60]	@ 0x3c
 8004f0a:	6c12      	ldr	r2, [r2, #64]	@ 0x40
 8004f0c:	4095      	lsls	r5, r2
 8004f0e:	604d      	str	r5, [r1, #4]
  hdma->State = HAL_DMA_STATE_READY;
 8004f10:	77fb      	strb	r3, [r7, #31]
 8004f12:	e7e9      	b.n	8004ee8 <USART1_IRQHandler+0x1d4>
      uint16_t nb_rx_data = huart->RxXferSize - huart->RxXferCount;
 8004f14:	0022      	movs	r2, r4
 8004f16:	0021      	movs	r1, r4
 8004f18:	3258      	adds	r2, #88	@ 0x58
 8004f1a:	315a      	adds	r1, #90	@ 0x5a
 8004f1c:	8816      	ldrh	r6, [r2, #0]
 8004f1e:	880a      	ldrh	r2, [r1, #0]
      if ((huart->RxXferCount > 0U)
 8004f20:	8809      	ldrh	r1, [r1, #0]
      uint16_t nb_rx_data = huart->RxXferSize - huart->RxXferCount;
 8004f22:	b292      	uxth	r2, r2
      if ((huart->RxXferCount > 0U)
 8004f24:	2900      	cmp	r1, #0
 8004f26:	d100      	bne.n	8004f2a <USART1_IRQHandler+0x216>
 8004f28:	e782      	b.n	8004e30 <USART1_IRQHandler+0x11c>
          && (nb_rx_data > 0U))
 8004f2a:	4296      	cmp	r6, r2
 8004f2c:	d100      	bne.n	8004f30 <USART1_IRQHandler+0x21c>
 8004f2e:	e77f      	b.n	8004e30 <USART1_IRQHandler+0x11c>
  __ASM volatile ("MRS %0, primask" : "=r" (result) :: "memory");
 8004f30:	f3ef 8610 	mrs	r6, PRIMASK
  __ASM volatile ("MSR primask, %0" : : "r" (priMask) : "memory");
 8004f34:	f383 8810 	msr	PRIMASK, r3
        ATOMIC_CLEAR_BIT(huart->Instance->CR1, (USART_CR1_RXNEIE | USART_CR1_PEIE));
 8004f38:	6821      	ldr	r1, [r4, #0]
 8004f3a:	4f25      	ldr	r7, [pc, #148]	@ (8004fd0 <USART1_IRQHandler+0x2bc>)
 8004f3c:	680a      	ldr	r2, [r1, #0]
 8004f3e:	403a      	ands	r2, r7
 8004f40:	600a      	str	r2, [r1, #0]
 8004f42:	f386 8810 	msr	PRIMASK, r6
  __ASM volatile ("MRS %0, primask" : "=r" (result) :: "memory");
 8004f46:	f3ef 8710 	mrs	r7, PRIMASK
  __ASM volatile ("MSR primask, %0" : : "r" (priMask) : "memory");
 8004f4a:	f383 8810 	msr	PRIMASK, r3
        ATOMIC_CLEAR_BIT(huart->Instance->CR3, USART_CR3_EIE);
 8004f4e:	0022      	movs	r2, r4
 8004f50:	ca40      	ldmia	r2!, {r6}
 8004f52:	68b1      	ldr	r1, [r6, #8]
 8004f54:	4399      	bics	r1, r3
 8004f56:	60b1      	str	r1, [r6, #8]
 8004f58:	f387 8810 	msr	PRIMASK, r7
        huart->RxState = HAL_UART_STATE_READY;
 8004f5c:	2120      	movs	r1, #32
        huart->RxISR = NULL;
 8004f5e:	66a0      	str	r0, [r4, #104]	@ 0x68
        huart->RxState = HAL_UART_STATE_READY;
 8004f60:	67d1      	str	r1, [r2, #124]	@ 0x7c
        huart->ReceptionType = HAL_UART_RECEPTION_STANDARD;
 8004f62:	6620      	str	r0, [r4, #96]	@ 0x60
  __ASM volatile ("MRS %0, primask" : "=r" (result) :: "memory");
 8004f64:	f3ef 8110 	mrs	r1, PRIMASK
  __ASM volatile ("MSR primask, %0" : : "r" (priMask) : "memory");
 8004f68:	f383 8810 	msr	PRIMASK, r3
        ATOMIC_CLEAR_BIT(huart->Instance->CR1, USART_CR1_IDLEIE);
 8004f6c:	6822      	ldr	r2, [r4, #0]
 8004f6e:	6813      	ldr	r3, [r2, #0]
 8004f70:	43ab      	bics	r3, r5
 8004f72:	6013      	str	r3, [r2, #0]
 8004f74:	f381 8810 	msr	PRIMASK, r1
        huart->RxEventType = HAL_UART_RXEVENT_IDLE;
 8004f78:	2302      	movs	r3, #2
 8004f7a:	6663      	str	r3, [r4, #100]	@ 0x64
 8004f7c:	e758      	b.n	8004e30 <USART1_IRQHandler+0x11c>
  if (((isrflags & USART_ISR_TXE) != 0U)
 8004f7e:	2380      	movs	r3, #128	@ 0x80
 8004f80:	421a      	tst	r2, r3
 8004f82:	d003      	beq.n	8004f8c <USART1_IRQHandler+0x278>
      && ((cr1its & USART_CR1_TXEIE) != 0U))
 8004f84:	4218      	tst	r0, r3
 8004f86:	d001      	beq.n	8004f8c <USART1_IRQHandler+0x278>
    if (huart->TxISR != NULL)
 8004f88:	6ee3      	ldr	r3, [r4, #108]	@ 0x6c
 8004f8a:	e6d4      	b.n	8004d36 <USART1_IRQHandler+0x22>
  if (((isrflags & USART_ISR_TC) != 0U) && ((cr1its & USART_CR1_TCIE) != 0U))
 8004f8c:	2140      	movs	r1, #64	@ 0x40
 8004f8e:	420a      	tst	r2, r1
 8004f90:	d100      	bne.n	8004f94 <USART1_IRQHandler+0x280>
 8004f92:	e74d      	b.n	8004e30 <USART1_IRQHandler+0x11c>
 8004f94:	4208      	tst	r0, r1
 8004f96:	d100      	bne.n	8004f9a <USART1_IRQHandler+0x286>
 8004f98:	e74a      	b.n	8004e30 <USART1_IRQHandler+0x11c>
  __ASM volatile ("MRS %0, primask" : "=r" (result) :: "memory");
 8004f9a:	f3ef 8010 	mrs	r0, PRIMASK
  __ASM volatile ("MSR primask, %0" : : "r" (priMask) : "memory");
 8004f9e:	2301      	movs	r3, #1
 8004fa0:	f383 8810 	msr	PRIMASK, r3
  ATOMIC_CLEAR_BIT(huart->Instance->CR1, USART_CR1_TCIE);
 8004fa4:	6822      	ldr	r2, [r4, #0]
 8004fa6:	6813      	ldr	r3, [r2, #0]
 8004fa8:	438b      	bics	r3, r1
 8004faa:	6013      	str	r3, [r2, #0]
 8004fac:	f380 8810 	msr	PRIMASK, r0
  huart->gState = HAL_UART_STATE_READY;
 8004fb0:	2320      	movs	r3, #32
 8004fb2:	67e3      	str	r3, [r4, #124]	@ 0x7c
  huart->TxISR = NULL;
 8004fb4:	2300      	movs	r3, #0
 8004fb6:	66e3      	str	r3, [r4, #108]	@ 0x6c
 8004fb8:	e73a      	b.n	8004e30 <USART1_IRQHandler+0x11c>
 8004fba:	46c0      	nop			@ (mov r8, r8)
 8004fbc:	200004b4 	.word	0x200004b4
 8004fc0:	0000080f 	.word	0x0000080f
 8004fc4:	04000120 	.word	0x04000120
 8004fc8:	08000bed 	.word	0x08000bed
 8004fcc:	fffffeff 	.word	0xfffffeff
 8004fd0:	fffffedf 	.word	0xfffffedf

08004fd4 <_exit>:
  errno = EINVAL;
  return -1;
}

void _exit (int status)
{
 8004fd4:	b510      	push	{r4, lr}
  errno = EINVAL;
 8004fd6:	f002 f965 	bl	80072a4 <__errno>
 8004fda:	2316      	movs	r3, #22
 8004fdc:	6003      	str	r3, [r0, #0]
  _kill(status, -1);
  while (1) {}    /* Make sure we hang here */
 8004fde:	e7fe      	b.n	8004fde <_exit+0xa>

08004fe0 <_read>:
}

__attribute__((weak)) int _read(int file, char *ptr, int len)
{
 8004fe0:	b570      	push	{r4, r5, r6, lr}
 8004fe2:	000e      	movs	r6, r1
 8004fe4:	0014      	movs	r4, r2
  (void)file;
  int DataIdx;

  for (DataIdx = 0; DataIdx < len; DataIdx++)
 8004fe6:	2500      	movs	r5, #0
 8004fe8:	42a5      	cmp	r5, r4
 8004fea:	db01      	blt.n	8004ff0 <_read+0x10>
  {
    *ptr++ = __io_getchar();
  }

  return len;
}
 8004fec:	0020      	movs	r0, r4
 8004fee:	bd70      	pop	{r4, r5, r6, pc}
    *ptr++ = __io_getchar();
 8004ff0:	e000      	b.n	8004ff4 <_read+0x14>
 8004ff2:	bf00      	nop
 8004ff4:	5570      	strb	r0, [r6, r5]
  for (DataIdx = 0; DataIdx < len; DataIdx++)
 8004ff6:	3501      	adds	r5, #1
 8004ff8:	e7f6      	b.n	8004fe8 <_read+0x8>

08004ffa <_write>:

__attribute__((weak)) int _write(int file, char *ptr, int len)
{
 8004ffa:	b570      	push	{r4, r5, r6, lr}
 8004ffc:	000e      	movs	r6, r1
 8004ffe:	0014      	movs	r4, r2
  (void)file;
  int DataIdx;

  for (DataIdx = 0; DataIdx < len; DataIdx++)
 8005000:	2500      	movs	r5, #0
 8005002:	42a5      	cmp	r5, r4
 8005004:	db01      	blt.n	800500a <_write+0x10>
  {
    __io_putchar(*ptr++);
  }
  return len;
}
 8005006:	0020      	movs	r0, r4
 8005008:	bd70      	pop	{r4, r5, r6, pc}
    __io_putchar(*ptr++);
 800500a:	5d70      	ldrb	r0, [r6, r5]
 800500c:	e000      	b.n	8005010 <_write+0x16>
 800500e:	bf00      	nop
  for (DataIdx = 0; DataIdx < len; DataIdx++)
 8005010:	3501      	adds	r5, #1
 8005012:	e7f6      	b.n	8005002 <_write+0x8>

08005014 <_close>:

int _close(int file)
{
  (void)file;
  return -1;
 8005014:	2001      	movs	r0, #1
}
 8005016:	4240      	negs	r0, r0
 8005018:	4770      	bx	lr

0800501a <_lseek>:
{
  (void)file;
  (void)ptr;
  (void)dir;
  return 0;
}
 800501a:	2000      	movs	r0, #0
 800501c:	4770      	bx	lr

0800501e <_sbrk>:
void *_sbrk(ptrdiff_t incr)
{
  extern uint8_t _end; /* Symbol defined in the linker script */
  extern uint8_t _estack; /* Symbol defined in the linker script */
  extern uint32_t _Min_Stack_Size; /* Symbol defined in the linker script */
  const uint32_t stack_limit = (uint32_t)&_estack - (uint32_t)&_Min_Stack_Size;
 800501e:	490c      	ldr	r1, [pc, #48]	@ (8005050 <_sbrk+0x32>)
 8005020:	4a0c      	ldr	r2, [pc, #48]	@ (8005054 <_sbrk+0x36>)
{
 8005022:	0003      	movs	r3, r0
  const uint32_t stack_limit = (uint32_t)&_estack - (uint32_t)&_Min_Stack_Size;
 8005024:	1a52      	subs	r2, r2, r1
  const uint8_t *max_heap = (uint8_t *)stack_limit;
  uint8_t *prev_heap_end;

  /* Initialize heap end at first call */
  if (NULL == __sbrk_heap_end)
 8005026:	490c      	ldr	r1, [pc, #48]	@ (8005058 <_sbrk+0x3a>)
{
 8005028:	b510      	push	{r4, lr}
  if (NULL == __sbrk_heap_end)
 800502a:	6808      	ldr	r0, [r1, #0]
 800502c:	2800      	cmp	r0, #0
 800502e:	d101      	bne.n	8005034 <_sbrk+0x16>
  {
    __sbrk_heap_end = &_end;
 8005030:	480a      	ldr	r0, [pc, #40]	@ (800505c <_sbrk+0x3e>)
 8005032:	6008      	str	r0, [r1, #0]
  }

  /* Protect heap from growing into the reserved MSP stack */
  if (__sbrk_heap_end + incr > max_heap)
 8005034:	6808      	ldr	r0, [r1, #0]
 8005036:	18c3      	adds	r3, r0, r3
 8005038:	4293      	cmp	r3, r2
 800503a:	d906      	bls.n	800504a <_sbrk+0x2c>
  {
    errno = ENOMEM;
 800503c:	f002 f932 	bl	80072a4 <__errno>
 8005040:	230c      	movs	r3, #12
 8005042:	6003      	str	r3, [r0, #0]
 8005044:	2001      	movs	r0, #1
 8005046:	4240      	negs	r0, r0

  prev_heap_end = __sbrk_heap_end;
  __sbrk_heap_end += incr;

  return (void *)prev_heap_end;
}
 8005048:	bd10      	pop	{r4, pc}
  __sbrk_heap_end += incr;
 800504a:	600b      	str	r3, [r1, #0]
  return (void *)prev_heap_end;
 800504c:	e7fc      	b.n	8005048 <_sbrk+0x2a>
 800504e:	46c0      	nop			@ (mov r8, r8)
 8005050:	00000400 	.word	0x00000400
 8005054:	20001000 	.word	0x20001000
 8005058:	20000280 	.word	0x20000280
 800505c:	20000960 	.word	0x20000960

08005060 <SystemInit>:
/**
  * @brief  Setup the microcontroller system
  * @param  None
  * @retval None
  */
void SystemInit(void)
 8005060:	4770      	bx	lr
 8005062:	46c0      	nop			@ (mov r8, r8)

08005064 <strcmp>:
 8005064:	7802      	ldrb	r2, [r0, #0]
 8005066:	780b      	ldrb	r3, [r1, #0]
 8005068:	2a00      	cmp	r2, #0
 800506a:	d003      	beq.n	8005074 <strcmp+0x10>
 800506c:	3001      	adds	r0, #1
 800506e:	3101      	adds	r1, #1
 8005070:	429a      	cmp	r2, r3
 8005072:	d0f7      	beq.n	8005064 <strcmp>
 8005074:	1ad0      	subs	r0, r2, r3
 8005076:	4770      	bx	lr

08005078 <strlen>:
 8005078:	2300      	movs	r3, #0
 800507a:	5cc2      	ldrb	r2, [r0, r3]
 800507c:	3301      	adds	r3, #1
 800507e:	2a00      	cmp	r2, #0
 8005080:	d1fb      	bne.n	800507a <strlen+0x2>
 8005082:	1e58      	subs	r0, r3, #1
 8005084:	4770      	bx	lr
	...

08005088 <__gnu_thumb1_case_uqi>:
 8005088:	b402      	push	{r1}
 800508a:	4671      	mov	r1, lr
 800508c:	0849      	lsrs	r1, r1, #1
 800508e:	0049      	lsls	r1, r1, #1
 8005090:	5c09      	ldrb	r1, [r1, r0]
 8005092:	0049      	lsls	r1, r1, #1
 8005094:	448e      	add	lr, r1
 8005096:	bc02      	pop	{r1}
 8005098:	4770      	bx	lr
 800509a:	46c0      	nop			@ (mov r8, r8)

0800509c <__gnu_thumb1_case_uhi>:
 800509c:	b403      	push	{r0, r1}
 800509e:	4671      	mov	r1, lr
 80050a0:	0849      	lsrs	r1, r1, #1
 80050a2:	0040      	lsls	r0, r0, #1
 80050a4:	0049      	lsls	r1, r1, #1
 80050a6:	5a09      	ldrh	r1, [r1, r0]
 80050a8:	0049      	lsls	r1, r1, #1
 80050aa:	448e      	add	lr, r1
 80050ac:	bc03      	pop	{r0, r1}
 80050ae:	4770      	bx	lr

080050b0 <__udivsi3>:
 80050b0:	2200      	movs	r2, #0
 80050b2:	0843      	lsrs	r3, r0, #1
 80050b4:	428b      	cmp	r3, r1
 80050b6:	d374      	bcc.n	80051a2 <__udivsi3+0xf2>
 80050b8:	0903      	lsrs	r3, r0, #4
 80050ba:	428b      	cmp	r3, r1
 80050bc:	d35f      	bcc.n	800517e <__udivsi3+0xce>
 80050be:	0a03      	lsrs	r3, r0, #8
 80050c0:	428b      	cmp	r3, r1
 80050c2:	d344      	bcc.n	800514e <__udivsi3+0x9e>
 80050c4:	0b03      	lsrs	r3, r0, #12
 80050c6:	428b      	cmp	r3, r1
 80050c8:	d328      	bcc.n	800511c <__udivsi3+0x6c>
 80050ca:	0c03      	lsrs	r3, r0, #16
 80050cc:	428b      	cmp	r3, r1
 80050ce:	d30d      	bcc.n	80050ec <__udivsi3+0x3c>
 80050d0:	22ff      	movs	r2, #255	@ 0xff
 80050d2:	0209      	lsls	r1, r1, #8
 80050d4:	ba12      	rev	r2, r2
 80050d6:	0c03      	lsrs	r3, r0, #16
 80050d8:	428b      	cmp	r3, r1
 80050da:	d302      	bcc.n	80050e2 <__udivsi3+0x32>
 80050dc:	1212      	asrs	r2, r2, #8
 80050de:	0209      	lsls	r1, r1, #8
 80050e0:	d065      	beq.n	80051ae <__udivsi3+0xfe>
 80050e2:	0b03      	lsrs	r3, r0, #12
 80050e4:	428b      	cmp	r3, r1
 80050e6:	d319      	bcc.n	800511c <__udivsi3+0x6c>
 80050e8:	e000      	b.n	80050ec <__udivsi3+0x3c>
 80050ea:	0a09      	lsrs	r1, r1, #8
 80050ec:	0bc3      	lsrs	r3, r0, #15
 80050ee:	428b      	cmp	r3, r1
 80050f0:	d301      	bcc.n	80050f6 <__udivsi3+0x46>
 80050f2:	03cb      	lsls	r3, r1, #15
 80050f4:	1ac0      	subs	r0, r0, r3
 80050f6:	4152      	adcs	r2, r2
 80050f8:	0b83      	lsrs	r3, r0, #14
 80050fa:	428b      	cmp	r3, r1
 80050fc:	d301      	bcc.n	8005102 <__udivsi3+0x52>
 80050fe:	038b      	lsls	r3, r1, #14
 8005100:	1ac0      	subs	r0, r0, r3
 8005102:	4152      	adcs	r2, r2
 8005104:	0b43      	lsrs	r3, r0, #13
 8005106:	428b      	cmp	r3, r1
 8005108:	d301      	bcc.n	800510e <__udivsi3+0x5e>
 800510a:	034b      	lsls	r3, r1, #13
 800510c:	1ac0      	subs	r0, r0, r3
 800510e:	4152      	adcs	r2, r2
 8005110:	0b03      	lsrs	r3, r0, #12
 8005112:	428b      	cmp	r3, r1
 8005114:	d301      	bcc.n	800511a <__udivsi3+0x6a>
 8005116:	030b      	lsls	r3, r1, #12
 8005118:	1ac0      	subs	r0, r0, r3
 800511a:	4152      	adcs	r2, r2
 800511c:	0ac3      	lsrs	r3, r0, #11
 800511e:	428b      	cmp	r3, r1
 8005120:	d301      	bcc.n	8005126 <__udivsi3+0x76>
 8005122:	02cb      	lsls	r3, r1, #11
 8005124:	1ac0      	subs	r0, r0, r3
 8005126:	4152      	adcs	r2, r2
 8005128:	0a83      	lsrs	r3, r0, #10
 800512a:	428b      	cmp	r3, r1
 800512c:	d301      	bcc.n	8005132 <__udivsi3+0x82>
 800512e:	028b      	lsls	r3, r1, #10
 8005130:	1ac0      	subs	r0, r0, r3
 8005132:	4152      	adcs	r2, r2
 8005134:	0a43      	lsrs	r3, r0, #9
 8005136:	428b      	cmp	r3, r1
 8005138:	d301      	bcc.n	800513e <__udivsi3+0x8e>
 800513a:	024b      	lsls	r3, r1, #9
 800513c:	1ac0      	subs	r0, r0, r3
 800513e:	4152      	adcs	r2, r2
 8005140:	0a03      	lsrs	r3, r0, #8
 8005142:	428b      	cmp	r3, r1
 8005144:	d301      	bcc.n	800514a <__udivsi3+0x9a>
 8005146:	020b      	lsls	r3, r1, #8
 8005148:	1ac0      	subs	r0, r0, r3
 800514a:	4152      	adcs	r2, r2
 800514c:	d2cd      	bcs.n	80050ea <__udivsi3+0x3a>
 800514e:	09c3      	lsrs	r3, r0, #7
 8005150:	428b      	cmp	r3, r1
 8005152:	d301      	bcc.n	8005158 <__udivsi3+0xa8>
 8005154:	01cb      	lsls	r3, r1, #7
 8005156:	1ac0      	subs	r0, r0, r3
 8005158:	4152      	adcs	r2, r2
 800515a:	0983      	lsrs	r3, r0, #6
 800515c:	428b      	cmp	r3, r1
 800515e:	d301      	bcc.n	8005164 <__udivsi3+0xb4>
 8005160:	018b      	lsls	r3, r1, #6
 8005162:	1ac0      	subs	r0, r0, r3
 8005164:	4152      	adcs	r2, r2
 8005166:	0943      	lsrs	r3, r0, #5
 8005168:	428b      	cmp	r3, r1
 800516a:	d301      	bcc.n	8005170 <__udivsi3+0xc0>
 800516c:	014b      	lsls	r3, r1, #5
 800516e:	1ac0      	subs	r0, r0, r3
 8005170:	4152      	adcs	r2, r2
 8005172:	0903      	lsrs	r3, r0, #4
 8005174:	428b      	cmp	r3, r1
 8005176:	d301      	bcc.n	800517c <__udivsi3+0xcc>
 8005178:	010b      	lsls	r3, r1, #4
 800517a:	1ac0      	subs	r0, r0, r3
 800517c:	4152      	adcs	r2, r2
 800517e:	08c3      	lsrs	r3, r0, #3
 8005180:	428b      	cmp	r3, r1
 8005182:	d301      	bcc.n	8005188 <__udivsi3+0xd8>
 8005184:	00cb      	lsls	r3, r1, #3
 8005186:	1ac0      	subs	r0, r0, r3
 8005188:	4152      	adcs	r2, r2
 800518a:	0883      	lsrs	r3, r0, #2
 800518c:	428b      	cmp	r3, r1
 800518e:	d301      	bcc.n	8005194 <__udivsi3+0xe4>
 8005190:	008b      	lsls	r3, r1, #2
 8005192:	1ac0      	subs	r0, r0, r3
 8005194:	4152      	adcs	r2, r2
 8005196:	0843      	lsrs	r3, r0, #1
 8005198:	428b      	cmp	r3, r1
 800519a:	d301      	bcc.n	80051a0 <__udivsi3+0xf0>
 800519c:	004b      	lsls	r3, r1, #1
 800519e:	1ac0      	subs	r0, r0, r3
 80051a0:	4152      	adcs	r2, r2
 80051a2:	1a41      	subs	r1, r0, r1
 80051a4:	d200      	bcs.n	80051a8 <__udivsi3+0xf8>
 80051a6:	4601      	mov	r1, r0
 80051a8:	4152      	adcs	r2, r2
 80051aa:	4610      	mov	r0, r2
 80051ac:	4770      	bx	lr
 80051ae:	e7ff      	b.n	80051b0 <__udivsi3+0x100>
 80051b0:	b501      	push	{r0, lr}
 80051b2:	2000      	movs	r0, #0
 80051b4:	f000 f8f0 	bl	8005398 <__aeabi_idiv0>
 80051b8:	bd02      	pop	{r1, pc}
 80051ba:	46c0      	nop			@ (mov r8, r8)

080051bc <__aeabi_uidivmod>:
 80051bc:	2900      	cmp	r1, #0
 80051be:	d0f7      	beq.n	80051b0 <__udivsi3+0x100>
 80051c0:	e776      	b.n	80050b0 <__udivsi3>
 80051c2:	4770      	bx	lr

080051c4 <__divsi3>:
 80051c4:	4603      	mov	r3, r0
 80051c6:	430b      	orrs	r3, r1
 80051c8:	d47f      	bmi.n	80052ca <__divsi3+0x106>
 80051ca:	2200      	movs	r2, #0
 80051cc:	0843      	lsrs	r3, r0, #1
 80051ce:	428b      	cmp	r3, r1
 80051d0:	d374      	bcc.n	80052bc <__divsi3+0xf8>
 80051d2:	0903      	lsrs	r3, r0, #4
 80051d4:	428b      	cmp	r3, r1
 80051d6:	d35f      	bcc.n	8005298 <__divsi3+0xd4>
 80051d8:	0a03      	lsrs	r3, r0, #8
 80051da:	428b      	cmp	r3, r1
 80051dc:	d344      	bcc.n	8005268 <__divsi3+0xa4>
 80051de:	0b03      	lsrs	r3, r0, #12
 80051e0:	428b      	cmp	r3, r1
 80051e2:	d328      	bcc.n	8005236 <__divsi3+0x72>
 80051e4:	0c03      	lsrs	r3, r0, #16
 80051e6:	428b      	cmp	r3, r1
 80051e8:	d30d      	bcc.n	8005206 <__divsi3+0x42>
 80051ea:	22ff      	movs	r2, #255	@ 0xff
 80051ec:	0209      	lsls	r1, r1, #8
 80051ee:	ba12      	rev	r2, r2
 80051f0:	0c03      	lsrs	r3, r0, #16
 80051f2:	428b      	cmp	r3, r1
 80051f4:	d302      	bcc.n	80051fc <__divsi3+0x38>
 80051f6:	1212      	asrs	r2, r2, #8
 80051f8:	0209      	lsls	r1, r1, #8
 80051fa:	d065      	beq.n	80052c8 <__divsi3+0x104>
 80051fc:	0b03      	lsrs	r3, r0, #12
 80051fe:	428b      	cmp	r3, r1
 8005200:	d319      	bcc.n	8005236 <__divsi3+0x72>
 8005202:	e000      	b.n	8005206 <__divsi3+0x42>
 8005204:	0a09      	lsrs	r1, r1, #8
 8005206:	0bc3      	lsrs	r3, r0, #15
 8005208:	428b      	cmp	r3, r1
 800520a:	d301      	bcc.n	8005210 <__divsi3+0x4c>
 800520c:	03cb      	lsls	r3, r1, #15
 800520e:	1ac0      	subs	r0, r0, r3
 8005210:	4152      	adcs	r2, r2
 8005212:	0b83      	lsrs	r3, r0, #14
 8005214:	428b      	cmp	r3, r1
 8005216:	d301      	bcc.n	800521c <__divsi3+0x58>
 8005218:	038b      	lsls	r3, r1, #14
 800521a:	1ac0      	subs	r0, r0, r3
 800521c:	4152      	adcs	r2, r2
 800521e:	0b43      	lsrs	r3, r0, #13
 8005220:	428b      	cmp	r3, r1
 8005222:	d301      	bcc.n	8005228 <__divsi3+0x64>
 8005224:	034b      	lsls	r3, r1, #13
 8005226:	1ac0      	subs	r0, r0, r3
 8005228:	4152      	adcs	r2, r2
 800522a:	0b03      	lsrs	r3, r0, #12
 800522c:	428b      	cmp	r3, r1
 800522e:	d301      	bcc.n	8005234 <__divsi3+0x70>
 8005230:	030b      	lsls	r3, r1, #12
 8005232:	1ac0      	subs	r0, r0, r3
 8005234:	4152      	adcs	r2, r2
 8005236:	0ac3      	lsrs	r3, r0, #11
 8005238:	428b      	cmp	r3, r1
 800523a:	d301      	bcc.n	8005240 <__divsi3+0x7c>
 800523c:	02cb      	lsls	r3, r1, #11
 800523e:	1ac0      	subs	r0, r0, r3
 8005240:	4152      	adcs	r2, r2
 8005242:	0a83      	lsrs	r3, r0, #10
 8005244:	428b      	cmp	r3, r1
 8005246:	d301      	bcc.n	800524c <__divsi3+0x88>
 8005248:	028b      	lsls	r3, r1, #10
 800524a:	1ac0      	subs	r0, r0, r3
 800524c:	4152      	adcs	r2, r2
 800524e:	0a43      	lsrs	r3, r0, #9
 8005250:	428b      	cmp	r3, r1
 8005252:	d301      	bcc.n	8005258 <__divsi3+0x94>
 8005254:	024b      	lsls	r3, r1, #9
 8005256:	1ac0      	subs	r0, r0, r3
 8005258:	4152      	adcs	r2, r2
 800525a:	0a03      	lsrs	r3, r0, #8
 800525c:	428b      	cmp	r3, r1
 800525e:	d301      	bcc.n	8005264 <__divsi3+0xa0>
 8005260:	020b      	lsls	r3, r1, #8
 8005262:	1ac0      	subs	r0, r0, r3
 8005264:	4152      	adcs	r2, r2
 8005266:	d2cd      	bcs.n	8005204 <__divsi3+0x40>
 8005268:	09c3      	lsrs	r3, r0, #7
 800526a:	428b      	cmp	r3, r1
 800526c:	d301      	bcc.n	8005272 <__divsi3+0xae>
 800526e:	01cb      	lsls	r3, r1, #7
 8005270:	1ac0      	subs	r0, r0, r3
 8005272:	4152      	adcs	r2, r2
 8005274:	0983      	lsrs	r3, r0, #6
 8005276:	428b      	cmp	r3, r1
 8005278:	d301      	bcc.n	800527e <__divsi3+0xba>
 800527a:	018b      	lsls	r3, r1, #6
 800527c:	1ac0      	subs	r0, r0, r3
 800527e:	4152      	adcs	r2, r2
 8005280:	0943      	lsrs	r3, r0, #5
 8005282:	428b      	cmp	r3, r1
 8005284:	d301      	bcc.n	800528a <__divsi3+0xc6>
 8005286:	014b      	lsls	r3, r1, #5
 8005288:	1ac0      	subs	r0, r0, r3
 800528a:	4152      	adcs	r2, r2
 800528c:	0903      	lsrs	r3, r0, #4
 800528e:	428b      	cmp	r3, r1
 8005290:	d301      	bcc.n	8005296 <__divsi3+0xd2>
 8005292:	010b      	lsls	r3, r1, #4
 8005294:	1ac0      	subs	r0, r0, r3
 8005296:	4152      	adcs	r2, r2
 8005298:	08c3      	lsrs	r3, r0, #3
 800529a:	428b      	cmp	r3, r1
 800529c:	d301      	bcc.n	80052a2 <__divsi3+0xde>
 800529e:	00cb      	lsls	r3, r1, #3
 80052a0:	1ac0      	subs	r0, r0, r3
 80052a2:	4152      	adcs	r2, r2
 80052a4:	0883      	lsrs	r3, r0, #2
 80052a6:	428b      	cmp	r3, r1
 80052a8:	d301      	bcc.n	80052ae <__divsi3+0xea>
 80052aa:	008b      	lsls	r3, r1, #2
 80052ac:	1ac0      	subs	r0, r0, r3
 80052ae:	4152      	adcs	r2, r2
 80052b0:	0843      	lsrs	r3, r0, #1
 80052b2:	428b      	cmp	r3, r1
 80052b4:	d301      	bcc.n	80052ba <__divsi3+0xf6>
 80052b6:	004b      	lsls	r3, r1, #1
 80052b8:	1ac0      	subs	r0, r0, r3
 80052ba:	4152      	adcs	r2, r2
 80052bc:	1a41      	subs	r1, r0, r1
 80052be:	d200      	bcs.n	80052c2 <__divsi3+0xfe>
 80052c0:	4601      	mov	r1, r0
 80052c2:	4152      	adcs	r2, r2
 80052c4:	4610      	mov	r0, r2
 80052c6:	4770      	bx	lr
 80052c8:	e05d      	b.n	8005386 <__divsi3+0x1c2>
 80052ca:	0fca      	lsrs	r2, r1, #31
 80052cc:	d000      	beq.n	80052d0 <__divsi3+0x10c>
 80052ce:	4249      	negs	r1, r1
 80052d0:	1003      	asrs	r3, r0, #32
 80052d2:	d300      	bcc.n	80052d6 <__divsi3+0x112>
 80052d4:	4240      	negs	r0, r0
 80052d6:	4053      	eors	r3, r2
 80052d8:	2200      	movs	r2, #0
 80052da:	469c      	mov	ip, r3
 80052dc:	0903      	lsrs	r3, r0, #4
 80052de:	428b      	cmp	r3, r1
 80052e0:	d32d      	bcc.n	800533e <__divsi3+0x17a>
 80052e2:	0a03      	lsrs	r3, r0, #8
 80052e4:	428b      	cmp	r3, r1
 80052e6:	d312      	bcc.n	800530e <__divsi3+0x14a>
 80052e8:	22fc      	movs	r2, #252	@ 0xfc
 80052ea:	0189      	lsls	r1, r1, #6
 80052ec:	ba12      	rev	r2, r2
 80052ee:	0a03      	lsrs	r3, r0, #8
 80052f0:	428b      	cmp	r3, r1
 80052f2:	d30c      	bcc.n	800530e <__divsi3+0x14a>
 80052f4:	0189      	lsls	r1, r1, #6
 80052f6:	1192      	asrs	r2, r2, #6
 80052f8:	428b      	cmp	r3, r1
 80052fa:	d308      	bcc.n	800530e <__divsi3+0x14a>
 80052fc:	0189      	lsls	r1, r1, #6
 80052fe:	1192      	asrs	r2, r2, #6
 8005300:	428b      	cmp	r3, r1
 8005302:	d304      	bcc.n	800530e <__divsi3+0x14a>
 8005304:	0189      	lsls	r1, r1, #6
 8005306:	d03a      	beq.n	800537e <__divsi3+0x1ba>
 8005308:	1192      	asrs	r2, r2, #6
 800530a:	e000      	b.n	800530e <__divsi3+0x14a>
 800530c:	0989      	lsrs	r1, r1, #6
 800530e:	09c3      	lsrs	r3, r0, #7
 8005310:	428b      	cmp	r3, r1
 8005312:	d301      	bcc.n	8005318 <__divsi3+0x154>
 8005314:	01cb      	lsls	r3, r1, #7
 8005316:	1ac0      	subs	r0, r0, r3
 8005318:	4152      	adcs	r2, r2
 800531a:	0983      	lsrs	r3, r0, #6
 800531c:	428b      	cmp	r3, r1
 800531e:	d301      	bcc.n	8005324 <__divsi3+0x160>
 8005320:	018b      	lsls	r3, r1, #6
 8005322:	1ac0      	subs	r0, r0, r3
 8005324:	4152      	adcs	r2, r2
 8005326:	0943      	lsrs	r3, r0, #5
 8005328:	428b      	cmp	r3, r1
 800532a:	d301      	bcc.n	8005330 <__divsi3+0x16c>
 800532c:	014b      	lsls	r3, r1, #5
 800532e:	1ac0      	subs	r0, r0, r3
 8005330:	4152      	adcs	r2, r2
 8005332:	0903      	lsrs	r3, r0, #4
 8005334:	428b      	cmp	r3, r1
 8005336:	d301      	bcc.n	800533c <__divsi3+0x178>
 8005338:	010b      	lsls	r3, r1, #4
 800533a:	1ac0      	subs	r0, r0, r3
 800533c:	4152      	adcs	r2, r2
 800533e:	08c3      	lsrs	r3, r0, #3
 8005340:	428b      	cmp	r3, r1
 8005342:	d301      	bcc.n	8005348 <__divsi3+0x184>
 8005344:	00cb      	lsls	r3, r1, #3
 8005346:	1ac0      	subs	r0, r0, r3
 8005348:	4152      	adcs	r2, r2
 800534a:	0883      	lsrs	r3, r0, #2
 800534c:	428b      	cmp	r3, r1
 800534e:	d301      	bcc.n	8005354 <__divsi3+0x190>
 8005350:	008b      	lsls	r3, r1, #2
 8005352:	1ac0      	subs	r0, r0, r3
 8005354:	4152      	adcs	r2, r2
 8005356:	d2d9      	bcs.n	800530c <__divsi3+0x148>
 8005358:	0843      	lsrs	r3, r0, #1
 800535a:	428b      	cmp	r3, r1
 800535c:	d301      	bcc.n	8005362 <__divsi3+0x19e>
 800535e:	004b      	lsls	r3, r1, #1
 8005360:	1ac0      	subs	r0, r0, r3
 8005362:	4152      	adcs	r2, r2
 8005364:	1a41      	subs	r1, r0, r1
 8005366:	d200      	bcs.n	800536a <__divsi3+0x1a6>
 8005368:	4601      	mov	r1, r0
 800536a:	4663      	mov	r3, ip
 800536c:	4152      	adcs	r2, r2
 800536e:	105b      	asrs	r3, r3, #1
 8005370:	4610      	mov	r0, r2
 8005372:	d301      	bcc.n	8005378 <__divsi3+0x1b4>
 8005374:	4240      	negs	r0, r0
 8005376:	2b00      	cmp	r3, #0
 8005378:	d500      	bpl.n	800537c <__divsi3+0x1b8>
 800537a:	4249      	negs	r1, r1
 800537c:	4770      	bx	lr
 800537e:	4663      	mov	r3, ip
 8005380:	105b      	asrs	r3, r3, #1
 8005382:	d300      	bcc.n	8005386 <__divsi3+0x1c2>
 8005384:	4240      	negs	r0, r0
 8005386:	b501      	push	{r0, lr}
 8005388:	2000      	movs	r0, #0
 800538a:	f000 f805 	bl	8005398 <__aeabi_idiv0>
 800538e:	bd02      	pop	{r1, pc}

08005390 <__aeabi_idivmod>:
 8005390:	2900      	cmp	r1, #0
 8005392:	d0f8      	beq.n	8005386 <__divsi3+0x1c2>
 8005394:	e716      	b.n	80051c4 <__divsi3>
 8005396:	4770      	bx	lr

08005398 <__aeabi_idiv0>:
 8005398:	4770      	bx	lr
 800539a:	46c0      	nop			@ (mov r8, r8)

0800539c <__aeabi_cfrcmple>:
 800539c:	4684      	mov	ip, r0
 800539e:	0008      	movs	r0, r1
 80053a0:	4661      	mov	r1, ip
 80053a2:	e7ff      	b.n	80053a4 <__aeabi_cfcmpeq>

080053a4 <__aeabi_cfcmpeq>:
 80053a4:	b51f      	push	{r0, r1, r2, r3, r4, lr}
 80053a6:	f000 fc05 	bl	8005bb4 <__lesf2>
 80053aa:	2800      	cmp	r0, #0
 80053ac:	d401      	bmi.n	80053b2 <__aeabi_cfcmpeq+0xe>
 80053ae:	2100      	movs	r1, #0
 80053b0:	42c8      	cmn	r0, r1
 80053b2:	bd1f      	pop	{r0, r1, r2, r3, r4, pc}

080053b4 <__aeabi_fcmpeq>:
 80053b4:	b510      	push	{r4, lr}
 80053b6:	f000 fb8d 	bl	8005ad4 <__eqsf2>
 80053ba:	4240      	negs	r0, r0
 80053bc:	3001      	adds	r0, #1
 80053be:	bd10      	pop	{r4, pc}

080053c0 <__aeabi_fcmplt>:
 80053c0:	b510      	push	{r4, lr}
 80053c2:	f000 fbf7 	bl	8005bb4 <__lesf2>
 80053c6:	2800      	cmp	r0, #0
 80053c8:	db01      	blt.n	80053ce <__aeabi_fcmplt+0xe>
 80053ca:	2000      	movs	r0, #0
 80053cc:	bd10      	pop	{r4, pc}
 80053ce:	2001      	movs	r0, #1
 80053d0:	bd10      	pop	{r4, pc}
 80053d2:	46c0      	nop			@ (mov r8, r8)

080053d4 <__aeabi_fcmple>:
 80053d4:	b510      	push	{r4, lr}
 80053d6:	f000 fbed 	bl	8005bb4 <__lesf2>
 80053da:	2800      	cmp	r0, #0
 80053dc:	dd01      	ble.n	80053e2 <__aeabi_fcmple+0xe>
 80053de:	2000      	movs	r0, #0
 80053e0:	bd10      	pop	{r4, pc}
 80053e2:	2001      	movs	r0, #1
 80053e4:	bd10      	pop	{r4, pc}
 80053e6:	46c0      	nop			@ (mov r8, r8)

080053e8 <__aeabi_fcmpgt>:
 80053e8:	b510      	push	{r4, lr}
 80053ea:	f000 fb9b 	bl	8005b24 <__gesf2>
 80053ee:	2800      	cmp	r0, #0
 80053f0:	dc01      	bgt.n	80053f6 <__aeabi_fcmpgt+0xe>
 80053f2:	2000      	movs	r0, #0
 80053f4:	bd10      	pop	{r4, pc}
 80053f6:	2001      	movs	r0, #1
 80053f8:	bd10      	pop	{r4, pc}
 80053fa:	46c0      	nop			@ (mov r8, r8)

080053fc <__aeabi_fcmpge>:
 80053fc:	b510      	push	{r4, lr}
 80053fe:	f000 fb91 	bl	8005b24 <__gesf2>
 8005402:	2800      	cmp	r0, #0
 8005404:	da01      	bge.n	800540a <__aeabi_fcmpge+0xe>
 8005406:	2000      	movs	r0, #0
 8005408:	bd10      	pop	{r4, pc}
 800540a:	2001      	movs	r0, #1
 800540c:	bd10      	pop	{r4, pc}
 800540e:	46c0      	nop			@ (mov r8, r8)

08005410 <__aeabi_ldivmod>:
 8005410:	2b00      	cmp	r3, #0
 8005412:	d115      	bne.n	8005440 <__aeabi_ldivmod+0x30>
 8005414:	2a00      	cmp	r2, #0
 8005416:	d113      	bne.n	8005440 <__aeabi_ldivmod+0x30>
 8005418:	2900      	cmp	r1, #0
 800541a:	db06      	blt.n	800542a <__aeabi_ldivmod+0x1a>
 800541c:	dc01      	bgt.n	8005422 <__aeabi_ldivmod+0x12>
 800541e:	2800      	cmp	r0, #0
 8005420:	d006      	beq.n	8005430 <__aeabi_ldivmod+0x20>
 8005422:	2000      	movs	r0, #0
 8005424:	43c0      	mvns	r0, r0
 8005426:	0841      	lsrs	r1, r0, #1
 8005428:	e002      	b.n	8005430 <__aeabi_ldivmod+0x20>
 800542a:	2180      	movs	r1, #128	@ 0x80
 800542c:	0609      	lsls	r1, r1, #24
 800542e:	2000      	movs	r0, #0
 8005430:	b407      	push	{r0, r1, r2}
 8005432:	4802      	ldr	r0, [pc, #8]	@ (800543c <__aeabi_ldivmod+0x2c>)
 8005434:	a101      	add	r1, pc, #4	@ (adr r1, 800543c <__aeabi_ldivmod+0x2c>)
 8005436:	1840      	adds	r0, r0, r1
 8005438:	9002      	str	r0, [sp, #8]
 800543a:	bd03      	pop	{r0, r1, pc}
 800543c:	ffffff5d 	.word	0xffffff5d
 8005440:	b403      	push	{r0, r1}
 8005442:	4668      	mov	r0, sp
 8005444:	b501      	push	{r0, lr}
 8005446:	9802      	ldr	r0, [sp, #8]
 8005448:	f000 f81e 	bl	8005488 <__gnu_ldivmod_helper>
 800544c:	9b01      	ldr	r3, [sp, #4]
 800544e:	469e      	mov	lr, r3
 8005450:	b002      	add	sp, #8
 8005452:	bc0c      	pop	{r2, r3}
 8005454:	4770      	bx	lr
 8005456:	46c0      	nop			@ (mov r8, r8)

08005458 <__aeabi_f2uiz>:
 8005458:	219e      	movs	r1, #158	@ 0x9e
 800545a:	b510      	push	{r4, lr}
 800545c:	05c9      	lsls	r1, r1, #23
 800545e:	1c04      	adds	r4, r0, #0
 8005460:	f7ff ffcc 	bl	80053fc <__aeabi_fcmpge>
 8005464:	2800      	cmp	r0, #0
 8005466:	d103      	bne.n	8005470 <__aeabi_f2uiz+0x18>
 8005468:	1c20      	adds	r0, r4, #0
 800546a:	f000 ffa9 	bl	80063c0 <__aeabi_f2iz>
 800546e:	bd10      	pop	{r4, pc}
 8005470:	219e      	movs	r1, #158	@ 0x9e
 8005472:	1c20      	adds	r0, r4, #0
 8005474:	05c9      	lsls	r1, r1, #23
 8005476:	f000 fd3f 	bl	8005ef8 <__aeabi_fsub>
 800547a:	f000 ffa1 	bl	80063c0 <__aeabi_f2iz>
 800547e:	2380      	movs	r3, #128	@ 0x80
 8005480:	061b      	lsls	r3, r3, #24
 8005482:	469c      	mov	ip, r3
 8005484:	4460      	add	r0, ip
 8005486:	e7f2      	b.n	800546e <__aeabi_f2uiz+0x16>

08005488 <__gnu_ldivmod_helper>:
 8005488:	b5f8      	push	{r3, r4, r5, r6, r7, lr}
 800548a:	46ce      	mov	lr, r9
 800548c:	4647      	mov	r7, r8
 800548e:	b580      	push	{r7, lr}
 8005490:	4691      	mov	r9, r2
 8005492:	4698      	mov	r8, r3
 8005494:	0004      	movs	r4, r0
 8005496:	000d      	movs	r5, r1
 8005498:	f001 f894 	bl	80065c4 <__divdi3>
 800549c:	0007      	movs	r7, r0
 800549e:	000e      	movs	r6, r1
 80054a0:	0002      	movs	r2, r0
 80054a2:	000b      	movs	r3, r1
 80054a4:	4648      	mov	r0, r9
 80054a6:	4641      	mov	r1, r8
 80054a8:	f001 f85e 	bl	8006568 <__aeabi_lmul>
 80054ac:	1a24      	subs	r4, r4, r0
 80054ae:	418d      	sbcs	r5, r1
 80054b0:	9b08      	ldr	r3, [sp, #32]
 80054b2:	0038      	movs	r0, r7
 80054b4:	0031      	movs	r1, r6
 80054b6:	601c      	str	r4, [r3, #0]
 80054b8:	605d      	str	r5, [r3, #4]
 80054ba:	bcc0      	pop	{r6, r7}
 80054bc:	46b9      	mov	r9, r7
 80054be:	46b0      	mov	r8, r6
 80054c0:	bdf8      	pop	{r3, r4, r5, r6, r7, pc}
 80054c2:	46c0      	nop			@ (mov r8, r8)

080054c4 <__aeabi_fadd>:
 80054c4:	b5f8      	push	{r3, r4, r5, r6, r7, lr}
 80054c6:	024b      	lsls	r3, r1, #9
 80054c8:	0a5a      	lsrs	r2, r3, #9
 80054ca:	4694      	mov	ip, r2
 80054cc:	004a      	lsls	r2, r1, #1
 80054ce:	0fc9      	lsrs	r1, r1, #31
 80054d0:	46ce      	mov	lr, r9
 80054d2:	4647      	mov	r7, r8
 80054d4:	4689      	mov	r9, r1
 80054d6:	0045      	lsls	r5, r0, #1
 80054d8:	0246      	lsls	r6, r0, #9
 80054da:	0e2d      	lsrs	r5, r5, #24
 80054dc:	0e12      	lsrs	r2, r2, #24
 80054de:	b580      	push	{r7, lr}
 80054e0:	0999      	lsrs	r1, r3, #6
 80054e2:	0a77      	lsrs	r7, r6, #9
 80054e4:	0fc4      	lsrs	r4, r0, #31
 80054e6:	09b6      	lsrs	r6, r6, #6
 80054e8:	1aab      	subs	r3, r5, r2
 80054ea:	454c      	cmp	r4, r9
 80054ec:	d020      	beq.n	8005530 <__aeabi_fadd+0x6c>
 80054ee:	2b00      	cmp	r3, #0
 80054f0:	dd0c      	ble.n	800550c <__aeabi_fadd+0x48>
 80054f2:	2a00      	cmp	r2, #0
 80054f4:	d134      	bne.n	8005560 <__aeabi_fadd+0x9c>
 80054f6:	2900      	cmp	r1, #0
 80054f8:	d02a      	beq.n	8005550 <__aeabi_fadd+0x8c>
 80054fa:	1e5a      	subs	r2, r3, #1
 80054fc:	2b01      	cmp	r3, #1
 80054fe:	d100      	bne.n	8005502 <__aeabi_fadd+0x3e>
 8005500:	e08f      	b.n	8005622 <__aeabi_fadd+0x15e>
 8005502:	2bff      	cmp	r3, #255	@ 0xff
 8005504:	d100      	bne.n	8005508 <__aeabi_fadd+0x44>
 8005506:	e0cd      	b.n	80056a4 <__aeabi_fadd+0x1e0>
 8005508:	0013      	movs	r3, r2
 800550a:	e02f      	b.n	800556c <__aeabi_fadd+0xa8>
 800550c:	2b00      	cmp	r3, #0
 800550e:	d060      	beq.n	80055d2 <__aeabi_fadd+0x10e>
 8005510:	1b53      	subs	r3, r2, r5
 8005512:	2d00      	cmp	r5, #0
 8005514:	d000      	beq.n	8005518 <__aeabi_fadd+0x54>
 8005516:	e0ee      	b.n	80056f6 <__aeabi_fadd+0x232>
 8005518:	2e00      	cmp	r6, #0
 800551a:	d100      	bne.n	800551e <__aeabi_fadd+0x5a>
 800551c:	e13e      	b.n	800579c <__aeabi_fadd+0x2d8>
 800551e:	1e5c      	subs	r4, r3, #1
 8005520:	2b01      	cmp	r3, #1
 8005522:	d100      	bne.n	8005526 <__aeabi_fadd+0x62>
 8005524:	e16b      	b.n	80057fe <__aeabi_fadd+0x33a>
 8005526:	2bff      	cmp	r3, #255	@ 0xff
 8005528:	d100      	bne.n	800552c <__aeabi_fadd+0x68>
 800552a:	e0b9      	b.n	80056a0 <__aeabi_fadd+0x1dc>
 800552c:	0023      	movs	r3, r4
 800552e:	e0e7      	b.n	8005700 <__aeabi_fadd+0x23c>
 8005530:	2b00      	cmp	r3, #0
 8005532:	dc00      	bgt.n	8005536 <__aeabi_fadd+0x72>
 8005534:	e0a4      	b.n	8005680 <__aeabi_fadd+0x1bc>
 8005536:	2a00      	cmp	r2, #0
 8005538:	d069      	beq.n	800560e <__aeabi_fadd+0x14a>
 800553a:	2dff      	cmp	r5, #255	@ 0xff
 800553c:	d100      	bne.n	8005540 <__aeabi_fadd+0x7c>
 800553e:	e0b1      	b.n	80056a4 <__aeabi_fadd+0x1e0>
 8005540:	2280      	movs	r2, #128	@ 0x80
 8005542:	04d2      	lsls	r2, r2, #19
 8005544:	4311      	orrs	r1, r2
 8005546:	2b1b      	cmp	r3, #27
 8005548:	dc00      	bgt.n	800554c <__aeabi_fadd+0x88>
 800554a:	e0e9      	b.n	8005720 <__aeabi_fadd+0x25c>
 800554c:	002b      	movs	r3, r5
 800554e:	3605      	adds	r6, #5
 8005550:	08f7      	lsrs	r7, r6, #3
 8005552:	2bff      	cmp	r3, #255	@ 0xff
 8005554:	d100      	bne.n	8005558 <__aeabi_fadd+0x94>
 8005556:	e0a5      	b.n	80056a4 <__aeabi_fadd+0x1e0>
 8005558:	027a      	lsls	r2, r7, #9
 800555a:	0a52      	lsrs	r2, r2, #9
 800555c:	b2d8      	uxtb	r0, r3
 800555e:	e030      	b.n	80055c2 <__aeabi_fadd+0xfe>
 8005560:	2dff      	cmp	r5, #255	@ 0xff
 8005562:	d100      	bne.n	8005566 <__aeabi_fadd+0xa2>
 8005564:	e09e      	b.n	80056a4 <__aeabi_fadd+0x1e0>
 8005566:	2280      	movs	r2, #128	@ 0x80
 8005568:	04d2      	lsls	r2, r2, #19
 800556a:	4311      	orrs	r1, r2
 800556c:	2001      	movs	r0, #1
 800556e:	2b1b      	cmp	r3, #27
 8005570:	dc08      	bgt.n	8005584 <__aeabi_fadd+0xc0>
 8005572:	0008      	movs	r0, r1
 8005574:	2220      	movs	r2, #32
 8005576:	40d8      	lsrs	r0, r3
 8005578:	1ad3      	subs	r3, r2, r3
 800557a:	4099      	lsls	r1, r3
 800557c:	000b      	movs	r3, r1
 800557e:	1e5a      	subs	r2, r3, #1
 8005580:	4193      	sbcs	r3, r2
 8005582:	4318      	orrs	r0, r3
 8005584:	1a36      	subs	r6, r6, r0
 8005586:	0173      	lsls	r3, r6, #5
 8005588:	d400      	bmi.n	800558c <__aeabi_fadd+0xc8>
 800558a:	e071      	b.n	8005670 <__aeabi_fadd+0x1ac>
 800558c:	01b6      	lsls	r6, r6, #6
 800558e:	09b7      	lsrs	r7, r6, #6
 8005590:	0038      	movs	r0, r7
 8005592:	f000 ffcb 	bl	800652c <__clzsi2>
 8005596:	003b      	movs	r3, r7
 8005598:	3805      	subs	r0, #5
 800559a:	4083      	lsls	r3, r0
 800559c:	4285      	cmp	r5, r0
 800559e:	dd4d      	ble.n	800563c <__aeabi_fadd+0x178>
 80055a0:	4eb4      	ldr	r6, [pc, #720]	@ (8005874 <__aeabi_fadd+0x3b0>)
 80055a2:	1a2d      	subs	r5, r5, r0
 80055a4:	401e      	ands	r6, r3
 80055a6:	075a      	lsls	r2, r3, #29
 80055a8:	d068      	beq.n	800567c <__aeabi_fadd+0x1b8>
 80055aa:	220f      	movs	r2, #15
 80055ac:	4013      	ands	r3, r2
 80055ae:	2b04      	cmp	r3, #4
 80055b0:	d064      	beq.n	800567c <__aeabi_fadd+0x1b8>
 80055b2:	3604      	adds	r6, #4
 80055b4:	0173      	lsls	r3, r6, #5
 80055b6:	d561      	bpl.n	800567c <__aeabi_fadd+0x1b8>
 80055b8:	1c68      	adds	r0, r5, #1
 80055ba:	2dfe      	cmp	r5, #254	@ 0xfe
 80055bc:	d154      	bne.n	8005668 <__aeabi_fadd+0x1a4>
 80055be:	20ff      	movs	r0, #255	@ 0xff
 80055c0:	2200      	movs	r2, #0
 80055c2:	05c0      	lsls	r0, r0, #23
 80055c4:	4310      	orrs	r0, r2
 80055c6:	07e4      	lsls	r4, r4, #31
 80055c8:	4320      	orrs	r0, r4
 80055ca:	bcc0      	pop	{r6, r7}
 80055cc:	46b9      	mov	r9, r7
 80055ce:	46b0      	mov	r8, r6
 80055d0:	bdf8      	pop	{r3, r4, r5, r6, r7, pc}
 80055d2:	22fe      	movs	r2, #254	@ 0xfe
 80055d4:	4690      	mov	r8, r2
 80055d6:	1c68      	adds	r0, r5, #1
 80055d8:	0002      	movs	r2, r0
 80055da:	4640      	mov	r0, r8
 80055dc:	4210      	tst	r0, r2
 80055de:	d16b      	bne.n	80056b8 <__aeabi_fadd+0x1f4>
 80055e0:	2d00      	cmp	r5, #0
 80055e2:	d000      	beq.n	80055e6 <__aeabi_fadd+0x122>
 80055e4:	e0dd      	b.n	80057a2 <__aeabi_fadd+0x2de>
 80055e6:	2e00      	cmp	r6, #0
 80055e8:	d100      	bne.n	80055ec <__aeabi_fadd+0x128>
 80055ea:	e102      	b.n	80057f2 <__aeabi_fadd+0x32e>
 80055ec:	2900      	cmp	r1, #0
 80055ee:	d0b3      	beq.n	8005558 <__aeabi_fadd+0x94>
 80055f0:	2280      	movs	r2, #128	@ 0x80
 80055f2:	1a77      	subs	r7, r6, r1
 80055f4:	04d2      	lsls	r2, r2, #19
 80055f6:	4217      	tst	r7, r2
 80055f8:	d100      	bne.n	80055fc <__aeabi_fadd+0x138>
 80055fa:	e136      	b.n	800586a <__aeabi_fadd+0x3a6>
 80055fc:	464c      	mov	r4, r9
 80055fe:	1b8e      	subs	r6, r1, r6
 8005600:	d061      	beq.n	80056c6 <__aeabi_fadd+0x202>
 8005602:	2001      	movs	r0, #1
 8005604:	4216      	tst	r6, r2
 8005606:	d130      	bne.n	800566a <__aeabi_fadd+0x1a6>
 8005608:	2300      	movs	r3, #0
 800560a:	08f7      	lsrs	r7, r6, #3
 800560c:	e7a4      	b.n	8005558 <__aeabi_fadd+0x94>
 800560e:	2900      	cmp	r1, #0
 8005610:	d09e      	beq.n	8005550 <__aeabi_fadd+0x8c>
 8005612:	1e5a      	subs	r2, r3, #1
 8005614:	2b01      	cmp	r3, #1
 8005616:	d100      	bne.n	800561a <__aeabi_fadd+0x156>
 8005618:	e0ca      	b.n	80057b0 <__aeabi_fadd+0x2ec>
 800561a:	2bff      	cmp	r3, #255	@ 0xff
 800561c:	d042      	beq.n	80056a4 <__aeabi_fadd+0x1e0>
 800561e:	0013      	movs	r3, r2
 8005620:	e791      	b.n	8005546 <__aeabi_fadd+0x82>
 8005622:	1a71      	subs	r1, r6, r1
 8005624:	014b      	lsls	r3, r1, #5
 8005626:	d400      	bmi.n	800562a <__aeabi_fadd+0x166>
 8005628:	e0d1      	b.n	80057ce <__aeabi_fadd+0x30a>
 800562a:	018f      	lsls	r7, r1, #6
 800562c:	09bf      	lsrs	r7, r7, #6
 800562e:	0038      	movs	r0, r7
 8005630:	f000 ff7c 	bl	800652c <__clzsi2>
 8005634:	003b      	movs	r3, r7
 8005636:	3805      	subs	r0, #5
 8005638:	4083      	lsls	r3, r0
 800563a:	2501      	movs	r5, #1
 800563c:	2220      	movs	r2, #32
 800563e:	1b40      	subs	r0, r0, r5
 8005640:	3001      	adds	r0, #1
 8005642:	1a12      	subs	r2, r2, r0
 8005644:	001e      	movs	r6, r3
 8005646:	4093      	lsls	r3, r2
 8005648:	40c6      	lsrs	r6, r0
 800564a:	1e5a      	subs	r2, r3, #1
 800564c:	4193      	sbcs	r3, r2
 800564e:	431e      	orrs	r6, r3
 8005650:	d039      	beq.n	80056c6 <__aeabi_fadd+0x202>
 8005652:	0773      	lsls	r3, r6, #29
 8005654:	d100      	bne.n	8005658 <__aeabi_fadd+0x194>
 8005656:	e11b      	b.n	8005890 <__aeabi_fadd+0x3cc>
 8005658:	230f      	movs	r3, #15
 800565a:	2500      	movs	r5, #0
 800565c:	4033      	ands	r3, r6
 800565e:	2b04      	cmp	r3, #4
 8005660:	d1a7      	bne.n	80055b2 <__aeabi_fadd+0xee>
 8005662:	2001      	movs	r0, #1
 8005664:	0172      	lsls	r2, r6, #5
 8005666:	d57c      	bpl.n	8005762 <__aeabi_fadd+0x29e>
 8005668:	b2c0      	uxtb	r0, r0
 800566a:	01b2      	lsls	r2, r6, #6
 800566c:	0a52      	lsrs	r2, r2, #9
 800566e:	e7a8      	b.n	80055c2 <__aeabi_fadd+0xfe>
 8005670:	0773      	lsls	r3, r6, #29
 8005672:	d003      	beq.n	800567c <__aeabi_fadd+0x1b8>
 8005674:	230f      	movs	r3, #15
 8005676:	4033      	ands	r3, r6
 8005678:	2b04      	cmp	r3, #4
 800567a:	d19a      	bne.n	80055b2 <__aeabi_fadd+0xee>
 800567c:	002b      	movs	r3, r5
 800567e:	e767      	b.n	8005550 <__aeabi_fadd+0x8c>
 8005680:	2b00      	cmp	r3, #0
 8005682:	d023      	beq.n	80056cc <__aeabi_fadd+0x208>
 8005684:	1b53      	subs	r3, r2, r5
 8005686:	2d00      	cmp	r5, #0
 8005688:	d17b      	bne.n	8005782 <__aeabi_fadd+0x2be>
 800568a:	2e00      	cmp	r6, #0
 800568c:	d100      	bne.n	8005690 <__aeabi_fadd+0x1cc>
 800568e:	e086      	b.n	800579e <__aeabi_fadd+0x2da>
 8005690:	1e5d      	subs	r5, r3, #1
 8005692:	2b01      	cmp	r3, #1
 8005694:	d100      	bne.n	8005698 <__aeabi_fadd+0x1d4>
 8005696:	e08b      	b.n	80057b0 <__aeabi_fadd+0x2ec>
 8005698:	2bff      	cmp	r3, #255	@ 0xff
 800569a:	d002      	beq.n	80056a2 <__aeabi_fadd+0x1de>
 800569c:	002b      	movs	r3, r5
 800569e:	e075      	b.n	800578c <__aeabi_fadd+0x2c8>
 80056a0:	464c      	mov	r4, r9
 80056a2:	4667      	mov	r7, ip
 80056a4:	2f00      	cmp	r7, #0
 80056a6:	d100      	bne.n	80056aa <__aeabi_fadd+0x1e6>
 80056a8:	e789      	b.n	80055be <__aeabi_fadd+0xfa>
 80056aa:	2280      	movs	r2, #128	@ 0x80
 80056ac:	03d2      	lsls	r2, r2, #15
 80056ae:	433a      	orrs	r2, r7
 80056b0:	0252      	lsls	r2, r2, #9
 80056b2:	20ff      	movs	r0, #255	@ 0xff
 80056b4:	0a52      	lsrs	r2, r2, #9
 80056b6:	e784      	b.n	80055c2 <__aeabi_fadd+0xfe>
 80056b8:	1a77      	subs	r7, r6, r1
 80056ba:	017b      	lsls	r3, r7, #5
 80056bc:	d46b      	bmi.n	8005796 <__aeabi_fadd+0x2d2>
 80056be:	2f00      	cmp	r7, #0
 80056c0:	d000      	beq.n	80056c4 <__aeabi_fadd+0x200>
 80056c2:	e765      	b.n	8005590 <__aeabi_fadd+0xcc>
 80056c4:	2400      	movs	r4, #0
 80056c6:	2000      	movs	r0, #0
 80056c8:	2200      	movs	r2, #0
 80056ca:	e77a      	b.n	80055c2 <__aeabi_fadd+0xfe>
 80056cc:	22fe      	movs	r2, #254	@ 0xfe
 80056ce:	1c6b      	adds	r3, r5, #1
 80056d0:	421a      	tst	r2, r3
 80056d2:	d149      	bne.n	8005768 <__aeabi_fadd+0x2a4>
 80056d4:	2d00      	cmp	r5, #0
 80056d6:	d000      	beq.n	80056da <__aeabi_fadd+0x216>
 80056d8:	e09f      	b.n	800581a <__aeabi_fadd+0x356>
 80056da:	2e00      	cmp	r6, #0
 80056dc:	d100      	bne.n	80056e0 <__aeabi_fadd+0x21c>
 80056de:	e0ba      	b.n	8005856 <__aeabi_fadd+0x392>
 80056e0:	2900      	cmp	r1, #0
 80056e2:	d100      	bne.n	80056e6 <__aeabi_fadd+0x222>
 80056e4:	e0cf      	b.n	8005886 <__aeabi_fadd+0x3c2>
 80056e6:	1872      	adds	r2, r6, r1
 80056e8:	0153      	lsls	r3, r2, #5
 80056ea:	d400      	bmi.n	80056ee <__aeabi_fadd+0x22a>
 80056ec:	e0cd      	b.n	800588a <__aeabi_fadd+0x3c6>
 80056ee:	0192      	lsls	r2, r2, #6
 80056f0:	2001      	movs	r0, #1
 80056f2:	0a52      	lsrs	r2, r2, #9
 80056f4:	e765      	b.n	80055c2 <__aeabi_fadd+0xfe>
 80056f6:	2aff      	cmp	r2, #255	@ 0xff
 80056f8:	d0d2      	beq.n	80056a0 <__aeabi_fadd+0x1dc>
 80056fa:	2080      	movs	r0, #128	@ 0x80
 80056fc:	04c0      	lsls	r0, r0, #19
 80056fe:	4306      	orrs	r6, r0
 8005700:	2001      	movs	r0, #1
 8005702:	2b1b      	cmp	r3, #27
 8005704:	dc08      	bgt.n	8005718 <__aeabi_fadd+0x254>
 8005706:	0030      	movs	r0, r6
 8005708:	2420      	movs	r4, #32
 800570a:	40d8      	lsrs	r0, r3
 800570c:	1ae3      	subs	r3, r4, r3
 800570e:	409e      	lsls	r6, r3
 8005710:	0033      	movs	r3, r6
 8005712:	1e5c      	subs	r4, r3, #1
 8005714:	41a3      	sbcs	r3, r4
 8005716:	4318      	orrs	r0, r3
 8005718:	464c      	mov	r4, r9
 800571a:	0015      	movs	r5, r2
 800571c:	1a0e      	subs	r6, r1, r0
 800571e:	e732      	b.n	8005586 <__aeabi_fadd+0xc2>
 8005720:	0008      	movs	r0, r1
 8005722:	2220      	movs	r2, #32
 8005724:	40d8      	lsrs	r0, r3
 8005726:	1ad3      	subs	r3, r2, r3
 8005728:	4099      	lsls	r1, r3
 800572a:	000b      	movs	r3, r1
 800572c:	1e5a      	subs	r2, r3, #1
 800572e:	4193      	sbcs	r3, r2
 8005730:	4303      	orrs	r3, r0
 8005732:	18f6      	adds	r6, r6, r3
 8005734:	0173      	lsls	r3, r6, #5
 8005736:	d59b      	bpl.n	8005670 <__aeabi_fadd+0x1ac>
 8005738:	3501      	adds	r5, #1
 800573a:	2dff      	cmp	r5, #255	@ 0xff
 800573c:	d100      	bne.n	8005740 <__aeabi_fadd+0x27c>
 800573e:	e73e      	b.n	80055be <__aeabi_fadd+0xfa>
 8005740:	2301      	movs	r3, #1
 8005742:	494d      	ldr	r1, [pc, #308]	@ (8005878 <__aeabi_fadd+0x3b4>)
 8005744:	0872      	lsrs	r2, r6, #1
 8005746:	4033      	ands	r3, r6
 8005748:	400a      	ands	r2, r1
 800574a:	431a      	orrs	r2, r3
 800574c:	0016      	movs	r6, r2
 800574e:	0753      	lsls	r3, r2, #29
 8005750:	d004      	beq.n	800575c <__aeabi_fadd+0x298>
 8005752:	230f      	movs	r3, #15
 8005754:	4013      	ands	r3, r2
 8005756:	2b04      	cmp	r3, #4
 8005758:	d000      	beq.n	800575c <__aeabi_fadd+0x298>
 800575a:	e72a      	b.n	80055b2 <__aeabi_fadd+0xee>
 800575c:	0173      	lsls	r3, r6, #5
 800575e:	d500      	bpl.n	8005762 <__aeabi_fadd+0x29e>
 8005760:	e72a      	b.n	80055b8 <__aeabi_fadd+0xf4>
 8005762:	002b      	movs	r3, r5
 8005764:	08f7      	lsrs	r7, r6, #3
 8005766:	e6f7      	b.n	8005558 <__aeabi_fadd+0x94>
 8005768:	2bff      	cmp	r3, #255	@ 0xff
 800576a:	d100      	bne.n	800576e <__aeabi_fadd+0x2aa>
 800576c:	e727      	b.n	80055be <__aeabi_fadd+0xfa>
 800576e:	1871      	adds	r1, r6, r1
 8005770:	0849      	lsrs	r1, r1, #1
 8005772:	074a      	lsls	r2, r1, #29
 8005774:	d02f      	beq.n	80057d6 <__aeabi_fadd+0x312>
 8005776:	220f      	movs	r2, #15
 8005778:	400a      	ands	r2, r1
 800577a:	2a04      	cmp	r2, #4
 800577c:	d02b      	beq.n	80057d6 <__aeabi_fadd+0x312>
 800577e:	1d0e      	adds	r6, r1, #4
 8005780:	e6e6      	b.n	8005550 <__aeabi_fadd+0x8c>
 8005782:	2aff      	cmp	r2, #255	@ 0xff
 8005784:	d08d      	beq.n	80056a2 <__aeabi_fadd+0x1de>
 8005786:	2080      	movs	r0, #128	@ 0x80
 8005788:	04c0      	lsls	r0, r0, #19
 800578a:	4306      	orrs	r6, r0
 800578c:	2b1b      	cmp	r3, #27
 800578e:	dd24      	ble.n	80057da <__aeabi_fadd+0x316>
 8005790:	0013      	movs	r3, r2
 8005792:	1d4e      	adds	r6, r1, #5
 8005794:	e6dc      	b.n	8005550 <__aeabi_fadd+0x8c>
 8005796:	464c      	mov	r4, r9
 8005798:	1b8f      	subs	r7, r1, r6
 800579a:	e6f9      	b.n	8005590 <__aeabi_fadd+0xcc>
 800579c:	464c      	mov	r4, r9
 800579e:	000e      	movs	r6, r1
 80057a0:	e6d6      	b.n	8005550 <__aeabi_fadd+0x8c>
 80057a2:	2e00      	cmp	r6, #0
 80057a4:	d149      	bne.n	800583a <__aeabi_fadd+0x376>
 80057a6:	2900      	cmp	r1, #0
 80057a8:	d068      	beq.n	800587c <__aeabi_fadd+0x3b8>
 80057aa:	4667      	mov	r7, ip
 80057ac:	464c      	mov	r4, r9
 80057ae:	e77c      	b.n	80056aa <__aeabi_fadd+0x1e6>
 80057b0:	1870      	adds	r0, r6, r1
 80057b2:	0143      	lsls	r3, r0, #5
 80057b4:	d574      	bpl.n	80058a0 <__aeabi_fadd+0x3dc>
 80057b6:	4930      	ldr	r1, [pc, #192]	@ (8005878 <__aeabi_fadd+0x3b4>)
 80057b8:	0840      	lsrs	r0, r0, #1
 80057ba:	4001      	ands	r1, r0
 80057bc:	0743      	lsls	r3, r0, #29
 80057be:	d009      	beq.n	80057d4 <__aeabi_fadd+0x310>
 80057c0:	230f      	movs	r3, #15
 80057c2:	4003      	ands	r3, r0
 80057c4:	2b04      	cmp	r3, #4
 80057c6:	d005      	beq.n	80057d4 <__aeabi_fadd+0x310>
 80057c8:	2302      	movs	r3, #2
 80057ca:	1d0e      	adds	r6, r1, #4
 80057cc:	e6c0      	b.n	8005550 <__aeabi_fadd+0x8c>
 80057ce:	2301      	movs	r3, #1
 80057d0:	08cf      	lsrs	r7, r1, #3
 80057d2:	e6c1      	b.n	8005558 <__aeabi_fadd+0x94>
 80057d4:	2302      	movs	r3, #2
 80057d6:	08cf      	lsrs	r7, r1, #3
 80057d8:	e6be      	b.n	8005558 <__aeabi_fadd+0x94>
 80057da:	2520      	movs	r5, #32
 80057dc:	0030      	movs	r0, r6
 80057de:	40d8      	lsrs	r0, r3
 80057e0:	1aeb      	subs	r3, r5, r3
 80057e2:	409e      	lsls	r6, r3
 80057e4:	0033      	movs	r3, r6
 80057e6:	1e5d      	subs	r5, r3, #1
 80057e8:	41ab      	sbcs	r3, r5
 80057ea:	4303      	orrs	r3, r0
 80057ec:	0015      	movs	r5, r2
 80057ee:	185e      	adds	r6, r3, r1
 80057f0:	e7a0      	b.n	8005734 <__aeabi_fadd+0x270>
 80057f2:	2900      	cmp	r1, #0
 80057f4:	d100      	bne.n	80057f8 <__aeabi_fadd+0x334>
 80057f6:	e765      	b.n	80056c4 <__aeabi_fadd+0x200>
 80057f8:	464c      	mov	r4, r9
 80057fa:	4667      	mov	r7, ip
 80057fc:	e6ac      	b.n	8005558 <__aeabi_fadd+0x94>
 80057fe:	1b8f      	subs	r7, r1, r6
 8005800:	017b      	lsls	r3, r7, #5
 8005802:	d52e      	bpl.n	8005862 <__aeabi_fadd+0x39e>
 8005804:	01bf      	lsls	r7, r7, #6
 8005806:	09bf      	lsrs	r7, r7, #6
 8005808:	0038      	movs	r0, r7
 800580a:	f000 fe8f 	bl	800652c <__clzsi2>
 800580e:	003b      	movs	r3, r7
 8005810:	3805      	subs	r0, #5
 8005812:	4083      	lsls	r3, r0
 8005814:	464c      	mov	r4, r9
 8005816:	3501      	adds	r5, #1
 8005818:	e710      	b.n	800563c <__aeabi_fadd+0x178>
 800581a:	2e00      	cmp	r6, #0
 800581c:	d100      	bne.n	8005820 <__aeabi_fadd+0x35c>
 800581e:	e740      	b.n	80056a2 <__aeabi_fadd+0x1de>
 8005820:	2900      	cmp	r1, #0
 8005822:	d100      	bne.n	8005826 <__aeabi_fadd+0x362>
 8005824:	e741      	b.n	80056aa <__aeabi_fadd+0x1e6>
 8005826:	2380      	movs	r3, #128	@ 0x80
 8005828:	03db      	lsls	r3, r3, #15
 800582a:	429f      	cmp	r7, r3
 800582c:	d200      	bcs.n	8005830 <__aeabi_fadd+0x36c>
 800582e:	e73c      	b.n	80056aa <__aeabi_fadd+0x1e6>
 8005830:	459c      	cmp	ip, r3
 8005832:	d300      	bcc.n	8005836 <__aeabi_fadd+0x372>
 8005834:	e739      	b.n	80056aa <__aeabi_fadd+0x1e6>
 8005836:	4667      	mov	r7, ip
 8005838:	e737      	b.n	80056aa <__aeabi_fadd+0x1e6>
 800583a:	2900      	cmp	r1, #0
 800583c:	d100      	bne.n	8005840 <__aeabi_fadd+0x37c>
 800583e:	e734      	b.n	80056aa <__aeabi_fadd+0x1e6>
 8005840:	2380      	movs	r3, #128	@ 0x80
 8005842:	03db      	lsls	r3, r3, #15
 8005844:	429f      	cmp	r7, r3
 8005846:	d200      	bcs.n	800584a <__aeabi_fadd+0x386>
 8005848:	e72f      	b.n	80056aa <__aeabi_fadd+0x1e6>
 800584a:	459c      	cmp	ip, r3
 800584c:	d300      	bcc.n	8005850 <__aeabi_fadd+0x38c>
 800584e:	e72c      	b.n	80056aa <__aeabi_fadd+0x1e6>
 8005850:	464c      	mov	r4, r9
 8005852:	4667      	mov	r7, ip
 8005854:	e729      	b.n	80056aa <__aeabi_fadd+0x1e6>
 8005856:	2900      	cmp	r1, #0
 8005858:	d100      	bne.n	800585c <__aeabi_fadd+0x398>
 800585a:	e734      	b.n	80056c6 <__aeabi_fadd+0x202>
 800585c:	2300      	movs	r3, #0
 800585e:	08cf      	lsrs	r7, r1, #3
 8005860:	e67a      	b.n	8005558 <__aeabi_fadd+0x94>
 8005862:	464c      	mov	r4, r9
 8005864:	2301      	movs	r3, #1
 8005866:	08ff      	lsrs	r7, r7, #3
 8005868:	e676      	b.n	8005558 <__aeabi_fadd+0x94>
 800586a:	2f00      	cmp	r7, #0
 800586c:	d100      	bne.n	8005870 <__aeabi_fadd+0x3ac>
 800586e:	e729      	b.n	80056c4 <__aeabi_fadd+0x200>
 8005870:	08ff      	lsrs	r7, r7, #3
 8005872:	e671      	b.n	8005558 <__aeabi_fadd+0x94>
 8005874:	fbffffff 	.word	0xfbffffff
 8005878:	7dffffff 	.word	0x7dffffff
 800587c:	2280      	movs	r2, #128	@ 0x80
 800587e:	2400      	movs	r4, #0
 8005880:	20ff      	movs	r0, #255	@ 0xff
 8005882:	03d2      	lsls	r2, r2, #15
 8005884:	e69d      	b.n	80055c2 <__aeabi_fadd+0xfe>
 8005886:	2300      	movs	r3, #0
 8005888:	e666      	b.n	8005558 <__aeabi_fadd+0x94>
 800588a:	2300      	movs	r3, #0
 800588c:	08d7      	lsrs	r7, r2, #3
 800588e:	e663      	b.n	8005558 <__aeabi_fadd+0x94>
 8005890:	2001      	movs	r0, #1
 8005892:	0172      	lsls	r2, r6, #5
 8005894:	d500      	bpl.n	8005898 <__aeabi_fadd+0x3d4>
 8005896:	e6e7      	b.n	8005668 <__aeabi_fadd+0x1a4>
 8005898:	0031      	movs	r1, r6
 800589a:	2300      	movs	r3, #0
 800589c:	08cf      	lsrs	r7, r1, #3
 800589e:	e65b      	b.n	8005558 <__aeabi_fadd+0x94>
 80058a0:	2301      	movs	r3, #1
 80058a2:	08c7      	lsrs	r7, r0, #3
 80058a4:	e658      	b.n	8005558 <__aeabi_fadd+0x94>
 80058a6:	46c0      	nop			@ (mov r8, r8)

080058a8 <__aeabi_fdiv>:
 80058a8:	b5f0      	push	{r4, r5, r6, r7, lr}
 80058aa:	4646      	mov	r6, r8
 80058ac:	464f      	mov	r7, r9
 80058ae:	46d6      	mov	lr, sl
 80058b0:	0245      	lsls	r5, r0, #9
 80058b2:	b5c0      	push	{r6, r7, lr}
 80058b4:	0fc3      	lsrs	r3, r0, #31
 80058b6:	0047      	lsls	r7, r0, #1
 80058b8:	4698      	mov	r8, r3
 80058ba:	1c0e      	adds	r6, r1, #0
 80058bc:	0a6d      	lsrs	r5, r5, #9
 80058be:	0e3f      	lsrs	r7, r7, #24
 80058c0:	d05b      	beq.n	800597a <__aeabi_fdiv+0xd2>
 80058c2:	2fff      	cmp	r7, #255	@ 0xff
 80058c4:	d021      	beq.n	800590a <__aeabi_fdiv+0x62>
 80058c6:	2380      	movs	r3, #128	@ 0x80
 80058c8:	00ed      	lsls	r5, r5, #3
 80058ca:	04db      	lsls	r3, r3, #19
 80058cc:	431d      	orrs	r5, r3
 80058ce:	2300      	movs	r3, #0
 80058d0:	4699      	mov	r9, r3
 80058d2:	469a      	mov	sl, r3
 80058d4:	3f7f      	subs	r7, #127	@ 0x7f
 80058d6:	0274      	lsls	r4, r6, #9
 80058d8:	0073      	lsls	r3, r6, #1
 80058da:	0a64      	lsrs	r4, r4, #9
 80058dc:	0e1b      	lsrs	r3, r3, #24
 80058de:	0ff6      	lsrs	r6, r6, #31
 80058e0:	2b00      	cmp	r3, #0
 80058e2:	d020      	beq.n	8005926 <__aeabi_fdiv+0x7e>
 80058e4:	2bff      	cmp	r3, #255	@ 0xff
 80058e6:	d043      	beq.n	8005970 <__aeabi_fdiv+0xc8>
 80058e8:	2280      	movs	r2, #128	@ 0x80
 80058ea:	2000      	movs	r0, #0
 80058ec:	00e4      	lsls	r4, r4, #3
 80058ee:	04d2      	lsls	r2, r2, #19
 80058f0:	4314      	orrs	r4, r2
 80058f2:	3b7f      	subs	r3, #127	@ 0x7f
 80058f4:	4642      	mov	r2, r8
 80058f6:	1aff      	subs	r7, r7, r3
 80058f8:	464b      	mov	r3, r9
 80058fa:	4072      	eors	r2, r6
 80058fc:	2b0f      	cmp	r3, #15
 80058fe:	d900      	bls.n	8005902 <__aeabi_fdiv+0x5a>
 8005900:	e09d      	b.n	8005a3e <__aeabi_fdiv+0x196>
 8005902:	4971      	ldr	r1, [pc, #452]	@ (8005ac8 <__aeabi_fdiv+0x220>)
 8005904:	009b      	lsls	r3, r3, #2
 8005906:	58cb      	ldr	r3, [r1, r3]
 8005908:	469f      	mov	pc, r3
 800590a:	2d00      	cmp	r5, #0
 800590c:	d15a      	bne.n	80059c4 <__aeabi_fdiv+0x11c>
 800590e:	2308      	movs	r3, #8
 8005910:	4699      	mov	r9, r3
 8005912:	3b06      	subs	r3, #6
 8005914:	0274      	lsls	r4, r6, #9
 8005916:	469a      	mov	sl, r3
 8005918:	0073      	lsls	r3, r6, #1
 800591a:	27ff      	movs	r7, #255	@ 0xff
 800591c:	0a64      	lsrs	r4, r4, #9
 800591e:	0e1b      	lsrs	r3, r3, #24
 8005920:	0ff6      	lsrs	r6, r6, #31
 8005922:	2b00      	cmp	r3, #0
 8005924:	d1de      	bne.n	80058e4 <__aeabi_fdiv+0x3c>
 8005926:	2c00      	cmp	r4, #0
 8005928:	d13b      	bne.n	80059a2 <__aeabi_fdiv+0xfa>
 800592a:	2301      	movs	r3, #1
 800592c:	4642      	mov	r2, r8
 800592e:	4649      	mov	r1, r9
 8005930:	4072      	eors	r2, r6
 8005932:	4319      	orrs	r1, r3
 8005934:	290e      	cmp	r1, #14
 8005936:	d818      	bhi.n	800596a <__aeabi_fdiv+0xc2>
 8005938:	4864      	ldr	r0, [pc, #400]	@ (8005acc <__aeabi_fdiv+0x224>)
 800593a:	0089      	lsls	r1, r1, #2
 800593c:	5841      	ldr	r1, [r0, r1]
 800593e:	468f      	mov	pc, r1
 8005940:	4653      	mov	r3, sl
 8005942:	2b02      	cmp	r3, #2
 8005944:	d100      	bne.n	8005948 <__aeabi_fdiv+0xa0>
 8005946:	e0b8      	b.n	8005aba <__aeabi_fdiv+0x212>
 8005948:	2b03      	cmp	r3, #3
 800594a:	d06e      	beq.n	8005a2a <__aeabi_fdiv+0x182>
 800594c:	4642      	mov	r2, r8
 800594e:	002c      	movs	r4, r5
 8005950:	2b01      	cmp	r3, #1
 8005952:	d140      	bne.n	80059d6 <__aeabi_fdiv+0x12e>
 8005954:	2000      	movs	r0, #0
 8005956:	2400      	movs	r4, #0
 8005958:	05c0      	lsls	r0, r0, #23
 800595a:	4320      	orrs	r0, r4
 800595c:	07d2      	lsls	r2, r2, #31
 800595e:	4310      	orrs	r0, r2
 8005960:	bce0      	pop	{r5, r6, r7}
 8005962:	46ba      	mov	sl, r7
 8005964:	46b1      	mov	r9, r6
 8005966:	46a8      	mov	r8, r5
 8005968:	bdf0      	pop	{r4, r5, r6, r7, pc}
 800596a:	20ff      	movs	r0, #255	@ 0xff
 800596c:	2400      	movs	r4, #0
 800596e:	e7f3      	b.n	8005958 <__aeabi_fdiv+0xb0>
 8005970:	2c00      	cmp	r4, #0
 8005972:	d120      	bne.n	80059b6 <__aeabi_fdiv+0x10e>
 8005974:	2302      	movs	r3, #2
 8005976:	3fff      	subs	r7, #255	@ 0xff
 8005978:	e7d8      	b.n	800592c <__aeabi_fdiv+0x84>
 800597a:	2d00      	cmp	r5, #0
 800597c:	d105      	bne.n	800598a <__aeabi_fdiv+0xe2>
 800597e:	2304      	movs	r3, #4
 8005980:	4699      	mov	r9, r3
 8005982:	3b03      	subs	r3, #3
 8005984:	2700      	movs	r7, #0
 8005986:	469a      	mov	sl, r3
 8005988:	e7a5      	b.n	80058d6 <__aeabi_fdiv+0x2e>
 800598a:	0028      	movs	r0, r5
 800598c:	f000 fdce 	bl	800652c <__clzsi2>
 8005990:	2776      	movs	r7, #118	@ 0x76
 8005992:	1f43      	subs	r3, r0, #5
 8005994:	409d      	lsls	r5, r3
 8005996:	2300      	movs	r3, #0
 8005998:	427f      	negs	r7, r7
 800599a:	4699      	mov	r9, r3
 800599c:	469a      	mov	sl, r3
 800599e:	1a3f      	subs	r7, r7, r0
 80059a0:	e799      	b.n	80058d6 <__aeabi_fdiv+0x2e>
 80059a2:	0020      	movs	r0, r4
 80059a4:	f000 fdc2 	bl	800652c <__clzsi2>
 80059a8:	1f43      	subs	r3, r0, #5
 80059aa:	409c      	lsls	r4, r3
 80059ac:	2376      	movs	r3, #118	@ 0x76
 80059ae:	425b      	negs	r3, r3
 80059b0:	1a1b      	subs	r3, r3, r0
 80059b2:	2000      	movs	r0, #0
 80059b4:	e79e      	b.n	80058f4 <__aeabi_fdiv+0x4c>
 80059b6:	2303      	movs	r3, #3
 80059b8:	464a      	mov	r2, r9
 80059ba:	431a      	orrs	r2, r3
 80059bc:	4691      	mov	r9, r2
 80059be:	2003      	movs	r0, #3
 80059c0:	33fc      	adds	r3, #252	@ 0xfc
 80059c2:	e797      	b.n	80058f4 <__aeabi_fdiv+0x4c>
 80059c4:	230c      	movs	r3, #12
 80059c6:	4699      	mov	r9, r3
 80059c8:	3b09      	subs	r3, #9
 80059ca:	27ff      	movs	r7, #255	@ 0xff
 80059cc:	469a      	mov	sl, r3
 80059ce:	e782      	b.n	80058d6 <__aeabi_fdiv+0x2e>
 80059d0:	2803      	cmp	r0, #3
 80059d2:	d02c      	beq.n	8005a2e <__aeabi_fdiv+0x186>
 80059d4:	0032      	movs	r2, r6
 80059d6:	0038      	movs	r0, r7
 80059d8:	307f      	adds	r0, #127	@ 0x7f
 80059da:	2800      	cmp	r0, #0
 80059dc:	dd47      	ble.n	8005a6e <__aeabi_fdiv+0x1c6>
 80059de:	0763      	lsls	r3, r4, #29
 80059e0:	d004      	beq.n	80059ec <__aeabi_fdiv+0x144>
 80059e2:	230f      	movs	r3, #15
 80059e4:	4023      	ands	r3, r4
 80059e6:	2b04      	cmp	r3, #4
 80059e8:	d000      	beq.n	80059ec <__aeabi_fdiv+0x144>
 80059ea:	3404      	adds	r4, #4
 80059ec:	0123      	lsls	r3, r4, #4
 80059ee:	d503      	bpl.n	80059f8 <__aeabi_fdiv+0x150>
 80059f0:	0038      	movs	r0, r7
 80059f2:	4b37      	ldr	r3, [pc, #220]	@ (8005ad0 <__aeabi_fdiv+0x228>)
 80059f4:	3080      	adds	r0, #128	@ 0x80
 80059f6:	401c      	ands	r4, r3
 80059f8:	28fe      	cmp	r0, #254	@ 0xfe
 80059fa:	dcb6      	bgt.n	800596a <__aeabi_fdiv+0xc2>
 80059fc:	01a4      	lsls	r4, r4, #6
 80059fe:	0a64      	lsrs	r4, r4, #9
 8005a00:	b2c0      	uxtb	r0, r0
 8005a02:	e7a9      	b.n	8005958 <__aeabi_fdiv+0xb0>
 8005a04:	2480      	movs	r4, #128	@ 0x80
 8005a06:	2200      	movs	r2, #0
 8005a08:	20ff      	movs	r0, #255	@ 0xff
 8005a0a:	03e4      	lsls	r4, r4, #15
 8005a0c:	e7a4      	b.n	8005958 <__aeabi_fdiv+0xb0>
 8005a0e:	2380      	movs	r3, #128	@ 0x80
 8005a10:	03db      	lsls	r3, r3, #15
 8005a12:	421d      	tst	r5, r3
 8005a14:	d001      	beq.n	8005a1a <__aeabi_fdiv+0x172>
 8005a16:	421c      	tst	r4, r3
 8005a18:	d00b      	beq.n	8005a32 <__aeabi_fdiv+0x18a>
 8005a1a:	2480      	movs	r4, #128	@ 0x80
 8005a1c:	03e4      	lsls	r4, r4, #15
 8005a1e:	432c      	orrs	r4, r5
 8005a20:	0264      	lsls	r4, r4, #9
 8005a22:	4642      	mov	r2, r8
 8005a24:	20ff      	movs	r0, #255	@ 0xff
 8005a26:	0a64      	lsrs	r4, r4, #9
 8005a28:	e796      	b.n	8005958 <__aeabi_fdiv+0xb0>
 8005a2a:	4646      	mov	r6, r8
 8005a2c:	002c      	movs	r4, r5
 8005a2e:	2380      	movs	r3, #128	@ 0x80
 8005a30:	03db      	lsls	r3, r3, #15
 8005a32:	431c      	orrs	r4, r3
 8005a34:	0264      	lsls	r4, r4, #9
 8005a36:	0032      	movs	r2, r6
 8005a38:	20ff      	movs	r0, #255	@ 0xff
 8005a3a:	0a64      	lsrs	r4, r4, #9
 8005a3c:	e78c      	b.n	8005958 <__aeabi_fdiv+0xb0>
 8005a3e:	016d      	lsls	r5, r5, #5
 8005a40:	0160      	lsls	r0, r4, #5
 8005a42:	4285      	cmp	r5, r0
 8005a44:	d22d      	bcs.n	8005aa2 <__aeabi_fdiv+0x1fa>
 8005a46:	231b      	movs	r3, #27
 8005a48:	2400      	movs	r4, #0
 8005a4a:	3f01      	subs	r7, #1
 8005a4c:	2601      	movs	r6, #1
 8005a4e:	0029      	movs	r1, r5
 8005a50:	0064      	lsls	r4, r4, #1
 8005a52:	006d      	lsls	r5, r5, #1
 8005a54:	2900      	cmp	r1, #0
 8005a56:	db01      	blt.n	8005a5c <__aeabi_fdiv+0x1b4>
 8005a58:	4285      	cmp	r5, r0
 8005a5a:	d301      	bcc.n	8005a60 <__aeabi_fdiv+0x1b8>
 8005a5c:	1a2d      	subs	r5, r5, r0
 8005a5e:	4334      	orrs	r4, r6
 8005a60:	3b01      	subs	r3, #1
 8005a62:	2b00      	cmp	r3, #0
 8005a64:	d1f3      	bne.n	8005a4e <__aeabi_fdiv+0x1a6>
 8005a66:	1e6b      	subs	r3, r5, #1
 8005a68:	419d      	sbcs	r5, r3
 8005a6a:	432c      	orrs	r4, r5
 8005a6c:	e7b3      	b.n	80059d6 <__aeabi_fdiv+0x12e>
 8005a6e:	2301      	movs	r3, #1
 8005a70:	1a1b      	subs	r3, r3, r0
 8005a72:	2b1b      	cmp	r3, #27
 8005a74:	dd00      	ble.n	8005a78 <__aeabi_fdiv+0x1d0>
 8005a76:	e76d      	b.n	8005954 <__aeabi_fdiv+0xac>
 8005a78:	0021      	movs	r1, r4
 8005a7a:	379e      	adds	r7, #158	@ 0x9e
 8005a7c:	40d9      	lsrs	r1, r3
 8005a7e:	40bc      	lsls	r4, r7
 8005a80:	000b      	movs	r3, r1
 8005a82:	1e61      	subs	r1, r4, #1
 8005a84:	418c      	sbcs	r4, r1
 8005a86:	4323      	orrs	r3, r4
 8005a88:	0759      	lsls	r1, r3, #29
 8005a8a:	d004      	beq.n	8005a96 <__aeabi_fdiv+0x1ee>
 8005a8c:	210f      	movs	r1, #15
 8005a8e:	4019      	ands	r1, r3
 8005a90:	2904      	cmp	r1, #4
 8005a92:	d000      	beq.n	8005a96 <__aeabi_fdiv+0x1ee>
 8005a94:	3304      	adds	r3, #4
 8005a96:	0159      	lsls	r1, r3, #5
 8005a98:	d413      	bmi.n	8005ac2 <__aeabi_fdiv+0x21a>
 8005a9a:	019b      	lsls	r3, r3, #6
 8005a9c:	2000      	movs	r0, #0
 8005a9e:	0a5c      	lsrs	r4, r3, #9
 8005aa0:	e75a      	b.n	8005958 <__aeabi_fdiv+0xb0>
 8005aa2:	231a      	movs	r3, #26
 8005aa4:	2401      	movs	r4, #1
 8005aa6:	1a2d      	subs	r5, r5, r0
 8005aa8:	e7d0      	b.n	8005a4c <__aeabi_fdiv+0x1a4>
 8005aaa:	1e98      	subs	r0, r3, #2
 8005aac:	4243      	negs	r3, r0
 8005aae:	4158      	adcs	r0, r3
 8005ab0:	4240      	negs	r0, r0
 8005ab2:	0032      	movs	r2, r6
 8005ab4:	2400      	movs	r4, #0
 8005ab6:	b2c0      	uxtb	r0, r0
 8005ab8:	e74e      	b.n	8005958 <__aeabi_fdiv+0xb0>
 8005aba:	4642      	mov	r2, r8
 8005abc:	20ff      	movs	r0, #255	@ 0xff
 8005abe:	2400      	movs	r4, #0
 8005ac0:	e74a      	b.n	8005958 <__aeabi_fdiv+0xb0>
 8005ac2:	2001      	movs	r0, #1
 8005ac4:	2400      	movs	r4, #0
 8005ac6:	e747      	b.n	8005958 <__aeabi_fdiv+0xb0>
 8005ac8:	080074e4 	.word	0x080074e4
 8005acc:	08007524 	.word	0x08007524
 8005ad0:	f7ffffff 	.word	0xf7ffffff

08005ad4 <__eqsf2>:
 8005ad4:	b570      	push	{r4, r5, r6, lr}
 8005ad6:	0042      	lsls	r2, r0, #1
 8005ad8:	024e      	lsls	r6, r1, #9
 8005ada:	004c      	lsls	r4, r1, #1
 8005adc:	0245      	lsls	r5, r0, #9
 8005ade:	0a6d      	lsrs	r5, r5, #9
 8005ae0:	0e12      	lsrs	r2, r2, #24
 8005ae2:	0fc3      	lsrs	r3, r0, #31
 8005ae4:	0a76      	lsrs	r6, r6, #9
 8005ae6:	0e24      	lsrs	r4, r4, #24
 8005ae8:	0fc9      	lsrs	r1, r1, #31
 8005aea:	2aff      	cmp	r2, #255	@ 0xff
 8005aec:	d010      	beq.n	8005b10 <__eqsf2+0x3c>
 8005aee:	2cff      	cmp	r4, #255	@ 0xff
 8005af0:	d00c      	beq.n	8005b0c <__eqsf2+0x38>
 8005af2:	2001      	movs	r0, #1
 8005af4:	42a2      	cmp	r2, r4
 8005af6:	d10a      	bne.n	8005b0e <__eqsf2+0x3a>
 8005af8:	42b5      	cmp	r5, r6
 8005afa:	d108      	bne.n	8005b0e <__eqsf2+0x3a>
 8005afc:	428b      	cmp	r3, r1
 8005afe:	d00f      	beq.n	8005b20 <__eqsf2+0x4c>
 8005b00:	2a00      	cmp	r2, #0
 8005b02:	d104      	bne.n	8005b0e <__eqsf2+0x3a>
 8005b04:	0028      	movs	r0, r5
 8005b06:	1e43      	subs	r3, r0, #1
 8005b08:	4198      	sbcs	r0, r3
 8005b0a:	e000      	b.n	8005b0e <__eqsf2+0x3a>
 8005b0c:	2001      	movs	r0, #1
 8005b0e:	bd70      	pop	{r4, r5, r6, pc}
 8005b10:	2001      	movs	r0, #1
 8005b12:	2cff      	cmp	r4, #255	@ 0xff
 8005b14:	d1fb      	bne.n	8005b0e <__eqsf2+0x3a>
 8005b16:	4335      	orrs	r5, r6
 8005b18:	d1f9      	bne.n	8005b0e <__eqsf2+0x3a>
 8005b1a:	404b      	eors	r3, r1
 8005b1c:	0018      	movs	r0, r3
 8005b1e:	e7f6      	b.n	8005b0e <__eqsf2+0x3a>
 8005b20:	2000      	movs	r0, #0
 8005b22:	e7f4      	b.n	8005b0e <__eqsf2+0x3a>

08005b24 <__gesf2>:
 8005b24:	b530      	push	{r4, r5, lr}
 8005b26:	0042      	lsls	r2, r0, #1
 8005b28:	0244      	lsls	r4, r0, #9
 8005b2a:	024d      	lsls	r5, r1, #9
 8005b2c:	0fc3      	lsrs	r3, r0, #31
 8005b2e:	0048      	lsls	r0, r1, #1
 8005b30:	0a64      	lsrs	r4, r4, #9
 8005b32:	0e12      	lsrs	r2, r2, #24
 8005b34:	0a6d      	lsrs	r5, r5, #9
 8005b36:	0e00      	lsrs	r0, r0, #24
 8005b38:	0fc9      	lsrs	r1, r1, #31
 8005b3a:	2aff      	cmp	r2, #255	@ 0xff
 8005b3c:	d018      	beq.n	8005b70 <__gesf2+0x4c>
 8005b3e:	28ff      	cmp	r0, #255	@ 0xff
 8005b40:	d00a      	beq.n	8005b58 <__gesf2+0x34>
 8005b42:	2a00      	cmp	r2, #0
 8005b44:	d11e      	bne.n	8005b84 <__gesf2+0x60>
 8005b46:	2800      	cmp	r0, #0
 8005b48:	d10a      	bne.n	8005b60 <__gesf2+0x3c>
 8005b4a:	2d00      	cmp	r5, #0
 8005b4c:	d029      	beq.n	8005ba2 <__gesf2+0x7e>
 8005b4e:	2c00      	cmp	r4, #0
 8005b50:	d12d      	bne.n	8005bae <__gesf2+0x8a>
 8005b52:	0048      	lsls	r0, r1, #1
 8005b54:	3801      	subs	r0, #1
 8005b56:	bd30      	pop	{r4, r5, pc}
 8005b58:	2d00      	cmp	r5, #0
 8005b5a:	d125      	bne.n	8005ba8 <__gesf2+0x84>
 8005b5c:	2a00      	cmp	r2, #0
 8005b5e:	d101      	bne.n	8005b64 <__gesf2+0x40>
 8005b60:	2c00      	cmp	r4, #0
 8005b62:	d0f6      	beq.n	8005b52 <__gesf2+0x2e>
 8005b64:	428b      	cmp	r3, r1
 8005b66:	d019      	beq.n	8005b9c <__gesf2+0x78>
 8005b68:	2001      	movs	r0, #1
 8005b6a:	425b      	negs	r3, r3
 8005b6c:	4318      	orrs	r0, r3
 8005b6e:	e7f2      	b.n	8005b56 <__gesf2+0x32>
 8005b70:	2c00      	cmp	r4, #0
 8005b72:	d119      	bne.n	8005ba8 <__gesf2+0x84>
 8005b74:	28ff      	cmp	r0, #255	@ 0xff
 8005b76:	d1f7      	bne.n	8005b68 <__gesf2+0x44>
 8005b78:	2d00      	cmp	r5, #0
 8005b7a:	d115      	bne.n	8005ba8 <__gesf2+0x84>
 8005b7c:	2000      	movs	r0, #0
 8005b7e:	428b      	cmp	r3, r1
 8005b80:	d1f2      	bne.n	8005b68 <__gesf2+0x44>
 8005b82:	e7e8      	b.n	8005b56 <__gesf2+0x32>
 8005b84:	2800      	cmp	r0, #0
 8005b86:	d0ef      	beq.n	8005b68 <__gesf2+0x44>
 8005b88:	428b      	cmp	r3, r1
 8005b8a:	d1ed      	bne.n	8005b68 <__gesf2+0x44>
 8005b8c:	4282      	cmp	r2, r0
 8005b8e:	dceb      	bgt.n	8005b68 <__gesf2+0x44>
 8005b90:	db04      	blt.n	8005b9c <__gesf2+0x78>
 8005b92:	42ac      	cmp	r4, r5
 8005b94:	d8e8      	bhi.n	8005b68 <__gesf2+0x44>
 8005b96:	2000      	movs	r0, #0
 8005b98:	42ac      	cmp	r4, r5
 8005b9a:	d2dc      	bcs.n	8005b56 <__gesf2+0x32>
 8005b9c:	0058      	lsls	r0, r3, #1
 8005b9e:	3801      	subs	r0, #1
 8005ba0:	e7d9      	b.n	8005b56 <__gesf2+0x32>
 8005ba2:	2c00      	cmp	r4, #0
 8005ba4:	d0d7      	beq.n	8005b56 <__gesf2+0x32>
 8005ba6:	e7df      	b.n	8005b68 <__gesf2+0x44>
 8005ba8:	2002      	movs	r0, #2
 8005baa:	4240      	negs	r0, r0
 8005bac:	e7d3      	b.n	8005b56 <__gesf2+0x32>
 8005bae:	428b      	cmp	r3, r1
 8005bb0:	d1da      	bne.n	8005b68 <__gesf2+0x44>
 8005bb2:	e7ee      	b.n	8005b92 <__gesf2+0x6e>

08005bb4 <__lesf2>:
 8005bb4:	b530      	push	{r4, r5, lr}
 8005bb6:	0042      	lsls	r2, r0, #1
 8005bb8:	0244      	lsls	r4, r0, #9
 8005bba:	024d      	lsls	r5, r1, #9
 8005bbc:	0fc3      	lsrs	r3, r0, #31
 8005bbe:	0048      	lsls	r0, r1, #1
 8005bc0:	0a64      	lsrs	r4, r4, #9
 8005bc2:	0e12      	lsrs	r2, r2, #24
 8005bc4:	0a6d      	lsrs	r5, r5, #9
 8005bc6:	0e00      	lsrs	r0, r0, #24
 8005bc8:	0fc9      	lsrs	r1, r1, #31
 8005bca:	2aff      	cmp	r2, #255	@ 0xff
 8005bcc:	d017      	beq.n	8005bfe <__lesf2+0x4a>
 8005bce:	28ff      	cmp	r0, #255	@ 0xff
 8005bd0:	d00a      	beq.n	8005be8 <__lesf2+0x34>
 8005bd2:	2a00      	cmp	r2, #0
 8005bd4:	d11b      	bne.n	8005c0e <__lesf2+0x5a>
 8005bd6:	2800      	cmp	r0, #0
 8005bd8:	d10a      	bne.n	8005bf0 <__lesf2+0x3c>
 8005bda:	2d00      	cmp	r5, #0
 8005bdc:	d01d      	beq.n	8005c1a <__lesf2+0x66>
 8005bde:	2c00      	cmp	r4, #0
 8005be0:	d12d      	bne.n	8005c3e <__lesf2+0x8a>
 8005be2:	0048      	lsls	r0, r1, #1
 8005be4:	3801      	subs	r0, #1
 8005be6:	e011      	b.n	8005c0c <__lesf2+0x58>
 8005be8:	2d00      	cmp	r5, #0
 8005bea:	d10e      	bne.n	8005c0a <__lesf2+0x56>
 8005bec:	2a00      	cmp	r2, #0
 8005bee:	d101      	bne.n	8005bf4 <__lesf2+0x40>
 8005bf0:	2c00      	cmp	r4, #0
 8005bf2:	d0f6      	beq.n	8005be2 <__lesf2+0x2e>
 8005bf4:	428b      	cmp	r3, r1
 8005bf6:	d10c      	bne.n	8005c12 <__lesf2+0x5e>
 8005bf8:	0058      	lsls	r0, r3, #1
 8005bfa:	3801      	subs	r0, #1
 8005bfc:	e006      	b.n	8005c0c <__lesf2+0x58>
 8005bfe:	2c00      	cmp	r4, #0
 8005c00:	d103      	bne.n	8005c0a <__lesf2+0x56>
 8005c02:	28ff      	cmp	r0, #255	@ 0xff
 8005c04:	d105      	bne.n	8005c12 <__lesf2+0x5e>
 8005c06:	2d00      	cmp	r5, #0
 8005c08:	d015      	beq.n	8005c36 <__lesf2+0x82>
 8005c0a:	2002      	movs	r0, #2
 8005c0c:	bd30      	pop	{r4, r5, pc}
 8005c0e:	2800      	cmp	r0, #0
 8005c10:	d106      	bne.n	8005c20 <__lesf2+0x6c>
 8005c12:	2001      	movs	r0, #1
 8005c14:	425b      	negs	r3, r3
 8005c16:	4318      	orrs	r0, r3
 8005c18:	e7f8      	b.n	8005c0c <__lesf2+0x58>
 8005c1a:	2c00      	cmp	r4, #0
 8005c1c:	d0f6      	beq.n	8005c0c <__lesf2+0x58>
 8005c1e:	e7f8      	b.n	8005c12 <__lesf2+0x5e>
 8005c20:	428b      	cmp	r3, r1
 8005c22:	d1f6      	bne.n	8005c12 <__lesf2+0x5e>
 8005c24:	4282      	cmp	r2, r0
 8005c26:	dcf4      	bgt.n	8005c12 <__lesf2+0x5e>
 8005c28:	dbe6      	blt.n	8005bf8 <__lesf2+0x44>
 8005c2a:	42ac      	cmp	r4, r5
 8005c2c:	d8f1      	bhi.n	8005c12 <__lesf2+0x5e>
 8005c2e:	2000      	movs	r0, #0
 8005c30:	42ac      	cmp	r4, r5
 8005c32:	d2eb      	bcs.n	8005c0c <__lesf2+0x58>
 8005c34:	e7e0      	b.n	8005bf8 <__lesf2+0x44>
 8005c36:	2000      	movs	r0, #0
 8005c38:	428b      	cmp	r3, r1
 8005c3a:	d1ea      	bne.n	8005c12 <__lesf2+0x5e>
 8005c3c:	e7e6      	b.n	8005c0c <__lesf2+0x58>
 8005c3e:	428b      	cmp	r3, r1
 8005c40:	d1e7      	bne.n	8005c12 <__lesf2+0x5e>
 8005c42:	e7f2      	b.n	8005c2a <__lesf2+0x76>

08005c44 <__aeabi_fmul>:
 8005c44:	b5f0      	push	{r4, r5, r6, r7, lr}
 8005c46:	464f      	mov	r7, r9
 8005c48:	4646      	mov	r6, r8
 8005c4a:	46d6      	mov	lr, sl
 8005c4c:	0044      	lsls	r4, r0, #1
 8005c4e:	b5c0      	push	{r6, r7, lr}
 8005c50:	0246      	lsls	r6, r0, #9
 8005c52:	1c0f      	adds	r7, r1, #0
 8005c54:	0a76      	lsrs	r6, r6, #9
 8005c56:	0e24      	lsrs	r4, r4, #24
 8005c58:	0fc5      	lsrs	r5, r0, #31
 8005c5a:	2c00      	cmp	r4, #0
 8005c5c:	d100      	bne.n	8005c60 <__aeabi_fmul+0x1c>
 8005c5e:	e0da      	b.n	8005e16 <__aeabi_fmul+0x1d2>
 8005c60:	2cff      	cmp	r4, #255	@ 0xff
 8005c62:	d074      	beq.n	8005d4e <__aeabi_fmul+0x10a>
 8005c64:	2380      	movs	r3, #128	@ 0x80
 8005c66:	00f6      	lsls	r6, r6, #3
 8005c68:	04db      	lsls	r3, r3, #19
 8005c6a:	431e      	orrs	r6, r3
 8005c6c:	2300      	movs	r3, #0
 8005c6e:	4699      	mov	r9, r3
 8005c70:	469a      	mov	sl, r3
 8005c72:	3c7f      	subs	r4, #127	@ 0x7f
 8005c74:	027b      	lsls	r3, r7, #9
 8005c76:	0a5b      	lsrs	r3, r3, #9
 8005c78:	4698      	mov	r8, r3
 8005c7a:	007b      	lsls	r3, r7, #1
 8005c7c:	0e1b      	lsrs	r3, r3, #24
 8005c7e:	0fff      	lsrs	r7, r7, #31
 8005c80:	2b00      	cmp	r3, #0
 8005c82:	d074      	beq.n	8005d6e <__aeabi_fmul+0x12a>
 8005c84:	2bff      	cmp	r3, #255	@ 0xff
 8005c86:	d100      	bne.n	8005c8a <__aeabi_fmul+0x46>
 8005c88:	e08e      	b.n	8005da8 <__aeabi_fmul+0x164>
 8005c8a:	4642      	mov	r2, r8
 8005c8c:	2180      	movs	r1, #128	@ 0x80
 8005c8e:	00d2      	lsls	r2, r2, #3
 8005c90:	04c9      	lsls	r1, r1, #19
 8005c92:	4311      	orrs	r1, r2
 8005c94:	3b7f      	subs	r3, #127	@ 0x7f
 8005c96:	002a      	movs	r2, r5
 8005c98:	18e4      	adds	r4, r4, r3
 8005c9a:	464b      	mov	r3, r9
 8005c9c:	407a      	eors	r2, r7
 8005c9e:	4688      	mov	r8, r1
 8005ca0:	b2d2      	uxtb	r2, r2
 8005ca2:	2b0a      	cmp	r3, #10
 8005ca4:	dc75      	bgt.n	8005d92 <__aeabi_fmul+0x14e>
 8005ca6:	464b      	mov	r3, r9
 8005ca8:	2000      	movs	r0, #0
 8005caa:	2b02      	cmp	r3, #2
 8005cac:	dd0f      	ble.n	8005cce <__aeabi_fmul+0x8a>
 8005cae:	4649      	mov	r1, r9
 8005cb0:	2301      	movs	r3, #1
 8005cb2:	408b      	lsls	r3, r1
 8005cb4:	21a6      	movs	r1, #166	@ 0xa6
 8005cb6:	00c9      	lsls	r1, r1, #3
 8005cb8:	420b      	tst	r3, r1
 8005cba:	d169      	bne.n	8005d90 <__aeabi_fmul+0x14c>
 8005cbc:	2190      	movs	r1, #144	@ 0x90
 8005cbe:	0089      	lsls	r1, r1, #2
 8005cc0:	420b      	tst	r3, r1
 8005cc2:	d000      	beq.n	8005cc6 <__aeabi_fmul+0x82>
 8005cc4:	e100      	b.n	8005ec8 <__aeabi_fmul+0x284>
 8005cc6:	2188      	movs	r1, #136	@ 0x88
 8005cc8:	4219      	tst	r1, r3
 8005cca:	d000      	beq.n	8005cce <__aeabi_fmul+0x8a>
 8005ccc:	e0f5      	b.n	8005eba <__aeabi_fmul+0x276>
 8005cce:	4641      	mov	r1, r8
 8005cd0:	0409      	lsls	r1, r1, #16
 8005cd2:	0c09      	lsrs	r1, r1, #16
 8005cd4:	4643      	mov	r3, r8
 8005cd6:	0008      	movs	r0, r1
 8005cd8:	0c35      	lsrs	r5, r6, #16
 8005cda:	0436      	lsls	r6, r6, #16
 8005cdc:	0c1b      	lsrs	r3, r3, #16
 8005cde:	0c36      	lsrs	r6, r6, #16
 8005ce0:	4370      	muls	r0, r6
 8005ce2:	4369      	muls	r1, r5
 8005ce4:	435e      	muls	r6, r3
 8005ce6:	435d      	muls	r5, r3
 8005ce8:	1876      	adds	r6, r6, r1
 8005cea:	0c03      	lsrs	r3, r0, #16
 8005cec:	199b      	adds	r3, r3, r6
 8005cee:	4299      	cmp	r1, r3
 8005cf0:	d903      	bls.n	8005cfa <__aeabi_fmul+0xb6>
 8005cf2:	2180      	movs	r1, #128	@ 0x80
 8005cf4:	0249      	lsls	r1, r1, #9
 8005cf6:	468c      	mov	ip, r1
 8005cf8:	4465      	add	r5, ip
 8005cfa:	0400      	lsls	r0, r0, #16
 8005cfc:	0419      	lsls	r1, r3, #16
 8005cfe:	0c00      	lsrs	r0, r0, #16
 8005d00:	1809      	adds	r1, r1, r0
 8005d02:	018e      	lsls	r6, r1, #6
 8005d04:	1e70      	subs	r0, r6, #1
 8005d06:	4186      	sbcs	r6, r0
 8005d08:	0c1b      	lsrs	r3, r3, #16
 8005d0a:	0e89      	lsrs	r1, r1, #26
 8005d0c:	195b      	adds	r3, r3, r5
 8005d0e:	430e      	orrs	r6, r1
 8005d10:	019b      	lsls	r3, r3, #6
 8005d12:	431e      	orrs	r6, r3
 8005d14:	011b      	lsls	r3, r3, #4
 8005d16:	d46c      	bmi.n	8005df2 <__aeabi_fmul+0x1ae>
 8005d18:	0023      	movs	r3, r4
 8005d1a:	337f      	adds	r3, #127	@ 0x7f
 8005d1c:	2b00      	cmp	r3, #0
 8005d1e:	dc00      	bgt.n	8005d22 <__aeabi_fmul+0xde>
 8005d20:	e0b1      	b.n	8005e86 <__aeabi_fmul+0x242>
 8005d22:	0015      	movs	r5, r2
 8005d24:	0771      	lsls	r1, r6, #29
 8005d26:	d00b      	beq.n	8005d40 <__aeabi_fmul+0xfc>
 8005d28:	200f      	movs	r0, #15
 8005d2a:	0021      	movs	r1, r4
 8005d2c:	4030      	ands	r0, r6
 8005d2e:	2804      	cmp	r0, #4
 8005d30:	d006      	beq.n	8005d40 <__aeabi_fmul+0xfc>
 8005d32:	3604      	adds	r6, #4
 8005d34:	0132      	lsls	r2, r6, #4
 8005d36:	d503      	bpl.n	8005d40 <__aeabi_fmul+0xfc>
 8005d38:	4b6e      	ldr	r3, [pc, #440]	@ (8005ef4 <__aeabi_fmul+0x2b0>)
 8005d3a:	401e      	ands	r6, r3
 8005d3c:	000b      	movs	r3, r1
 8005d3e:	3380      	adds	r3, #128	@ 0x80
 8005d40:	2bfe      	cmp	r3, #254	@ 0xfe
 8005d42:	dd00      	ble.n	8005d46 <__aeabi_fmul+0x102>
 8005d44:	e0bd      	b.n	8005ec2 <__aeabi_fmul+0x27e>
 8005d46:	01b2      	lsls	r2, r6, #6
 8005d48:	0a52      	lsrs	r2, r2, #9
 8005d4a:	b2db      	uxtb	r3, r3
 8005d4c:	e048      	b.n	8005de0 <__aeabi_fmul+0x19c>
 8005d4e:	2e00      	cmp	r6, #0
 8005d50:	d000      	beq.n	8005d54 <__aeabi_fmul+0x110>
 8005d52:	e092      	b.n	8005e7a <__aeabi_fmul+0x236>
 8005d54:	2308      	movs	r3, #8
 8005d56:	4699      	mov	r9, r3
 8005d58:	3b06      	subs	r3, #6
 8005d5a:	469a      	mov	sl, r3
 8005d5c:	027b      	lsls	r3, r7, #9
 8005d5e:	0a5b      	lsrs	r3, r3, #9
 8005d60:	4698      	mov	r8, r3
 8005d62:	007b      	lsls	r3, r7, #1
 8005d64:	24ff      	movs	r4, #255	@ 0xff
 8005d66:	0e1b      	lsrs	r3, r3, #24
 8005d68:	0fff      	lsrs	r7, r7, #31
 8005d6a:	2b00      	cmp	r3, #0
 8005d6c:	d18a      	bne.n	8005c84 <__aeabi_fmul+0x40>
 8005d6e:	4642      	mov	r2, r8
 8005d70:	2a00      	cmp	r2, #0
 8005d72:	d164      	bne.n	8005e3e <__aeabi_fmul+0x1fa>
 8005d74:	4649      	mov	r1, r9
 8005d76:	3201      	adds	r2, #1
 8005d78:	4311      	orrs	r1, r2
 8005d7a:	4689      	mov	r9, r1
 8005d7c:	290a      	cmp	r1, #10
 8005d7e:	dc08      	bgt.n	8005d92 <__aeabi_fmul+0x14e>
 8005d80:	407d      	eors	r5, r7
 8005d82:	2001      	movs	r0, #1
 8005d84:	b2ea      	uxtb	r2, r5
 8005d86:	2902      	cmp	r1, #2
 8005d88:	dc91      	bgt.n	8005cae <__aeabi_fmul+0x6a>
 8005d8a:	0015      	movs	r5, r2
 8005d8c:	2200      	movs	r2, #0
 8005d8e:	e027      	b.n	8005de0 <__aeabi_fmul+0x19c>
 8005d90:	0015      	movs	r5, r2
 8005d92:	4653      	mov	r3, sl
 8005d94:	2b02      	cmp	r3, #2
 8005d96:	d100      	bne.n	8005d9a <__aeabi_fmul+0x156>
 8005d98:	e093      	b.n	8005ec2 <__aeabi_fmul+0x27e>
 8005d9a:	2b03      	cmp	r3, #3
 8005d9c:	d01a      	beq.n	8005dd4 <__aeabi_fmul+0x190>
 8005d9e:	2b01      	cmp	r3, #1
 8005da0:	d12c      	bne.n	8005dfc <__aeabi_fmul+0x1b8>
 8005da2:	2300      	movs	r3, #0
 8005da4:	2200      	movs	r2, #0
 8005da6:	e01b      	b.n	8005de0 <__aeabi_fmul+0x19c>
 8005da8:	4643      	mov	r3, r8
 8005daa:	34ff      	adds	r4, #255	@ 0xff
 8005dac:	2b00      	cmp	r3, #0
 8005dae:	d055      	beq.n	8005e5c <__aeabi_fmul+0x218>
 8005db0:	2103      	movs	r1, #3
 8005db2:	464b      	mov	r3, r9
 8005db4:	430b      	orrs	r3, r1
 8005db6:	0019      	movs	r1, r3
 8005db8:	2b0a      	cmp	r3, #10
 8005dba:	dc00      	bgt.n	8005dbe <__aeabi_fmul+0x17a>
 8005dbc:	e092      	b.n	8005ee4 <__aeabi_fmul+0x2a0>
 8005dbe:	2b0f      	cmp	r3, #15
 8005dc0:	d000      	beq.n	8005dc4 <__aeabi_fmul+0x180>
 8005dc2:	e08c      	b.n	8005ede <__aeabi_fmul+0x29a>
 8005dc4:	2280      	movs	r2, #128	@ 0x80
 8005dc6:	03d2      	lsls	r2, r2, #15
 8005dc8:	4216      	tst	r6, r2
 8005dca:	d003      	beq.n	8005dd4 <__aeabi_fmul+0x190>
 8005dcc:	4643      	mov	r3, r8
 8005dce:	4213      	tst	r3, r2
 8005dd0:	d100      	bne.n	8005dd4 <__aeabi_fmul+0x190>
 8005dd2:	e07d      	b.n	8005ed0 <__aeabi_fmul+0x28c>
 8005dd4:	2280      	movs	r2, #128	@ 0x80
 8005dd6:	03d2      	lsls	r2, r2, #15
 8005dd8:	4332      	orrs	r2, r6
 8005dda:	0252      	lsls	r2, r2, #9
 8005ddc:	0a52      	lsrs	r2, r2, #9
 8005dde:	23ff      	movs	r3, #255	@ 0xff
 8005de0:	05d8      	lsls	r0, r3, #23
 8005de2:	07ed      	lsls	r5, r5, #31
 8005de4:	4310      	orrs	r0, r2
 8005de6:	4328      	orrs	r0, r5
 8005de8:	bce0      	pop	{r5, r6, r7}
 8005dea:	46ba      	mov	sl, r7
 8005dec:	46b1      	mov	r9, r6
 8005dee:	46a8      	mov	r8, r5
 8005df0:	bdf0      	pop	{r4, r5, r6, r7, pc}
 8005df2:	2301      	movs	r3, #1
 8005df4:	0015      	movs	r5, r2
 8005df6:	0871      	lsrs	r1, r6, #1
 8005df8:	401e      	ands	r6, r3
 8005dfa:	430e      	orrs	r6, r1
 8005dfc:	0023      	movs	r3, r4
 8005dfe:	3380      	adds	r3, #128	@ 0x80
 8005e00:	1c61      	adds	r1, r4, #1
 8005e02:	2b00      	cmp	r3, #0
 8005e04:	dd41      	ble.n	8005e8a <__aeabi_fmul+0x246>
 8005e06:	0772      	lsls	r2, r6, #29
 8005e08:	d094      	beq.n	8005d34 <__aeabi_fmul+0xf0>
 8005e0a:	220f      	movs	r2, #15
 8005e0c:	4032      	ands	r2, r6
 8005e0e:	2a04      	cmp	r2, #4
 8005e10:	d000      	beq.n	8005e14 <__aeabi_fmul+0x1d0>
 8005e12:	e78e      	b.n	8005d32 <__aeabi_fmul+0xee>
 8005e14:	e78e      	b.n	8005d34 <__aeabi_fmul+0xf0>
 8005e16:	2e00      	cmp	r6, #0
 8005e18:	d105      	bne.n	8005e26 <__aeabi_fmul+0x1e2>
 8005e1a:	2304      	movs	r3, #4
 8005e1c:	4699      	mov	r9, r3
 8005e1e:	3b03      	subs	r3, #3
 8005e20:	2400      	movs	r4, #0
 8005e22:	469a      	mov	sl, r3
 8005e24:	e726      	b.n	8005c74 <__aeabi_fmul+0x30>
 8005e26:	0030      	movs	r0, r6
 8005e28:	f000 fb80 	bl	800652c <__clzsi2>
 8005e2c:	2476      	movs	r4, #118	@ 0x76
 8005e2e:	1f43      	subs	r3, r0, #5
 8005e30:	409e      	lsls	r6, r3
 8005e32:	2300      	movs	r3, #0
 8005e34:	4264      	negs	r4, r4
 8005e36:	4699      	mov	r9, r3
 8005e38:	469a      	mov	sl, r3
 8005e3a:	1a24      	subs	r4, r4, r0
 8005e3c:	e71a      	b.n	8005c74 <__aeabi_fmul+0x30>
 8005e3e:	4640      	mov	r0, r8
 8005e40:	f000 fb74 	bl	800652c <__clzsi2>
 8005e44:	464b      	mov	r3, r9
 8005e46:	1a24      	subs	r4, r4, r0
 8005e48:	3c76      	subs	r4, #118	@ 0x76
 8005e4a:	2b0a      	cmp	r3, #10
 8005e4c:	dca1      	bgt.n	8005d92 <__aeabi_fmul+0x14e>
 8005e4e:	4643      	mov	r3, r8
 8005e50:	3805      	subs	r0, #5
 8005e52:	4083      	lsls	r3, r0
 8005e54:	407d      	eors	r5, r7
 8005e56:	4698      	mov	r8, r3
 8005e58:	b2ea      	uxtb	r2, r5
 8005e5a:	e724      	b.n	8005ca6 <__aeabi_fmul+0x62>
 8005e5c:	464a      	mov	r2, r9
 8005e5e:	3302      	adds	r3, #2
 8005e60:	4313      	orrs	r3, r2
 8005e62:	002a      	movs	r2, r5
 8005e64:	407a      	eors	r2, r7
 8005e66:	b2d2      	uxtb	r2, r2
 8005e68:	2b0a      	cmp	r3, #10
 8005e6a:	dc92      	bgt.n	8005d92 <__aeabi_fmul+0x14e>
 8005e6c:	4649      	mov	r1, r9
 8005e6e:	0015      	movs	r5, r2
 8005e70:	2900      	cmp	r1, #0
 8005e72:	d026      	beq.n	8005ec2 <__aeabi_fmul+0x27e>
 8005e74:	4699      	mov	r9, r3
 8005e76:	2002      	movs	r0, #2
 8005e78:	e719      	b.n	8005cae <__aeabi_fmul+0x6a>
 8005e7a:	230c      	movs	r3, #12
 8005e7c:	4699      	mov	r9, r3
 8005e7e:	3b09      	subs	r3, #9
 8005e80:	24ff      	movs	r4, #255	@ 0xff
 8005e82:	469a      	mov	sl, r3
 8005e84:	e6f6      	b.n	8005c74 <__aeabi_fmul+0x30>
 8005e86:	0015      	movs	r5, r2
 8005e88:	0021      	movs	r1, r4
 8005e8a:	2201      	movs	r2, #1
 8005e8c:	1ad3      	subs	r3, r2, r3
 8005e8e:	2b1b      	cmp	r3, #27
 8005e90:	dd00      	ble.n	8005e94 <__aeabi_fmul+0x250>
 8005e92:	e786      	b.n	8005da2 <__aeabi_fmul+0x15e>
 8005e94:	319e      	adds	r1, #158	@ 0x9e
 8005e96:	0032      	movs	r2, r6
 8005e98:	408e      	lsls	r6, r1
 8005e9a:	40da      	lsrs	r2, r3
 8005e9c:	1e73      	subs	r3, r6, #1
 8005e9e:	419e      	sbcs	r6, r3
 8005ea0:	4332      	orrs	r2, r6
 8005ea2:	0753      	lsls	r3, r2, #29
 8005ea4:	d004      	beq.n	8005eb0 <__aeabi_fmul+0x26c>
 8005ea6:	230f      	movs	r3, #15
 8005ea8:	4013      	ands	r3, r2
 8005eaa:	2b04      	cmp	r3, #4
 8005eac:	d000      	beq.n	8005eb0 <__aeabi_fmul+0x26c>
 8005eae:	3204      	adds	r2, #4
 8005eb0:	0153      	lsls	r3, r2, #5
 8005eb2:	d510      	bpl.n	8005ed6 <__aeabi_fmul+0x292>
 8005eb4:	2301      	movs	r3, #1
 8005eb6:	2200      	movs	r2, #0
 8005eb8:	e792      	b.n	8005de0 <__aeabi_fmul+0x19c>
 8005eba:	003d      	movs	r5, r7
 8005ebc:	4646      	mov	r6, r8
 8005ebe:	4682      	mov	sl, r0
 8005ec0:	e767      	b.n	8005d92 <__aeabi_fmul+0x14e>
 8005ec2:	23ff      	movs	r3, #255	@ 0xff
 8005ec4:	2200      	movs	r2, #0
 8005ec6:	e78b      	b.n	8005de0 <__aeabi_fmul+0x19c>
 8005ec8:	2280      	movs	r2, #128	@ 0x80
 8005eca:	2500      	movs	r5, #0
 8005ecc:	03d2      	lsls	r2, r2, #15
 8005ece:	e786      	b.n	8005dde <__aeabi_fmul+0x19a>
 8005ed0:	003d      	movs	r5, r7
 8005ed2:	431a      	orrs	r2, r3
 8005ed4:	e783      	b.n	8005dde <__aeabi_fmul+0x19a>
 8005ed6:	0192      	lsls	r2, r2, #6
 8005ed8:	2300      	movs	r3, #0
 8005eda:	0a52      	lsrs	r2, r2, #9
 8005edc:	e780      	b.n	8005de0 <__aeabi_fmul+0x19c>
 8005ede:	003d      	movs	r5, r7
 8005ee0:	4646      	mov	r6, r8
 8005ee2:	e777      	b.n	8005dd4 <__aeabi_fmul+0x190>
 8005ee4:	002a      	movs	r2, r5
 8005ee6:	2301      	movs	r3, #1
 8005ee8:	407a      	eors	r2, r7
 8005eea:	408b      	lsls	r3, r1
 8005eec:	2003      	movs	r0, #3
 8005eee:	b2d2      	uxtb	r2, r2
 8005ef0:	e6e9      	b.n	8005cc6 <__aeabi_fmul+0x82>
 8005ef2:	46c0      	nop			@ (mov r8, r8)
 8005ef4:	f7ffffff 	.word	0xf7ffffff

08005ef8 <__aeabi_fsub>:
 8005ef8:	b5f8      	push	{r3, r4, r5, r6, r7, lr}
 8005efa:	4647      	mov	r7, r8
 8005efc:	46ce      	mov	lr, r9
 8005efe:	0243      	lsls	r3, r0, #9
 8005f00:	b580      	push	{r7, lr}
 8005f02:	0a5f      	lsrs	r7, r3, #9
 8005f04:	099b      	lsrs	r3, r3, #6
 8005f06:	0045      	lsls	r5, r0, #1
 8005f08:	004a      	lsls	r2, r1, #1
 8005f0a:	469c      	mov	ip, r3
 8005f0c:	024b      	lsls	r3, r1, #9
 8005f0e:	0fc4      	lsrs	r4, r0, #31
 8005f10:	0fce      	lsrs	r6, r1, #31
 8005f12:	0e2d      	lsrs	r5, r5, #24
 8005f14:	0a58      	lsrs	r0, r3, #9
 8005f16:	0e12      	lsrs	r2, r2, #24
 8005f18:	0999      	lsrs	r1, r3, #6
 8005f1a:	2aff      	cmp	r2, #255	@ 0xff
 8005f1c:	d06b      	beq.n	8005ff6 <__aeabi_fsub+0xfe>
 8005f1e:	2301      	movs	r3, #1
 8005f20:	405e      	eors	r6, r3
 8005f22:	1aab      	subs	r3, r5, r2
 8005f24:	42b4      	cmp	r4, r6
 8005f26:	d04b      	beq.n	8005fc0 <__aeabi_fsub+0xc8>
 8005f28:	2b00      	cmp	r3, #0
 8005f2a:	dc00      	bgt.n	8005f2e <__aeabi_fsub+0x36>
 8005f2c:	e0ff      	b.n	800612e <__aeabi_fsub+0x236>
 8005f2e:	2a00      	cmp	r2, #0
 8005f30:	d100      	bne.n	8005f34 <__aeabi_fsub+0x3c>
 8005f32:	e088      	b.n	8006046 <__aeabi_fsub+0x14e>
 8005f34:	2dff      	cmp	r5, #255	@ 0xff
 8005f36:	d100      	bne.n	8005f3a <__aeabi_fsub+0x42>
 8005f38:	e0ef      	b.n	800611a <__aeabi_fsub+0x222>
 8005f3a:	2280      	movs	r2, #128	@ 0x80
 8005f3c:	04d2      	lsls	r2, r2, #19
 8005f3e:	4311      	orrs	r1, r2
 8005f40:	2001      	movs	r0, #1
 8005f42:	2b1b      	cmp	r3, #27
 8005f44:	dc08      	bgt.n	8005f58 <__aeabi_fsub+0x60>
 8005f46:	0008      	movs	r0, r1
 8005f48:	2220      	movs	r2, #32
 8005f4a:	40d8      	lsrs	r0, r3
 8005f4c:	1ad3      	subs	r3, r2, r3
 8005f4e:	4099      	lsls	r1, r3
 8005f50:	000b      	movs	r3, r1
 8005f52:	1e5a      	subs	r2, r3, #1
 8005f54:	4193      	sbcs	r3, r2
 8005f56:	4318      	orrs	r0, r3
 8005f58:	4663      	mov	r3, ip
 8005f5a:	1a1b      	subs	r3, r3, r0
 8005f5c:	469c      	mov	ip, r3
 8005f5e:	4663      	mov	r3, ip
 8005f60:	015b      	lsls	r3, r3, #5
 8005f62:	d400      	bmi.n	8005f66 <__aeabi_fsub+0x6e>
 8005f64:	e0cd      	b.n	8006102 <__aeabi_fsub+0x20a>
 8005f66:	4663      	mov	r3, ip
 8005f68:	019f      	lsls	r7, r3, #6
 8005f6a:	09bf      	lsrs	r7, r7, #6
 8005f6c:	0038      	movs	r0, r7
 8005f6e:	f000 fadd 	bl	800652c <__clzsi2>
 8005f72:	003b      	movs	r3, r7
 8005f74:	3805      	subs	r0, #5
 8005f76:	4083      	lsls	r3, r0
 8005f78:	4285      	cmp	r5, r0
 8005f7a:	dc00      	bgt.n	8005f7e <__aeabi_fsub+0x86>
 8005f7c:	e0a2      	b.n	80060c4 <__aeabi_fsub+0x1cc>
 8005f7e:	4ab7      	ldr	r2, [pc, #732]	@ (800625c <__aeabi_fsub+0x364>)
 8005f80:	1a2d      	subs	r5, r5, r0
 8005f82:	401a      	ands	r2, r3
 8005f84:	4694      	mov	ip, r2
 8005f86:	075a      	lsls	r2, r3, #29
 8005f88:	d100      	bne.n	8005f8c <__aeabi_fsub+0x94>
 8005f8a:	e0c3      	b.n	8006114 <__aeabi_fsub+0x21c>
 8005f8c:	220f      	movs	r2, #15
 8005f8e:	4013      	ands	r3, r2
 8005f90:	2b04      	cmp	r3, #4
 8005f92:	d100      	bne.n	8005f96 <__aeabi_fsub+0x9e>
 8005f94:	e0be      	b.n	8006114 <__aeabi_fsub+0x21c>
 8005f96:	2304      	movs	r3, #4
 8005f98:	4698      	mov	r8, r3
 8005f9a:	44c4      	add	ip, r8
 8005f9c:	4663      	mov	r3, ip
 8005f9e:	015b      	lsls	r3, r3, #5
 8005fa0:	d400      	bmi.n	8005fa4 <__aeabi_fsub+0xac>
 8005fa2:	e0b7      	b.n	8006114 <__aeabi_fsub+0x21c>
 8005fa4:	1c68      	adds	r0, r5, #1
 8005fa6:	2dfe      	cmp	r5, #254	@ 0xfe
 8005fa8:	d000      	beq.n	8005fac <__aeabi_fsub+0xb4>
 8005faa:	e0a5      	b.n	80060f8 <__aeabi_fsub+0x200>
 8005fac:	20ff      	movs	r0, #255	@ 0xff
 8005fae:	2200      	movs	r2, #0
 8005fb0:	05c0      	lsls	r0, r0, #23
 8005fb2:	4310      	orrs	r0, r2
 8005fb4:	07e4      	lsls	r4, r4, #31
 8005fb6:	4320      	orrs	r0, r4
 8005fb8:	bcc0      	pop	{r6, r7}
 8005fba:	46b9      	mov	r9, r7
 8005fbc:	46b0      	mov	r8, r6
 8005fbe:	bdf8      	pop	{r3, r4, r5, r6, r7, pc}
 8005fc0:	2b00      	cmp	r3, #0
 8005fc2:	dc00      	bgt.n	8005fc6 <__aeabi_fsub+0xce>
 8005fc4:	e1eb      	b.n	800639e <__aeabi_fsub+0x4a6>
 8005fc6:	2a00      	cmp	r2, #0
 8005fc8:	d046      	beq.n	8006058 <__aeabi_fsub+0x160>
 8005fca:	2dff      	cmp	r5, #255	@ 0xff
 8005fcc:	d100      	bne.n	8005fd0 <__aeabi_fsub+0xd8>
 8005fce:	e0a4      	b.n	800611a <__aeabi_fsub+0x222>
 8005fd0:	2280      	movs	r2, #128	@ 0x80
 8005fd2:	04d2      	lsls	r2, r2, #19
 8005fd4:	4311      	orrs	r1, r2
 8005fd6:	2b1b      	cmp	r3, #27
 8005fd8:	dc00      	bgt.n	8005fdc <__aeabi_fsub+0xe4>
 8005fda:	e0fb      	b.n	80061d4 <__aeabi_fsub+0x2dc>
 8005fdc:	2305      	movs	r3, #5
 8005fde:	4698      	mov	r8, r3
 8005fe0:	002b      	movs	r3, r5
 8005fe2:	44c4      	add	ip, r8
 8005fe4:	4662      	mov	r2, ip
 8005fe6:	08d7      	lsrs	r7, r2, #3
 8005fe8:	2bff      	cmp	r3, #255	@ 0xff
 8005fea:	d100      	bne.n	8005fee <__aeabi_fsub+0xf6>
 8005fec:	e095      	b.n	800611a <__aeabi_fsub+0x222>
 8005fee:	027a      	lsls	r2, r7, #9
 8005ff0:	0a52      	lsrs	r2, r2, #9
 8005ff2:	b2d8      	uxtb	r0, r3
 8005ff4:	e7dc      	b.n	8005fb0 <__aeabi_fsub+0xb8>
 8005ff6:	002b      	movs	r3, r5
 8005ff8:	3bff      	subs	r3, #255	@ 0xff
 8005ffa:	4699      	mov	r9, r3
 8005ffc:	2900      	cmp	r1, #0
 8005ffe:	d118      	bne.n	8006032 <__aeabi_fsub+0x13a>
 8006000:	2301      	movs	r3, #1
 8006002:	405e      	eors	r6, r3
 8006004:	42b4      	cmp	r4, r6
 8006006:	d100      	bne.n	800600a <__aeabi_fsub+0x112>
 8006008:	e0ca      	b.n	80061a0 <__aeabi_fsub+0x2a8>
 800600a:	464b      	mov	r3, r9
 800600c:	2b00      	cmp	r3, #0
 800600e:	d02d      	beq.n	800606c <__aeabi_fsub+0x174>
 8006010:	2d00      	cmp	r5, #0
 8006012:	d000      	beq.n	8006016 <__aeabi_fsub+0x11e>
 8006014:	e13c      	b.n	8006290 <__aeabi_fsub+0x398>
 8006016:	23ff      	movs	r3, #255	@ 0xff
 8006018:	4664      	mov	r4, ip
 800601a:	2c00      	cmp	r4, #0
 800601c:	d100      	bne.n	8006020 <__aeabi_fsub+0x128>
 800601e:	e15f      	b.n	80062e0 <__aeabi_fsub+0x3e8>
 8006020:	1e5d      	subs	r5, r3, #1
 8006022:	2b01      	cmp	r3, #1
 8006024:	d100      	bne.n	8006028 <__aeabi_fsub+0x130>
 8006026:	e174      	b.n	8006312 <__aeabi_fsub+0x41a>
 8006028:	0034      	movs	r4, r6
 800602a:	2bff      	cmp	r3, #255	@ 0xff
 800602c:	d074      	beq.n	8006118 <__aeabi_fsub+0x220>
 800602e:	002b      	movs	r3, r5
 8006030:	e103      	b.n	800623a <__aeabi_fsub+0x342>
 8006032:	42b4      	cmp	r4, r6
 8006034:	d100      	bne.n	8006038 <__aeabi_fsub+0x140>
 8006036:	e09c      	b.n	8006172 <__aeabi_fsub+0x27a>
 8006038:	2b00      	cmp	r3, #0
 800603a:	d017      	beq.n	800606c <__aeabi_fsub+0x174>
 800603c:	2d00      	cmp	r5, #0
 800603e:	d0ea      	beq.n	8006016 <__aeabi_fsub+0x11e>
 8006040:	0007      	movs	r7, r0
 8006042:	0034      	movs	r4, r6
 8006044:	e06c      	b.n	8006120 <__aeabi_fsub+0x228>
 8006046:	2900      	cmp	r1, #0
 8006048:	d0cc      	beq.n	8005fe4 <__aeabi_fsub+0xec>
 800604a:	1e5a      	subs	r2, r3, #1
 800604c:	2b01      	cmp	r3, #1
 800604e:	d02b      	beq.n	80060a8 <__aeabi_fsub+0x1b0>
 8006050:	2bff      	cmp	r3, #255	@ 0xff
 8006052:	d062      	beq.n	800611a <__aeabi_fsub+0x222>
 8006054:	0013      	movs	r3, r2
 8006056:	e773      	b.n	8005f40 <__aeabi_fsub+0x48>
 8006058:	2900      	cmp	r1, #0
 800605a:	d0c3      	beq.n	8005fe4 <__aeabi_fsub+0xec>
 800605c:	1e5a      	subs	r2, r3, #1
 800605e:	2b01      	cmp	r3, #1
 8006060:	d100      	bne.n	8006064 <__aeabi_fsub+0x16c>
 8006062:	e11e      	b.n	80062a2 <__aeabi_fsub+0x3aa>
 8006064:	2bff      	cmp	r3, #255	@ 0xff
 8006066:	d058      	beq.n	800611a <__aeabi_fsub+0x222>
 8006068:	0013      	movs	r3, r2
 800606a:	e7b4      	b.n	8005fd6 <__aeabi_fsub+0xde>
 800606c:	22fe      	movs	r2, #254	@ 0xfe
 800606e:	1c6b      	adds	r3, r5, #1
 8006070:	421a      	tst	r2, r3
 8006072:	d10d      	bne.n	8006090 <__aeabi_fsub+0x198>
 8006074:	2d00      	cmp	r5, #0
 8006076:	d060      	beq.n	800613a <__aeabi_fsub+0x242>
 8006078:	4663      	mov	r3, ip
 800607a:	2b00      	cmp	r3, #0
 800607c:	d000      	beq.n	8006080 <__aeabi_fsub+0x188>
 800607e:	e120      	b.n	80062c2 <__aeabi_fsub+0x3ca>
 8006080:	2900      	cmp	r1, #0
 8006082:	d000      	beq.n	8006086 <__aeabi_fsub+0x18e>
 8006084:	e128      	b.n	80062d8 <__aeabi_fsub+0x3e0>
 8006086:	2280      	movs	r2, #128	@ 0x80
 8006088:	2400      	movs	r4, #0
 800608a:	20ff      	movs	r0, #255	@ 0xff
 800608c:	03d2      	lsls	r2, r2, #15
 800608e:	e78f      	b.n	8005fb0 <__aeabi_fsub+0xb8>
 8006090:	4663      	mov	r3, ip
 8006092:	1a5f      	subs	r7, r3, r1
 8006094:	017b      	lsls	r3, r7, #5
 8006096:	d500      	bpl.n	800609a <__aeabi_fsub+0x1a2>
 8006098:	e0fe      	b.n	8006298 <__aeabi_fsub+0x3a0>
 800609a:	2f00      	cmp	r7, #0
 800609c:	d000      	beq.n	80060a0 <__aeabi_fsub+0x1a8>
 800609e:	e765      	b.n	8005f6c <__aeabi_fsub+0x74>
 80060a0:	2400      	movs	r4, #0
 80060a2:	2000      	movs	r0, #0
 80060a4:	2200      	movs	r2, #0
 80060a6:	e783      	b.n	8005fb0 <__aeabi_fsub+0xb8>
 80060a8:	4663      	mov	r3, ip
 80060aa:	1a59      	subs	r1, r3, r1
 80060ac:	014b      	lsls	r3, r1, #5
 80060ae:	d400      	bmi.n	80060b2 <__aeabi_fsub+0x1ba>
 80060b0:	e119      	b.n	80062e6 <__aeabi_fsub+0x3ee>
 80060b2:	018f      	lsls	r7, r1, #6
 80060b4:	09bf      	lsrs	r7, r7, #6
 80060b6:	0038      	movs	r0, r7
 80060b8:	f000 fa38 	bl	800652c <__clzsi2>
 80060bc:	003b      	movs	r3, r7
 80060be:	3805      	subs	r0, #5
 80060c0:	4083      	lsls	r3, r0
 80060c2:	2501      	movs	r5, #1
 80060c4:	2220      	movs	r2, #32
 80060c6:	1b40      	subs	r0, r0, r5
 80060c8:	3001      	adds	r0, #1
 80060ca:	1a12      	subs	r2, r2, r0
 80060cc:	0019      	movs	r1, r3
 80060ce:	4093      	lsls	r3, r2
 80060d0:	40c1      	lsrs	r1, r0
 80060d2:	1e5a      	subs	r2, r3, #1
 80060d4:	4193      	sbcs	r3, r2
 80060d6:	4319      	orrs	r1, r3
 80060d8:	468c      	mov	ip, r1
 80060da:	1e0b      	subs	r3, r1, #0
 80060dc:	d0e1      	beq.n	80060a2 <__aeabi_fsub+0x1aa>
 80060de:	075b      	lsls	r3, r3, #29
 80060e0:	d100      	bne.n	80060e4 <__aeabi_fsub+0x1ec>
 80060e2:	e152      	b.n	800638a <__aeabi_fsub+0x492>
 80060e4:	230f      	movs	r3, #15
 80060e6:	2500      	movs	r5, #0
 80060e8:	400b      	ands	r3, r1
 80060ea:	2b04      	cmp	r3, #4
 80060ec:	d000      	beq.n	80060f0 <__aeabi_fsub+0x1f8>
 80060ee:	e752      	b.n	8005f96 <__aeabi_fsub+0x9e>
 80060f0:	2001      	movs	r0, #1
 80060f2:	014a      	lsls	r2, r1, #5
 80060f4:	d400      	bmi.n	80060f8 <__aeabi_fsub+0x200>
 80060f6:	e092      	b.n	800621e <__aeabi_fsub+0x326>
 80060f8:	b2c0      	uxtb	r0, r0
 80060fa:	4663      	mov	r3, ip
 80060fc:	019a      	lsls	r2, r3, #6
 80060fe:	0a52      	lsrs	r2, r2, #9
 8006100:	e756      	b.n	8005fb0 <__aeabi_fsub+0xb8>
 8006102:	4663      	mov	r3, ip
 8006104:	075b      	lsls	r3, r3, #29
 8006106:	d005      	beq.n	8006114 <__aeabi_fsub+0x21c>
 8006108:	230f      	movs	r3, #15
 800610a:	4662      	mov	r2, ip
 800610c:	4013      	ands	r3, r2
 800610e:	2b04      	cmp	r3, #4
 8006110:	d000      	beq.n	8006114 <__aeabi_fsub+0x21c>
 8006112:	e740      	b.n	8005f96 <__aeabi_fsub+0x9e>
 8006114:	002b      	movs	r3, r5
 8006116:	e765      	b.n	8005fe4 <__aeabi_fsub+0xec>
 8006118:	0007      	movs	r7, r0
 800611a:	2f00      	cmp	r7, #0
 800611c:	d100      	bne.n	8006120 <__aeabi_fsub+0x228>
 800611e:	e745      	b.n	8005fac <__aeabi_fsub+0xb4>
 8006120:	2280      	movs	r2, #128	@ 0x80
 8006122:	03d2      	lsls	r2, r2, #15
 8006124:	433a      	orrs	r2, r7
 8006126:	0252      	lsls	r2, r2, #9
 8006128:	20ff      	movs	r0, #255	@ 0xff
 800612a:	0a52      	lsrs	r2, r2, #9
 800612c:	e740      	b.n	8005fb0 <__aeabi_fsub+0xb8>
 800612e:	2b00      	cmp	r3, #0
 8006130:	d179      	bne.n	8006226 <__aeabi_fsub+0x32e>
 8006132:	22fe      	movs	r2, #254	@ 0xfe
 8006134:	1c6b      	adds	r3, r5, #1
 8006136:	421a      	tst	r2, r3
 8006138:	d1aa      	bne.n	8006090 <__aeabi_fsub+0x198>
 800613a:	4663      	mov	r3, ip
 800613c:	2b00      	cmp	r3, #0
 800613e:	d100      	bne.n	8006142 <__aeabi_fsub+0x24a>
 8006140:	e0f5      	b.n	800632e <__aeabi_fsub+0x436>
 8006142:	2900      	cmp	r1, #0
 8006144:	d100      	bne.n	8006148 <__aeabi_fsub+0x250>
 8006146:	e0d1      	b.n	80062ec <__aeabi_fsub+0x3f4>
 8006148:	1a5f      	subs	r7, r3, r1
 800614a:	2380      	movs	r3, #128	@ 0x80
 800614c:	04db      	lsls	r3, r3, #19
 800614e:	421f      	tst	r7, r3
 8006150:	d100      	bne.n	8006154 <__aeabi_fsub+0x25c>
 8006152:	e10e      	b.n	8006372 <__aeabi_fsub+0x47a>
 8006154:	4662      	mov	r2, ip
 8006156:	2401      	movs	r4, #1
 8006158:	1a8a      	subs	r2, r1, r2
 800615a:	4694      	mov	ip, r2
 800615c:	2000      	movs	r0, #0
 800615e:	4034      	ands	r4, r6
 8006160:	2a00      	cmp	r2, #0
 8006162:	d100      	bne.n	8006166 <__aeabi_fsub+0x26e>
 8006164:	e724      	b.n	8005fb0 <__aeabi_fsub+0xb8>
 8006166:	2001      	movs	r0, #1
 8006168:	421a      	tst	r2, r3
 800616a:	d1c6      	bne.n	80060fa <__aeabi_fsub+0x202>
 800616c:	2300      	movs	r3, #0
 800616e:	08d7      	lsrs	r7, r2, #3
 8006170:	e73d      	b.n	8005fee <__aeabi_fsub+0xf6>
 8006172:	2b00      	cmp	r3, #0
 8006174:	d017      	beq.n	80061a6 <__aeabi_fsub+0x2ae>
 8006176:	2d00      	cmp	r5, #0
 8006178:	d000      	beq.n	800617c <__aeabi_fsub+0x284>
 800617a:	e0af      	b.n	80062dc <__aeabi_fsub+0x3e4>
 800617c:	23ff      	movs	r3, #255	@ 0xff
 800617e:	4665      	mov	r5, ip
 8006180:	2d00      	cmp	r5, #0
 8006182:	d100      	bne.n	8006186 <__aeabi_fsub+0x28e>
 8006184:	e0ad      	b.n	80062e2 <__aeabi_fsub+0x3ea>
 8006186:	1e5e      	subs	r6, r3, #1
 8006188:	2b01      	cmp	r3, #1
 800618a:	d100      	bne.n	800618e <__aeabi_fsub+0x296>
 800618c:	e089      	b.n	80062a2 <__aeabi_fsub+0x3aa>
 800618e:	2bff      	cmp	r3, #255	@ 0xff
 8006190:	d0c2      	beq.n	8006118 <__aeabi_fsub+0x220>
 8006192:	2e1b      	cmp	r6, #27
 8006194:	dc00      	bgt.n	8006198 <__aeabi_fsub+0x2a0>
 8006196:	e0ab      	b.n	80062f0 <__aeabi_fsub+0x3f8>
 8006198:	1d4b      	adds	r3, r1, #5
 800619a:	469c      	mov	ip, r3
 800619c:	0013      	movs	r3, r2
 800619e:	e721      	b.n	8005fe4 <__aeabi_fsub+0xec>
 80061a0:	464b      	mov	r3, r9
 80061a2:	2b00      	cmp	r3, #0
 80061a4:	d170      	bne.n	8006288 <__aeabi_fsub+0x390>
 80061a6:	22fe      	movs	r2, #254	@ 0xfe
 80061a8:	1c6b      	adds	r3, r5, #1
 80061aa:	421a      	tst	r2, r3
 80061ac:	d15e      	bne.n	800626c <__aeabi_fsub+0x374>
 80061ae:	2d00      	cmp	r5, #0
 80061b0:	d000      	beq.n	80061b4 <__aeabi_fsub+0x2bc>
 80061b2:	e0c3      	b.n	800633c <__aeabi_fsub+0x444>
 80061b4:	4663      	mov	r3, ip
 80061b6:	2b00      	cmp	r3, #0
 80061b8:	d100      	bne.n	80061bc <__aeabi_fsub+0x2c4>
 80061ba:	e0d0      	b.n	800635e <__aeabi_fsub+0x466>
 80061bc:	2900      	cmp	r1, #0
 80061be:	d100      	bne.n	80061c2 <__aeabi_fsub+0x2ca>
 80061c0:	e094      	b.n	80062ec <__aeabi_fsub+0x3f4>
 80061c2:	000a      	movs	r2, r1
 80061c4:	4462      	add	r2, ip
 80061c6:	0153      	lsls	r3, r2, #5
 80061c8:	d400      	bmi.n	80061cc <__aeabi_fsub+0x2d4>
 80061ca:	e0d8      	b.n	800637e <__aeabi_fsub+0x486>
 80061cc:	0192      	lsls	r2, r2, #6
 80061ce:	2001      	movs	r0, #1
 80061d0:	0a52      	lsrs	r2, r2, #9
 80061d2:	e6ed      	b.n	8005fb0 <__aeabi_fsub+0xb8>
 80061d4:	0008      	movs	r0, r1
 80061d6:	2220      	movs	r2, #32
 80061d8:	40d8      	lsrs	r0, r3
 80061da:	1ad3      	subs	r3, r2, r3
 80061dc:	4099      	lsls	r1, r3
 80061de:	000b      	movs	r3, r1
 80061e0:	1e5a      	subs	r2, r3, #1
 80061e2:	4193      	sbcs	r3, r2
 80061e4:	4303      	orrs	r3, r0
 80061e6:	449c      	add	ip, r3
 80061e8:	4663      	mov	r3, ip
 80061ea:	015b      	lsls	r3, r3, #5
 80061ec:	d589      	bpl.n	8006102 <__aeabi_fsub+0x20a>
 80061ee:	3501      	adds	r5, #1
 80061f0:	2dff      	cmp	r5, #255	@ 0xff
 80061f2:	d100      	bne.n	80061f6 <__aeabi_fsub+0x2fe>
 80061f4:	e6da      	b.n	8005fac <__aeabi_fsub+0xb4>
 80061f6:	4662      	mov	r2, ip
 80061f8:	2301      	movs	r3, #1
 80061fa:	4919      	ldr	r1, [pc, #100]	@ (8006260 <__aeabi_fsub+0x368>)
 80061fc:	4013      	ands	r3, r2
 80061fe:	0852      	lsrs	r2, r2, #1
 8006200:	400a      	ands	r2, r1
 8006202:	431a      	orrs	r2, r3
 8006204:	0013      	movs	r3, r2
 8006206:	4694      	mov	ip, r2
 8006208:	075b      	lsls	r3, r3, #29
 800620a:	d004      	beq.n	8006216 <__aeabi_fsub+0x31e>
 800620c:	230f      	movs	r3, #15
 800620e:	4013      	ands	r3, r2
 8006210:	2b04      	cmp	r3, #4
 8006212:	d000      	beq.n	8006216 <__aeabi_fsub+0x31e>
 8006214:	e6bf      	b.n	8005f96 <__aeabi_fsub+0x9e>
 8006216:	4663      	mov	r3, ip
 8006218:	015b      	lsls	r3, r3, #5
 800621a:	d500      	bpl.n	800621e <__aeabi_fsub+0x326>
 800621c:	e6c2      	b.n	8005fa4 <__aeabi_fsub+0xac>
 800621e:	4663      	mov	r3, ip
 8006220:	08df      	lsrs	r7, r3, #3
 8006222:	002b      	movs	r3, r5
 8006224:	e6e3      	b.n	8005fee <__aeabi_fsub+0xf6>
 8006226:	1b53      	subs	r3, r2, r5
 8006228:	2d00      	cmp	r5, #0
 800622a:	d100      	bne.n	800622e <__aeabi_fsub+0x336>
 800622c:	e6f4      	b.n	8006018 <__aeabi_fsub+0x120>
 800622e:	2080      	movs	r0, #128	@ 0x80
 8006230:	4664      	mov	r4, ip
 8006232:	04c0      	lsls	r0, r0, #19
 8006234:	4304      	orrs	r4, r0
 8006236:	46a4      	mov	ip, r4
 8006238:	0034      	movs	r4, r6
 800623a:	2001      	movs	r0, #1
 800623c:	2b1b      	cmp	r3, #27
 800623e:	dc09      	bgt.n	8006254 <__aeabi_fsub+0x35c>
 8006240:	2520      	movs	r5, #32
 8006242:	4660      	mov	r0, ip
 8006244:	40d8      	lsrs	r0, r3
 8006246:	1aeb      	subs	r3, r5, r3
 8006248:	4665      	mov	r5, ip
 800624a:	409d      	lsls	r5, r3
 800624c:	002b      	movs	r3, r5
 800624e:	1e5d      	subs	r5, r3, #1
 8006250:	41ab      	sbcs	r3, r5
 8006252:	4318      	orrs	r0, r3
 8006254:	1a0b      	subs	r3, r1, r0
 8006256:	469c      	mov	ip, r3
 8006258:	0015      	movs	r5, r2
 800625a:	e680      	b.n	8005f5e <__aeabi_fsub+0x66>
 800625c:	fbffffff 	.word	0xfbffffff
 8006260:	7dffffff 	.word	0x7dffffff
 8006264:	22fe      	movs	r2, #254	@ 0xfe
 8006266:	1c6b      	adds	r3, r5, #1
 8006268:	4213      	tst	r3, r2
 800626a:	d0a3      	beq.n	80061b4 <__aeabi_fsub+0x2bc>
 800626c:	2bff      	cmp	r3, #255	@ 0xff
 800626e:	d100      	bne.n	8006272 <__aeabi_fsub+0x37a>
 8006270:	e69c      	b.n	8005fac <__aeabi_fsub+0xb4>
 8006272:	4461      	add	r1, ip
 8006274:	0849      	lsrs	r1, r1, #1
 8006276:	074a      	lsls	r2, r1, #29
 8006278:	d049      	beq.n	800630e <__aeabi_fsub+0x416>
 800627a:	220f      	movs	r2, #15
 800627c:	400a      	ands	r2, r1
 800627e:	2a04      	cmp	r2, #4
 8006280:	d045      	beq.n	800630e <__aeabi_fsub+0x416>
 8006282:	1d0a      	adds	r2, r1, #4
 8006284:	4694      	mov	ip, r2
 8006286:	e6ad      	b.n	8005fe4 <__aeabi_fsub+0xec>
 8006288:	2d00      	cmp	r5, #0
 800628a:	d100      	bne.n	800628e <__aeabi_fsub+0x396>
 800628c:	e776      	b.n	800617c <__aeabi_fsub+0x284>
 800628e:	e68d      	b.n	8005fac <__aeabi_fsub+0xb4>
 8006290:	0034      	movs	r4, r6
 8006292:	20ff      	movs	r0, #255	@ 0xff
 8006294:	2200      	movs	r2, #0
 8006296:	e68b      	b.n	8005fb0 <__aeabi_fsub+0xb8>
 8006298:	4663      	mov	r3, ip
 800629a:	2401      	movs	r4, #1
 800629c:	1acf      	subs	r7, r1, r3
 800629e:	4034      	ands	r4, r6
 80062a0:	e664      	b.n	8005f6c <__aeabi_fsub+0x74>
 80062a2:	4461      	add	r1, ip
 80062a4:	014b      	lsls	r3, r1, #5
 80062a6:	d56d      	bpl.n	8006384 <__aeabi_fsub+0x48c>
 80062a8:	0848      	lsrs	r0, r1, #1
 80062aa:	4944      	ldr	r1, [pc, #272]	@ (80063bc <__aeabi_fsub+0x4c4>)
 80062ac:	4001      	ands	r1, r0
 80062ae:	0743      	lsls	r3, r0, #29
 80062b0:	d02c      	beq.n	800630c <__aeabi_fsub+0x414>
 80062b2:	230f      	movs	r3, #15
 80062b4:	4003      	ands	r3, r0
 80062b6:	2b04      	cmp	r3, #4
 80062b8:	d028      	beq.n	800630c <__aeabi_fsub+0x414>
 80062ba:	1d0b      	adds	r3, r1, #4
 80062bc:	469c      	mov	ip, r3
 80062be:	2302      	movs	r3, #2
 80062c0:	e690      	b.n	8005fe4 <__aeabi_fsub+0xec>
 80062c2:	2900      	cmp	r1, #0
 80062c4:	d100      	bne.n	80062c8 <__aeabi_fsub+0x3d0>
 80062c6:	e72b      	b.n	8006120 <__aeabi_fsub+0x228>
 80062c8:	2380      	movs	r3, #128	@ 0x80
 80062ca:	03db      	lsls	r3, r3, #15
 80062cc:	429f      	cmp	r7, r3
 80062ce:	d200      	bcs.n	80062d2 <__aeabi_fsub+0x3da>
 80062d0:	e726      	b.n	8006120 <__aeabi_fsub+0x228>
 80062d2:	4298      	cmp	r0, r3
 80062d4:	d300      	bcc.n	80062d8 <__aeabi_fsub+0x3e0>
 80062d6:	e723      	b.n	8006120 <__aeabi_fsub+0x228>
 80062d8:	2401      	movs	r4, #1
 80062da:	4034      	ands	r4, r6
 80062dc:	0007      	movs	r7, r0
 80062de:	e71f      	b.n	8006120 <__aeabi_fsub+0x228>
 80062e0:	0034      	movs	r4, r6
 80062e2:	468c      	mov	ip, r1
 80062e4:	e67e      	b.n	8005fe4 <__aeabi_fsub+0xec>
 80062e6:	2301      	movs	r3, #1
 80062e8:	08cf      	lsrs	r7, r1, #3
 80062ea:	e680      	b.n	8005fee <__aeabi_fsub+0xf6>
 80062ec:	2300      	movs	r3, #0
 80062ee:	e67e      	b.n	8005fee <__aeabi_fsub+0xf6>
 80062f0:	2020      	movs	r0, #32
 80062f2:	4665      	mov	r5, ip
 80062f4:	1b80      	subs	r0, r0, r6
 80062f6:	4085      	lsls	r5, r0
 80062f8:	4663      	mov	r3, ip
 80062fa:	0028      	movs	r0, r5
 80062fc:	40f3      	lsrs	r3, r6
 80062fe:	1e45      	subs	r5, r0, #1
 8006300:	41a8      	sbcs	r0, r5
 8006302:	4303      	orrs	r3, r0
 8006304:	469c      	mov	ip, r3
 8006306:	0015      	movs	r5, r2
 8006308:	448c      	add	ip, r1
 800630a:	e76d      	b.n	80061e8 <__aeabi_fsub+0x2f0>
 800630c:	2302      	movs	r3, #2
 800630e:	08cf      	lsrs	r7, r1, #3
 8006310:	e66d      	b.n	8005fee <__aeabi_fsub+0xf6>
 8006312:	1b0f      	subs	r7, r1, r4
 8006314:	017b      	lsls	r3, r7, #5
 8006316:	d528      	bpl.n	800636a <__aeabi_fsub+0x472>
 8006318:	01bf      	lsls	r7, r7, #6
 800631a:	09bf      	lsrs	r7, r7, #6
 800631c:	0038      	movs	r0, r7
 800631e:	f000 f905 	bl	800652c <__clzsi2>
 8006322:	003b      	movs	r3, r7
 8006324:	3805      	subs	r0, #5
 8006326:	4083      	lsls	r3, r0
 8006328:	0034      	movs	r4, r6
 800632a:	2501      	movs	r5, #1
 800632c:	e6ca      	b.n	80060c4 <__aeabi_fsub+0x1cc>
 800632e:	2900      	cmp	r1, #0
 8006330:	d100      	bne.n	8006334 <__aeabi_fsub+0x43c>
 8006332:	e6b5      	b.n	80060a0 <__aeabi_fsub+0x1a8>
 8006334:	2401      	movs	r4, #1
 8006336:	0007      	movs	r7, r0
 8006338:	4034      	ands	r4, r6
 800633a:	e658      	b.n	8005fee <__aeabi_fsub+0xf6>
 800633c:	4663      	mov	r3, ip
 800633e:	2b00      	cmp	r3, #0
 8006340:	d100      	bne.n	8006344 <__aeabi_fsub+0x44c>
 8006342:	e6e9      	b.n	8006118 <__aeabi_fsub+0x220>
 8006344:	2900      	cmp	r1, #0
 8006346:	d100      	bne.n	800634a <__aeabi_fsub+0x452>
 8006348:	e6ea      	b.n	8006120 <__aeabi_fsub+0x228>
 800634a:	2380      	movs	r3, #128	@ 0x80
 800634c:	03db      	lsls	r3, r3, #15
 800634e:	429f      	cmp	r7, r3
 8006350:	d200      	bcs.n	8006354 <__aeabi_fsub+0x45c>
 8006352:	e6e5      	b.n	8006120 <__aeabi_fsub+0x228>
 8006354:	4298      	cmp	r0, r3
 8006356:	d300      	bcc.n	800635a <__aeabi_fsub+0x462>
 8006358:	e6e2      	b.n	8006120 <__aeabi_fsub+0x228>
 800635a:	0007      	movs	r7, r0
 800635c:	e6e0      	b.n	8006120 <__aeabi_fsub+0x228>
 800635e:	2900      	cmp	r1, #0
 8006360:	d100      	bne.n	8006364 <__aeabi_fsub+0x46c>
 8006362:	e69e      	b.n	80060a2 <__aeabi_fsub+0x1aa>
 8006364:	2300      	movs	r3, #0
 8006366:	08cf      	lsrs	r7, r1, #3
 8006368:	e641      	b.n	8005fee <__aeabi_fsub+0xf6>
 800636a:	0034      	movs	r4, r6
 800636c:	2301      	movs	r3, #1
 800636e:	08ff      	lsrs	r7, r7, #3
 8006370:	e63d      	b.n	8005fee <__aeabi_fsub+0xf6>
 8006372:	2f00      	cmp	r7, #0
 8006374:	d100      	bne.n	8006378 <__aeabi_fsub+0x480>
 8006376:	e693      	b.n	80060a0 <__aeabi_fsub+0x1a8>
 8006378:	2300      	movs	r3, #0
 800637a:	08ff      	lsrs	r7, r7, #3
 800637c:	e637      	b.n	8005fee <__aeabi_fsub+0xf6>
 800637e:	2300      	movs	r3, #0
 8006380:	08d7      	lsrs	r7, r2, #3
 8006382:	e634      	b.n	8005fee <__aeabi_fsub+0xf6>
 8006384:	2301      	movs	r3, #1
 8006386:	08cf      	lsrs	r7, r1, #3
 8006388:	e631      	b.n	8005fee <__aeabi_fsub+0xf6>
 800638a:	2280      	movs	r2, #128	@ 0x80
 800638c:	000b      	movs	r3, r1
 800638e:	04d2      	lsls	r2, r2, #19
 8006390:	2001      	movs	r0, #1
 8006392:	4013      	ands	r3, r2
 8006394:	4211      	tst	r1, r2
 8006396:	d000      	beq.n	800639a <__aeabi_fsub+0x4a2>
 8006398:	e6ae      	b.n	80060f8 <__aeabi_fsub+0x200>
 800639a:	08cf      	lsrs	r7, r1, #3
 800639c:	e627      	b.n	8005fee <__aeabi_fsub+0xf6>
 800639e:	2b00      	cmp	r3, #0
 80063a0:	d100      	bne.n	80063a4 <__aeabi_fsub+0x4ac>
 80063a2:	e75f      	b.n	8006264 <__aeabi_fsub+0x36c>
 80063a4:	1b56      	subs	r6, r2, r5
 80063a6:	2d00      	cmp	r5, #0
 80063a8:	d101      	bne.n	80063ae <__aeabi_fsub+0x4b6>
 80063aa:	0033      	movs	r3, r6
 80063ac:	e6e7      	b.n	800617e <__aeabi_fsub+0x286>
 80063ae:	2380      	movs	r3, #128	@ 0x80
 80063b0:	4660      	mov	r0, ip
 80063b2:	04db      	lsls	r3, r3, #19
 80063b4:	4318      	orrs	r0, r3
 80063b6:	4684      	mov	ip, r0
 80063b8:	e6eb      	b.n	8006192 <__aeabi_fsub+0x29a>
 80063ba:	46c0      	nop			@ (mov r8, r8)
 80063bc:	7dffffff 	.word	0x7dffffff

080063c0 <__aeabi_f2iz>:
 80063c0:	0241      	lsls	r1, r0, #9
 80063c2:	0042      	lsls	r2, r0, #1
 80063c4:	0fc3      	lsrs	r3, r0, #31
 80063c6:	0a49      	lsrs	r1, r1, #9
 80063c8:	2000      	movs	r0, #0
 80063ca:	0e12      	lsrs	r2, r2, #24
 80063cc:	2a7e      	cmp	r2, #126	@ 0x7e
 80063ce:	dd03      	ble.n	80063d8 <__aeabi_f2iz+0x18>
 80063d0:	2a9d      	cmp	r2, #157	@ 0x9d
 80063d2:	dd02      	ble.n	80063da <__aeabi_f2iz+0x1a>
 80063d4:	4a09      	ldr	r2, [pc, #36]	@ (80063fc <__aeabi_f2iz+0x3c>)
 80063d6:	1898      	adds	r0, r3, r2
 80063d8:	4770      	bx	lr
 80063da:	2080      	movs	r0, #128	@ 0x80
 80063dc:	0400      	lsls	r0, r0, #16
 80063de:	4301      	orrs	r1, r0
 80063e0:	2a95      	cmp	r2, #149	@ 0x95
 80063e2:	dc07      	bgt.n	80063f4 <__aeabi_f2iz+0x34>
 80063e4:	2096      	movs	r0, #150	@ 0x96
 80063e6:	1a82      	subs	r2, r0, r2
 80063e8:	40d1      	lsrs	r1, r2
 80063ea:	4248      	negs	r0, r1
 80063ec:	2b00      	cmp	r3, #0
 80063ee:	d1f3      	bne.n	80063d8 <__aeabi_f2iz+0x18>
 80063f0:	0008      	movs	r0, r1
 80063f2:	e7f1      	b.n	80063d8 <__aeabi_f2iz+0x18>
 80063f4:	3a96      	subs	r2, #150	@ 0x96
 80063f6:	4091      	lsls	r1, r2
 80063f8:	e7f7      	b.n	80063ea <__aeabi_f2iz+0x2a>
 80063fa:	46c0      	nop			@ (mov r8, r8)
 80063fc:	7fffffff 	.word	0x7fffffff

08006400 <__aeabi_i2f>:
 8006400:	b570      	push	{r4, r5, r6, lr}
 8006402:	2800      	cmp	r0, #0
 8006404:	d012      	beq.n	800642c <__aeabi_i2f+0x2c>
 8006406:	17c3      	asrs	r3, r0, #31
 8006408:	18c5      	adds	r5, r0, r3
 800640a:	405d      	eors	r5, r3
 800640c:	0fc4      	lsrs	r4, r0, #31
 800640e:	0028      	movs	r0, r5
 8006410:	f000 f88c 	bl	800652c <__clzsi2>
 8006414:	239e      	movs	r3, #158	@ 0x9e
 8006416:	1a1b      	subs	r3, r3, r0
 8006418:	2b96      	cmp	r3, #150	@ 0x96
 800641a:	dc0f      	bgt.n	800643c <__aeabi_i2f+0x3c>
 800641c:	2808      	cmp	r0, #8
 800641e:	d038      	beq.n	8006492 <__aeabi_i2f+0x92>
 8006420:	3808      	subs	r0, #8
 8006422:	4085      	lsls	r5, r0
 8006424:	026d      	lsls	r5, r5, #9
 8006426:	0a6d      	lsrs	r5, r5, #9
 8006428:	b2d8      	uxtb	r0, r3
 800642a:	e002      	b.n	8006432 <__aeabi_i2f+0x32>
 800642c:	2400      	movs	r4, #0
 800642e:	2000      	movs	r0, #0
 8006430:	2500      	movs	r5, #0
 8006432:	05c0      	lsls	r0, r0, #23
 8006434:	4328      	orrs	r0, r5
 8006436:	07e4      	lsls	r4, r4, #31
 8006438:	4320      	orrs	r0, r4
 800643a:	bd70      	pop	{r4, r5, r6, pc}
 800643c:	2b99      	cmp	r3, #153	@ 0x99
 800643e:	dc14      	bgt.n	800646a <__aeabi_i2f+0x6a>
 8006440:	1f42      	subs	r2, r0, #5
 8006442:	4095      	lsls	r5, r2
 8006444:	002a      	movs	r2, r5
 8006446:	4915      	ldr	r1, [pc, #84]	@ (800649c <__aeabi_i2f+0x9c>)
 8006448:	4011      	ands	r1, r2
 800644a:	0755      	lsls	r5, r2, #29
 800644c:	d01c      	beq.n	8006488 <__aeabi_i2f+0x88>
 800644e:	250f      	movs	r5, #15
 8006450:	402a      	ands	r2, r5
 8006452:	2a04      	cmp	r2, #4
 8006454:	d018      	beq.n	8006488 <__aeabi_i2f+0x88>
 8006456:	3104      	adds	r1, #4
 8006458:	08ca      	lsrs	r2, r1, #3
 800645a:	0149      	lsls	r1, r1, #5
 800645c:	d515      	bpl.n	800648a <__aeabi_i2f+0x8a>
 800645e:	239f      	movs	r3, #159	@ 0x9f
 8006460:	0252      	lsls	r2, r2, #9
 8006462:	1a18      	subs	r0, r3, r0
 8006464:	0a55      	lsrs	r5, r2, #9
 8006466:	b2c0      	uxtb	r0, r0
 8006468:	e7e3      	b.n	8006432 <__aeabi_i2f+0x32>
 800646a:	2205      	movs	r2, #5
 800646c:	0029      	movs	r1, r5
 800646e:	1a12      	subs	r2, r2, r0
 8006470:	40d1      	lsrs	r1, r2
 8006472:	0002      	movs	r2, r0
 8006474:	321b      	adds	r2, #27
 8006476:	4095      	lsls	r5, r2
 8006478:	002a      	movs	r2, r5
 800647a:	1e55      	subs	r5, r2, #1
 800647c:	41aa      	sbcs	r2, r5
 800647e:	430a      	orrs	r2, r1
 8006480:	4906      	ldr	r1, [pc, #24]	@ (800649c <__aeabi_i2f+0x9c>)
 8006482:	4011      	ands	r1, r2
 8006484:	0755      	lsls	r5, r2, #29
 8006486:	d1e2      	bne.n	800644e <__aeabi_i2f+0x4e>
 8006488:	08ca      	lsrs	r2, r1, #3
 800648a:	0252      	lsls	r2, r2, #9
 800648c:	0a55      	lsrs	r5, r2, #9
 800648e:	b2d8      	uxtb	r0, r3
 8006490:	e7cf      	b.n	8006432 <__aeabi_i2f+0x32>
 8006492:	026d      	lsls	r5, r5, #9
 8006494:	0a6d      	lsrs	r5, r5, #9
 8006496:	308e      	adds	r0, #142	@ 0x8e
 8006498:	e7cb      	b.n	8006432 <__aeabi_i2f+0x32>
 800649a:	46c0      	nop			@ (mov r8, r8)
 800649c:	fbffffff 	.word	0xfbffffff

080064a0 <__aeabi_ui2f>:
 80064a0:	b510      	push	{r4, lr}
 80064a2:	1e04      	subs	r4, r0, #0
 80064a4:	d00d      	beq.n	80064c2 <__aeabi_ui2f+0x22>
 80064a6:	f000 f841 	bl	800652c <__clzsi2>
 80064aa:	239e      	movs	r3, #158	@ 0x9e
 80064ac:	1a1b      	subs	r3, r3, r0
 80064ae:	2b96      	cmp	r3, #150	@ 0x96
 80064b0:	dc0c      	bgt.n	80064cc <__aeabi_ui2f+0x2c>
 80064b2:	2808      	cmp	r0, #8
 80064b4:	d034      	beq.n	8006520 <__aeabi_ui2f+0x80>
 80064b6:	3808      	subs	r0, #8
 80064b8:	4084      	lsls	r4, r0
 80064ba:	0264      	lsls	r4, r4, #9
 80064bc:	0a64      	lsrs	r4, r4, #9
 80064be:	b2d8      	uxtb	r0, r3
 80064c0:	e001      	b.n	80064c6 <__aeabi_ui2f+0x26>
 80064c2:	2000      	movs	r0, #0
 80064c4:	2400      	movs	r4, #0
 80064c6:	05c0      	lsls	r0, r0, #23
 80064c8:	4320      	orrs	r0, r4
 80064ca:	bd10      	pop	{r4, pc}
 80064cc:	2b99      	cmp	r3, #153	@ 0x99
 80064ce:	dc13      	bgt.n	80064f8 <__aeabi_ui2f+0x58>
 80064d0:	1f42      	subs	r2, r0, #5
 80064d2:	4094      	lsls	r4, r2
 80064d4:	4a14      	ldr	r2, [pc, #80]	@ (8006528 <__aeabi_ui2f+0x88>)
 80064d6:	4022      	ands	r2, r4
 80064d8:	0761      	lsls	r1, r4, #29
 80064da:	d01c      	beq.n	8006516 <__aeabi_ui2f+0x76>
 80064dc:	210f      	movs	r1, #15
 80064de:	4021      	ands	r1, r4
 80064e0:	2904      	cmp	r1, #4
 80064e2:	d018      	beq.n	8006516 <__aeabi_ui2f+0x76>
 80064e4:	3204      	adds	r2, #4
 80064e6:	08d4      	lsrs	r4, r2, #3
 80064e8:	0152      	lsls	r2, r2, #5
 80064ea:	d515      	bpl.n	8006518 <__aeabi_ui2f+0x78>
 80064ec:	239f      	movs	r3, #159	@ 0x9f
 80064ee:	0264      	lsls	r4, r4, #9
 80064f0:	1a18      	subs	r0, r3, r0
 80064f2:	0a64      	lsrs	r4, r4, #9
 80064f4:	b2c0      	uxtb	r0, r0
 80064f6:	e7e6      	b.n	80064c6 <__aeabi_ui2f+0x26>
 80064f8:	0002      	movs	r2, r0
 80064fa:	0021      	movs	r1, r4
 80064fc:	321b      	adds	r2, #27
 80064fe:	4091      	lsls	r1, r2
 8006500:	000a      	movs	r2, r1
 8006502:	1e51      	subs	r1, r2, #1
 8006504:	418a      	sbcs	r2, r1
 8006506:	2105      	movs	r1, #5
 8006508:	1a09      	subs	r1, r1, r0
 800650a:	40cc      	lsrs	r4, r1
 800650c:	4314      	orrs	r4, r2
 800650e:	4a06      	ldr	r2, [pc, #24]	@ (8006528 <__aeabi_ui2f+0x88>)
 8006510:	4022      	ands	r2, r4
 8006512:	0761      	lsls	r1, r4, #29
 8006514:	d1e2      	bne.n	80064dc <__aeabi_ui2f+0x3c>
 8006516:	08d4      	lsrs	r4, r2, #3
 8006518:	0264      	lsls	r4, r4, #9
 800651a:	0a64      	lsrs	r4, r4, #9
 800651c:	b2d8      	uxtb	r0, r3
 800651e:	e7d2      	b.n	80064c6 <__aeabi_ui2f+0x26>
 8006520:	0264      	lsls	r4, r4, #9
 8006522:	0a64      	lsrs	r4, r4, #9
 8006524:	308e      	adds	r0, #142	@ 0x8e
 8006526:	e7ce      	b.n	80064c6 <__aeabi_ui2f+0x26>
 8006528:	fbffffff 	.word	0xfbffffff

0800652c <__clzsi2>:
 800652c:	211c      	movs	r1, #28
 800652e:	2301      	movs	r3, #1
 8006530:	041b      	lsls	r3, r3, #16
 8006532:	4298      	cmp	r0, r3
 8006534:	d301      	bcc.n	800653a <__clzsi2+0xe>
 8006536:	0c00      	lsrs	r0, r0, #16
 8006538:	3910      	subs	r1, #16
 800653a:	0a1b      	lsrs	r3, r3, #8
 800653c:	4298      	cmp	r0, r3
 800653e:	d301      	bcc.n	8006544 <__clzsi2+0x18>
 8006540:	0a00      	lsrs	r0, r0, #8
 8006542:	3908      	subs	r1, #8
 8006544:	091b      	lsrs	r3, r3, #4
 8006546:	4298      	cmp	r0, r3
 8006548:	d301      	bcc.n	800654e <__clzsi2+0x22>
 800654a:	0900      	lsrs	r0, r0, #4
 800654c:	3904      	subs	r1, #4
 800654e:	a202      	add	r2, pc, #8	@ (adr r2, 8006558 <__clzsi2+0x2c>)
 8006550:	5c10      	ldrb	r0, [r2, r0]
 8006552:	1840      	adds	r0, r0, r1
 8006554:	4770      	bx	lr
 8006556:	46c0      	nop			@ (mov r8, r8)
 8006558:	02020304 	.word	0x02020304
 800655c:	01010101 	.word	0x01010101
	...

08006568 <__aeabi_lmul>:
 8006568:	b5f0      	push	{r4, r5, r6, r7, lr}
 800656a:	46ce      	mov	lr, r9
 800656c:	4699      	mov	r9, r3
 800656e:	0c03      	lsrs	r3, r0, #16
 8006570:	469c      	mov	ip, r3
 8006572:	0413      	lsls	r3, r2, #16
 8006574:	4647      	mov	r7, r8
 8006576:	0c1b      	lsrs	r3, r3, #16
 8006578:	001d      	movs	r5, r3
 800657a:	000e      	movs	r6, r1
 800657c:	4661      	mov	r1, ip
 800657e:	0404      	lsls	r4, r0, #16
 8006580:	0c24      	lsrs	r4, r4, #16
 8006582:	b580      	push	{r7, lr}
 8006584:	0007      	movs	r7, r0
 8006586:	0c10      	lsrs	r0, r2, #16
 8006588:	434b      	muls	r3, r1
 800658a:	4365      	muls	r5, r4
 800658c:	4341      	muls	r1, r0
 800658e:	4360      	muls	r0, r4
 8006590:	0c2c      	lsrs	r4, r5, #16
 8006592:	18c0      	adds	r0, r0, r3
 8006594:	1824      	adds	r4, r4, r0
 8006596:	468c      	mov	ip, r1
 8006598:	42a3      	cmp	r3, r4
 800659a:	d903      	bls.n	80065a4 <__aeabi_lmul+0x3c>
 800659c:	2380      	movs	r3, #128	@ 0x80
 800659e:	025b      	lsls	r3, r3, #9
 80065a0:	4698      	mov	r8, r3
 80065a2:	44c4      	add	ip, r8
 80065a4:	4649      	mov	r1, r9
 80065a6:	4379      	muls	r1, r7
 80065a8:	4356      	muls	r6, r2
 80065aa:	0c23      	lsrs	r3, r4, #16
 80065ac:	042d      	lsls	r5, r5, #16
 80065ae:	0c2d      	lsrs	r5, r5, #16
 80065b0:	1989      	adds	r1, r1, r6
 80065b2:	4463      	add	r3, ip
 80065b4:	0424      	lsls	r4, r4, #16
 80065b6:	1960      	adds	r0, r4, r5
 80065b8:	18c9      	adds	r1, r1, r3
 80065ba:	bcc0      	pop	{r6, r7}
 80065bc:	46b9      	mov	r9, r7
 80065be:	46b0      	mov	r8, r6
 80065c0:	bdf0      	pop	{r4, r5, r6, r7, pc}
 80065c2:	46c0      	nop			@ (mov r8, r8)

080065c4 <__divdi3>:
 80065c4:	b5f0      	push	{r4, r5, r6, r7, lr}
 80065c6:	464f      	mov	r7, r9
 80065c8:	4646      	mov	r6, r8
 80065ca:	46d6      	mov	lr, sl
 80065cc:	b5c0      	push	{r6, r7, lr}
 80065ce:	0006      	movs	r6, r0
 80065d0:	000f      	movs	r7, r1
 80065d2:	0010      	movs	r0, r2
 80065d4:	0019      	movs	r1, r3
 80065d6:	b082      	sub	sp, #8
 80065d8:	2f00      	cmp	r7, #0
 80065da:	db5d      	blt.n	8006698 <__divdi3+0xd4>
 80065dc:	0034      	movs	r4, r6
 80065de:	003d      	movs	r5, r7
 80065e0:	2b00      	cmp	r3, #0
 80065e2:	db0b      	blt.n	80065fc <__divdi3+0x38>
 80065e4:	0016      	movs	r6, r2
 80065e6:	001f      	movs	r7, r3
 80065e8:	42ab      	cmp	r3, r5
 80065ea:	d917      	bls.n	800661c <__divdi3+0x58>
 80065ec:	2000      	movs	r0, #0
 80065ee:	2100      	movs	r1, #0
 80065f0:	b002      	add	sp, #8
 80065f2:	bce0      	pop	{r5, r6, r7}
 80065f4:	46ba      	mov	sl, r7
 80065f6:	46b1      	mov	r9, r6
 80065f8:	46a8      	mov	r8, r5
 80065fa:	bdf0      	pop	{r4, r5, r6, r7, pc}
 80065fc:	2700      	movs	r7, #0
 80065fe:	4246      	negs	r6, r0
 8006600:	418f      	sbcs	r7, r1
 8006602:	42af      	cmp	r7, r5
 8006604:	d8f2      	bhi.n	80065ec <__divdi3+0x28>
 8006606:	d100      	bne.n	800660a <__divdi3+0x46>
 8006608:	e0a0      	b.n	800674c <__divdi3+0x188>
 800660a:	2301      	movs	r3, #1
 800660c:	425b      	negs	r3, r3
 800660e:	4699      	mov	r9, r3
 8006610:	e009      	b.n	8006626 <__divdi3+0x62>
 8006612:	2700      	movs	r7, #0
 8006614:	4246      	negs	r6, r0
 8006616:	418f      	sbcs	r7, r1
 8006618:	42af      	cmp	r7, r5
 800661a:	d8e7      	bhi.n	80065ec <__divdi3+0x28>
 800661c:	42af      	cmp	r7, r5
 800661e:	d100      	bne.n	8006622 <__divdi3+0x5e>
 8006620:	e090      	b.n	8006744 <__divdi3+0x180>
 8006622:	2300      	movs	r3, #0
 8006624:	4699      	mov	r9, r3
 8006626:	0039      	movs	r1, r7
 8006628:	0030      	movs	r0, r6
 800662a:	f000 f8b7 	bl	800679c <__clzdi2>
 800662e:	4680      	mov	r8, r0
 8006630:	0029      	movs	r1, r5
 8006632:	0020      	movs	r0, r4
 8006634:	f000 f8b2 	bl	800679c <__clzdi2>
 8006638:	4643      	mov	r3, r8
 800663a:	1a1b      	subs	r3, r3, r0
 800663c:	4698      	mov	r8, r3
 800663e:	3b20      	subs	r3, #32
 8006640:	d475      	bmi.n	800672e <__divdi3+0x16a>
 8006642:	0031      	movs	r1, r6
 8006644:	4099      	lsls	r1, r3
 8006646:	469a      	mov	sl, r3
 8006648:	000b      	movs	r3, r1
 800664a:	0031      	movs	r1, r6
 800664c:	4640      	mov	r0, r8
 800664e:	4081      	lsls	r1, r0
 8006650:	000a      	movs	r2, r1
 8006652:	42ab      	cmp	r3, r5
 8006654:	d82e      	bhi.n	80066b4 <__divdi3+0xf0>
 8006656:	d02b      	beq.n	80066b0 <__divdi3+0xec>
 8006658:	4651      	mov	r1, sl
 800665a:	1aa4      	subs	r4, r4, r2
 800665c:	419d      	sbcs	r5, r3
 800665e:	2900      	cmp	r1, #0
 8006660:	da00      	bge.n	8006664 <__divdi3+0xa0>
 8006662:	e090      	b.n	8006786 <__divdi3+0x1c2>
 8006664:	2100      	movs	r1, #0
 8006666:	2000      	movs	r0, #0
 8006668:	2601      	movs	r6, #1
 800666a:	9000      	str	r0, [sp, #0]
 800666c:	9101      	str	r1, [sp, #4]
 800666e:	4651      	mov	r1, sl
 8006670:	408e      	lsls	r6, r1
 8006672:	9601      	str	r6, [sp, #4]
 8006674:	4641      	mov	r1, r8
 8006676:	2601      	movs	r6, #1
 8006678:	408e      	lsls	r6, r1
 800667a:	4641      	mov	r1, r8
 800667c:	9600      	str	r6, [sp, #0]
 800667e:	2900      	cmp	r1, #0
 8006680:	d11f      	bne.n	80066c2 <__divdi3+0xfe>
 8006682:	9800      	ldr	r0, [sp, #0]
 8006684:	9901      	ldr	r1, [sp, #4]
 8006686:	464b      	mov	r3, r9
 8006688:	2b00      	cmp	r3, #0
 800668a:	d0b1      	beq.n	80065f0 <__divdi3+0x2c>
 800668c:	0003      	movs	r3, r0
 800668e:	000c      	movs	r4, r1
 8006690:	2100      	movs	r1, #0
 8006692:	4258      	negs	r0, r3
 8006694:	41a1      	sbcs	r1, r4
 8006696:	e7ab      	b.n	80065f0 <__divdi3+0x2c>
 8006698:	2500      	movs	r5, #0
 800669a:	4274      	negs	r4, r6
 800669c:	41bd      	sbcs	r5, r7
 800669e:	2b00      	cmp	r3, #0
 80066a0:	dbb7      	blt.n	8006612 <__divdi3+0x4e>
 80066a2:	0016      	movs	r6, r2
 80066a4:	001f      	movs	r7, r3
 80066a6:	42ab      	cmp	r3, r5
 80066a8:	d8a0      	bhi.n	80065ec <__divdi3+0x28>
 80066aa:	42af      	cmp	r7, r5
 80066ac:	d1ad      	bne.n	800660a <__divdi3+0x46>
 80066ae:	e04d      	b.n	800674c <__divdi3+0x188>
 80066b0:	42a1      	cmp	r1, r4
 80066b2:	d9d1      	bls.n	8006658 <__divdi3+0x94>
 80066b4:	2100      	movs	r1, #0
 80066b6:	2000      	movs	r0, #0
 80066b8:	9000      	str	r0, [sp, #0]
 80066ba:	9101      	str	r1, [sp, #4]
 80066bc:	4641      	mov	r1, r8
 80066be:	2900      	cmp	r1, #0
 80066c0:	d0df      	beq.n	8006682 <__divdi3+0xbe>
 80066c2:	07d9      	lsls	r1, r3, #31
 80066c4:	0856      	lsrs	r6, r2, #1
 80066c6:	085f      	lsrs	r7, r3, #1
 80066c8:	430e      	orrs	r6, r1
 80066ca:	4643      	mov	r3, r8
 80066cc:	e00e      	b.n	80066ec <__divdi3+0x128>
 80066ce:	42af      	cmp	r7, r5
 80066d0:	d101      	bne.n	80066d6 <__divdi3+0x112>
 80066d2:	42a6      	cmp	r6, r4
 80066d4:	d80c      	bhi.n	80066f0 <__divdi3+0x12c>
 80066d6:	1ba4      	subs	r4, r4, r6
 80066d8:	41bd      	sbcs	r5, r7
 80066da:	2101      	movs	r1, #1
 80066dc:	1924      	adds	r4, r4, r4
 80066de:	416d      	adcs	r5, r5
 80066e0:	2200      	movs	r2, #0
 80066e2:	3b01      	subs	r3, #1
 80066e4:	1864      	adds	r4, r4, r1
 80066e6:	4155      	adcs	r5, r2
 80066e8:	2b00      	cmp	r3, #0
 80066ea:	d006      	beq.n	80066fa <__divdi3+0x136>
 80066ec:	42af      	cmp	r7, r5
 80066ee:	d9ee      	bls.n	80066ce <__divdi3+0x10a>
 80066f0:	3b01      	subs	r3, #1
 80066f2:	1924      	adds	r4, r4, r4
 80066f4:	416d      	adcs	r5, r5
 80066f6:	2b00      	cmp	r3, #0
 80066f8:	d1f8      	bne.n	80066ec <__divdi3+0x128>
 80066fa:	9a00      	ldr	r2, [sp, #0]
 80066fc:	9b01      	ldr	r3, [sp, #4]
 80066fe:	4651      	mov	r1, sl
 8006700:	1912      	adds	r2, r2, r4
 8006702:	416b      	adcs	r3, r5
 8006704:	2900      	cmp	r1, #0
 8006706:	db25      	blt.n	8006754 <__divdi3+0x190>
 8006708:	002e      	movs	r6, r5
 800670a:	002c      	movs	r4, r5
 800670c:	40ce      	lsrs	r6, r1
 800670e:	4641      	mov	r1, r8
 8006710:	40cc      	lsrs	r4, r1
 8006712:	4651      	mov	r1, sl
 8006714:	2900      	cmp	r1, #0
 8006716:	db2d      	blt.n	8006774 <__divdi3+0x1b0>
 8006718:	0034      	movs	r4, r6
 800671a:	408c      	lsls	r4, r1
 800671c:	0021      	movs	r1, r4
 800671e:	4644      	mov	r4, r8
 8006720:	40a6      	lsls	r6, r4
 8006722:	0030      	movs	r0, r6
 8006724:	1a12      	subs	r2, r2, r0
 8006726:	418b      	sbcs	r3, r1
 8006728:	9200      	str	r2, [sp, #0]
 800672a:	9301      	str	r3, [sp, #4]
 800672c:	e7a9      	b.n	8006682 <__divdi3+0xbe>
 800672e:	4642      	mov	r2, r8
 8006730:	0038      	movs	r0, r7
 8006732:	469a      	mov	sl, r3
 8006734:	2320      	movs	r3, #32
 8006736:	0031      	movs	r1, r6
 8006738:	4090      	lsls	r0, r2
 800673a:	1a9b      	subs	r3, r3, r2
 800673c:	40d9      	lsrs	r1, r3
 800673e:	0003      	movs	r3, r0
 8006740:	430b      	orrs	r3, r1
 8006742:	e782      	b.n	800664a <__divdi3+0x86>
 8006744:	42a6      	cmp	r6, r4
 8006746:	d900      	bls.n	800674a <__divdi3+0x186>
 8006748:	e750      	b.n	80065ec <__divdi3+0x28>
 800674a:	e76a      	b.n	8006622 <__divdi3+0x5e>
 800674c:	42a6      	cmp	r6, r4
 800674e:	d800      	bhi.n	8006752 <__divdi3+0x18e>
 8006750:	e75b      	b.n	800660a <__divdi3+0x46>
 8006752:	e74b      	b.n	80065ec <__divdi3+0x28>
 8006754:	4640      	mov	r0, r8
 8006756:	2120      	movs	r1, #32
 8006758:	1a09      	subs	r1, r1, r0
 800675a:	0028      	movs	r0, r5
 800675c:	4088      	lsls	r0, r1
 800675e:	0026      	movs	r6, r4
 8006760:	0001      	movs	r1, r0
 8006762:	4640      	mov	r0, r8
 8006764:	40c6      	lsrs	r6, r0
 8006766:	002c      	movs	r4, r5
 8006768:	430e      	orrs	r6, r1
 800676a:	4641      	mov	r1, r8
 800676c:	40cc      	lsrs	r4, r1
 800676e:	4651      	mov	r1, sl
 8006770:	2900      	cmp	r1, #0
 8006772:	dad1      	bge.n	8006718 <__divdi3+0x154>
 8006774:	4640      	mov	r0, r8
 8006776:	2120      	movs	r1, #32
 8006778:	0035      	movs	r5, r6
 800677a:	4084      	lsls	r4, r0
 800677c:	1a09      	subs	r1, r1, r0
 800677e:	40cd      	lsrs	r5, r1
 8006780:	0021      	movs	r1, r4
 8006782:	4329      	orrs	r1, r5
 8006784:	e7cb      	b.n	800671e <__divdi3+0x15a>
 8006786:	4641      	mov	r1, r8
 8006788:	2620      	movs	r6, #32
 800678a:	2701      	movs	r7, #1
 800678c:	1a76      	subs	r6, r6, r1
 800678e:	2000      	movs	r0, #0
 8006790:	2100      	movs	r1, #0
 8006792:	40f7      	lsrs	r7, r6
 8006794:	9000      	str	r0, [sp, #0]
 8006796:	9101      	str	r1, [sp, #4]
 8006798:	9701      	str	r7, [sp, #4]
 800679a:	e76b      	b.n	8006674 <__divdi3+0xb0>

0800679c <__clzdi2>:
 800679c:	b510      	push	{r4, lr}
 800679e:	2900      	cmp	r1, #0
 80067a0:	d103      	bne.n	80067aa <__clzdi2+0xe>
 80067a2:	f7ff fec3 	bl	800652c <__clzsi2>
 80067a6:	3020      	adds	r0, #32
 80067a8:	e002      	b.n	80067b0 <__clzdi2+0x14>
 80067aa:	0008      	movs	r0, r1
 80067ac:	f7ff febe 	bl	800652c <__clzsi2>
 80067b0:	bd10      	pop	{r4, pc}
 80067b2:	46c0      	nop			@ (mov r8, r8)

080067b4 <main>:
  __HAL_FLASH_PREFETCH_BUFFER_ENABLE();
 80067b4:	2310      	movs	r3, #16
{
 80067b6:	b5f0      	push	{r4, r5, r6, r7, lr}
 80067b8:	4e56      	ldr	r6, [pc, #344]	@ (8006914 <main+0x160>)
 80067ba:	b095      	sub	sp, #84	@ 0x54
 80067bc:	6832      	ldr	r2, [r6, #0]
  __HAL_RCC_SYSCFG_CLK_ENABLE();
 80067be:	4d56      	ldr	r5, [pc, #344]	@ (8006918 <main+0x164>)
 80067c0:	4313      	orrs	r3, r2
 80067c2:	6033      	str	r3, [r6, #0]
  HAL_InitTick(TICK_INT_PRIORITY);
 80067c4:	f7fb fa10 	bl	8001be8 <HAL_InitTick.constprop.0.isra.0>
 80067c8:	2201      	movs	r2, #1
 80067ca:	69ab      	ldr	r3, [r5, #24]
    if((__HAL_RCC_GET_SYSCLK_SOURCE() == RCC_SYSCLKSOURCE_STATUS_HSI) 
 80067cc:	210c      	movs	r1, #12
 80067ce:	4313      	orrs	r3, r2
 80067d0:	61ab      	str	r3, [r5, #24]
 80067d2:	69ab      	ldr	r3, [r5, #24]
 80067d4:	4013      	ands	r3, r2
  __HAL_RCC_PWR_CLK_ENABLE();
 80067d6:	2280      	movs	r2, #128	@ 0x80
  __HAL_RCC_SYSCFG_CLK_ENABLE();
 80067d8:	9307      	str	r3, [sp, #28]
 80067da:	9b07      	ldr	r3, [sp, #28]
  __HAL_RCC_PWR_CLK_ENABLE();
 80067dc:	69eb      	ldr	r3, [r5, #28]
 80067de:	0552      	lsls	r2, r2, #21
 80067e0:	4313      	orrs	r3, r2
 80067e2:	61eb      	str	r3, [r5, #28]
 80067e4:	69eb      	ldr	r3, [r5, #28]
 80067e6:	4013      	ands	r3, r2
 80067e8:	9306      	str	r3, [sp, #24]
 80067ea:	9b06      	ldr	r3, [sp, #24]
 80067ec:	686a      	ldr	r2, [r5, #4]
 80067ee:	4b4b      	ldr	r3, [pc, #300]	@ (800691c <main+0x168>)
 80067f0:	420a      	tst	r2, r1
 80067f2:	d006      	beq.n	8006802 <main+0x4e>
       || ((__HAL_RCC_GET_SYSCLK_SOURCE() == RCC_SYSCLKSOURCE_STATUS_PLLCLK) && (__HAL_RCC_GET_PLL_OSCSOURCE() == RCC_PLLSOURCE_HSI)))
 80067f4:	686a      	ldr	r2, [r5, #4]
 80067f6:	400a      	ands	r2, r1
 80067f8:	2a08      	cmp	r2, #8
 80067fa:	d153      	bne.n	80068a4 <main+0xf0>
 80067fc:	686a      	ldr	r2, [r5, #4]
 80067fe:	03d2      	lsls	r2, r2, #15
 8006800:	d450      	bmi.n	80068a4 <main+0xf0>
      if((__HAL_RCC_GET_FLAG(RCC_FLAG_HSIRDY) != RESET) && (RCC_OscInitStruct->HSIState != RCC_HSI_ON))
 8006802:	682a      	ldr	r2, [r5, #0]
        __HAL_RCC_HSI_CALIBRATIONVALUE_ADJUST(RCC_OscInitStruct->HSICalibrationValue);
 8006804:	22f8      	movs	r2, #248	@ 0xf8
 8006806:	6829      	ldr	r1, [r5, #0]
 8006808:	4391      	bics	r1, r2
 800680a:	3a78      	subs	r2, #120	@ 0x78
 800680c:	430a      	orrs	r2, r1
 800680e:	602a      	str	r2, [r5, #0]
      __HAL_RCC_HSI14ADC_DISABLE();
 8006810:	2204      	movs	r2, #4
 8006812:	6b69      	ldr	r1, [r5, #52]	@ 0x34
 8006814:	430a      	orrs	r2, r1
 8006816:	636a      	str	r2, [r5, #52]	@ 0x34
      __HAL_RCC_HSI14_ENABLE();
 8006818:	2201      	movs	r2, #1
 800681a:	6b69      	ldr	r1, [r5, #52]	@ 0x34
 800681c:	430a      	orrs	r2, r1
      while(__HAL_RCC_GET_FLAG(RCC_FLAG_HSI14RDY) == RESET)
 800681e:	2102      	movs	r1, #2
      __HAL_RCC_HSI14_ENABLE();
 8006820:	636a      	str	r2, [r5, #52]	@ 0x34
  return uwTick;
 8006822:	6f58      	ldr	r0, [r3, #116]	@ 0x74
      while(__HAL_RCC_GET_FLAG(RCC_FLAG_HSI14RDY) == RESET)
 8006824:	6b6a      	ldr	r2, [r5, #52]	@ 0x34
 8006826:	420a      	tst	r2, r1
 8006828:	d04b      	beq.n	80068c2 <main+0x10e>
      __HAL_RCC_HSI14_CALIBRATIONVALUE_ADJUST(RCC_OscInitStruct->HSI14CalibrationValue);
 800682a:	22f8      	movs	r2, #248	@ 0xf8
 800682c:	6b69      	ldr	r1, [r5, #52]	@ 0x34
 800682e:	4391      	bics	r1, r2
 8006830:	3a78      	subs	r2, #120	@ 0x78
 8006832:	430a      	orrs	r2, r1
    if(__HAL_RCC_GET_SYSCLK_SOURCE() != RCC_SYSCLKSOURCE_STATUS_PLLCLK)
 8006834:	210c      	movs	r1, #12
      __HAL_RCC_HSI14_CALIBRATIONVALUE_ADJUST(RCC_OscInitStruct->HSI14CalibrationValue);
 8006836:	636a      	str	r2, [r5, #52]	@ 0x34
    if(__HAL_RCC_GET_SYSCLK_SOURCE() != RCC_SYSCLKSOURCE_STATUS_PLLCLK)
 8006838:	686a      	ldr	r2, [r5, #4]
 800683a:	400a      	ands	r2, r1
 800683c:	2a08      	cmp	r2, #8
 800683e:	d04f      	beq.n	80068e0 <main+0x12c>
        __HAL_RCC_PLL_DISABLE();
 8006840:	682a      	ldr	r2, [r5, #0]
 8006842:	4937      	ldr	r1, [pc, #220]	@ (8006920 <main+0x16c>)
 8006844:	400a      	ands	r2, r1
        while(__HAL_RCC_GET_FLAG(RCC_FLAG_PLLRDY)  != RESET)
 8006846:	2180      	movs	r1, #128	@ 0x80
        __HAL_RCC_PLL_DISABLE();
 8006848:	602a      	str	r2, [r5, #0]
 800684a:	6f58      	ldr	r0, [r3, #116]	@ 0x74
        while(__HAL_RCC_GET_FLAG(RCC_FLAG_PLLRDY)  != RESET)
 800684c:	0489      	lsls	r1, r1, #18
 800684e:	682a      	ldr	r2, [r5, #0]
 8006850:	420a      	tst	r2, r1
 8006852:	d13b      	bne.n	80068cc <main+0x118>
        __HAL_RCC_PLL_CONFIG(RCC_OscInitStruct->PLL.PLLSource,
 8006854:	210f      	movs	r1, #15
 8006856:	6aea      	ldr	r2, [r5, #44]	@ 0x2c
 8006858:	438a      	bics	r2, r1
 800685a:	62ea      	str	r2, [r5, #44]	@ 0x2c
 800685c:	6869      	ldr	r1, [r5, #4]
 800685e:	4a31      	ldr	r2, [pc, #196]	@ (8006924 <main+0x170>)
 8006860:	4011      	ands	r1, r2
 8006862:	22a0      	movs	r2, #160	@ 0xa0
 8006864:	0392      	lsls	r2, r2, #14
 8006866:	430a      	orrs	r2, r1
 8006868:	606a      	str	r2, [r5, #4]
        __HAL_RCC_PLL_ENABLE();
 800686a:	2280      	movs	r2, #128	@ 0x80
 800686c:	6829      	ldr	r1, [r5, #0]
 800686e:	0452      	lsls	r2, r2, #17
 8006870:	430a      	orrs	r2, r1
        while(__HAL_RCC_GET_FLAG(RCC_FLAG_PLLRDY)  == RESET)
 8006872:	2180      	movs	r1, #128	@ 0x80
        __HAL_RCC_PLL_ENABLE();
 8006874:	602a      	str	r2, [r5, #0]
 8006876:	6f58      	ldr	r0, [r3, #116]	@ 0x74
        while(__HAL_RCC_GET_FLAG(RCC_FLAG_PLLRDY)  == RESET)
 8006878:	0489      	lsls	r1, r1, #18
 800687a:	682a      	ldr	r2, [r5, #0]
 800687c:	420a      	tst	r2, r1
 800687e:	d02a      	beq.n	80068d6 <main+0x122>
  if(FLatency > __HAL_FLASH_GET_LATENCY())
 8006880:	2101      	movs	r1, #1
 8006882:	6832      	ldr	r2, [r6, #0]
 8006884:	420a      	tst	r2, r1
 8006886:	d03c      	beq.n	8006902 <main+0x14e>
      MODIFY_REG(RCC->CFGR, RCC_CFGR_PPRE, RCC_HCLK_DIV16);
 8006888:	22e0      	movs	r2, #224	@ 0xe0
 800688a:	6869      	ldr	r1, [r5, #4]
 800688c:	00d2      	lsls	r2, r2, #3
 800688e:	430a      	orrs	r2, r1
    MODIFY_REG(RCC->CFGR, RCC_CFGR_HPRE, RCC_ClkInitStruct->AHBCLKDivider);
 8006890:	21f0      	movs	r1, #240	@ 0xf0
      MODIFY_REG(RCC->CFGR, RCC_CFGR_PPRE, RCC_HCLK_DIV16);
 8006892:	606a      	str	r2, [r5, #4]
    MODIFY_REG(RCC->CFGR, RCC_CFGR_HPRE, RCC_ClkInitStruct->AHBCLKDivider);
 8006894:	686a      	ldr	r2, [r5, #4]
 8006896:	438a      	bics	r2, r1
 8006898:	606a      	str	r2, [r5, #4]
      if(__HAL_RCC_GET_FLAG(RCC_FLAG_PLLRDY) == RESET)
 800689a:	682a      	ldr	r2, [r5, #0]
 800689c:	0192      	lsls	r2, r2, #6
 800689e:	d443      	bmi.n	8006928 <main+0x174>
  __ASM volatile ("cpsid i" : : : "memory");
 80068a0:	b672      	cpsid	i
  * @brief  This function is executed in case of error occurrence.
  */
void Error_Handler(void)
{
  __disable_irq();
  while (1)
 80068a2:	e7fe      	b.n	80068a2 <main+0xee>
        __HAL_RCC_HSI_ENABLE();
 80068a4:	2201      	movs	r2, #1
 80068a6:	6829      	ldr	r1, [r5, #0]
 80068a8:	430a      	orrs	r2, r1
        while(__HAL_RCC_GET_FLAG(RCC_FLAG_HSIRDY) == RESET)
 80068aa:	2102      	movs	r1, #2
        __HAL_RCC_HSI_ENABLE();
 80068ac:	602a      	str	r2, [r5, #0]
 80068ae:	6f58      	ldr	r0, [r3, #116]	@ 0x74
        while(__HAL_RCC_GET_FLAG(RCC_FLAG_HSIRDY) == RESET)
 80068b0:	682a      	ldr	r2, [r5, #0]
 80068b2:	420a      	tst	r2, r1
 80068b4:	d1a6      	bne.n	8006804 <main+0x50>
 80068b6:	6f5a      	ldr	r2, [r3, #116]	@ 0x74
          if((HAL_GetTick() - tickstart ) > HSI_TIMEOUT_VALUE)
 80068b8:	1a12      	subs	r2, r2, r0
 80068ba:	2a02      	cmp	r2, #2
 80068bc:	d9f8      	bls.n	80068b0 <main+0xfc>
 80068be:	b672      	cpsid	i
 80068c0:	e7fe      	b.n	80068c0 <main+0x10c>
 80068c2:	6f5a      	ldr	r2, [r3, #116]	@ 0x74
        if((HAL_GetTick() - tickstart) > HSI14_TIMEOUT_VALUE)
 80068c4:	1a12      	subs	r2, r2, r0
 80068c6:	2a02      	cmp	r2, #2
 80068c8:	d9ac      	bls.n	8006824 <main+0x70>
 80068ca:	e7f8      	b.n	80068be <main+0x10a>
 80068cc:	6f5a      	ldr	r2, [r3, #116]	@ 0x74
          if((HAL_GetTick() - tickstart ) > PLL_TIMEOUT_VALUE)
 80068ce:	1a12      	subs	r2, r2, r0
 80068d0:	2a02      	cmp	r2, #2
 80068d2:	d9bc      	bls.n	800684e <main+0x9a>
 80068d4:	e7f3      	b.n	80068be <main+0x10a>
 80068d6:	6f5a      	ldr	r2, [r3, #116]	@ 0x74
          if((HAL_GetTick() - tickstart ) > PLL_TIMEOUT_VALUE)
 80068d8:	1a12      	subs	r2, r2, r0
 80068da:	2a02      	cmp	r2, #2
 80068dc:	d9cd      	bls.n	800687a <main+0xc6>
 80068de:	e7ee      	b.n	80068be <main+0x10a>
        if((READ_BIT(pll_config,  RCC_CFGR_PLLSRC)  != RCC_OscInitStruct->PLL.PLLSource) ||
 80068e0:	2280      	movs	r2, #128	@ 0x80
           (READ_BIT(pll_config2, RCC_CFGR2_PREDIV) != RCC_OscInitStruct->PLL.PREDIV)    ||
 80068e2:	240f      	movs	r4, #15
        pll_config  = RCC->CFGR;
 80068e4:	6869      	ldr	r1, [r5, #4]
        pll_config2 = RCC->CFGR2;
 80068e6:	6ae8      	ldr	r0, [r5, #44]	@ 0x2c
        if((READ_BIT(pll_config,  RCC_CFGR_PLLSRC)  != RCC_OscInitStruct->PLL.PLLSource) ||
 80068e8:	0252      	lsls	r2, r2, #9
 80068ea:	400a      	ands	r2, r1
           (READ_BIT(pll_config2, RCC_CFGR2_PREDIV) != RCC_OscInitStruct->PLL.PREDIV)    ||
 80068ec:	4020      	ands	r0, r4
        if((READ_BIT(pll_config,  RCC_CFGR_PLLSRC)  != RCC_OscInitStruct->PLL.PLLSource) ||
 80068ee:	4302      	orrs	r2, r0
 80068f0:	d1e5      	bne.n	80068be <main+0x10a>
           (READ_BIT(pll_config,  RCC_CFGR_PLLMUL)  != RCC_OscInitStruct->PLL.PLLMUL))
 80068f2:	22f0      	movs	r2, #240	@ 0xf0
 80068f4:	0392      	lsls	r2, r2, #14
 80068f6:	4011      	ands	r1, r2
           (READ_BIT(pll_config2, RCC_CFGR2_PREDIV) != RCC_OscInitStruct->PLL.PREDIV)    ||
 80068f8:	22a0      	movs	r2, #160	@ 0xa0
 80068fa:	0392      	lsls	r2, r2, #14
 80068fc:	4291      	cmp	r1, r2
 80068fe:	d1de      	bne.n	80068be <main+0x10a>
 8006900:	e7be      	b.n	8006880 <main+0xcc>
    __HAL_FLASH_SET_LATENCY(FLatency);
 8006902:	6832      	ldr	r2, [r6, #0]
 8006904:	438a      	bics	r2, r1
 8006906:	430a      	orrs	r2, r1
 8006908:	6032      	str	r2, [r6, #0]
    if(__HAL_FLASH_GET_LATENCY() != FLatency)
 800690a:	6832      	ldr	r2, [r6, #0]
 800690c:	420a      	tst	r2, r1
 800690e:	d0c7      	beq.n	80068a0 <main+0xec>
 8006910:	e7ba      	b.n	8006888 <main+0xd4>
 8006912:	46c0      	nop			@ (mov r8, r8)
 8006914:	40022000 	.word	0x40022000
 8006918:	40021000 	.word	0x40021000
 800691c:	20000080 	.word	0x20000080
 8006920:	feffffff 	.word	0xfeffffff
 8006924:	ffc2ffff 	.word	0xffc2ffff
    __HAL_RCC_SYSCLK_CONFIG(RCC_ClkInitStruct->SYSCLKSource);
 8006928:	2203      	movs	r2, #3
 800692a:	6869      	ldr	r1, [r5, #4]
      if((HAL_GetTick() - tickstart ) > CLOCKSWITCH_TIMEOUT_VALUE)
 800692c:	4fb6      	ldr	r7, [pc, #728]	@ (8006c08 <main+0x454>)
    __HAL_RCC_SYSCLK_CONFIG(RCC_ClkInitStruct->SYSCLKSource);
 800692e:	4391      	bics	r1, r2
 8006930:	3a01      	subs	r2, #1
 8006932:	430a      	orrs	r2, r1
    while (__HAL_RCC_GET_SYSCLK_SOURCE() != (RCC_ClkInitStruct->SYSCLKSource << RCC_CFGR_SWS_Pos))
 8006934:	210c      	movs	r1, #12
    __HAL_RCC_SYSCLK_CONFIG(RCC_ClkInitStruct->SYSCLKSource);
 8006936:	606a      	str	r2, [r5, #4]
 8006938:	6f58      	ldr	r0, [r3, #116]	@ 0x74
    while (__HAL_RCC_GET_SYSCLK_SOURCE() != (RCC_ClkInitStruct->SYSCLKSource << RCC_CFGR_SWS_Pos))
 800693a:	686c      	ldr	r4, [r5, #4]
 800693c:	400c      	ands	r4, r1
 800693e:	2c08      	cmp	r4, #8
 8006940:	d000      	beq.n	8006944 <main+0x190>
 8006942:	e11d      	b.n	8006b80 <main+0x3cc>
  if(FLatency < __HAL_FLASH_GET_LATENCY())
 8006944:	6833      	ldr	r3, [r6, #0]
    MODIFY_REG(RCC->CFGR, RCC_CFGR_PPRE, RCC_ClkInitStruct->APB1CLKDivider);
 8006946:	4ab1      	ldr	r2, [pc, #708]	@ (8006c0c <main+0x458>)
 8006948:	686b      	ldr	r3, [r5, #4]
    GPIOx->BRR = (uint32_t)GPIO_Pin;
 800694a:	2660      	movs	r6, #96	@ 0x60
 800694c:	4013      	ands	r3, r2
 800694e:	606b      	str	r3, [r5, #4]
  SystemCoreClock = HAL_RCC_GetSysClockFreq() >> AHBPrescTable[(RCC->CFGR & RCC_CFGR_HPRE)>> RCC_CFGR_HPRE_BITNUMBER];
 8006950:	f7fa f842 	bl	80009d8 <HAL_RCC_GetSysClockFreq>
 8006954:	686b      	ldr	r3, [r5, #4]
 8006956:	4aae      	ldr	r2, [pc, #696]	@ (8006c10 <main+0x45c>)
 8006958:	061b      	lsls	r3, r3, #24
 800695a:	0f1b      	lsrs	r3, r3, #28
 800695c:	5cd3      	ldrb	r3, [r2, r3]
  GPIO_InitStruct.Mode = GPIO_MODE_INPUT;
 800695e:	2700      	movs	r7, #0
 8006960:	40d8      	lsrs	r0, r3
 8006962:	4bac      	ldr	r3, [pc, #688]	@ (8006c14 <main+0x460>)
 8006964:	9001      	str	r0, [sp, #4]
 8006966:	6058      	str	r0, [r3, #4]
  HAL_InitTick (TICK_INT_PRIORITY);
 8006968:	f7fb f93e 	bl	8001be8 <HAL_InitTick.constprop.0.isra.0>
  {
    /* Check the parameters */
    assert_param(IS_RCC_USART1CLKSOURCE(PeriphClkInit->Usart1ClockSelection));
    
    /* Configure the USART1 clock source */
    __HAL_RCC_USART1_CONFIG(PeriphClkInit->Usart1ClockSelection);
 800696c:	2203      	movs	r2, #3
 800696e:	6b2b      	ldr	r3, [r5, #48]	@ 0x30
  GPIO_InitTypeDef GPIO_InitStruct = {0};
 8006970:	2100      	movs	r1, #0
 8006972:	4393      	bics	r3, r2
 8006974:	632b      	str	r3, [r5, #48]	@ 0x30
  {
    /* Check the parameters */
    assert_param(IS_RCC_I2C1CLKSOURCE(PeriphClkInit->I2c1ClockSelection));
    
    /* Configure the I2C1 clock source */
    __HAL_RCC_I2C1_CONFIG(PeriphClkInit->I2c1ClockSelection);
 8006976:	6b2b      	ldr	r3, [r5, #48]	@ 0x30
 8006978:	320d      	adds	r2, #13
 800697a:	4393      	bics	r3, r2
 800697c:	632b      	str	r3, [r5, #48]	@ 0x30
 800697e:	3a04      	subs	r2, #4
 8006980:	a811      	add	r0, sp, #68	@ 0x44
 8006982:	f000 fc86 	bl	8007292 <memset>
  __HAL_RCC_GPIOA_CLK_ENABLE();
 8006986:	2180      	movs	r1, #128	@ 0x80
  __HAL_RCC_GPIOB_CLK_ENABLE();
 8006988:	2280      	movs	r2, #128	@ 0x80
  __HAL_RCC_GPIOA_CLK_ENABLE();
 800698a:	696b      	ldr	r3, [r5, #20]
 800698c:	0289      	lsls	r1, r1, #10
 800698e:	430b      	orrs	r3, r1
 8006990:	616b      	str	r3, [r5, #20]
 8006992:	696b      	ldr	r3, [r5, #20]
  __HAL_RCC_GPIOB_CLK_ENABLE();
 8006994:	02d2      	lsls	r2, r2, #11
  __HAL_RCC_GPIOA_CLK_ENABLE();
 8006996:	400b      	ands	r3, r1
 8006998:	9305      	str	r3, [sp, #20]
 800699a:	9b05      	ldr	r3, [sp, #20]
  __HAL_RCC_GPIOB_CLK_ENABLE();
 800699c:	696b      	ldr	r3, [r5, #20]
  HAL_GPIO_Init(GPIOA, &GPIO_InitStruct);
 800699e:	2090      	movs	r0, #144	@ 0x90
  __HAL_RCC_GPIOB_CLK_ENABLE();
 80069a0:	4313      	orrs	r3, r2
 80069a2:	616b      	str	r3, [r5, #20]
 80069a4:	696b      	ldr	r3, [r5, #20]
  HAL_GPIO_Init(GPIOA, &GPIO_InitStruct);
 80069a6:	a90f      	add	r1, sp, #60	@ 0x3c
  __HAL_RCC_GPIOB_CLK_ENABLE();
 80069a8:	4013      	ands	r3, r2
 80069aa:	9304      	str	r3, [sp, #16]
 80069ac:	9b04      	ldr	r3, [sp, #16]
 80069ae:	2390      	movs	r3, #144	@ 0x90
 80069b0:	05db      	lsls	r3, r3, #23
 80069b2:	629e      	str	r6, [r3, #40]	@ 0x28
  GPIO_InitStruct.Pin = MOTION_INT_Pin|RTC_INT_Pin;
 80069b4:	4b98      	ldr	r3, [pc, #608]	@ (8006c18 <main+0x464>)
  HAL_GPIO_Init(GPIOA, &GPIO_InitStruct);
 80069b6:	05c0      	lsls	r0, r0, #23
  GPIO_InitStruct.Pin = MOTION_INT_Pin|RTC_INT_Pin;
 80069b8:	930f      	str	r3, [sp, #60]	@ 0x3c
  GPIO_InitStruct.Mode = GPIO_MODE_IT_RISING;
 80069ba:	2388      	movs	r3, #136	@ 0x88
 80069bc:	035b      	lsls	r3, r3, #13
 80069be:	9310      	str	r3, [sp, #64]	@ 0x40
  HAL_GPIO_Init(GPIOA, &GPIO_InitStruct);
 80069c0:	f7f9 fe59 	bl	8000676 <HAL_GPIO_Init>
  HAL_GPIO_Init(GPIOA, &GPIO_InitStruct);
 80069c4:	2090      	movs	r0, #144	@ 0x90
  GPIO_InitStruct.Pin = HX711_DOUT_Pin|BLE_STATE_Pin;
 80069c6:	4b95      	ldr	r3, [pc, #596]	@ (8006c1c <main+0x468>)
  HAL_GPIO_Init(GPIOA, &GPIO_InitStruct);
 80069c8:	a90f      	add	r1, sp, #60	@ 0x3c
 80069ca:	05c0      	lsls	r0, r0, #23
  GPIO_InitStruct.Pin = HX711_DOUT_Pin|BLE_STATE_Pin;
 80069cc:	930f      	str	r3, [sp, #60]	@ 0x3c
  GPIO_InitStruct.Mode = GPIO_MODE_INPUT;
 80069ce:	9710      	str	r7, [sp, #64]	@ 0x40
  HAL_GPIO_Init(GPIOA, &GPIO_InitStruct);
 80069d0:	f7f9 fe51 	bl	8000676 <HAL_GPIO_Init>
  HAL_GPIO_Init(GPIOA, &GPIO_InitStruct);
 80069d4:	2090      	movs	r0, #144	@ 0x90
  GPIO_InitStruct.Pin = HX711_SCK_Pin|TDS_DRIVE_Pin;
 80069d6:	960f      	str	r6, [sp, #60]	@ 0x3c
  HAL_GPIO_Init(GPIOA, &GPIO_InitStruct);
 80069d8:	a90f      	add	r1, sp, #60	@ 0x3c
  GPIO_InitStruct.Mode = GPIO_MODE_OUTPUT_PP;
 80069da:	3e5f      	subs	r6, #95	@ 0x5f
  HAL_GPIO_Init(GPIOA, &GPIO_InitStruct);
 80069dc:	05c0      	lsls	r0, r0, #23
  GPIO_InitStruct.Mode = GPIO_MODE_OUTPUT_PP;
 80069de:	9610      	str	r6, [sp, #64]	@ 0x40
  HAL_GPIO_Init(GPIOA, &GPIO_InitStruct);
 80069e0:	f7f9 fe49 	bl	8000676 <HAL_GPIO_Init>
  GPIO_InitStruct.Pin = CHRG_STAT_Pin|STDBY_STAT_Pin;
 80069e4:	2203      	movs	r2, #3
  HAL_GPIO_Init(GPIOB, &GPIO_InitStruct);
 80069e6:	488e      	ldr	r0, [pc, #568]	@ (8006c20 <main+0x46c>)
 80069e8:	a90f      	add	r1, sp, #60	@ 0x3c
  GPIO_InitStruct.Pin = CHRG_STAT_Pin|STDBY_STAT_Pin;
 80069ea:	920f      	str	r2, [sp, #60]	@ 0x3c
  GPIO_InitStruct.Mode = GPIO_MODE_INPUT;
 80069ec:	9710      	str	r7, [sp, #64]	@ 0x40
  HAL_GPIO_Init(GPIOB, &GPIO_InitStruct);
 80069ee:	f7f9 fe42 	bl	8000676 <HAL_GPIO_Init>
  HAL_GPIO_Init(BUTTON_GPIO_Port, &GPIO_InitStruct);
 80069f2:	488b      	ldr	r0, [pc, #556]	@ (8006c20 <main+0x46c>)
 80069f4:	a90f      	add	r1, sp, #60	@ 0x3c
  GPIO_InitStruct.Pin = BUTTON_Pin;
 80069f6:	940f      	str	r4, [sp, #60]	@ 0x3c
  GPIO_InitStruct.Pull = GPIO_PULLUP;
 80069f8:	9611      	str	r6, [sp, #68]	@ 0x44
  HAL_GPIO_Init(BUTTON_GPIO_Port, &GPIO_InitStruct);
 80069fa:	f7f9 fe3c 	bl	8000676 <HAL_GPIO_Init>
    NVIC->IP[_IP_IDX(IRQn)]  = ((uint32_t)(NVIC->IP[_IP_IDX(IRQn)]  & ~(0xFFUL << _BIT_SHIFT(IRQn))) |
 80069fe:	22c1      	movs	r2, #193	@ 0xc1
 8006a00:	4c88      	ldr	r4, [pc, #544]	@ (8006c24 <main+0x470>)
 8006a02:	0092      	lsls	r2, r2, #2
 8006a04:	58a3      	ldr	r3, [r4, r2]
 8006a06:	4988      	ldr	r1, [pc, #544]	@ (8006c28 <main+0x474>)
  ADC_ChannelConfTypeDef sConfig = {0};
 8006a08:	a80c      	add	r0, sp, #48	@ 0x30
 8006a0a:	400b      	ands	r3, r1
 8006a0c:	50a3      	str	r3, [r4, r2]
    NVIC->ISER[0U] = (uint32_t)(1UL << (((uint32_t)IRQn) & 0x1FUL));
 8006a0e:	2320      	movs	r3, #32
 8006a10:	6023      	str	r3, [r4, #0]
    NVIC->IP[_IP_IDX(IRQn)]  = ((uint32_t)(NVIC->IP[_IP_IDX(IRQn)]  & ~(0xFFUL << _BIT_SHIFT(IRQn))) |
 8006a12:	58a3      	ldr	r3, [r4, r2]
 8006a14:	4985      	ldr	r1, [pc, #532]	@ (8006c2c <main+0x478>)
 8006a16:	021b      	lsls	r3, r3, #8
 8006a18:	0a1b      	lsrs	r3, r3, #8
 8006a1a:	50a3      	str	r3, [r4, r2]
    NVIC->ISER[0U] = (uint32_t)(1UL << (((uint32_t)IRQn) & 0x1FUL));
 8006a1c:	2380      	movs	r3, #128	@ 0x80
 8006a1e:	6023      	str	r3, [r4, #0]
  __HAL_RCC_DMA1_CLK_ENABLE();
 8006a20:	696b      	ldr	r3, [r5, #20]
    NVIC->IP[_IP_IDX(IRQn)]  = ((uint32_t)(NVIC->IP[_IP_IDX(IRQn)]  & ~(0xFFUL << _BIT_SHIFT(IRQn))) |
 8006a22:	3204      	adds	r2, #4
 8006a24:	4333      	orrs	r3, r6
 8006a26:	616b      	str	r3, [r5, #20]
 8006a28:	696b      	ldr	r3, [r5, #20]
 8006a2a:	4033      	ands	r3, r6
 8006a2c:	9303      	str	r3, [sp, #12]
 8006a2e:	9b03      	ldr	r3, [sp, #12]
 8006a30:	58a3      	ldr	r3, [r4, r2]
  hadc.Instance = ADC1;
 8006a32:	4e7f      	ldr	r6, [pc, #508]	@ (8006c30 <main+0x47c>)
 8006a34:	400b      	ands	r3, r1
 8006a36:	50a3      	str	r3, [r4, r2]
    NVIC->ISER[0U] = (uint32_t)(1UL << (((uint32_t)IRQn) & 0x1FUL));
 8006a38:	2380      	movs	r3, #128	@ 0x80
 8006a3a:	00db      	lsls	r3, r3, #3
  ADC_ChannelConfTypeDef sConfig = {0};
 8006a3c:	220c      	movs	r2, #12
 8006a3e:	0039      	movs	r1, r7
 8006a40:	6023      	str	r3, [r4, #0]
 8006a42:	f000 fc26 	bl	8007292 <memset>
  hadc.Init.EOCSelection = ADC_EOC_SINGLE_CONV;
 8006a46:	2204      	movs	r2, #4
  hadc.Instance = ADC1;
 8006a48:	4b7a      	ldr	r3, [pc, #488]	@ (8006c34 <main+0x480>)
  hadc.Init.ScanConvMode = ADC_SCAN_DIRECTION_FORWARD;
 8006a4a:	2101      	movs	r1, #1
  hadc.Init.EOCSelection = ADC_EOC_SINGLE_CONV;
 8006a4c:	651a      	str	r2, [r3, #80]	@ 0x50
  hadc.Init.ExternalTrigConv = ADC_SOFTWARE_START;
 8006a4e:	22c2      	movs	r2, #194	@ 0xc2
 8006a50:	32ff      	adds	r2, #255	@ 0xff
 8006a52:	659a      	str	r2, [r3, #88]	@ 0x58
  hadc.Init.DMAContinuousRequests = DISABLE;
 8006a54:	001a      	movs	r2, r3
  hadc.Init.ScanConvMode = ADC_SCAN_DIRECTION_FORWARD;
 8006a56:	64d9      	str	r1, [r3, #76]	@ 0x4c
  hadc.Init.Overrun = ADC_OVR_DATA_PRESERVED;
 8006a58:	6659      	str	r1, [r3, #100]	@ 0x64
  if (hadc->State == HAL_ADC_STATE_RESET)
 8006a5a:	6f59      	ldr	r1, [r3, #116]	@ 0x74
  hadc.Init.DMAContinuousRequests = DISABLE;
 8006a5c:	3241      	adds	r2, #65	@ 0x41
  hadc.Instance = ADC1;
 8006a5e:	63de      	str	r6, [r3, #60]	@ 0x3c
  hadc.Init.ClockPrescaler = ADC_CLOCK_ASYNC_DIV1;
 8006a60:	641f      	str	r7, [r3, #64]	@ 0x40
  hadc.Init.Resolution = ADC_RESOLUTION_12B;
 8006a62:	645f      	str	r7, [r3, #68]	@ 0x44
  hadc.Init.DataAlign = ADC_DATAALIGN_RIGHT;
 8006a64:	649f      	str	r7, [r3, #72]	@ 0x48
  hadc.Init.LowPowerAutoWait = DISABLE;
 8006a66:	655f      	str	r7, [r3, #84]	@ 0x54
  hadc.Init.ExternalTrigConvEdge = ADC_EXTERNALTRIGCONVEDGE_NONE;
 8006a68:	65df      	str	r7, [r3, #92]	@ 0x5c
  hadc.Init.DMAContinuousRequests = DISABLE;
 8006a6a:	77d7      	strb	r7, [r2, #31]
 8006a6c:	42b9      	cmp	r1, r7
 8006a6e:	d12a      	bne.n	8006ac6 <main+0x312>
    ADC_CLEAR_ERRORCODE(hadc);
 8006a70:	6799      	str	r1, [r3, #120]	@ 0x78
  GPIO_InitTypeDef GPIO_InitStruct = {0};
 8006a72:	220c      	movs	r2, #12
    hadc->Lock = HAL_UNLOCKED;
 8006a74:	3370      	adds	r3, #112	@ 0x70
 8006a76:	a811      	add	r0, sp, #68	@ 0x44
 8006a78:	7019      	strb	r1, [r3, #0]
 8006a7a:	f000 fc0a 	bl	8007292 <memset>
    __HAL_RCC_ADC1_CLK_ENABLE();
 8006a7e:	2280      	movs	r2, #128	@ 0x80
 8006a80:	69ab      	ldr	r3, [r5, #24]
 8006a82:	0092      	lsls	r2, r2, #2
 8006a84:	4313      	orrs	r3, r2
 8006a86:	61ab      	str	r3, [r5, #24]
 8006a88:	69ab      	ldr	r3, [r5, #24]
    HAL_GPIO_Init(GPIOA, &GPIO_InitStruct);
 8006a8a:	2090      	movs	r0, #144	@ 0x90
    __HAL_RCC_ADC1_CLK_ENABLE();
 8006a8c:	4013      	ands	r3, r2
    __HAL_RCC_GPIOA_CLK_ENABLE();
 8006a8e:	2280      	movs	r2, #128	@ 0x80
    __HAL_RCC_ADC1_CLK_ENABLE();
 8006a90:	9309      	str	r3, [sp, #36]	@ 0x24
 8006a92:	9b09      	ldr	r3, [sp, #36]	@ 0x24
    __HAL_RCC_GPIOA_CLK_ENABLE();
 8006a94:	696b      	ldr	r3, [r5, #20]
 8006a96:	0292      	lsls	r2, r2, #10
 8006a98:	4313      	orrs	r3, r2
 8006a9a:	616b      	str	r3, [r5, #20]
 8006a9c:	696b      	ldr	r3, [r5, #20]
    HAL_GPIO_Init(GPIOA, &GPIO_InitStruct);
 8006a9e:	a90f      	add	r1, sp, #60	@ 0x3c
    __HAL_RCC_GPIOA_CLK_ENABLE();
 8006aa0:	4013      	ands	r3, r2
 8006aa2:	9308      	str	r3, [sp, #32]
 8006aa4:	9b08      	ldr	r3, [sp, #32]
    GPIO_InitStruct.Pin = TDS_MCU_Pin|NTC_TEMP_Pin|BAT__Pin;
 8006aa6:	238c      	movs	r3, #140	@ 0x8c
    HAL_GPIO_Init(GPIOA, &GPIO_InitStruct);
 8006aa8:	05c0      	lsls	r0, r0, #23
    GPIO_InitStruct.Pin = TDS_MCU_Pin|NTC_TEMP_Pin|BAT__Pin;
 8006aaa:	930f      	str	r3, [sp, #60]	@ 0x3c
    GPIO_InitStruct.Mode = GPIO_MODE_ANALOG;
 8006aac:	3b89      	subs	r3, #137	@ 0x89
 8006aae:	9310      	str	r3, [sp, #64]	@ 0x40
    HAL_GPIO_Init(GPIOA, &GPIO_InitStruct);
 8006ab0:	f7f9 fde1 	bl	8000676 <HAL_GPIO_Init>
    NVIC->IP[_IP_IDX(IRQn)]  = ((uint32_t)(NVIC->IP[_IP_IDX(IRQn)]  & ~(0xFFUL << _BIT_SHIFT(IRQn))) |
 8006ab4:	22c3      	movs	r2, #195	@ 0xc3
 8006ab6:	21ff      	movs	r1, #255	@ 0xff
 8006ab8:	0092      	lsls	r2, r2, #2
 8006aba:	58a3      	ldr	r3, [r4, r2]
 8006abc:	438b      	bics	r3, r1
 8006abe:	50a3      	str	r3, [r4, r2]
    NVIC->ISER[0U] = (uint32_t)(1UL << (((uint32_t)IRQn) & 0x1FUL));
 8006ac0:	2380      	movs	r3, #128	@ 0x80
 8006ac2:	015b      	lsls	r3, r3, #5
 8006ac4:	6023      	str	r3, [r4, #0]
  if (HAL_IS_BIT_CLR(hadc->State, HAL_ADC_STATE_ERROR_INTERNAL) &&
 8006ac6:	4b5b      	ldr	r3, [pc, #364]	@ (8006c34 <main+0x480>)
 8006ac8:	6f5a      	ldr	r2, [r3, #116]	@ 0x74
 8006aca:	06d2      	lsls	r2, r2, #27
 8006acc:	d46a      	bmi.n	8006ba4 <main+0x3f0>
      (ADC_IS_CONVERSION_ONGOING_REGULAR(hadc) == RESET)          )
 8006ace:	68b2      	ldr	r2, [r6, #8]
      (tmp_hal_status == HAL_OK)                                &&
 8006ad0:	0752      	lsls	r2, r2, #29
 8006ad2:	d467      	bmi.n	8006ba4 <main+0x3f0>
    ADC_STATE_CLR_SET(hadc->State,
 8006ad4:	6f59      	ldr	r1, [r3, #116]	@ 0x74
 8006ad6:	4a58      	ldr	r2, [pc, #352]	@ (8006c38 <main+0x484>)
 8006ad8:	4011      	ands	r1, r2
 8006ada:	3206      	adds	r2, #6
 8006adc:	32ff      	adds	r2, #255	@ 0xff
 8006ade:	430a      	orrs	r2, r1
    if (ADC_IS_ENABLE(hadc) == RESET)
 8006ae0:	2103      	movs	r1, #3
    ADC_STATE_CLR_SET(hadc->State,
 8006ae2:	675a      	str	r2, [r3, #116]	@ 0x74
    if (ADC_IS_ENABLE(hadc) == RESET)
 8006ae4:	68b2      	ldr	r2, [r6, #8]
 8006ae6:	400a      	ands	r2, r1
 8006ae8:	2a01      	cmp	r2, #1
 8006aea:	d105      	bne.n	8006af8 <main+0x344>
 8006aec:	6831      	ldr	r1, [r6, #0]
 8006aee:	4211      	tst	r1, r2
 8006af0:	d10a      	bne.n	8006b08 <main+0x354>
 8006af2:	68f2      	ldr	r2, [r6, #12]
 8006af4:	0412      	lsls	r2, r2, #16
 8006af6:	d407      	bmi.n	8006b08 <main+0x354>
      MODIFY_REG(hadc->Instance->CFGR1,
 8006af8:	2118      	movs	r1, #24
 8006afa:	68f2      	ldr	r2, [r6, #12]
 8006afc:	438a      	bics	r2, r1
 8006afe:	60f2      	str	r2, [r6, #12]
      MODIFY_REG(hadc->Instance->CFGR2    ,
 8006b00:	6932      	ldr	r2, [r6, #16]
 8006b02:	0092      	lsls	r2, r2, #2
 8006b04:	0892      	lsrs	r2, r2, #2
 8006b06:	6132      	str	r2, [r6, #16]
    hadc->Instance->CFGR1 &= ~( ADC_CFGR1_DISCEN  |
 8006b08:	68f2      	ldr	r2, [r6, #12]
 8006b0a:	494c      	ldr	r1, [pc, #304]	@ (8006c3c <main+0x488>)
 8006b0c:	400a      	ands	r2, r1
    if (IS_ADC_SAMPLE_TIME(hadc->Init.SamplingTimeCommon))
 8006b0e:	2180      	movs	r1, #128	@ 0x80
    hadc->Instance->CFGR1 &= ~( ADC_CFGR1_DISCEN  |
 8006b10:	60f2      	str	r2, [r6, #12]
    hadc->Instance->CFGR1 |= tmpCFGR1;
 8006b12:	68f2      	ldr	r2, [r6, #12]
    if (IS_ADC_SAMPLE_TIME(hadc->Init.SamplingTimeCommon))
 8006b14:	0549      	lsls	r1, r1, #21
    hadc->Instance->CFGR1 |= tmpCFGR1;
 8006b16:	60f2      	str	r2, [r6, #12]
    if (IS_ADC_SAMPLE_TIME(hadc->Init.SamplingTimeCommon))
 8006b18:	6e9a      	ldr	r2, [r3, #104]	@ 0x68
 8006b1a:	428a      	cmp	r2, r1
 8006b1c:	d002      	beq.n	8006b24 <main+0x370>
 8006b1e:	1e51      	subs	r1, r2, #1
 8006b20:	2906      	cmp	r1, #6
 8006b22:	d807      	bhi.n	8006b34 <main+0x380>
      hadc->Instance->SMPR &= ~(ADC_SMPR_SMP);
 8006b24:	2007      	movs	r0, #7
 8006b26:	6971      	ldr	r1, [r6, #20]
      hadc->Instance->SMPR |= ADC_SMPR_SET(hadc->Init.SamplingTimeCommon);
 8006b28:	4002      	ands	r2, r0
      hadc->Instance->SMPR &= ~(ADC_SMPR_SMP);
 8006b2a:	4381      	bics	r1, r0
 8006b2c:	6171      	str	r1, [r6, #20]
      hadc->Instance->SMPR |= ADC_SMPR_SET(hadc->Init.SamplingTimeCommon);
 8006b2e:	6971      	ldr	r1, [r6, #20]
 8006b30:	430a      	orrs	r2, r1
 8006b32:	6172      	str	r2, [r6, #20]
    if ((hadc->Instance->CFGR1 & ~(ADC_CFGR1_AWDCH | ADC_CFGR1_AWDEN | ADC_CFGR1_AWDSGL | ADC_CFGR1_RES))
 8006b34:	68f1      	ldr	r1, [r6, #12]
 8006b36:	4a42      	ldr	r2, [pc, #264]	@ (8006c40 <main+0x48c>)
 8006b38:	0008      	movs	r0, r1
 8006b3a:	4010      	ands	r0, r2
 8006b3c:	4211      	tst	r1, r2
 8006b3e:	d125      	bne.n	8006b8c <main+0x3d8>
      ADC_STATE_CLR_SET(hadc->State,
 8006b40:	2103      	movs	r1, #3
      ADC_CLEAR_ERRORCODE(hadc);
 8006b42:	6798      	str	r0, [r3, #120]	@ 0x78
      ADC_STATE_CLR_SET(hadc->State,
 8006b44:	6f5a      	ldr	r2, [r3, #116]	@ 0x74
  if (HAL_ADC_ConfigChannel(&hadc, &sConfig) != HAL_OK)
 8006b46:	333c      	adds	r3, #60	@ 0x3c
 8006b48:	438a      	bics	r2, r1
 8006b4a:	3902      	subs	r1, #2
 8006b4c:	430a      	orrs	r2, r1
 8006b4e:	639a      	str	r2, [r3, #56]	@ 0x38
  sConfig.Channel = ADC_CHANNEL_2;
 8006b50:	2202      	movs	r2, #2
 8006b52:	920c      	str	r2, [sp, #48]	@ 0x30
  sConfig.Rank = ADC_RANK_CHANNEL_NUMBER;
 8006b54:	2280      	movs	r2, #128	@ 0x80
 8006b56:	0152      	lsls	r2, r2, #5
 8006b58:	920d      	str	r2, [sp, #52]	@ 0x34
  sConfig.SamplingTime = ADC_SAMPLETIME_71CYCLES_5;
 8006b5a:	2206      	movs	r2, #6
  if (HAL_ADC_ConfigChannel(&hadc, &sConfig) != HAL_OK)
 8006b5c:	0018      	movs	r0, r3
 8006b5e:	a90c      	add	r1, sp, #48	@ 0x30
 8006b60:	001e      	movs	r6, r3
  sConfig.SamplingTime = ADC_SAMPLETIME_71CYCLES_5;
 8006b62:	920e      	str	r2, [sp, #56]	@ 0x38
  if (HAL_ADC_ConfigChannel(&hadc, &sConfig) != HAL_OK)
 8006b64:	f7f9 fce2 	bl	800052c <HAL_ADC_ConfigChannel>
 8006b68:	2800      	cmp	r0, #0
 8006b6a:	d120      	bne.n	8006bae <main+0x3fa>
  sConfig.Channel = ADC_CHANNEL_3;
 8006b6c:	2303      	movs	r3, #3
  if (HAL_ADC_ConfigChannel(&hadc, &sConfig) != HAL_OK)
 8006b6e:	0030      	movs	r0, r6
 8006b70:	a90c      	add	r1, sp, #48	@ 0x30
  sConfig.Channel = ADC_CHANNEL_3;
 8006b72:	930c      	str	r3, [sp, #48]	@ 0x30
  if (HAL_ADC_ConfigChannel(&hadc, &sConfig) != HAL_OK)
 8006b74:	f7f9 fcda 	bl	800052c <HAL_ADC_ConfigChannel>
 8006b78:	2800      	cmp	r0, #0
 8006b7a:	d01a      	beq.n	8006bb2 <main+0x3fe>
 8006b7c:	b672      	cpsid	i
  while (1)
 8006b7e:	e7fe      	b.n	8006b7e <main+0x3ca>
 8006b80:	6f5a      	ldr	r2, [r3, #116]	@ 0x74
      if((HAL_GetTick() - tickstart ) > CLOCKSWITCH_TIMEOUT_VALUE)
 8006b82:	1a12      	subs	r2, r2, r0
 8006b84:	42ba      	cmp	r2, r7
 8006b86:	d800      	bhi.n	8006b8a <main+0x3d6>
 8006b88:	e6d7      	b.n	800693a <main+0x186>
 8006b8a:	e689      	b.n	80068a0 <main+0xec>
      ADC_STATE_CLR_SET(hadc->State,
 8006b8c:	2212      	movs	r2, #18
 8006b8e:	6f59      	ldr	r1, [r3, #116]	@ 0x74
 8006b90:	4391      	bics	r1, r2
 8006b92:	3a02      	subs	r2, #2
 8006b94:	430a      	orrs	r2, r1
 8006b96:	675a      	str	r2, [r3, #116]	@ 0x74
      SET_BIT(hadc->ErrorCode, HAL_ADC_ERROR_INTERNAL);
 8006b98:	2201      	movs	r2, #1
 8006b9a:	6f99      	ldr	r1, [r3, #120]	@ 0x78
 8006b9c:	430a      	orrs	r2, r1
 8006b9e:	679a      	str	r2, [r3, #120]	@ 0x78
 8006ba0:	b672      	cpsid	i
 8006ba2:	e7fe      	b.n	8006ba2 <main+0x3ee>
    SET_BIT(hadc->State, HAL_ADC_STATE_ERROR_INTERNAL);
 8006ba4:	2210      	movs	r2, #16
 8006ba6:	6f59      	ldr	r1, [r3, #116]	@ 0x74
 8006ba8:	430a      	orrs	r2, r1
 8006baa:	675a      	str	r2, [r3, #116]	@ 0x74
 8006bac:	e7f8      	b.n	8006ba0 <main+0x3ec>
 8006bae:	b672      	cpsid	i
 8006bb0:	e7fe      	b.n	8006bb0 <main+0x3fc>
  sConfig.Channel = ADC_CHANNEL_7;
 8006bb2:	2307      	movs	r3, #7
  if (HAL_ADC_ConfigChannel(&hadc, &sConfig) != HAL_OK)
 8006bb4:	0030      	movs	r0, r6
 8006bb6:	a90c      	add	r1, sp, #48	@ 0x30
  sConfig.Channel = ADC_CHANNEL_7;
 8006bb8:	930c      	str	r3, [sp, #48]	@ 0x30
  if (HAL_ADC_ConfigChannel(&hadc, &sConfig) != HAL_OK)
 8006bba:	f7f9 fcb7 	bl	800052c <HAL_ADC_ConfigChannel>
 8006bbe:	2800      	cmp	r0, #0
 8006bc0:	d001      	beq.n	8006bc6 <main+0x412>
 8006bc2:	b672      	cpsid	i
  while (1)
 8006bc4:	e7fe      	b.n	8006bc4 <main+0x410>
  hi2c1.Instance = I2C1;
 8006bc6:	4b1f      	ldr	r3, [pc, #124]	@ (8006c44 <main+0x490>)
 8006bc8:	4a1f      	ldr	r2, [pc, #124]	@ (8006c48 <main+0x494>)
  hi2c1.Init.OwnAddress1 = 0;
 8006bca:	6398      	str	r0, [r3, #56]	@ 0x38
  hi2c1.Instance = I2C1;
 8006bcc:	631a      	str	r2, [r3, #48]	@ 0x30
  hi2c1.Init.Timing = 0x00201D2B;
 8006bce:	4a1f      	ldr	r2, [pc, #124]	@ (8006c4c <main+0x498>)
  hi2c1.Init.DualAddressMode = I2C_DUALADDRESS_DISABLE;
 8006bd0:	6418      	str	r0, [r3, #64]	@ 0x40
  hi2c1.Init.Timing = 0x00201D2B;
 8006bd2:	635a      	str	r2, [r3, #52]	@ 0x34
  hi2c1.Init.AddressingMode = I2C_ADDRESSINGMODE_7BIT;
 8006bd4:	2201      	movs	r2, #1
  hi2c1.Init.OwnAddress2 = 0;
 8006bd6:	6458      	str	r0, [r3, #68]	@ 0x44
  hi2c1.Init.AddressingMode = I2C_ADDRESSINGMODE_7BIT;
 8006bd8:	63da      	str	r2, [r3, #60]	@ 0x3c
  hi2c1.Init.OwnAddress2Masks = I2C_OA2_NOMASK;
 8006bda:	6498      	str	r0, [r3, #72]	@ 0x48
  hi2c1.Init.GeneralCallMode = I2C_GENERALCALL_DISABLE;
 8006bdc:	64d8      	str	r0, [r3, #76]	@ 0x4c
  hi2c1.Init.NoStretchMode = I2C_NOSTRETCH_DISABLE;
 8006bde:	6518      	str	r0, [r3, #80]	@ 0x50
  if (HAL_I2C_Init(&hi2c1) != HAL_OK)
 8006be0:	f7fa fd72 	bl	80016c8 <HAL_I2C_Init.constprop.0>
 8006be4:	2800      	cmp	r0, #0
 8006be6:	d001      	beq.n	8006bec <main+0x438>
 8006be8:	b672      	cpsid	i
  while (1)
 8006bea:	e7fe      	b.n	8006bea <main+0x436>
  if (HAL_I2CEx_ConfigAnalogFilter(&hi2c1, I2C_ANALOGFILTER_ENABLE) != HAL_OK)
 8006bec:	f7fa fdf8 	bl	80017e0 <HAL_I2CEx_ConfigAnalogFilter.constprop.0>
 8006bf0:	2800      	cmp	r0, #0
 8006bf2:	d001      	beq.n	8006bf8 <main+0x444>
 8006bf4:	b672      	cpsid	i
  while (1)
 8006bf6:	e7fe      	b.n	8006bf6 <main+0x442>
  if (HAL_I2CEx_ConfigDigitalFilter(&hi2c1, 0) != HAL_OK)
 8006bf8:	f7fa fe1a 	bl	8001830 <HAL_I2CEx_ConfigDigitalFilter.constprop.0>
 8006bfc:	9000      	str	r0, [sp, #0]
 8006bfe:	2800      	cmp	r0, #0
 8006c00:	d026      	beq.n	8006c50 <main+0x49c>
 8006c02:	b672      	cpsid	i
  while (1)
 8006c04:	e7fe      	b.n	8006c04 <main+0x450>
 8006c06:	46c0      	nop			@ (mov r8, r8)
 8006c08:	00001388 	.word	0x00001388
 8006c0c:	fffff8ff 	.word	0xfffff8ff
 8006c10:	0800742b 	.word	0x0800742b
 8006c14:	20000000 	.word	0x20000000
 8006c18:	00000801 	.word	0x00000801
 8006c1c:	00008010 	.word	0x00008010
 8006c20:	48000400 	.word	0x48000400
 8006c24:	e000e100 	.word	0xe000e100
 8006c28:	ffff00ff 	.word	0xffff00ff
 8006c2c:	ff00ffff 	.word	0xff00ffff
 8006c30:	40012400 	.word	0x40012400
 8006c34:	20000200 	.word	0x20000200
 8006c38:	fffffefd 	.word	0xfffffefd
 8006c3c:	fffe0219 	.word	0xfffe0219
 8006c40:	833fffe7 	.word	0x833fffe7
 8006c44:	20000100 	.word	0x20000100
 8006c48:	40005400 	.word	0x40005400
 8006c4c:	00201d2b 	.word	0x00201d2b
  huart1.Init.BaudRate = 9600;
 8006c50:	2396      	movs	r3, #150	@ 0x96
  huart1.Instance = USART1;
 8006c52:	4fbb      	ldr	r7, [pc, #748]	@ (8006f40 <main+0x78c>)
  huart1.Init.BaudRate = 9600;
 8006c54:	019b      	lsls	r3, r3, #6
 8006c56:	607b      	str	r3, [r7, #4]
  huart1.Init.WordLength = UART_WORDLENGTH_8B;
 8006c58:	9b00      	ldr	r3, [sp, #0]
  huart1.Instance = USART1;
 8006c5a:	4eba      	ldr	r6, [pc, #744]	@ (8006f44 <main+0x790>)
  huart1.Init.WordLength = UART_WORDLENGTH_8B;
 8006c5c:	60bb      	str	r3, [r7, #8]
  huart1.Init.StopBits = UART_STOPBITS_1;
 8006c5e:	60fb      	str	r3, [r7, #12]
  huart1.Init.Parity = UART_PARITY_NONE;
 8006c60:	613b      	str	r3, [r7, #16]
  huart1.Init.Mode = UART_MODE_TX_RX;
 8006c62:	230c      	movs	r3, #12
 8006c64:	617b      	str	r3, [r7, #20]
  huart1.Init.HwFlowCtl = UART_HWCONTROL_NONE;
 8006c66:	9b00      	ldr	r3, [sp, #0]
  huart1.Instance = USART1;
 8006c68:	603e      	str	r6, [r7, #0]
  huart1.Init.HwFlowCtl = UART_HWCONTROL_NONE;
 8006c6a:	61bb      	str	r3, [r7, #24]
  huart1.Init.OverSampling = UART_OVERSAMPLING_16;
 8006c6c:	61fb      	str	r3, [r7, #28]
  huart1.Init.OneBitSampling = UART_ONE_BIT_SAMPLE_DISABLE;
 8006c6e:	623b      	str	r3, [r7, #32]
  huart1.AdvancedInit.AdvFeatureInit = UART_ADVFEATURE_NO_INIT;
 8006c70:	627b      	str	r3, [r7, #36]	@ 0x24
  if (huart->gState == HAL_UART_STATE_RESET)
 8006c72:	6ffb      	ldr	r3, [r7, #124]	@ 0x7c
 8006c74:	2b00      	cmp	r3, #0
 8006c76:	d12d      	bne.n	8006cd4 <main+0x520>
    huart->Lock = HAL_UNLOCKED;
 8006c78:	003b      	movs	r3, r7
 8006c7a:	9a00      	ldr	r2, [sp, #0]
 8006c7c:	3378      	adds	r3, #120	@ 0x78
 8006c7e:	701a      	strb	r2, [r3, #0]
  * @param huart: UART handle pointer
  * @retval None
  */
void HAL_UART_MspInit(UART_HandleTypeDef* huart)
{
  GPIO_InitTypeDef GPIO_InitStruct = {0};
 8006c80:	9211      	str	r2, [sp, #68]	@ 0x44
  {
    /* USER CODE BEGIN USART1_MspInit 0 */

    /* USER CODE END USART1_MspInit 0 */
    /* Peripheral clock enable */
    __HAL_RCC_USART1_CLK_ENABLE();
 8006c82:	2280      	movs	r2, #128	@ 0x80
 8006c84:	69ab      	ldr	r3, [r5, #24]
 8006c86:	01d2      	lsls	r2, r2, #7
 8006c88:	4313      	orrs	r3, r2
 8006c8a:	61ab      	str	r3, [r5, #24]
 8006c8c:	69ab      	ldr	r3, [r5, #24]
    GPIO_InitStruct.Pin = GPIO_PIN_9|GPIO_PIN_10;
    GPIO_InitStruct.Mode = GPIO_MODE_AF_PP;
    GPIO_InitStruct.Pull = GPIO_NOPULL;
    GPIO_InitStruct.Speed = GPIO_SPEED_FREQ_HIGH;
    GPIO_InitStruct.Alternate = GPIO_AF1_USART1;
    HAL_GPIO_Init(GPIOA, &GPIO_InitStruct);
 8006c8e:	2090      	movs	r0, #144	@ 0x90
    __HAL_RCC_USART1_CLK_ENABLE();
 8006c90:	4013      	ands	r3, r2
    __HAL_RCC_GPIOA_CLK_ENABLE();
 8006c92:	2280      	movs	r2, #128	@ 0x80
    __HAL_RCC_USART1_CLK_ENABLE();
 8006c94:	930b      	str	r3, [sp, #44]	@ 0x2c
 8006c96:	9b0b      	ldr	r3, [sp, #44]	@ 0x2c
    __HAL_RCC_GPIOA_CLK_ENABLE();
 8006c98:	696b      	ldr	r3, [r5, #20]
 8006c9a:	0292      	lsls	r2, r2, #10
 8006c9c:	4313      	orrs	r3, r2
 8006c9e:	616b      	str	r3, [r5, #20]
 8006ca0:	696b      	ldr	r3, [r5, #20]
    HAL_GPIO_Init(GPIOA, &GPIO_InitStruct);
 8006ca2:	a90f      	add	r1, sp, #60	@ 0x3c
    __HAL_RCC_GPIOA_CLK_ENABLE();
 8006ca4:	4013      	ands	r3, r2
 8006ca6:	930a      	str	r3, [sp, #40]	@ 0x28
 8006ca8:	9b0a      	ldr	r3, [sp, #40]	@ 0x28
    GPIO_InitStruct.Pin = GPIO_PIN_9|GPIO_PIN_10;
 8006caa:	23c0      	movs	r3, #192	@ 0xc0
 8006cac:	00db      	lsls	r3, r3, #3
 8006cae:	930f      	str	r3, [sp, #60]	@ 0x3c
    GPIO_InitStruct.Mode = GPIO_MODE_AF_PP;
 8006cb0:	2302      	movs	r3, #2
 8006cb2:	9310      	str	r3, [sp, #64]	@ 0x40
    GPIO_InitStruct.Speed = GPIO_SPEED_FREQ_HIGH;
 8006cb4:	3301      	adds	r3, #1
 8006cb6:	9312      	str	r3, [sp, #72]	@ 0x48
    HAL_GPIO_Init(GPIOA, &GPIO_InitStruct);
 8006cb8:	05c0      	lsls	r0, r0, #23
    GPIO_InitStruct.Alternate = GPIO_AF1_USART1;
 8006cba:	3b02      	subs	r3, #2
 8006cbc:	9313      	str	r3, [sp, #76]	@ 0x4c
    HAL_GPIO_Init(GPIOA, &GPIO_InitStruct);
 8006cbe:	f7f9 fcda 	bl	8000676 <HAL_GPIO_Init>
    NVIC->IP[_IP_IDX(IRQn)]  = ((uint32_t)(NVIC->IP[_IP_IDX(IRQn)]  & ~(0xFFUL << _BIT_SHIFT(IRQn))) |
 8006cc2:	22c6      	movs	r2, #198	@ 0xc6
 8006cc4:	0092      	lsls	r2, r2, #2
 8006cc6:	58a3      	ldr	r3, [r4, r2]
 8006cc8:	021b      	lsls	r3, r3, #8
 8006cca:	0a1b      	lsrs	r3, r3, #8
 8006ccc:	50a3      	str	r3, [r4, r2]
    NVIC->ISER[0U] = (uint32_t)(1UL << (((uint32_t)IRQn) & 0x1FUL));
 8006cce:	2380      	movs	r3, #128	@ 0x80
 8006cd0:	051b      	lsls	r3, r3, #20
 8006cd2:	6023      	str	r3, [r4, #0]
  huart->gState = HAL_UART_STATE_BUSY;
 8006cd4:	2324      	movs	r3, #36	@ 0x24
  __HAL_UART_DISABLE(huart);
 8006cd6:	2201      	movs	r2, #1
  huart->gState = HAL_UART_STATE_BUSY;
 8006cd8:	4c99      	ldr	r4, [pc, #612]	@ (8006f40 <main+0x78c>)
 8006cda:	67e3      	str	r3, [r4, #124]	@ 0x7c
  __HAL_UART_DISABLE(huart);
 8006cdc:	6833      	ldr	r3, [r6, #0]
 8006cde:	4393      	bics	r3, r2
 8006ce0:	6033      	str	r3, [r6, #0]
  MODIFY_REG(huart->Instance->CR1, USART_CR1_FIELDS, tmpreg);
 8006ce2:	6832      	ldr	r2, [r6, #0]
 8006ce4:	4b98      	ldr	r3, [pc, #608]	@ (8006f48 <main+0x794>)
 8006ce6:	401a      	ands	r2, r3
 8006ce8:	230c      	movs	r3, #12
 8006cea:	4313      	orrs	r3, r2
 8006cec:	6033      	str	r3, [r6, #0]
  MODIFY_REG(huart->Instance->CR2, USART_CR2_STOP, huart->Init.StopBits);
 8006cee:	6873      	ldr	r3, [r6, #4]
 8006cf0:	4a96      	ldr	r2, [pc, #600]	@ (8006f4c <main+0x798>)
 8006cf2:	4013      	ands	r3, r2
 8006cf4:	6073      	str	r3, [r6, #4]
  MODIFY_REG(huart->Instance->CR3, USART_CR3_FIELDS, tmpreg);
 8006cf6:	68b3      	ldr	r3, [r6, #8]
 8006cf8:	4a95      	ldr	r2, [pc, #596]	@ (8006f50 <main+0x79c>)
 8006cfa:	4013      	ands	r3, r2
  UART_GETCLOCKSOURCE(huart, clocksource);
 8006cfc:	2203      	movs	r2, #3
  MODIFY_REG(huart->Instance->CR3, USART_CR3_FIELDS, tmpreg);
 8006cfe:	60b3      	str	r3, [r6, #8]
  UART_GETCLOCKSOURCE(huart, clocksource);
 8006d00:	6b2b      	ldr	r3, [r5, #48]	@ 0x30
 8006d02:	4013      	ands	r3, r2
 8006d04:	3b01      	subs	r3, #1
 8006d06:	4a93      	ldr	r2, [pc, #588]	@ (8006f54 <main+0x7a0>)
 8006d08:	2b02      	cmp	r3, #2
 8006d0a:	d81a      	bhi.n	8006d42 <main+0x58e>
    switch (clocksource)
 8006d0c:	0011      	movs	r1, r2
 8006d0e:	3173      	adds	r1, #115	@ 0x73
 8006d10:	5cc8      	ldrb	r0, [r1, r3]
 8006d12:	2808      	cmp	r0, #8
 8006d14:	d857      	bhi.n	8006dc6 <main+0x612>
 8006d16:	f7fe f9b7 	bl	8005088 <__gnu_thumb1_case_uqi>
 8006d1a:	5614      	.short	0x5614
 8006d1c:	56505605 	.word	0x56505605
 8006d20:	5656      	.short	0x5656
 8006d22:	53          	.byte	0x53
 8006d23:	00          	.byte	0x00
        pclk = (uint32_t) HSI_VALUE;
 8006d24:	488c      	ldr	r0, [pc, #560]	@ (8006f58 <main+0x7a4>)
      usartdiv = (uint32_t)(UART_DIV_SAMPLING16(pclk, huart->Init.BaudRate));
 8006d26:	2396      	movs	r3, #150	@ 0x96
 8006d28:	2196      	movs	r1, #150	@ 0x96
 8006d2a:	015b      	lsls	r3, r3, #5
 8006d2c:	18c0      	adds	r0, r0, r3
 8006d2e:	0189      	lsls	r1, r1, #6
 8006d30:	f7fe f9be 	bl	80050b0 <__udivsi3>
      if ((usartdiv >= UART_BRR_MIN) && (usartdiv <= UART_BRR_MAX))
 8006d34:	0002      	movs	r2, r0
 8006d36:	4b89      	ldr	r3, [pc, #548]	@ (8006f5c <main+0x7a8>)
 8006d38:	3a10      	subs	r2, #16
 8006d3a:	429a      	cmp	r2, r3
 8006d3c:	d843      	bhi.n	8006dc6 <main+0x612>
        huart->Instance->BRR = (uint16_t)usartdiv;
 8006d3e:	60f0      	str	r0, [r6, #12]
 8006d40:	e008      	b.n	8006d54 <main+0x5a0>
  * @retval PCLK1 frequency
  */
uint32_t HAL_RCC_GetPCLK1Freq(void)
{
  /* Get HCLK source and Compute PCLK1 frequency ---------------------------*/
  return (HAL_RCC_GetHCLKFreq() >> APBPrescTable[(RCC->CFGR & RCC_CFGR_PPRE) >> RCC_CFGR_PPRE_BITNUMBER]);
 8006d42:	686b      	ldr	r3, [r5, #4]
 8006d44:	3276      	adds	r2, #118	@ 0x76
 8006d46:	055b      	lsls	r3, r3, #21
 8006d48:	0f5b      	lsrs	r3, r3, #29
 8006d4a:	5cd3      	ldrb	r3, [r2, r3]
 8006d4c:	9801      	ldr	r0, [sp, #4]
 8006d4e:	40d8      	lsrs	r0, r3
    if (pclk != 0U)
 8006d50:	2800      	cmp	r0, #0
 8006d52:	d1e8      	bne.n	8006d26 <main+0x572>
  huart->RxISR = NULL;
 8006d54:	2500      	movs	r5, #0
  if (UART_SetConfig(huart) == HAL_ERROR)
 8006d56:	9b00      	ldr	r3, [sp, #0]
  huart->RxISR = NULL;
 8006d58:	66a5      	str	r5, [r4, #104]	@ 0x68
  huart->TxISR = NULL;
 8006d5a:	66e5      	str	r5, [r4, #108]	@ 0x6c
  if (UART_SetConfig(huart) == HAL_ERROR)
 8006d5c:	2b01      	cmp	r3, #1
 8006d5e:	d02a      	beq.n	8006db6 <main+0x602>
  CLEAR_BIT(huart->Instance->CR2, USART_CR2_CLKEN);
 8006d60:	6873      	ldr	r3, [r6, #4]
 8006d62:	4a7f      	ldr	r2, [pc, #508]	@ (8006f60 <main+0x7ac>)
  __HAL_UART_ENABLE(huart);
 8006d64:	2101      	movs	r1, #1
  CLEAR_BIT(huart->Instance->CR2, USART_CR2_CLKEN);
 8006d66:	4013      	ands	r3, r2
  CLEAR_BIT(huart->Instance->CR3, USART_CR3_HDSEL);
 8006d68:	2208      	movs	r2, #8
  CLEAR_BIT(huart->Instance->CR2, USART_CR2_CLKEN);
 8006d6a:	6073      	str	r3, [r6, #4]
  CLEAR_BIT(huart->Instance->CR3, USART_CR3_HDSEL);
 8006d6c:	68b3      	ldr	r3, [r6, #8]
 8006d6e:	4393      	bics	r3, r2
 8006d70:	60b3      	str	r3, [r6, #8]
  __HAL_UART_ENABLE(huart);
 8006d72:	6833      	ldr	r3, [r6, #0]
 8006d74:	430b      	orrs	r3, r1
 8006d76:	6033      	str	r3, [r6, #0]
  huart->ErrorCode = HAL_UART_ERROR_NONE;
 8006d78:	18a3      	adds	r3, r4, r2
 8006d7a:	67dd      	str	r5, [r3, #124]	@ 0x7c
 8006d7c:	4b79      	ldr	r3, [pc, #484]	@ (8006f64 <main+0x7b0>)
 8006d7e:	6f5b      	ldr	r3, [r3, #116]	@ 0x74
 8006d80:	9300      	str	r3, [sp, #0]
  if ((huart->Instance->CR1 & USART_CR1_TE) == USART_CR1_TE)
 8006d82:	6833      	ldr	r3, [r6, #0]
 8006d84:	4213      	tst	r3, r2
 8006d86:	d021      	beq.n	8006dcc <main+0x618>
    if (UART_WaitOnFlagUntilTimeout(huart, USART_ISR_TEACK, RESET, tickstart, HAL_UART_TIMEOUT_VALUE) != HAL_OK)
 8006d88:	2080      	movs	r0, #128	@ 0x80
 8006d8a:	9900      	ldr	r1, [sp, #0]
 8006d8c:	0380      	lsls	r0, r0, #14
 8006d8e:	f7f9 ff97 	bl	8000cc0 <UART_WaitOnFlagUntilTimeout.constprop.0>
 8006d92:	42a8      	cmp	r0, r5
 8006d94:	d01a      	beq.n	8006dcc <main+0x618>
  __ASM volatile ("MRS %0, primask" : "=r" (result) :: "memory");
 8006d96:	f3ef 8110 	mrs	r1, PRIMASK
  __ASM volatile ("MSR primask, %0" : : "r" (priMask) : "memory");
 8006d9a:	2301      	movs	r3, #1
 8006d9c:	f383 8810 	msr	PRIMASK, r3
      ATOMIC_CLEAR_BIT(huart->Instance->CR1, (USART_CR1_TXEIE));
 8006da0:	2080      	movs	r0, #128	@ 0x80
 8006da2:	6822      	ldr	r2, [r4, #0]
 8006da4:	6813      	ldr	r3, [r2, #0]
 8006da6:	4383      	bics	r3, r0
 8006da8:	6013      	str	r3, [r2, #0]
 8006daa:	f381 8810 	msr	PRIMASK, r1
      huart->gState = HAL_UART_STATE_READY;
 8006dae:	2320      	movs	r3, #32
      __HAL_UNLOCK(huart);
 8006db0:	3478      	adds	r4, #120	@ 0x78
      huart->gState = HAL_UART_STATE_READY;
 8006db2:	6063      	str	r3, [r4, #4]
      __HAL_UNLOCK(huart);
 8006db4:	7025      	strb	r5, [r4, #0]
  __ASM volatile ("cpsid i" : : : "memory");
 8006db6:	b672      	cpsid	i
  while (1)
 8006db8:	e7fe      	b.n	8006db8 <main+0x604>
        pclk = HAL_RCC_GetSysClockFreq();
 8006dba:	f7f9 fe0d 	bl	80009d8 <HAL_RCC_GetSysClockFreq>
        break;
 8006dbe:	e7c7      	b.n	8006d50 <main+0x59c>
    switch (clocksource)
 8006dc0:	2080      	movs	r0, #128	@ 0x80
 8006dc2:	0200      	lsls	r0, r0, #8
 8006dc4:	e7af      	b.n	8006d26 <main+0x572>
        ret = HAL_ERROR;
 8006dc6:	2301      	movs	r3, #1
 8006dc8:	9300      	str	r3, [sp, #0]
 8006dca:	e7c3      	b.n	8006d54 <main+0x5a0>
  if ((huart->Instance->CR1 & USART_CR1_RE) == USART_CR1_RE)
 8006dcc:	6823      	ldr	r3, [r4, #0]
 8006dce:	681b      	ldr	r3, [r3, #0]
 8006dd0:	075b      	lsls	r3, r3, #29
 8006dd2:	d523      	bpl.n	8006e1c <main+0x668>
    if (UART_WaitOnFlagUntilTimeout(huart, USART_ISR_REACK, RESET, tickstart, HAL_UART_TIMEOUT_VALUE) != HAL_OK)
 8006dd4:	2080      	movs	r0, #128	@ 0x80
 8006dd6:	9900      	ldr	r1, [sp, #0]
 8006dd8:	03c0      	lsls	r0, r0, #15
 8006dda:	f7f9 ff71 	bl	8000cc0 <UART_WaitOnFlagUntilTimeout.constprop.0>
 8006dde:	2800      	cmp	r0, #0
 8006de0:	d01c      	beq.n	8006e1c <main+0x668>
  __ASM volatile ("MRS %0, primask" : "=r" (result) :: "memory");
 8006de2:	f3ef 8010 	mrs	r0, PRIMASK
  __ASM volatile ("MSR primask, %0" : : "r" (priMask) : "memory");
 8006de6:	2101      	movs	r1, #1
 8006de8:	f381 8810 	msr	PRIMASK, r1
      ATOMIC_CLEAR_BIT(huart->Instance->CR1, (USART_CR1_RXNEIE | USART_CR1_PEIE));
 8006dec:	6822      	ldr	r2, [r4, #0]
 8006dee:	4d5e      	ldr	r5, [pc, #376]	@ (8006f68 <main+0x7b4>)
 8006df0:	6813      	ldr	r3, [r2, #0]
 8006df2:	402b      	ands	r3, r5
 8006df4:	6013      	str	r3, [r2, #0]
 8006df6:	f380 8810 	msr	PRIMASK, r0
  __ASM volatile ("MRS %0, primask" : "=r" (result) :: "memory");
 8006dfa:	f3ef 8510 	mrs	r5, PRIMASK
  __ASM volatile ("MSR primask, %0" : : "r" (priMask) : "memory");
 8006dfe:	f381 8810 	msr	PRIMASK, r1
      ATOMIC_CLEAR_BIT(huart->Instance->CR3, USART_CR3_EIE);
 8006e02:	0023      	movs	r3, r4
 8006e04:	cb01      	ldmia	r3!, {r0}
 8006e06:	6882      	ldr	r2, [r0, #8]
 8006e08:	438a      	bics	r2, r1
 8006e0a:	6082      	str	r2, [r0, #8]
 8006e0c:	f385 8810 	msr	PRIMASK, r5
      huart->RxState = HAL_UART_STATE_READY;
 8006e10:	2220      	movs	r2, #32
 8006e12:	67da      	str	r2, [r3, #124]	@ 0x7c
      __HAL_UNLOCK(huart);
 8006e14:	2300      	movs	r3, #0
 8006e16:	3478      	adds	r4, #120	@ 0x78
 8006e18:	7023      	strb	r3, [r4, #0]
 8006e1a:	e7cc      	b.n	8006db6 <main+0x602>
  huart->gState = HAL_UART_STATE_READY;
 8006e1c:	2320      	movs	r3, #32
  huart->RxState = HAL_UART_STATE_READY;
 8006e1e:	1d3a      	adds	r2, r7, #4
  huart->ReceptionType = HAL_UART_RECEPTION_STANDARD;
 8006e20:	2600      	movs	r6, #0
  huart->gState = HAL_UART_STATE_READY;
 8006e22:	67fb      	str	r3, [r7, #124]	@ 0x7c
  huart->RxState = HAL_UART_STATE_READY;
 8006e24:	67d3      	str	r3, [r2, #124]	@ 0x7c
  __HAL_UNLOCK(huart);
 8006e26:	003b      	movs	r3, r7
  TIM_SlaveConfigTypeDef sSlaveConfig = {0};
 8006e28:	2214      	movs	r2, #20
 8006e2a:	3378      	adds	r3, #120	@ 0x78
 8006e2c:	0031      	movs	r1, r6
 8006e2e:	a80f      	add	r0, sp, #60	@ 0x3c
 8006e30:	701e      	strb	r6, [r3, #0]
  huart->ReceptionType = HAL_UART_RECEPTION_STANDARD;
 8006e32:	663e      	str	r6, [r7, #96]	@ 0x60
  huart->RxEventType = HAL_UART_RXEVENT_TC;
 8006e34:	667e      	str	r6, [r7, #100]	@ 0x64
 8006e36:	f000 fa2c 	bl	8007292 <memset>
  TIM_MasterConfigTypeDef sMasterConfig = {0};
 8006e3a:	2208      	movs	r2, #8
 8006e3c:	0031      	movs	r1, r6
 8006e3e:	a80c      	add	r0, sp, #48	@ 0x30
 8006e40:	f000 fa27 	bl	8007292 <memset>
  htim1.Init.Prescaler = 47;
 8006e44:	232f      	movs	r3, #47	@ 0x2f
  htim1.Instance = TIM1;
 8006e46:	4c49      	ldr	r4, [pc, #292]	@ (8006f6c <main+0x7b8>)
 8006e48:	4d49      	ldr	r5, [pc, #292]	@ (8006f70 <main+0x7bc>)
  htim1.Init.Prescaler = 47;
 8006e4a:	6323      	str	r3, [r4, #48]	@ 0x30
  htim1.Init.Period = 999;
 8006e4c:	4b49      	ldr	r3, [pc, #292]	@ (8006f74 <main+0x7c0>)
  if (htim->State == HAL_TIM_STATE_RESET)
 8006e4e:	0020      	movs	r0, r4
 8006e50:	63a3      	str	r3, [r4, #56]	@ 0x38
 8006e52:	0023      	movs	r3, r4
  htim1.Instance = TIM1;
 8006e54:	62e5      	str	r5, [r4, #44]	@ 0x2c
  htim1.Init.CounterMode = TIM_COUNTERMODE_UP;
 8006e56:	6366      	str	r6, [r4, #52]	@ 0x34
  htim1.Init.ClockDivision = TIM_CLOCKDIVISION_DIV1;
 8006e58:	63e6      	str	r6, [r4, #60]	@ 0x3c
  htim1.Init.RepetitionCounter = 0;
 8006e5a:	6426      	str	r6, [r4, #64]	@ 0x40
  htim1.Init.AutoReloadPreload = TIM_AUTORELOAD_PRELOAD_DISABLE;
 8006e5c:	6466      	str	r6, [r4, #68]	@ 0x44
 8006e5e:	3369      	adds	r3, #105	@ 0x69
 8006e60:	781b      	ldrb	r3, [r3, #0]
 8006e62:	302c      	adds	r0, #44	@ 0x2c
 8006e64:	b2da      	uxtb	r2, r3
 8006e66:	42b3      	cmp	r3, r6
 8006e68:	d104      	bne.n	8006e74 <main+0x6c0>
    htim->Lock = HAL_UNLOCKED;
 8006e6a:	0023      	movs	r3, r4
 8006e6c:	3368      	adds	r3, #104	@ 0x68
 8006e6e:	701a      	strb	r2, [r3, #0]
    HAL_TIM_Base_MspInit(htim);
 8006e70:	f7f9 fa1e 	bl	80002b0 <HAL_TIM_Base_MspInit>
  htim->State = HAL_TIM_STATE_BUSY;
 8006e74:	0026      	movs	r6, r4
  TIM_Base_SetConfig(htim->Instance, &htim->Init);
 8006e76:	0021      	movs	r1, r4
  htim->State = HAL_TIM_STATE_BUSY;
 8006e78:	2302      	movs	r3, #2
 8006e7a:	3669      	adds	r6, #105	@ 0x69
  TIM_Base_SetConfig(htim->Instance, &htim->Init);
 8006e7c:	483c      	ldr	r0, [pc, #240]	@ (8006f70 <main+0x7bc>)
 8006e7e:	3130      	adds	r1, #48	@ 0x30
  htim->State = HAL_TIM_STATE_BUSY;
 8006e80:	7033      	strb	r3, [r6, #0]
  TIM_Base_SetConfig(htim->Instance, &htim->Init);
 8006e82:	f7f9 fe6f 	bl	8000b64 <TIM_Base_SetConfig>
  htim->DMABurstState = HAL_DMA_BURST_STATE_READY;
 8006e86:	0022      	movs	r2, r4
 8006e88:	2301      	movs	r3, #1
 8006e8a:	3272      	adds	r2, #114	@ 0x72
 8006e8c:	7013      	strb	r3, [r2, #0]
  TIM_CHANNEL_STATE_SET_ALL(htim, HAL_TIM_CHANNEL_STATE_READY);
 8006e8e:	0022      	movs	r2, r4
 8006e90:	326a      	adds	r2, #106	@ 0x6a
 8006e92:	7013      	strb	r3, [r2, #0]
 8006e94:	0022      	movs	r2, r4
 8006e96:	326b      	adds	r2, #107	@ 0x6b
 8006e98:	7013      	strb	r3, [r2, #0]
 8006e9a:	0022      	movs	r2, r4
 8006e9c:	326c      	adds	r2, #108	@ 0x6c
 8006e9e:	7013      	strb	r3, [r2, #0]
 8006ea0:	0022      	movs	r2, r4
 8006ea2:	326d      	adds	r2, #109	@ 0x6d
 8006ea4:	7013      	strb	r3, [r2, #0]
  TIM_CHANNEL_N_STATE_SET_ALL(htim, HAL_TIM_CHANNEL_STATE_READY);
 8006ea6:	0022      	movs	r2, r4
 8006ea8:	326e      	adds	r2, #110	@ 0x6e
 8006eaa:	7013      	strb	r3, [r2, #0]
 8006eac:	0022      	movs	r2, r4
 8006eae:	326f      	adds	r2, #111	@ 0x6f
 8006eb0:	7013      	strb	r3, [r2, #0]
 8006eb2:	0022      	movs	r2, r4
 8006eb4:	3270      	adds	r2, #112	@ 0x70
 8006eb6:	7013      	strb	r3, [r2, #0]
 8006eb8:	0022      	movs	r2, r4
 8006eba:	3271      	adds	r2, #113	@ 0x71
 8006ebc:	7013      	strb	r3, [r2, #0]
  htim->State = HAL_TIM_STATE_READY;
 8006ebe:	7033      	strb	r3, [r6, #0]
  if (htim->State == HAL_TIM_STATE_RESET)
 8006ec0:	7833      	ldrb	r3, [r6, #0]
 8006ec2:	b2da      	uxtb	r2, r3
 8006ec4:	2b00      	cmp	r3, #0
 8006ec6:	d102      	bne.n	8006ece <main+0x71a>
    htim->Lock = HAL_UNLOCKED;
 8006ec8:	0023      	movs	r3, r4
 8006eca:	3368      	adds	r3, #104	@ 0x68
 8006ecc:	701a      	strb	r2, [r3, #0]
  htim->State = HAL_TIM_STATE_BUSY;
 8006ece:	0026      	movs	r6, r4
  TIM_Base_SetConfig(htim->Instance, &htim->Init);
 8006ed0:	0021      	movs	r1, r4
  htim->State = HAL_TIM_STATE_BUSY;
 8006ed2:	2302      	movs	r3, #2
  TIM_Base_SetConfig(htim->Instance, &htim->Init);
 8006ed4:	4826      	ldr	r0, [pc, #152]	@ (8006f70 <main+0x7bc>)
  htim->State = HAL_TIM_STATE_BUSY;
 8006ed6:	3669      	adds	r6, #105	@ 0x69
  TIM_Base_SetConfig(htim->Instance, &htim->Init);
 8006ed8:	3130      	adds	r1, #48	@ 0x30
  htim->State = HAL_TIM_STATE_BUSY;
 8006eda:	7033      	strb	r3, [r6, #0]
  TIM_Base_SetConfig(htim->Instance, &htim->Init);
 8006edc:	f7f9 fe42 	bl	8000b64 <TIM_Base_SetConfig>
  htim->DMABurstState = HAL_DMA_BURST_STATE_READY;
 8006ee0:	0023      	movs	r3, r4
 8006ee2:	2701      	movs	r7, #1
 8006ee4:	3372      	adds	r3, #114	@ 0x72
 8006ee6:	701f      	strb	r7, [r3, #0]
  TIM_CHANNEL_STATE_SET_ALL(htim, HAL_TIM_CHANNEL_STATE_READY);
 8006ee8:	0023      	movs	r3, r4
 8006eea:	336a      	adds	r3, #106	@ 0x6a
 8006eec:	701f      	strb	r7, [r3, #0]
 8006eee:	0023      	movs	r3, r4
 8006ef0:	336b      	adds	r3, #107	@ 0x6b
 8006ef2:	701f      	strb	r7, [r3, #0]
 8006ef4:	0023      	movs	r3, r4
 8006ef6:	336c      	adds	r3, #108	@ 0x6c
 8006ef8:	701f      	strb	r7, [r3, #0]
 8006efa:	0023      	movs	r3, r4
 8006efc:	336d      	adds	r3, #109	@ 0x6d
 8006efe:	701f      	strb	r7, [r3, #0]
  TIM_CHANNEL_N_STATE_SET_ALL(htim, HAL_TIM_CHANNEL_STATE_READY);
 8006f00:	0023      	movs	r3, r4
 8006f02:	336e      	adds	r3, #110	@ 0x6e
 8006f04:	701f      	strb	r7, [r3, #0]
 8006f06:	0023      	movs	r3, r4
 8006f08:	336f      	adds	r3, #111	@ 0x6f
 8006f0a:	701f      	strb	r7, [r3, #0]
 8006f0c:	0023      	movs	r3, r4
 8006f0e:	3370      	adds	r3, #112	@ 0x70
 8006f10:	701f      	strb	r7, [r3, #0]
 8006f12:	0023      	movs	r3, r4
 8006f14:	3371      	adds	r3, #113	@ 0x71
 8006f16:	701f      	strb	r7, [r3, #0]
  sSlaveConfig.SlaveMode = TIM_SLAVEMODE_EXTERNAL1;
 8006f18:	2307      	movs	r3, #7
  if (HAL_TIM_SlaveConfigSynchro(&htim1, &sSlaveConfig) != HAL_OK)
 8006f1a:	4817      	ldr	r0, [pc, #92]	@ (8006f78 <main+0x7c4>)
 8006f1c:	a90f      	add	r1, sp, #60	@ 0x3c
  htim->State = HAL_TIM_STATE_READY;
 8006f1e:	7037      	strb	r7, [r6, #0]
  sSlaveConfig.SlaveMode = TIM_SLAVEMODE_EXTERNAL1;
 8006f20:	930f      	str	r3, [sp, #60]	@ 0x3c
  if (HAL_TIM_SlaveConfigSynchro(&htim1, &sSlaveConfig) != HAL_OK)
 8006f22:	f7f9 fd7d 	bl	8000a20 <HAL_TIM_SlaveConfigSynchro>
 8006f26:	2800      	cmp	r0, #0
 8006f28:	d001      	beq.n	8006f2e <main+0x77a>
  __ASM volatile ("cpsid i" : : : "memory");
 8006f2a:	b672      	cpsid	i
  while (1)
 8006f2c:	e7fe      	b.n	8006f2c <main+0x778>
  if (HAL_TIMEx_MasterConfigSynchronization(&htim1, &sMasterConfig) != HAL_OK)
 8006f2e:	4812      	ldr	r0, [pc, #72]	@ (8006f78 <main+0x7c4>)
 8006f30:	a90c      	add	r1, sp, #48	@ 0x30
 8006f32:	f7f9 fe6f 	bl	8000c14 <HAL_TIMEx_MasterConfigSynchronization.constprop.0>
 8006f36:	1e06      	subs	r6, r0, #0
 8006f38:	d020      	beq.n	8006f7c <main+0x7c8>
 8006f3a:	b672      	cpsid	i
  while (1)
 8006f3c:	e7fe      	b.n	8006f3c <main+0x788>
 8006f3e:	46c0      	nop			@ (mov r8, r8)
 8006f40:	200004b4 	.word	0x200004b4
 8006f44:	40013800 	.word	0x40013800
 8006f48:	ffff69f3 	.word	0xffff69f3
 8006f4c:	ffffcfff 	.word	0xffffcfff
 8006f50:	fffff4ff 	.word	0xfffff4ff
 8006f54:	080073c8 	.word	0x080073c8
 8006f58:	007a1200 	.word	0x007a1200
 8006f5c:	0000ffef 	.word	0x0000ffef
 8006f60:	fffff7ff 	.word	0xfffff7ff
 8006f64:	20000080 	.word	0x20000080
 8006f68:	fffffedf 	.word	0xfffffedf
 8006f6c:	20000180 	.word	0x20000180
 8006f70:	40012c00 	.word	0x40012c00
 8006f74:	000003e7 	.word	0x000003e7
 8006f78:	200001ac 	.word	0x200001ac
  __HAL_LOCK(htim);
 8006f7c:	0022      	movs	r2, r4
 8006f7e:	3268      	adds	r2, #104	@ 0x68
 8006f80:	7813      	ldrb	r3, [r2, #0]
 8006f82:	2b01      	cmp	r3, #1
 8006f84:	d100      	bne.n	8006f88 <main+0x7d4>
 8006f86:	e099      	b.n	80070bc <main+0x908>
  tmpccer = TIMx->CCER;
 8006f88:	6a2b      	ldr	r3, [r5, #32]
  TIMx->CCER &= ~TIM_CCER_CC1E;
 8006f8a:	6a29      	ldr	r1, [r5, #32]
 8006f8c:	43b9      	bics	r1, r7
 8006f8e:	6229      	str	r1, [r5, #32]
  tmpccmrx &= ~TIM_CCMR1_CC1S;
 8006f90:	2173      	movs	r1, #115	@ 0x73
  tmpcr2 =  TIMx->CR2;
 8006f92:	6868      	ldr	r0, [r5, #4]
  tmpccmrx = TIMx->CCMR1;
 8006f94:	69af      	ldr	r7, [r5, #24]
  tmpccmrx &= ~TIM_CCMR1_CC1S;
 8006f96:	438f      	bics	r7, r1
  tmpccmrx |= OC_Config->OCMode;
 8006f98:	3913      	subs	r1, #19
 8006f9a:	4339      	orrs	r1, r7
    tmpccer &= ~TIM_CCER_CC1NE;
 8006f9c:	270e      	movs	r7, #14
 8006f9e:	43bb      	bics	r3, r7
    tmpcr2 &= ~TIM_CR2_OIS1N;
 8006fa0:	4f8e      	ldr	r7, [pc, #568]	@ (80071dc <main+0xa28>)
 8006fa2:	4038      	ands	r0, r7
      htim->Instance->CCMR1 |= TIM_CCMR1_OC1PE;
 8006fa4:	2708      	movs	r7, #8
  TIMx->CR2 = tmpcr2;
 8006fa6:	6068      	str	r0, [r5, #4]
  TIMx->CCMR1 = tmpccmrx;
 8006fa8:	61a9      	str	r1, [r5, #24]
      htim->Instance->CCMR1 &= ~TIM_CCMR1_OC1FE;
 8006faa:	2104      	movs	r1, #4
  TIMx->CCR1 = OC_Config->Pulse;
 8006fac:	636e      	str	r6, [r5, #52]	@ 0x34
  TIMx->CCER = tmpccer;
 8006fae:	622b      	str	r3, [r5, #32]
      htim->Instance->CCMR1 |= TIM_CCMR1_OC1PE;
 8006fb0:	69ab      	ldr	r3, [r5, #24]
  HAL_TIM_MspPostInit(&htim1);
 8006fb2:	488b      	ldr	r0, [pc, #556]	@ (80071e0 <main+0xa2c>)
 8006fb4:	433b      	orrs	r3, r7
 8006fb6:	61ab      	str	r3, [r5, #24]
      htim->Instance->CCMR1 &= ~TIM_CCMR1_OC1FE;
 8006fb8:	69ab      	ldr	r3, [r5, #24]
 8006fba:	438b      	bics	r3, r1
 8006fbc:	61ab      	str	r3, [r5, #24]
      htim->Instance->CCMR1 |= sConfig->OCFastMode;
 8006fbe:	69ab      	ldr	r3, [r5, #24]
 8006fc0:	61ab      	str	r3, [r5, #24]
  MODIFY_REG(tmpbdtr, TIM_BDTR_BKP, sBreakDeadTimeConfig->BreakPolarity);
  MODIFY_REG(tmpbdtr, TIM_BDTR_AOE, sBreakDeadTimeConfig->AutomaticOutput);


  /* Set TIMx_BDTR */
  htim->Instance->BDTR = tmpbdtr;
 8006fc2:	2380      	movs	r3, #128	@ 0x80
 8006fc4:	019b      	lsls	r3, r3, #6
  __HAL_UNLOCK(htim);
 8006fc6:	7016      	strb	r6, [r2, #0]
 8006fc8:	646b      	str	r3, [r5, #68]	@ 0x44
 8006fca:	f7f9 fc0d 	bl	80007e8 <HAL_TIM_MspPostInit>
  TIM_SlaveConfigTypeDef sSlaveConfig = {0};
 8006fce:	2214      	movs	r2, #20
 8006fd0:	0031      	movs	r1, r6
 8006fd2:	a80f      	add	r0, sp, #60	@ 0x3c
 8006fd4:	f000 f95d 	bl	8007292 <memset>
  TIM_MasterConfigTypeDef sMasterConfig = {0};
 8006fd8:	003a      	movs	r2, r7
 8006fda:	0031      	movs	r1, r6
 8006fdc:	a80c      	add	r0, sp, #48	@ 0x30
 8006fde:	f000 f958 	bl	8007292 <memset>
  htim3.Init.Period = 999;
 8006fe2:	4a80      	ldr	r2, [pc, #512]	@ (80071e4 <main+0xa30>)
 8006fe4:	1d23      	adds	r3, r4, #4
 8006fe6:	67da      	str	r2, [r3, #124]	@ 0x7c
  htim3.Init.ClockDivision = TIM_CLOCKDIVISION_DIV1;
 8006fe8:	19e3      	adds	r3, r4, r7
 8006fea:	67de      	str	r6, [r3, #124]	@ 0x7c
  htim3.Init.AutoReloadPreload = TIM_AUTORELOAD_PRELOAD_DISABLE;
 8006fec:	0023      	movs	r3, r4
 8006fee:	338c      	adds	r3, #140	@ 0x8c
 8006ff0:	601e      	str	r6, [r3, #0]
  if (htim->State == HAL_TIM_STATE_RESET)
 8006ff2:	0023      	movs	r3, r4
 8006ff4:	0020      	movs	r0, r4
  htim3.Instance = TIM3;
 8006ff6:	4d7c      	ldr	r5, [pc, #496]	@ (80071e8 <main+0xa34>)
  htim3.Init.Prescaler = 0;
 8006ff8:	67a6      	str	r6, [r4, #120]	@ 0x78
  htim3.Instance = TIM3;
 8006ffa:	6765      	str	r5, [r4, #116]	@ 0x74
  htim3.Init.CounterMode = TIM_COUNTERMODE_UP;
 8006ffc:	67e6      	str	r6, [r4, #124]	@ 0x7c
 8006ffe:	33b1      	adds	r3, #177	@ 0xb1
 8007000:	781b      	ldrb	r3, [r3, #0]
 8007002:	3074      	adds	r0, #116	@ 0x74
 8007004:	b2da      	uxtb	r2, r3
 8007006:	2b00      	cmp	r3, #0
 8007008:	d103      	bne.n	8007012 <main+0x85e>
    htim->Lock = HAL_UNLOCKED;
 800700a:	34b0      	adds	r4, #176	@ 0xb0
 800700c:	7022      	strb	r2, [r4, #0]
    HAL_TIM_Base_MspInit(htim);
 800700e:	f7f9 f94f 	bl	80002b0 <HAL_TIM_Base_MspInit>
  htim->State = HAL_TIM_STATE_BUSY;
 8007012:	4e76      	ldr	r6, [pc, #472]	@ (80071ec <main+0xa38>)
 8007014:	2102      	movs	r1, #2
 8007016:	0037      	movs	r7, r6
  htim->DMABurstState = HAL_DMA_BURST_STATE_READY;
 8007018:	2401      	movs	r4, #1
  htim->State = HAL_TIM_STATE_BUSY;
 800701a:	4b75      	ldr	r3, [pc, #468]	@ (80071f0 <main+0xa3c>)
 800701c:	37b1      	adds	r7, #177	@ 0xb1
 800701e:	7039      	strb	r1, [r7, #0]
  TIM_Base_SetConfig(htim->Instance, &htim->Init);
 8007020:	4871      	ldr	r0, [pc, #452]	@ (80071e8 <main+0xa34>)
 8007022:	4974      	ldr	r1, [pc, #464]	@ (80071f4 <main+0xa40>)
  htim->State = HAL_TIM_STATE_BUSY;
 8007024:	9300      	str	r3, [sp, #0]
  TIM_Base_SetConfig(htim->Instance, &htim->Init);
 8007026:	f7f9 fd9d 	bl	8000b64 <TIM_Base_SetConfig>
  htim->DMABurstState = HAL_DMA_BURST_STATE_READY;
 800702a:	4b73      	ldr	r3, [pc, #460]	@ (80071f8 <main+0xa44>)
  __HAL_LOCK(htim);
 800702c:	36b0      	adds	r6, #176	@ 0xb0
  htim->DMABurstState = HAL_DMA_BURST_STATE_READY;
 800702e:	701c      	strb	r4, [r3, #0]
  TIM_CHANNEL_STATE_SET_ALL(htim, HAL_TIM_CHANNEL_STATE_READY);
 8007030:	4b72      	ldr	r3, [pc, #456]	@ (80071fc <main+0xa48>)
 8007032:	701c      	strb	r4, [r3, #0]
 8007034:	4b72      	ldr	r3, [pc, #456]	@ (8007200 <main+0xa4c>)
 8007036:	701c      	strb	r4, [r3, #0]
 8007038:	4b72      	ldr	r3, [pc, #456]	@ (8007204 <main+0xa50>)
 800703a:	701c      	strb	r4, [r3, #0]
 800703c:	4b72      	ldr	r3, [pc, #456]	@ (8007208 <main+0xa54>)
 800703e:	701c      	strb	r4, [r3, #0]
  TIM_CHANNEL_N_STATE_SET_ALL(htim, HAL_TIM_CHANNEL_STATE_READY);
 8007040:	4b72      	ldr	r3, [pc, #456]	@ (800720c <main+0xa58>)
 8007042:	701c      	strb	r4, [r3, #0]
 8007044:	4b72      	ldr	r3, [pc, #456]	@ (8007210 <main+0xa5c>)
 8007046:	701c      	strb	r4, [r3, #0]
 8007048:	4b72      	ldr	r3, [pc, #456]	@ (8007214 <main+0xa60>)
 800704a:	701c      	strb	r4, [r3, #0]
 800704c:	4b72      	ldr	r3, [pc, #456]	@ (8007218 <main+0xa64>)
 800704e:	701c      	strb	r4, [r3, #0]
  htim->State = HAL_TIM_STATE_READY;
 8007050:	703c      	strb	r4, [r7, #0]
  __HAL_LOCK(htim);
 8007052:	7833      	ldrb	r3, [r6, #0]
 8007054:	42a3      	cmp	r3, r4
 8007056:	d033      	beq.n	80070c0 <main+0x90c>
  htim->State = HAL_TIM_STATE_BUSY;
 8007058:	2102      	movs	r1, #2
 800705a:	7039      	strb	r1, [r7, #0]
  tmpsmcr = htim->Instance->SMCR;
 800705c:	68ab      	ldr	r3, [r5, #8]
  tmpsmcr &= ~(TIM_SMCR_ETF | TIM_SMCR_ETPS | TIM_SMCR_ECE | TIM_SMCR_ETP);
 800705e:	4a6f      	ldr	r2, [pc, #444]	@ (800721c <main+0xa68>)
  TIM_Base_SetConfig(htim->Instance, &htim->Init);
 8007060:	4861      	ldr	r0, [pc, #388]	@ (80071e8 <main+0xa34>)
  tmpsmcr &= ~(TIM_SMCR_ETF | TIM_SMCR_ETPS | TIM_SMCR_ECE | TIM_SMCR_ETP);
 8007062:	4013      	ands	r3, r2
  htim->Instance->SMCR = tmpsmcr;
 8007064:	60ab      	str	r3, [r5, #8]
  __HAL_UNLOCK(htim);
 8007066:	2300      	movs	r3, #0
  htim->State = HAL_TIM_STATE_READY;
 8007068:	703c      	strb	r4, [r7, #0]
  __HAL_UNLOCK(htim);
 800706a:	7033      	strb	r3, [r6, #0]
  if (htim->State == HAL_TIM_STATE_RESET)
 800706c:	783b      	ldrb	r3, [r7, #0]
  htim->State = HAL_TIM_STATE_BUSY;
 800706e:	7039      	strb	r1, [r7, #0]
  TIM_Base_SetConfig(htim->Instance, &htim->Init);
 8007070:	4960      	ldr	r1, [pc, #384]	@ (80071f4 <main+0xa40>)
 8007072:	f7f9 fd77 	bl	8000b64 <TIM_Base_SetConfig>
  htim->DMABurstState = HAL_DMA_BURST_STATE_READY;
 8007076:	4b60      	ldr	r3, [pc, #384]	@ (80071f8 <main+0xa44>)
  if (HAL_TIM_SlaveConfigSynchro(&htim3, &sSlaveConfig) != HAL_OK)
 8007078:	9800      	ldr	r0, [sp, #0]
 800707a:	701c      	strb	r4, [r3, #0]
  TIM_CHANNEL_STATE_SET_ALL(htim, HAL_TIM_CHANNEL_STATE_READY);
 800707c:	4b5f      	ldr	r3, [pc, #380]	@ (80071fc <main+0xa48>)
 800707e:	a90f      	add	r1, sp, #60	@ 0x3c
 8007080:	701c      	strb	r4, [r3, #0]
 8007082:	4b5f      	ldr	r3, [pc, #380]	@ (8007200 <main+0xa4c>)
 8007084:	701c      	strb	r4, [r3, #0]
 8007086:	4b5f      	ldr	r3, [pc, #380]	@ (8007204 <main+0xa50>)
 8007088:	701c      	strb	r4, [r3, #0]
 800708a:	4b5f      	ldr	r3, [pc, #380]	@ (8007208 <main+0xa54>)
 800708c:	701c      	strb	r4, [r3, #0]
  TIM_CHANNEL_N_STATE_SET_ALL(htim, HAL_TIM_CHANNEL_STATE_READY);
 800708e:	4b5f      	ldr	r3, [pc, #380]	@ (800720c <main+0xa58>)
 8007090:	701c      	strb	r4, [r3, #0]
 8007092:	4b5f      	ldr	r3, [pc, #380]	@ (8007210 <main+0xa5c>)
 8007094:	701c      	strb	r4, [r3, #0]
 8007096:	4b5f      	ldr	r3, [pc, #380]	@ (8007214 <main+0xa60>)
 8007098:	701c      	strb	r4, [r3, #0]
 800709a:	4b5f      	ldr	r3, [pc, #380]	@ (8007218 <main+0xa64>)
 800709c:	701c      	strb	r4, [r3, #0]
  htim->State = HAL_TIM_STATE_READY;
 800709e:	703c      	strb	r4, [r7, #0]
  sSlaveConfig.InputTrigger = TIM_TS_ITR2;
 80070a0:	2720      	movs	r7, #32
 80070a2:	9710      	str	r7, [sp, #64]	@ 0x40
  if (HAL_TIM_SlaveConfigSynchro(&htim3, &sSlaveConfig) != HAL_OK)
 80070a4:	f7f9 fcbc 	bl	8000a20 <HAL_TIM_SlaveConfigSynchro>
 80070a8:	2800      	cmp	r0, #0
 80070aa:	d10b      	bne.n	80070c4 <main+0x910>
  if (HAL_TIMEx_MasterConfigSynchronization(&htim3, &sMasterConfig) != HAL_OK)
 80070ac:	9800      	ldr	r0, [sp, #0]
 80070ae:	a90c      	add	r1, sp, #48	@ 0x30
 80070b0:	f7f9 fdb0 	bl	8000c14 <HAL_TIMEx_MasterConfigSynchronization.constprop.0>
 80070b4:	2800      	cmp	r0, #0
 80070b6:	d007      	beq.n	80070c8 <main+0x914>
 80070b8:	b672      	cpsid	i
  while (1)
 80070ba:	e7fe      	b.n	80070ba <main+0x906>
 80070bc:	b672      	cpsid	i
 80070be:	e7fe      	b.n	80070be <main+0x90a>
 80070c0:	b672      	cpsid	i
 80070c2:	e7fe      	b.n	80070c2 <main+0x90e>
 80070c4:	b672      	cpsid	i
 80070c6:	e7fe      	b.n	80070c6 <main+0x912>
  __HAL_LOCK(htim);
 80070c8:	7833      	ldrb	r3, [r6, #0]
 80070ca:	2b01      	cmp	r3, #1
 80070cc:	d046      	beq.n	800715c <main+0x9a8>
  TIMx->CCER &= ~TIM_CCER_CC2E;
 80070ce:	2110      	movs	r1, #16
  tmpccer = TIMx->CCER;
 80070d0:	6a2b      	ldr	r3, [r5, #32]
  TIMx->CCER &= ~TIM_CCER_CC2E;
 80070d2:	6a2a      	ldr	r2, [r5, #32]
  tmpccer = TIMx->CCER;
 80070d4:	9301      	str	r3, [sp, #4]
  TIMx->CCER &= ~TIM_CCER_CC2E;
 80070d6:	438a      	bics	r2, r1
 80070d8:	622a      	str	r2, [r5, #32]
  tmpcr2 =  TIMx->CR2;
 80070da:	6869      	ldr	r1, [r5, #4]
  tmpccmrx &= ~TIM_CCMR1_CC2S;
 80070dc:	4b50      	ldr	r3, [pc, #320]	@ (8007220 <main+0xa6c>)
  tmpccmrx = TIMx->CCMR1;
 80070de:	69aa      	ldr	r2, [r5, #24]
  tmpccmrx &= ~TIM_CCMR1_CC2S;
 80070e0:	4013      	ands	r3, r2
  tmpccmrx |= (OC_Config->OCMode << 8U);
 80070e2:	22c0      	movs	r2, #192	@ 0xc0
 80070e4:	01d2      	lsls	r2, r2, #7
 80070e6:	431a      	orrs	r2, r3
  tmpccer &= ~TIM_CCER_CC2P;
 80070e8:	9b01      	ldr	r3, [sp, #4]
  TIMx->CR2 = tmpcr2;
 80070ea:	6069      	str	r1, [r5, #4]
  tmpccer &= ~TIM_CCER_CC2P;
 80070ec:	43bb      	bics	r3, r7
  TIMx->CCMR1 = tmpccmrx;
 80070ee:	61aa      	str	r2, [r5, #24]
  TIMx->CCR2 = OC_Config->Pulse;
 80070f0:	63a8      	str	r0, [r5, #56]	@ 0x38
  TIMx->CCER = tmpccer;
 80070f2:	622b      	str	r3, [r5, #32]
      htim->Instance->CCMR1 |= TIM_CCMR1_OC2PE;
 80070f4:	2380      	movs	r3, #128	@ 0x80
 80070f6:	69aa      	ldr	r2, [r5, #24]
 80070f8:	011b      	lsls	r3, r3, #4
 80070fa:	4313      	orrs	r3, r2
 80070fc:	61ab      	str	r3, [r5, #24]
      htim->Instance->CCMR1 &= ~TIM_CCMR1_OC2FE;
 80070fe:	69ab      	ldr	r3, [r5, #24]
 8007100:	4a48      	ldr	r2, [pc, #288]	@ (8007224 <main+0xa70>)
  TIMx->CCER &= ~TIM_CCER_CC3E;
 8007102:	4949      	ldr	r1, [pc, #292]	@ (8007228 <main+0xa74>)
      htim->Instance->CCMR1 &= ~TIM_CCMR1_OC2FE;
 8007104:	4013      	ands	r3, r2
 8007106:	61ab      	str	r3, [r5, #24]
      htim->Instance->CCMR1 |= sConfig->OCFastMode << 8U;
 8007108:	69ab      	ldr	r3, [r5, #24]
 800710a:	61ab      	str	r3, [r5, #24]
  tmpccer = TIMx->CCER;
 800710c:	6a2b      	ldr	r3, [r5, #32]
  TIMx->CCER &= ~TIM_CCER_CC3E;
 800710e:	6a2a      	ldr	r2, [r5, #32]
 8007110:	400a      	ands	r2, r1
 8007112:	622a      	str	r2, [r5, #32]
  tmpccmrx &= ~TIM_CCMR2_CC3S;
 8007114:	2273      	movs	r2, #115	@ 0x73
  tmpcr2 =  TIMx->CR2;
 8007116:	6869      	ldr	r1, [r5, #4]
  tmpccmrx = TIMx->CCMR2;
 8007118:	69ef      	ldr	r7, [r5, #28]
  TIMx->CR2 = tmpcr2;
 800711a:	6069      	str	r1, [r5, #4]
  tmpccmrx &= ~TIM_CCMR2_CC3S;
 800711c:	4397      	bics	r7, r2
  tmpccmrx |= OC_Config->OCMode;
 800711e:	3a13      	subs	r2, #19
 8007120:	433a      	orrs	r2, r7
  tmpccer &= ~TIM_CCER_CC3P;
 8007122:	4f42      	ldr	r7, [pc, #264]	@ (800722c <main+0xa78>)
  TIMx->CCMR2 = tmpccmrx;
 8007124:	61ea      	str	r2, [r5, #28]
  tmpccer &= ~TIM_CCER_CC3P;
 8007126:	403b      	ands	r3, r7
  TIMx->CCR3 = OC_Config->Pulse;
 8007128:	63e8      	str	r0, [r5, #60]	@ 0x3c
  TIMx->CCER = tmpccer;
 800712a:	622b      	str	r3, [r5, #32]
      htim->Instance->CCMR2 |= TIM_CCMR2_OC3PE;
 800712c:	2308      	movs	r3, #8
 800712e:	69ea      	ldr	r2, [r5, #28]
 8007130:	4313      	orrs	r3, r2
      htim->Instance->CCMR2 &= ~TIM_CCMR2_OC3FE;
 8007132:	2204      	movs	r2, #4
      htim->Instance->CCMR2 |= TIM_CCMR2_OC3PE;
 8007134:	61eb      	str	r3, [r5, #28]
      htim->Instance->CCMR2 &= ~TIM_CCMR2_OC3FE;
 8007136:	69eb      	ldr	r3, [r5, #28]
 8007138:	4393      	bics	r3, r2
 800713a:	61eb      	str	r3, [r5, #28]
      htim->Instance->CCMR2 |= sConfig->OCFastMode;
 800713c:	69eb      	ldr	r3, [r5, #28]
 800713e:	61eb      	str	r3, [r5, #28]
  __HAL_UNLOCK(htim);
 8007140:	7030      	strb	r0, [r6, #0]
  HAL_TIM_MspPostInit(&htim3);
 8007142:	9800      	ldr	r0, [sp, #0]
 8007144:	f7f9 fb50 	bl	80007e8 <HAL_TIM_MspPostInit>
  
  /* Check the parameters */
  assert_param(IS_ADC_ALL_INSTANCE(hadc->Instance));

  /* Process locked */
  __HAL_LOCK(hadc);
 8007148:	4a39      	ldr	r2, [pc, #228]	@ (8007230 <main+0xa7c>)
 800714a:	4b3a      	ldr	r3, [pc, #232]	@ (8007234 <main+0xa80>)
 800714c:	7811      	ldrb	r1, [r2, #0]
 800714e:	2901      	cmp	r1, #1
 8007150:	d106      	bne.n	8007160 <main+0x9ac>
  App_Init(&g_app,
 8007152:	f7fb fda9 	bl	8002ca8 <App_Init.constprop.0>
    App_Run(&g_app);
 8007156:	f7fc f84e 	bl	80031f6 <App_Run.constprop.0>
  while (1)
 800715a:	e7fc      	b.n	8007156 <main+0x9a2>
 800715c:	b672      	cpsid	i
  while (1)
 800715e:	e7fe      	b.n	800715e <main+0x9aa>
  
  /* Calibration prerequisite: ADC must be disabled. */
  if (ADC_IS_ENABLE(hadc) == RESET)
 8007160:	2003      	movs	r0, #3
  __HAL_LOCK(hadc);
 8007162:	7014      	strb	r4, [r2, #0]
  if (ADC_IS_ENABLE(hadc) == RESET)
 8007164:	6bda      	ldr	r2, [r3, #60]	@ 0x3c
 8007166:	6891      	ldr	r1, [r2, #8]
 8007168:	4001      	ands	r1, r0
 800716a:	2901      	cmp	r1, #1
 800716c:	d105      	bne.n	800717a <main+0x9c6>
 800716e:	6810      	ldr	r0, [r2, #0]
 8007170:	4208      	tst	r0, r1
 8007172:	d130      	bne.n	80071d6 <main+0xa22>
 8007174:	68d1      	ldr	r1, [r2, #12]
 8007176:	0409      	lsls	r1, r1, #16
 8007178:	d42d      	bmi.n	80071d6 <main+0xa22>
    /* Note: Specificity of this STM32 series: Calibration factor is           */
    /*       available in data register and also transferred by DMA.           */
    /*       To not insert ADC calibration factor among ADC conversion data   */
    /*       in array variable, DMA transfer must be disabled during          */
    /*       calibration.                                                     */
    backup_setting_adc_dma_transfer = READ_BIT(hadc->Instance->CFGR1, ADC_CFGR1_DMAEN | ADC_CFGR1_DMACFG);
 800717a:	2403      	movs	r4, #3
    ADC_STATE_CLR_SET(hadc->State, 
 800717c:	6f58      	ldr	r0, [r3, #116]	@ 0x74
 800717e:	492e      	ldr	r1, [pc, #184]	@ (8007238 <main+0xa84>)
 8007180:	4008      	ands	r0, r1
 8007182:	3106      	adds	r1, #6
 8007184:	31ff      	adds	r1, #255	@ 0xff
 8007186:	4301      	orrs	r1, r0
 8007188:	6759      	str	r1, [r3, #116]	@ 0x74
    backup_setting_adc_dma_transfer = READ_BIT(hadc->Instance->CFGR1, ADC_CFGR1_DMAEN | ADC_CFGR1_DMACFG);
 800718a:	68d1      	ldr	r1, [r2, #12]
    CLEAR_BIT(hadc->Instance->CFGR1, ADC_CFGR1_DMAEN | ADC_CFGR1_DMACFG);
 800718c:	68d0      	ldr	r0, [r2, #12]
    backup_setting_adc_dma_transfer = READ_BIT(hadc->Instance->CFGR1, ADC_CFGR1_DMAEN | ADC_CFGR1_DMACFG);
 800718e:	4021      	ands	r1, r4
    CLEAR_BIT(hadc->Instance->CFGR1, ADC_CFGR1_DMAEN | ADC_CFGR1_DMACFG);
 8007190:	43a0      	bics	r0, r4
 8007192:	60d0      	str	r0, [r2, #12]

    /* Start ADC calibration */
    hadc->Instance->CR |= ADC_CR_ADCAL;
 8007194:	2080      	movs	r0, #128	@ 0x80
 8007196:	6894      	ldr	r4, [r2, #8]
 8007198:	0600      	lsls	r0, r0, #24
 800719a:	4320      	orrs	r0, r4
 800719c:	4c27      	ldr	r4, [pc, #156]	@ (800723c <main+0xa88>)
 800719e:	6090      	str	r0, [r2, #8]
 80071a0:	6f65      	ldr	r5, [r4, #116]	@ 0x74

    tickstart = HAL_GetTick();  

    /* Wait for calibration completion */
    while(HAL_IS_BIT_SET(hadc->Instance->CR, ADC_CR_ADCAL))
 80071a2:	6890      	ldr	r0, [r2, #8]
 80071a4:	2800      	cmp	r0, #0
 80071a6:	db05      	blt.n	80071b4 <main+0xa00>
        }
      }
    }
    
    /* Restore ADC DMA transfer request after calibration */
    SET_BIT(hadc->Instance->CFGR1, backup_setting_adc_dma_transfer);
 80071a8:	68d0      	ldr	r0, [r2, #12]
 80071aa:	4301      	orrs	r1, r0
 80071ac:	60d1      	str	r1, [r2, #12]

    /* Set ADC state */
    ADC_STATE_CLR_SET(hadc->State,
 80071ae:	6f59      	ldr	r1, [r3, #116]	@ 0x74
 80071b0:	2203      	movs	r2, #3
 80071b2:	e008      	b.n	80071c6 <main+0xa12>
 80071b4:	6f60      	ldr	r0, [r4, #116]	@ 0x74
      if((HAL_GetTick() - tickstart) > ADC_CALIBRATION_TIMEOUT)
 80071b6:	1b40      	subs	r0, r0, r5
 80071b8:	2802      	cmp	r0, #2
 80071ba:	d9f2      	bls.n	80071a2 <main+0x9ee>
        if(HAL_IS_BIT_SET(hadc->Instance->CR, ADC_CR_ADCAL))
 80071bc:	6890      	ldr	r0, [r2, #8]
 80071be:	2800      	cmp	r0, #0
 80071c0:	daef      	bge.n	80071a2 <main+0x9ee>
          ADC_STATE_CLR_SET(hadc->State,
 80071c2:	2212      	movs	r2, #18
 80071c4:	6f59      	ldr	r1, [r3, #116]	@ 0x74
    ADC_STATE_CLR_SET(hadc->State,
 80071c6:	4391      	bics	r1, r2
 80071c8:	3a02      	subs	r2, #2
                      HAL_ADC_STATE_READY);
  }
  else
  {
    /* Update ADC state machine to error */
    SET_BIT(hadc->State, HAL_ADC_STATE_ERROR_CONFIG);
 80071ca:	430a      	orrs	r2, r1
 80071cc:	675a      	str	r2, [r3, #116]	@ 0x74
    
    tmp_hal_status = HAL_ERROR;
  }
  
  /* Process unlocked */
  __HAL_UNLOCK(hadc);
 80071ce:	2200      	movs	r2, #0
 80071d0:	3370      	adds	r3, #112	@ 0x70
 80071d2:	701a      	strb	r2, [r3, #0]
  
  /* Return function status */
  return tmp_hal_status;
 80071d4:	e7bd      	b.n	8007152 <main+0x99e>
    SET_BIT(hadc->State, HAL_ADC_STATE_ERROR_CONFIG);
 80071d6:	2220      	movs	r2, #32
 80071d8:	6f59      	ldr	r1, [r3, #116]	@ 0x74
 80071da:	e7f6      	b.n	80071ca <main+0xa16>
 80071dc:	fffffcff 	.word	0xfffffcff
 80071e0:	200001ac 	.word	0x200001ac
 80071e4:	000003e7 	.word	0x000003e7
 80071e8:	40000400 	.word	0x40000400
 80071ec:	20000180 	.word	0x20000180
 80071f0:	200001f4 	.word	0x200001f4
 80071f4:	200001f8 	.word	0x200001f8
 80071f8:	2000023a 	.word	0x2000023a
 80071fc:	20000232 	.word	0x20000232
 8007200:	20000233 	.word	0x20000233
 8007204:	20000234 	.word	0x20000234
 8007208:	20000235 	.word	0x20000235
 800720c:	20000236 	.word	0x20000236
 8007210:	20000237 	.word	0x20000237
 8007214:	20000238 	.word	0x20000238
 8007218:	20000239 	.word	0x20000239
 800721c:	ffff0088 	.word	0xffff0088
 8007220:	ffff8cff 	.word	0xffff8cff
 8007224:	fffffbff 	.word	0xfffffbff
 8007228:	fffffeff 	.word	0xfffffeff
 800722c:	fffffdff 	.word	0xfffffdff
 8007230:	20000270 	.word	0x20000270
 8007234:	20000200 	.word	0x20000200
 8007238:	fffffefd 	.word	0xfffffefd
 800723c:	20000080 	.word	0x20000080

08007240 <Reset_Handler>:

  .section .text.Reset_Handler
  .weak Reset_Handler
  .type Reset_Handler, %function
Reset_Handler:
  ldr   r0, =_estack
 8007240:	480d      	ldr	r0, [pc, #52]	@ (8007278 <LoopForever+0x2>)
  mov   sp, r0          /* set stack pointer */
 8007242:	4685      	mov	sp, r0
  
/* Call the clock system initialization function.*/
  bl  SystemInit
 8007244:	f7fd ff0c 	bl	8005060 <SystemInit>

/* Copy the data segment initializers from flash to SRAM */
  ldr r0, =_sdata
 8007248:	480c      	ldr	r0, [pc, #48]	@ (800727c <LoopForever+0x6>)
  ldr r1, =_edata
 800724a:	490d      	ldr	r1, [pc, #52]	@ (8007280 <LoopForever+0xa>)
  ldr r2, =_sidata
 800724c:	4a0d      	ldr	r2, [pc, #52]	@ (8007284 <LoopForever+0xe>)
  movs r3, #0
 800724e:	2300      	movs	r3, #0
  b LoopCopyDataInit
 8007250:	e002      	b.n	8007258 <LoopCopyDataInit>

08007252 <CopyDataInit>:

CopyDataInit:
  ldr r4, [r2, r3]
 8007252:	58d4      	ldr	r4, [r2, r3]
  str r4, [r0, r3]
 8007254:	50c4      	str	r4, [r0, r3]
  adds r3, r3, #4
 8007256:	3304      	adds	r3, #4

08007258 <LoopCopyDataInit>:

LoopCopyDataInit:
  adds r4, r0, r3
 8007258:	18c4      	adds	r4, r0, r3
  cmp r4, r1
 800725a:	428c      	cmp	r4, r1
  bcc CopyDataInit
 800725c:	d3f9      	bcc.n	8007252 <CopyDataInit>
  
/* Zero fill the bss segment. */
  ldr r2, =_sbss
 800725e:	4a0a      	ldr	r2, [pc, #40]	@ (8007288 <LoopForever+0x12>)
  ldr r4, =_ebss
 8007260:	4c0a      	ldr	r4, [pc, #40]	@ (800728c <LoopForever+0x16>)
  movs r3, #0
 8007262:	2300      	movs	r3, #0
  b LoopFillZerobss
 8007264:	e001      	b.n	800726a <LoopFillZerobss>

08007266 <FillZerobss>:

FillZerobss:
  str  r3, [r2]
 8007266:	6013      	str	r3, [r2, #0]
  adds r2, r2, #4
 8007268:	3204      	adds	r2, #4

0800726a <LoopFillZerobss>:

LoopFillZerobss:
  cmp r2, r4
 800726a:	42a2      	cmp	r2, r4
  bcc FillZerobss
 800726c:	d3fb      	bcc.n	8007266 <FillZerobss>

/* Call static constructors */
  bl __libc_init_array
 800726e:	f000 f81f 	bl	80072b0 <__libc_init_array>
/* Call the application's entry point.*/
  bl main
 8007272:	f7ff fa9f 	bl	80067b4 <main>

08007276 <LoopForever>:

LoopForever:
    b LoopForever
 8007276:	e7fe      	b.n	8007276 <LoopForever>
  ldr   r0, =_estack
 8007278:	20001000 	.word	0x20001000
  ldr r0, =_sdata
 800727c:	20000000 	.word	0x20000000
  ldr r1, =_edata
 8007280:	20000060 	.word	0x20000060
  ldr r2, =_sidata
 8007284:	080077c4 	.word	0x080077c4
  ldr r2, =_sbss
 8007288:	20000060 	.word	0x20000060
  ldr r4, =_ebss
 800728c:	2000095c 	.word	0x2000095c

08007290 <DMA1_Channel1_IRQHandler>:
 * @retval : None
*/
    .section .text.Default_Handler,"ax",%progbits
Default_Handler:
Infinite_Loop:
  b Infinite_Loop
 8007290:	e7fe      	b.n	8007290 <DMA1_Channel1_IRQHandler>

08007292 <memset>:
 8007292:	0003      	movs	r3, r0
 8007294:	1882      	adds	r2, r0, r2
 8007296:	4293      	cmp	r3, r2
 8007298:	d100      	bne.n	800729c <memset+0xa>
 800729a:	4770      	bx	lr
 800729c:	7019      	strb	r1, [r3, #0]
 800729e:	3301      	adds	r3, #1
 80072a0:	e7f9      	b.n	8007296 <memset+0x4>
	...

080072a4 <__errno>:
 80072a4:	4b01      	ldr	r3, [pc, #4]	@ (80072ac <__errno+0x8>)
 80072a6:	6818      	ldr	r0, [r3, #0]
 80072a8:	4770      	bx	lr
 80072aa:	46c0      	nop			@ (mov r8, r8)
 80072ac:	20000010 	.word	0x20000010

080072b0 <__libc_init_array>:
 80072b0:	b570      	push	{r4, r5, r6, lr}
 80072b2:	2600      	movs	r6, #0
 80072b4:	4c0c      	ldr	r4, [pc, #48]	@ (80072e8 <__libc_init_array+0x38>)
 80072b6:	4d0d      	ldr	r5, [pc, #52]	@ (80072ec <__libc_init_array+0x3c>)
 80072b8:	1b64      	subs	r4, r4, r5
 80072ba:	10a4      	asrs	r4, r4, #2
 80072bc:	42a6      	cmp	r6, r4
 80072be:	d109      	bne.n	80072d4 <__libc_init_array+0x24>
 80072c0:	2600      	movs	r6, #0
 80072c2:	f000 f835 	bl	8007330 <_init>
 80072c6:	4c0a      	ldr	r4, [pc, #40]	@ (80072f0 <__libc_init_array+0x40>)
 80072c8:	4d0a      	ldr	r5, [pc, #40]	@ (80072f4 <__libc_init_array+0x44>)
 80072ca:	1b64      	subs	r4, r4, r5
 80072cc:	10a4      	asrs	r4, r4, #2
 80072ce:	42a6      	cmp	r6, r4
 80072d0:	d105      	bne.n	80072de <__libc_init_array+0x2e>
 80072d2:	bd70      	pop	{r4, r5, r6, pc}
 80072d4:	00b3      	lsls	r3, r6, #2
 80072d6:	58eb      	ldr	r3, [r5, r3]
 80072d8:	4798      	blx	r3
 80072da:	3601      	adds	r6, #1
 80072dc:	e7ee      	b.n	80072bc <__libc_init_array+0xc>
 80072de:	00b3      	lsls	r3, r6, #2
 80072e0:	58eb      	ldr	r3, [r5, r3]
 80072e2:	4798      	blx	r3
 80072e4:	3601      	adds	r6, #1
 80072e6:	e7f2      	b.n	80072ce <__libc_init_array+0x1e>
 80072e8:	080077bc 	.word	0x080077bc
 80072ec:	080077bc 	.word	0x080077bc
 80072f0:	080077c0 	.word	0x080077c0
 80072f4:	080077bc 	.word	0x080077bc

080072f8 <memmove>:
 80072f8:	b510      	push	{r4, lr}
 80072fa:	4288      	cmp	r0, r1
 80072fc:	d902      	bls.n	8007304 <memmove+0xc>
 80072fe:	188b      	adds	r3, r1, r2
 8007300:	4298      	cmp	r0, r3
 8007302:	d308      	bcc.n	8007316 <memmove+0x1e>
 8007304:	2300      	movs	r3, #0
 8007306:	429a      	cmp	r2, r3
 8007308:	d007      	beq.n	800731a <memmove+0x22>
 800730a:	5ccc      	ldrb	r4, [r1, r3]
 800730c:	54c4      	strb	r4, [r0, r3]
 800730e:	3301      	adds	r3, #1
 8007310:	e7f9      	b.n	8007306 <memmove+0xe>
 8007312:	5c8b      	ldrb	r3, [r1, r2]
 8007314:	5483      	strb	r3, [r0, r2]
 8007316:	3a01      	subs	r2, #1
 8007318:	d2fb      	bcs.n	8007312 <memmove+0x1a>
 800731a:	bd10      	pop	{r4, pc}

0800731c <memcpy>:
 800731c:	2300      	movs	r3, #0
 800731e:	b510      	push	{r4, lr}
 8007320:	429a      	cmp	r2, r3
 8007322:	d100      	bne.n	8007326 <memcpy+0xa>
 8007324:	bd10      	pop	{r4, pc}
 8007326:	5ccc      	ldrb	r4, [r1, r3]
 8007328:	54c4      	strb	r4, [r0, r3]
 800732a:	3301      	adds	r3, #1
 800732c:	e7f8      	b.n	8007320 <memcpy+0x4>
	...

08007330 <_init>:
 8007330:	b5f8      	push	{r3, r4, r5, r6, r7, lr}
 8007332:	46c0      	nop			@ (mov r8, r8)
 8007334:	bcf8      	pop	{r3, r4, r5, r6, r7}
 8007336:	bc08      	pop	{r3}
 8007338:	469e      	mov	lr, r3
 800733a:	4770      	bx	lr

0800733c <_fini>:
 800733c:	b5f8      	push	{r3, r4, r5, r6, r7, lr}
 800733e:	46c0      	nop			@ (mov r8, r8)
 8007340:	bcf8      	pop	{r3, r4, r5, r6, r7}
 8007342:	bc08      	pop	{r3}
 8007344:	469e      	mov	lr, r3
 8007346:	4770      	bx	lr
